 DBServer

 Timestamp is 4ce5dd68 (Fri Nov 19 10:14:00 2010)

 Preferred load address is 00400000

 Start         Length     Name                   Class
 0001:00000000 0008e9c4H .text                   CODE
 0001:0008e9d0 00007385H .text$x                 CODE
 0001:00095d60 0000095cH .text$yc                CODE
 0001:000966c0 000007ccH .text$yd                CODE
 0002:00000000 000003a0H .idata$5                DATA
 0002:000003a0 00000004H .CRT$XCA                DATA
 0002:000003a4 0000001cH .CRT$XCC                DATA
 0002:000003c0 000000c0H .CRT$XCU                DATA
 0002:00000480 00000004H .CRT$XCZ                DATA
 0002:00000484 00000004H .CRT$XIA                DATA
 0002:00000488 00000014H .CRT$XIC                DATA
 0002:0000049c 00000004H .CRT$XID                DATA
 0002:000004a0 00000004H .CRT$XIY                DATA
 0002:000004a4 00000004H .CRT$XIZ                DATA
 0002:000004a8 00000004H .CRT$XPA                DATA
 0002:000004ac 00000004H .CRT$XPX                DATA
 0002:000004b0 00000004H .CRT$XPXA               DATA
 0002:000004b4 00000004H .CRT$XPZ                DATA
 0002:000004b8 00000004H .CRT$XTA                DATA
 0002:000004bc 00000004H .CRT$XTZ                DATA
 0002:000004c0 0000cbb0H .rdata                  DATA
 0002:0000d070 00000040H .rdata$debug            DATA
 0002:0000d0b0 000012c8H .rdata$r                DATA
 0002:0000e378 00000004H .rtc$IAA                DATA
 0002:0000e37c 00000004H .rtc$IZZ                DATA
 0002:0000e380 00000004H .rtc$TAA                DATA
 0002:0000e384 00000004H .rtc$TZZ                DATA
 0002:0000e388 000081b4H .xdata$x                DATA
 0002:0001653c 000000c8H .idata$2                DATA
 0002:00016604 00000014H .idata$3                DATA
 0002:00016618 000003a0H .idata$4                DATA
 0002:000169b8 00000d36H .idata$6                DATA
 0002:000176ee 00000000H .edata                  DATA
 0003:00000000 000032cdH .data                   DATA
 0003:000032e0 0002f97cH .bss                    DATA

  Address         Publics by Value              Rva+Base       Lib:Object

 0000:00000000       ___safe_se_handler_table   00000000     <absolute>
 0000:00000000       __except_list              00000000     <absolute>
 0000:00000000       ___safe_se_handler_count   00000000     <absolute>
 0000:00000000       ___ImageBase               00400000     <linker-defined>
 0001:00000000       _WinMain@16                00401000 f   DBServer.obj
 0001:00000020       ??0tagSetup@CGame@@QAE@XZ  00401020 f i Game.obj
 0001:00000090       ?AddToByteArray@tagBuildFileInfo@@QAEXAAV?$vector@EV?$allocator@E@std@@@std@@@Z 00401090 f i Game.obj
 0001:00000160       ?AddToByteArray@tagEntityBuildInfo@@QAEXAAV?$vector@EV?$allocator@E@std@@@std@@@Z 00401160 f i Game.obj
 0001:00000710       ??0_bstr_t@@QAE@PA_W_N@Z   00401710 f i Game.obj
 0001:00000790       ??1_bstr_t@@QAE@XZ         00401790 f i Game.obj
 0001:00000790       ?_Free@_bstr_t@@AAEXXZ     00401790 f i Game.obj
 0001:000007e0       ??B_bstr_t@@QBEPBDXZ       004017e0 f i Game.obj
 0001:00000810       ??0Data_t@_bstr_t@@QAE@PA_W_N@Z 00401810 f i Game.obj
 0001:00000860       ??0_variant_t@@QAE@ABUtagVARIANT@@@Z 00401860 f i Game.obj
 0001:00000890       ??0_variant_t@@QAE@PBD@Z   00401890 f i Game.obj
 0001:000008b0       ??B_variant_t@@QBEHXZ      004018b0 f i Game.obj
 0001:00000950       ??1_variant_t@@QAE@XZ      00401950 f i Game.obj
 0001:00000960       ?WCode@_com_error@@QBEGXZ  00401960 f i Game.obj
 0001:00000980       ?Description@_com_error@@QBE?AV_bstr_t@@XZ 00401980 f i Game.obj
 0001:000009c0       ?Source@_com_error@@QBE?AV_bstr_t@@XZ 004019c0 f i Game.obj
 0001:00000a00       ?ErrorMessage@_com_error@@QBEPBDXZ 00401a00 f i Game.obj
 0001:00000ad0       ?GetChunk@Field20@@QAE?AV_variant_t@@J@Z 00401ad0 f i Game.obj
 0001:00000b30       ?GetItem@Fields15@@QAE?AV?$_com_ptr_t@V?$_com_IIID@UField@@$1?_GUID_00000569_0000_0010_8000_00aa006d2ea4@@3U__s_GUID@@B@@@@ABV_variant_t@@@Z 00401b30 f i Game.obj
 0001:00000bb0       ?GetFields@Recordset15@@QAE?AV?$_com_ptr_t@V?$_com_IIID@UFields@@$1?_GUID_00000564_0000_0010_8000_00aa006d2ea4@@3U__s_GUID@@B@@@@XZ 00401bb0 f i Game.obj
 0001:00000c00       ?GetCollect@Recordset15@@QAE?AV_variant_t@@ABV2@@Z 00401c00 f i Game.obj
 0001:00000c80       ?RefreshInfo@@YAXXZ        00401c80 f   Game.obj
 0001:00000fd0       ?CreateGame@@YAHXZ         00401fd0 f   Game.obj
 0001:00001040       ?DeleteGame@@YAHXZ         00402040 f   Game.obj
 0001:00001070       ?GetGame@@YAPAVCGame@@XZ   00402070 f   Game.obj
 0001:00001080       ??0CGame@@QAE@XZ           00402080 f   Game.obj
 0001:00001210       ??_GCGame@@UAEPAXI@Z       00402210 f i Game.obj
 0001:00001210       ??_ECGame@@UAEPAXI@Z       00402210 f i  CIL library: CIL module
 0001:00001230       ??1?$map@KUtagWorldServer@CGame@@U?$less@K@std@@V?$allocator@U?$pair@$$CBKUtagWorldServer@CGame@@@std@@@4@@std@@QAE@XZ 00402230 f i Game.obj
 0001:00001240       ??1?$map@JUtagWorldInfo@CGame@@U?$less@J@std@@V?$allocator@U?$pair@$$CBJUtagWorldInfo@CGame@@@std@@@4@@std@@QAE@XZ 00402240 f i Game.obj
 0001:00001250       ??1tagSetup@CGame@@QAE@XZ  00402250 f i Game.obj
 0001:00001320       ??1CGame@@UAE@XZ           00402320 f   Game.obj
 0001:00001420       ?GetEntityManager@CGame@@QAEPAVCEntityManager@@XZ 00402420 f   Game.obj
 0001:00001430       ?LoadServerResource@CGame@@QAE_NXZ 00402430 f   Game.obj
 0001:000015a0       ?LoadSetup@CGame@@QAE_NXZ  004025a0 f   Game.obj
 0001:00001dc0       ??_D?$basic_ifstream@DU?$char_traits@D@std@@@std@@QAEXXZ 00402dc0 f i Game.obj
 0001:00001de0       ?Init@CGame@@QAEHXZ        00402de0 f   Game.obj
 0001:00002240       ?Release@CGame@@QAEHXZ     00403240 f   Game.obj
 0001:00002490       ?InitNetServer@CGame@@QAEHXZ 00403490 f   Game.obj
 0001:000025a0       ?StartAccept@CGame@@QAE_NXZ 004035a0 f   Game.obj
 0001:000025f0       ?ProcessMessage@CGame@@QAEHXZ 004035f0 f   Game.obj
 0001:00002650       ?ProcMenus@CGame@@AAE_NXZ  00403650 f   Game.obj
 0001:000027a0       ?LoadMapFileSetup@CGame@@QAE_NXZ 004037a0 f   Game.obj
 0001:00002ae0       ?MainLoop@CGame@@QAEHXZ    00403ae0 f   Game.obj
 0001:00003610       ?LoadWSSetup@CGame@@QAE_NPBD@Z 00404610 f   Game.obj
 0001:000038c0       ??_D?$basic_stringstream@DU?$char_traits@D@std@@V?$allocator@D@2@@std@@QAEXXZ 004048c0 f i Game.obj
 0001:000038e0       ?GetWorldServer@CGame@@QAEPAUtagWorldServer@1@PBDK@Z 004048e0 f   Game.obj
 0001:000039c0       ?OnWorldServerClose@CGame@@QAE_NK@Z 004049c0 f   Game.obj
 0001:00003d00       ?SendAllWS@CGame@@QAEXPAVCMessage@@@Z 00404d00 f   Game.obj
 0001:00003d80       ?SendDBTableInfo@CGame@@QAEXJ@Z 00404d80 f   Game.obj
 0001:00003f40       ?Test3GoodsImageDataBuild@CGame@@QAEXXZ 00404f40 f   Game.obj
 0001:00004830       ?Test3MailGoodsDataBuild@CGame@@QAEXXZ 00405830 f   Game.obj
 0001:00005120       ?GameThreadFunc@@YGIPAX@Z  00406120 f   Game.obj
 0001:00005210       ?substr@?$basic_string@DU?$char_traits@D@std@@V?$allocator@D@2@@std@@QBE?AV12@II@Z 00406210 f i Game.obj
 0001:00005240       ??5?$basic_istream@DU?$char_traits@D@std@@@std@@QAEAAV01@AA_N@Z 00406240 f i Game.obj
 0001:000053a0       ??5?$basic_istream@DU?$char_traits@D@std@@@std@@QAEAAV01@AAJ@Z 004063a0 f i Game.obj
 0001:00005500       ??5?$basic_istream@DU?$char_traits@D@std@@@std@@QAEAAV01@AAK@Z 00406500 f i Game.obj
 0001:00005660       ??1?$vector@EV?$allocator@E@std@@@std@@QAE@XZ 00406660 f i Game.obj
 0001:00005660       ??1?$vector@PAXV?$allocator@PAX@std@@@std@@QAE@XZ 00406660 f i Game.obj
 0001:00005690       ?_Getcat@?$codecvt@DDH@std@@SAIPAPBVfacet@locale@2@@Z 00406690 f i Game.obj
 0001:00005700       ??A?$map@KUtagWorldServer@CGame@@U?$less@K@std@@V?$allocator@U?$pair@$$CBKUtagWorldServer@CGame@@@std@@@4@@std@@QAEAAUtagWorldServer@CGame@@ABK@Z 00406700 f i Game.obj
 0001:00005840       ?find@?$_Tree@V?$_Tmap_traits@KUtagWorldServer@CGame@@U?$less@K@std@@V?$allocator@U?$pair@$$CBKUtagWorldServer@CGame@@@std@@@4@$0A@@std@@@std@@QAE?AViterator@12@ABK@Z 00406840 f i Game.obj
 0001:000058b0       ??1?$list@UtagSysBroadcast@CGame@@V?$allocator@UtagSysBroadcast@CGame@@@std@@@std@@QAE@XZ 004068b0 f i Game.obj
 0001:000058d0       ??1?$vector@UtagPingWorldServerInfo@CGame@@V?$allocator@UtagPingWorldServerInfo@CGame@@@std@@@std@@QAE@XZ 004068d0 f i Game.obj
 0001:00005910       ?erase@?$_Tree@V?$_Tmap_traits@V?$basic_string@DU?$char_traits@D@std@@V?$allocator@D@2@@std@@V?$map@VCGUID@@PAVCEntityGroup@@U?$less@VCGUID@@@std@@V?$allocator@U?$pair@$$CBVCGUID@@PAVCEntityGroup@@@std@@@4@@2@U?$less@V?$basic_string@DU?$char_traits@D@std@@V?$allocator@D@2@@std@@@2@V?$allocator@U?$pair@$$CBV?$basic_string@DU?$char_traits@D@std@@V?$allocator@D@2@@std@@V?$map@VCGUID@@PAVCEntityGroup@@U?$less@VCGUID@@@std@@V?$allocator@U?$pair@$$CBVCGUID@@PAVCEntityGroup@@@std@@@4@@2@@std@@@2@$0A@@std@@@std@@QAE?AViterator@12@V312@@Z 00406910 f i Game.obj
 0001:00005c00       ?find@?$_Tree@V?$_Tmap_traits@V?$basic_string@DU?$char_traits@D@std@@V?$allocator@D@2@@std@@V?$map@VCGUID@@PAVCEntityGroup@@U?$less@VCGUID@@@std@@V?$allocator@U?$pair@$$CBVCGUID@@PAVCEntityGroup@@@std@@@4@@2@U?$less@V?$basic_string@DU?$char_traits@D@std@@V?$allocator@D@2@@std@@@2@V?$allocator@U?$pair@$$CBV?$basic_string@DU?$char_traits@D@std@@V?$allocator@D@2@@std@@V?$map@VCGUID@@PAVCEntityGroup@@U?$less@VCGUID@@@std@@V?$allocator@U?$pair@$$CBVCGUID@@PAVCEntityGroup@@@std@@@4@@2@@std@@@2@$0A@@std@@@std@@QAE?AViterator@12@ABV?$basic_string@DU?$char_traits@D@std@@V?$allocator@D@2@@2@@Z 00406c00 f i Game.obj
 0001:00005c80       ?erase@?$_Tree@V?$_Tmap_traits@V?$basic_string@DU?$char_traits@D@std@@V?$allocator@D@2@@std@@PAVAccount@@U?$less@V?$basic_string@DU?$char_traits@D@std@@V?$allocator@D@2@@std@@@2@V?$allocator@U?$pair@$$CBV?$basic_string@DU?$char_traits@D@std@@V?$allocator@D@2@@std@@PAVAccount@@@std@@@2@$0A@@std@@@std@@QAE?AViterator@12@V312@@Z 00406c80 f i Game.obj
 0001:00005f80       ??1?$_com_ptr_t@V?$_com_IIID@UField@@$1?_GUID_00000569_0000_0010_8000_00aa006d2ea4@@3U__s_GUID@@B@@@@QAE@XZ 00406f80 f i Game.obj
 0001:00005f80       ??1?$_com_ptr_t@V?$_com_IIID@U_Recordset@@$1?_GUID_00000556_0000_0010_8000_00aa006d2ea4@@3U__s_GUID@@B@@@@QAE@XZ 00406f80 f i Game.obj
 0001:00005f80       ??1?$_com_ptr_t@V?$_com_IIID@UFields@@$1?_GUID_00000564_0000_0010_8000_00aa006d2ea4@@3U__s_GUID@@B@@@@QAE@XZ 00406f80 f i Game.obj
 0001:00005f80       ??1?$_com_ptr_t@V?$_com_IIID@U_Connection@@$1?_GUID_00000550_0000_0010_8000_00aa006d2ea4@@3U__s_GUID@@B@@@@QAE@XZ 00406f80 f i Game.obj
 0001:00005f90       ??C?$_com_ptr_t@V?$_com_IIID@U_Connection@@$1?_GUID_00000550_0000_0010_8000_00aa006d2ea4@@3U__s_GUID@@B@@@@QBEPAU_Connection@@XZ 00406f90 f i serverpublic:MyAdoBase.obj
 0001:00005f90       ??C?$_com_ptr_t@V?$_com_IIID@U_Recordset@@$1?_GUID_00000556_0000_0010_8000_00aa006d2ea4@@3U__s_GUID@@B@@@@QBEPAU_Recordset@@XZ 00406f90 f i Game.obj
 0001:00005fb0       ??0?$basic_ifstream@DU?$char_traits@D@std@@@std@@QAE@XZ 00406fb0 f i Game.obj
 0001:000060e0       ??1?$basic_ifstream@DU?$char_traits@D@std@@@std@@UAE@XZ 004070e0 f i Game.obj
 0001:00006150       ?close@?$basic_ifstream@DU?$char_traits@D@std@@@std@@QAEXXZ 00407150 f i Game.obj
 0001:00006180       ?Inst@?$CSingleton@VCMemClient@@@@SAAAVCMemClient@@XZ 00407180 f i Game.obj
 0001:000061e0       ??9const_iterator@?$_Tree@V?$_Tmap_traits@VCGUID@@PAVCBaseEntity@@U?$less@VCGUID@@@std@@V?$allocator@U?$pair@$$CBVCGUID@@PAVCBaseEntity@@@std@@@4@$0A@@std@@@std@@QBE_NABV012@@Z 004071e0 f i Game.obj
 0001:00006210       ??Citerator@?$_Tree@V?$_Tmap_traits@VCGUID@@PAVCBaseEntity@@U?$less@VCGUID@@@std@@V?$allocator@U?$pair@$$CBVCGUID@@PAVCBaseEntity@@@std@@@4@$0A@@std@@@std@@QBEPAU?$pair@$$CBVCGUID@@PAVCBaseEntity@@@2@XZ 00407210 f i Game.obj
 0001:00006210       ??Citerator@?$_Tree@V?$_Tmap_traits@VCGUID@@PAVCEntityGroup@@U?$less@VCGUID@@@std@@V?$allocator@U?$pair@$$CBVCGUID@@PAVCEntityGroup@@@std@@@4@$0A@@std@@@std@@QBEPAU?$pair@$$CBVCGUID@@PAVCEntityGroup@@@2@XZ 00407210 f i Game.obj
 0001:00006210       ??Citerator@?$_Tree@V?$_Tmap_traits@V?$basic_string@DU?$char_traits@D@std@@V?$allocator@D@2@@std@@PAVAccount@@U?$less@V?$basic_string@DU?$char_traits@D@std@@V?$allocator@D@2@@std@@@2@V?$allocator@U?$pair@$$CBV?$basic_string@DU?$char_traits@D@std@@V?$allocator@D@2@@std@@PAVAccount@@@std@@@2@$0A@@std@@@std@@QBEPAU?$pair@$$CBV?$basic_string@DU?$char_traits@D@std@@V?$allocator@D@2@@std@@PAVAccount@@@2@XZ 00407210 f i Game.obj
 0001:00006240       ??0?$basic_stringstream@DU?$char_traits@D@std@@V?$allocator@D@2@@std@@QAE@H@Z 00407240 f i Game.obj
 0001:000062e0       ??1?$basic_stringstream@DU?$char_traits@D@std@@V?$allocator@D@2@@std@@UAE@XZ 004072e0 f i Game.obj
 0001:00006380       ??1?$basic_iostream@DU?$char_traits@D@std@@@std@@UAE@XZ 00407380 f i Game.obj
 0001:000063c0       ??1?$pair@$$CBKUtagWorldServer@CGame@@@std@@QAE@XZ 004073c0 f i Game.obj
 0001:000063f0       ??_G?$basic_ifstream@DU?$char_traits@D@std@@@std@@UAEPAXI@Z 004073f0 f i Game.obj
 0001:000063f0       ??_E?$basic_ifstream@DU?$char_traits@D@std@@@std@@UAEPAXI@Z 004073f0 f i  CIL library: CIL module
 0001:00006430       ??_E?$basic_stringstream@DU?$char_traits@D@std@@V?$allocator@D@2@@std@@UAEPAXI@Z 00407430 f i  CIL library: CIL module
 0001:00006430       ??_G?$basic_stringstream@DU?$char_traits@D@std@@V?$allocator@D@2@@std@@UAEPAXI@Z 00407430 f i Game.obj
 0001:00006470       ??_E?$basic_iostream@DU?$char_traits@D@std@@@std@@UAEPAXI@Z 00407470 f i  CIL library: CIL module
 0001:00006470       ??_G?$basic_iostream@DU?$char_traits@D@std@@@std@@UAEPAXI@Z 00407470 f i Game.obj
 0001:000064e0       ??R?$less@V?$basic_string@DU?$char_traits@D@std@@V?$allocator@D@2@@std@@@std@@QBE_NABV?$basic_string@DU?$char_traits@D@std@@V?$allocator@D@2@@1@0@Z 004074e0 f i Game.obj
 0001:00006520       ??0?$codecvt@DDH@std@@QAE@I@Z 00407520 f i Game.obj
 0001:000065c0       ?insert@?$_Tree@V?$_Tmap_traits@KUtagWorldServer@CGame@@U?$less@K@std@@V?$allocator@U?$pair@$$CBKUtagWorldServer@CGame@@@std@@@4@$0A@@std@@@std@@QAE?AViterator@12@V312@ABU?$pair@$$CBKUtagWorldServer@CGame@@@2@@Z 004075c0 f i Game.obj
 0001:00006780       ?_Tidy@?$_Tree@V?$_Tmap_traits@KUtagWorldServer@CGame@@U?$less@K@std@@V?$allocator@U?$pair@$$CBKUtagWorldServer@CGame@@@std@@@4@$0A@@std@@@std@@IAEXXZ 00407780 f i Game.obj
 0001:000067c0       ?_Tidy@?$_Tree@V?$_Tmap_traits@JUtagWorldInfo@CGame@@U?$less@J@std@@V?$allocator@U?$pair@$$CBJUtagWorldInfo@CGame@@@std@@@4@$0A@@std@@@std@@IAEXXZ 004077c0 f i Game.obj
 0001:00006800       ?_Buynode@?$list@UtagSysBroadcast@CGame@@V?$allocator@UtagSysBroadcast@CGame@@@std@@@std@@IAEPAU_Node@?$_List_nod@UtagSysBroadcast@CGame@@V?$allocator@UtagSysBroadcast@CGame@@@std@@@2@XZ 00407800 f i Game.obj
 0001:00006820       ?_Tidy@?$vector@UtagPingWorldServerInfo@CGame@@V?$allocator@UtagPingWorldServerInfo@CGame@@@std@@@std@@IAEXXZ 00407820 f i Game.obj
 0001:00006860       ?_Lrotate@?$_Tree@V?$_Tmap_traits@V?$basic_string@DU?$char_traits@D@std@@V?$allocator@D@2@@std@@V?$map@VCGUID@@PAVCEntityGroup@@U?$less@VCGUID@@@std@@V?$allocator@U?$pair@$$CBVCGUID@@PAVCEntityGroup@@@std@@@4@@2@U?$less@V?$basic_string@DU?$char_traits@D@std@@V?$allocator@D@2@@std@@@2@V?$allocator@U?$pair@$$CBV?$basic_string@DU?$char_traits@D@std@@V?$allocator@D@2@@std@@V?$map@VCGUID@@PAVCEntityGroup@@U?$less@VCGUID@@@std@@V?$allocator@U?$pair@$$CBVCGUID@@PAVCEntityGroup@@@std@@@4@@2@@std@@@2@$0A@@std@@@std@@IAEXPAU_Node@?$_Tree_nod@V?$_Tmap_traits@V?$basic_string@DU?$char_traits@D@std@@V?$allocator@D@2@@std@@V?$map@VCGUID@@PAVCEntityGroup@@U?$less@VCGUID@@@std@@V?$allocator@U?$pair@$$CBVCGUID@@PAVCEntityGroup@@@std@@@4@@2@U?$less@V?$basic_string@DU?$char_traits@D@std@@V?$allocator@D@2@@std@@@2@V?$allocator@U?$pair@$$CBV?$basic_string@DU?$char_traits@D@std@@V?$allocator@D@2@@std@@V?$map@VCGUID@@PAVCEntityGroup@@U?$less@VCGUID@@@std@@V?$allocator@U?$pair@$$CBVCGUID@@PAVCEntityGroup@@@std@@@4@@2@@std@@@2@$0A@@std@@@2@@Z 00407860 f i Game.obj
 0001:000068b0       ?_Max@?$_Tree@V?$_Tmap_traits@V?$basic_string@DU?$char_traits@D@std@@V?$allocator@D@2@@std@@V?$map@VCGUID@@PAVCEntityGroup@@U?$less@VCGUID@@@std@@V?$allocator@U?$pair@$$CBVCGUID@@PAVCEntityGroup@@@std@@@4@@2@U?$less@V?$basic_string@DU?$char_traits@D@std@@V?$allocator@D@2@@std@@@2@V?$allocator@U?$pair@$$CBV?$basic_string@DU?$char_traits@D@std@@V?$allocator@D@2@@std@@V?$map@VCGUID@@PAVCEntityGroup@@U?$less@VCGUID@@@std@@V?$allocator@U?$pair@$$CBVCGUID@@PAVCEntityGroup@@@std@@@4@@2@@std@@@2@$0A@@std@@@std@@KAPAU_Node@?$_Tree_nod@V?$_Tmap_traits@V?$basic_string@DU?$char_traits@D@std@@V?$allocator@D@2@@std@@V?$map@VCGUID@@PAVCEntityGroup@@U?$less@VCGUID@@@std@@V?$allocator@U?$pair@$$CBVCGUID@@PAVCEntityGroup@@@std@@@4@@2@U?$less@V?$basic_string@DU?$char_traits@D@std@@V?$allocator@D@2@@std@@@2@V?$allocator@U?$pair@$$CBV?$basic_string@DU?$char_traits@D@std@@V?$allocator@D@2@@std@@V?$map@VCGUID@@PAVCEntityGroup@@U?$less@VCGUID@@@std@@V?$allocator@U?$pair@$$CBVCGUID@@PAVCEntityGroup@@@std@@@4@@2@@std@@@2@$0A@@std@@@2@PAU342@@Z 004078b0 f i Game.obj
 0001:000068d0       ?_Min@?$_Tree@V?$_Tmap_traits@V?$basic_string@DU?$char_traits@D@std@@V?$allocator@D@2@@std@@V?$map@VCGUID@@PAVCEntityGroup@@U?$less@VCGUID@@@std@@V?$allocator@U?$pair@$$CBVCGUID@@PAVCEntityGroup@@@std@@@4@@2@U?$less@V?$basic_string@DU?$char_traits@D@std@@V?$allocator@D@2@@std@@@2@V?$allocator@U?$pair@$$CBV?$basic_string@DU?$char_traits@D@std@@V?$allocator@D@2@@std@@V?$map@VCGUID@@PAVCEntityGroup@@U?$less@VCGUID@@@std@@V?$allocator@U?$pair@$$CBVCGUID@@PAVCEntityGroup@@@std@@@4@@2@@std@@@2@$0A@@std@@@std@@KAPAU_Node@?$_Tree_nod@V?$_Tmap_traits@V?$basic_string@DU?$char_traits@D@std@@V?$allocator@D@2@@std@@V?$map@VCGUID@@PAVCEntityGroup@@U?$less@VCGUID@@@std@@V?$allocator@U?$pair@$$CBVCGUID@@PAVCEntityGroup@@@std@@@4@@2@U?$less@V?$basic_string@DU?$char_traits@D@std@@V?$allocator@D@2@@std@@@2@V?$allocator@U?$pair@$$CBV?$basic_string@DU?$char_traits@D@std@@V?$allocator@D@2@@std@@V?$map@VCGUID@@PAVCEntityGroup@@U?$less@VCGUID@@@std@@V?$allocator@U?$pair@$$CBVCGUID@@PAVCEntityGroup@@@std@@@4@@2@@std@@@2@$0A@@std@@@2@PAU342@@Z 004078d0 f i Game.obj
 0001:000068f0       ?_Rrotate@?$_Tree@V?$_Tmap_traits@V?$basic_string@DU?$char_traits@D@std@@V?$allocator@D@2@@std@@V?$map@VCGUID@@PAVCEntityGroup@@U?$less@VCGUID@@@std@@V?$allocator@U?$pair@$$CBVCGUID@@PAVCEntityGroup@@@std@@@4@@2@U?$less@V?$basic_string@DU?$char_traits@D@std@@V?$allocator@D@2@@std@@@2@V?$allocator@U?$pair@$$CBV?$basic_string@DU?$char_traits@D@std@@V?$allocator@D@2@@std@@V?$map@VCGUID@@PAVCEntityGroup@@U?$less@VCGUID@@@std@@V?$allocator@U?$pair@$$CBVCGUID@@PAVCEntityGroup@@@std@@@4@@2@@std@@@2@$0A@@std@@@std@@IAEXPAU_Node@?$_Tree_nod@V?$_Tmap_traits@V?$basic_string@DU?$char_traits@D@std@@V?$allocator@D@2@@std@@V?$map@VCGUID@@PAVCEntityGroup@@U?$less@VCGUID@@@std@@V?$allocator@U?$pair@$$CBVCGUID@@PAVCEntityGroup@@@std@@@4@@2@U?$less@V?$basic_string@DU?$char_traits@D@std@@V?$allocator@D@2@@std@@@2@V?$allocator@U?$pair@$$CBV?$basic_string@DU?$char_traits@D@std@@V?$allocator@D@2@@std@@V?$map@VCGUID@@PAVCEntityGroup@@U?$less@VCGUID@@@std@@V?$allocator@U?$pair@$$CBVCGUID@@PAVCEntityGroup@@@std@@@4@@2@@std@@@2@$0A@@std@@@2@@Z 004078f0 f i Game.obj
 0001:00006950       ?_Lrotate@?$_Tree@V?$_Tmap_traits@V?$basic_string@DU?$char_traits@D@std@@V?$allocator@D@2@@std@@PAVAccount@@U?$less@V?$basic_string@DU?$char_traits@D@std@@V?$allocator@D@2@@std@@@2@V?$allocator@U?$pair@$$CBV?$basic_string@DU?$char_traits@D@std@@V?$allocator@D@2@@std@@PAVAccount@@@std@@@2@$0A@@std@@@std@@IAEXPAU_Node@?$_Tree_nod@V?$_Tmap_traits@V?$basic_string@DU?$char_traits@D@std@@V?$allocator@D@2@@std@@PAVAccount@@U?$less@V?$basic_string@DU?$char_traits@D@std@@V?$allocator@D@2@@std@@@2@V?$allocator@U?$pair@$$CBV?$basic_string@DU?$char_traits@D@std@@V?$allocator@D@2@@std@@PAVAccount@@@std@@@2@$0A@@std@@@2@@Z 00407950 f i Game.obj
 0001:000069a0       ?_Max@?$_Tree@V?$_Tmap_traits@V?$basic_string@DU?$char_traits@D@std@@V?$allocator@D@2@@std@@PAVAccount@@U?$less@V?$basic_string@DU?$char_traits@D@std@@V?$allocator@D@2@@std@@@2@V?$allocator@U?$pair@$$CBV?$basic_string@DU?$char_traits@D@std@@V?$allocator@D@2@@std@@PAVAccount@@@std@@@2@$0A@@std@@@std@@KAPAU_Node@?$_Tree_nod@V?$_Tmap_traits@V?$basic_string@DU?$char_traits@D@std@@V?$allocator@D@2@@std@@PAVAccount@@U?$less@V?$basic_string@DU?$char_traits@D@std@@V?$allocator@D@2@@std@@@2@V?$allocator@U?$pair@$$CBV?$basic_string@DU?$char_traits@D@std@@V?$allocator@D@2@@std@@PAVAccount@@@std@@@2@$0A@@std@@@2@PAU342@@Z 004079a0 f i Game.obj
 0001:000069c0       ?_Rrotate@?$_Tree@V?$_Tmap_traits@V?$basic_string@DU?$char_traits@D@std@@V?$allocator@D@2@@std@@PAVAccount@@U?$less@V?$basic_string@DU?$char_traits@D@std@@V?$allocator@D@2@@std@@@2@V?$allocator@U?$pair@$$CBV?$basic_string@DU?$char_traits@D@std@@V?$allocator@D@2@@std@@PAVAccount@@@std@@@2@$0A@@std@@@std@@IAEXPAU_Node@?$_Tree_nod@V?$_Tmap_traits@V?$basic_string@DU?$char_traits@D@std@@V?$allocator@D@2@@std@@PAVAccount@@U?$less@V?$basic_string@DU?$char_traits@D@std@@V?$allocator@D@2@@std@@@2@V?$allocator@U?$pair@$$CBV?$basic_string@DU?$char_traits@D@std@@V?$allocator@D@2@@std@@PAVAccount@@@std@@@2@$0A@@std@@@2@@Z 004079c0 f i Game.obj
 0001:00006a20       ??8const_iterator@?$_Tree@V?$_Tmap_traits@V?$basic_string@DU?$char_traits@D@std@@V?$allocator@D@2@@std@@UtagEntityAttrInfo@@U?$less@V?$basic_string@DU?$char_traits@D@std@@V?$allocator@D@2@@std@@@2@V?$allocator@U?$pair@$$CBV?$basic_string@DU?$char_traits@D@std@@V?$allocator@D@2@@std@@UtagEntityAttrInfo@@@std@@@2@$0A@@std@@@std@@QBE_NABV012@@Z 00407a20 f i Game.obj
 0001:00006a20       ??8const_iterator@?$_Tree@V?$_Tmap_traits@V?$basic_string@DU?$char_traits@D@std@@V?$allocator@D@2@@std@@PAUtagBuildFileInfo@@U?$less@V?$basic_string@DU?$char_traits@D@std@@V?$allocator@D@2@@std@@@2@V?$allocator@U?$pair@$$CBV?$basic_string@DU?$char_traits@D@std@@V?$allocator@D@2@@std@@PAUtagBuildFileInfo@@@std@@@2@$0A@@std@@@std@@QBE_NABV012@@Z 00407a20 f i Game.obj
 0001:00006a20       ??8const_iterator@?$_Tree@V?$_Tmap_traits@VCGUID@@PAVCEntityGroup@@U?$less@VCGUID@@@std@@V?$allocator@U?$pair@$$CBVCGUID@@PAVCEntityGroup@@@std@@@4@$0A@@std@@@std@@QBE_NABV012@@Z 00407a20 f i Game.obj
 0001:00006a20       ??8const_iterator@?$_Tree@V?$_Tmap_traits@VCGUID@@PAVCBaseEntity@@U?$less@VCGUID@@@std@@V?$allocator@U?$pair@$$CBVCGUID@@PAVCBaseEntity@@@std@@@4@$0A@@std@@@std@@QBE_NABV012@@Z 00407a20 f i Game.obj
 0001:00006a20       ??8const_iterator@?$_Tree@V?$_Tmap_traits@V?$basic_string@DU?$char_traits@D@std@@V?$allocator@D@2@@std@@PAVAccount@@U?$less@V?$basic_string@DU?$char_traits@D@std@@V?$allocator@D@2@@std@@@2@V?$allocator@U?$pair@$$CBV?$basic_string@DU?$char_traits@D@std@@V?$allocator@D@2@@std@@PAVAccount@@@std@@@2@$0A@@std@@@std@@QBE_NABV012@@Z 00407a20 f i Game.obj
 0001:00006a20       ??8const_iterator@?$_Tree@V?$_Tmap_traits@V?$basic_string@DU?$char_traits@D@std@@V?$allocator@D@2@@std@@PAUtagEntityBuildInfo@@U?$less@V?$basic_string@DU?$char_traits@D@std@@V?$allocator@D@2@@std@@@2@V?$allocator@U?$pair@$$CBV?$basic_string@DU?$char_traits@D@std@@V?$allocator@D@2@@std@@PAUtagEntityBuildInfo@@@std@@@2@$0A@@std@@@std@@QBE_NABV012@@Z 00407a20 f i Game.obj
 0001:00006a20       ??8const_iterator@?$_Tree@V?$_Tmap_traits@V?$basic_string@DU?$char_traits@D@std@@V?$allocator@D@2@@std@@V?$map@VCGUID@@PAVCEntityGroup@@U?$less@VCGUID@@@std@@V?$allocator@U?$pair@$$CBVCGUID@@PAVCEntityGroup@@@std@@@4@@2@U?$less@V?$basic_string@DU?$char_traits@D@std@@V?$allocator@D@2@@std@@@2@V?$allocator@U?$pair@$$CBV?$basic_string@DU?$char_traits@D@std@@V?$allocator@D@2@@std@@V?$map@VCGUID@@PAVCEntityGroup@@U?$less@VCGUID@@@std@@V?$allocator@U?$pair@$$CBVCGUID@@PAVCEntityGroup@@@std@@@4@@2@@std@@@2@$0A@@std@@@std@@QBE_NABV012@@Z 00407a20 f i Game.obj
 0001:00006a20       ??8const_iterator@?$_Tree@V?$_Tmap_traits@JPAVCEntityProperty@@U?$less@J@std@@V?$allocator@U?$pair@$$CBJPAVCEntityProperty@@@std@@@3@$0A@@std@@@std@@QBE_NABV012@@Z 00407a20 f i serverpublic:EntityProperty.obj
 0001:00006a50       ??0?$basic_iostream@DU?$char_traits@D@std@@@std@@QAE@PAV?$basic_streambuf@DU?$char_traits@D@std@@@1@@Z 00407a50 f i Game.obj
 0001:00006b30       ?do_get@?$num_get@DV?$istreambuf_iterator@DU?$char_traits@D@std@@@std@@@std@@MBE?AV?$istreambuf_iterator@DU?$char_traits@D@std@@@2@V32@0AAVios_base@2@AAHAA_N@Z 00407b30 f i Game.obj
 0001:00006da0       ?do_get@?$num_get@DV?$istreambuf_iterator@DU?$char_traits@D@std@@@std@@@std@@MBE?AV?$istreambuf_iterator@DU?$char_traits@D@std@@@2@V32@0AAVios_base@2@AAHAAG@Z 00407da0 f i Game.obj
 0001:00006f20       ?do_get@?$num_get@DV?$istreambuf_iterator@DU?$char_traits@D@std@@@std@@@std@@MBE?AV?$istreambuf_iterator@DU?$char_traits@D@std@@@2@V32@0AAVios_base@2@AAHAAI@Z 00407f20 f i Game.obj
 0001:000070a0       ?do_get@?$num_get@DV?$istreambuf_iterator@DU?$char_traits@D@std@@@std@@@std@@MBE?AV?$istreambuf_iterator@DU?$char_traits@D@std@@@2@V32@0AAVios_base@2@AAHAAJ@Z 004080a0 f i Game.obj
 0001:00007210       ?do_get@?$num_get@DV?$istreambuf_iterator@DU?$char_traits@D@std@@@std@@@std@@MBE?AV?$istreambuf_iterator@DU?$char_traits@D@std@@@2@V32@0AAVios_base@2@AAHAAK@Z 00408210 f i Game.obj
 0001:00007380       ?do_get@?$num_get@DV?$istreambuf_iterator@DU?$char_traits@D@std@@@std@@@std@@MBE?AV?$istreambuf_iterator@DU?$char_traits@D@std@@@2@V32@0AAVios_base@2@AAHAA_J@Z 00408380 f i Game.obj
 0001:000074d0       ?do_get@?$num_get@DV?$istreambuf_iterator@DU?$char_traits@D@std@@@std@@@std@@MBE?AV?$istreambuf_iterator@DU?$char_traits@D@std@@@2@V32@0AAVios_base@2@AAHAA_K@Z 004084d0 f i Game.obj
 0001:00007620       ?do_get@?$num_get@DV?$istreambuf_iterator@DU?$char_traits@D@std@@@std@@@std@@MBE?AV?$istreambuf_iterator@DU?$char_traits@D@std@@@2@V32@0AAVios_base@2@AAHAAM@Z 00408620 f i Game.obj
 0001:000077a0       ?do_get@?$num_get@DV?$istreambuf_iterator@DU?$char_traits@D@std@@@std@@@std@@MBE?AV?$istreambuf_iterator@DU?$char_traits@D@std@@@2@V32@0AAVios_base@2@AAHAAN@Z 004087a0 f i Game.obj
 0001:00007900       ?do_get@?$num_get@DV?$istreambuf_iterator@DU?$char_traits@D@std@@@std@@@std@@MBE?AV?$istreambuf_iterator@DU?$char_traits@D@std@@@2@V32@0AAVios_base@2@AAHAAO@Z 00408900 f i Game.obj
 0001:00007a60       ?do_get@?$num_get@DV?$istreambuf_iterator@DU?$char_traits@D@std@@@std@@@std@@MBE?AV?$istreambuf_iterator@DU?$char_traits@D@std@@@2@V32@0AAVios_base@2@AAHAAPAX@Z 00408a60 f i Game.obj
 0001:00007bd0       ?allocate@?$allocator@D@std@@QAEPADI@Z 00408bd0 f i Game.obj
 0001:00007bd0       ?allocate@?$allocator@E@std@@QAEPAEI@Z 00408bd0 f i Game.obj
 0001:00007c30       ?insert@?$_Tree@V?$_Tmap_traits@KUtagWorldServer@CGame@@U?$less@K@std@@V?$allocator@U?$pair@$$CBKUtagWorldServer@CGame@@@std@@@4@$0A@@std@@@std@@QAE?AU?$pair@Viterator@?$_Tree@V?$_Tmap_traits@KUtagWorldServer@CGame@@U?$less@K@std@@V?$allocator@U?$pair@$$CBKUtagWorldServer@CGame@@@std@@@4@$0A@@std@@@std@@_N@2@ABU?$pair@$$CBKUtagWorldServer@CGame@@@2@@Z 00408c30 f i Game.obj
 0001:00007d10       ?erase@?$_Tree@V?$_Tmap_traits@KUtagWorldServer@CGame@@U?$less@K@std@@V?$allocator@U?$pair@$$CBKUtagWorldServer@CGame@@@std@@@4@$0A@@std@@@std@@QAE?AViterator@12@V312@0@Z 00408d10 f i Game.obj
 0001:00007de0       ?_Insert@?$_Tree@V?$_Tmap_traits@KUtagWorldServer@CGame@@U?$less@K@std@@V?$allocator@U?$pair@$$CBKUtagWorldServer@CGame@@@std@@@4@$0A@@std@@@std@@IAE?AViterator@12@_NPAU_Node@?$_Tree_nod@V?$_Tmap_traits@KUtagWorldServer@CGame@@U?$less@K@std@@V?$allocator@U?$pair@$$CBKUtagWorldServer@CGame@@@std@@@4@$0A@@std@@@2@ABU?$pair@$$CBKUtagWorldServer@CGame@@@2@@Z 00408de0 f i Game.obj
 0001:00008020       ?erase@?$_Tree@V?$_Tmap_traits@JUtagWorldInfo@CGame@@U?$less@J@std@@V?$allocator@U?$pair@$$CBJUtagWorldInfo@CGame@@@std@@@4@$0A@@std@@@std@@QAE?AViterator@12@V312@0@Z 00409020 f i Game.obj
 0001:000080f0       ?clear@?$list@UtagSysBroadcast@CGame@@V?$allocator@UtagSysBroadcast@CGame@@@std@@@std@@QAEXXZ 004090f0 f i Game.obj
 0001:00008150       ?_Inc@const_iterator@?$_Tree@V?$_Tmap_traits@KUtagWorldServer@CGame@@U?$less@K@std@@V?$allocator@U?$pair@$$CBKUtagWorldServer@CGame@@@std@@@4@$0A@@std@@@std@@QAEXXZ 00409150 f i Game.obj
 0001:000081c0       ?_Lbound@?$_Tree@V?$_Tmap_traits@V?$basic_string@DU?$char_traits@D@std@@V?$allocator@D@2@@std@@V?$map@VCGUID@@PAVCEntityGroup@@U?$less@VCGUID@@@std@@V?$allocator@U?$pair@$$CBVCGUID@@PAVCEntityGroup@@@std@@@4@@2@U?$less@V?$basic_string@DU?$char_traits@D@std@@V?$allocator@D@2@@std@@@2@V?$allocator@U?$pair@$$CBV?$basic_string@DU?$char_traits@D@std@@V?$allocator@D@2@@std@@V?$map@VCGUID@@PAVCEntityGroup@@U?$less@VCGUID@@@std@@V?$allocator@U?$pair@$$CBVCGUID@@PAVCEntityGroup@@@std@@@4@@2@@std@@@2@$0A@@std@@@std@@IBEPAU_Node@?$_Tree_nod@V?$_Tmap_traits@V?$basic_string@DU?$char_traits@D@std@@V?$allocator@D@2@@std@@V?$map@VCGUID@@PAVCEntityGroup@@U?$less@VCGUID@@@std@@V?$allocator@U?$pair@$$CBVCGUID@@PAVCEntityGroup@@@std@@@4@@2@U?$less@V?$basic_string@DU?$char_traits@D@std@@V?$allocator@D@2@@std@@@2@V?$allocator@U?$pair@$$CBV?$basic_string@DU?$char_traits@D@std@@V?$allocator@D@2@@std@@V?$map@VCGUID@@PAVCEntityGroup@@U?$less@VCGUID@@@std@@V?$allocator@U?$pair@$$CBVCGUID@@PAVCEntityGroup@@@std@@@4@@2@@std@@@2@$0A@@std@@@2@ABV?$basic_string@DU?$char_traits@D@std@@V?$allocator@D@2@@2@@Z 004091c0 f i Game.obj
 0001:00008250       ?_Inc@const_iterator@?$_Tree@V?$_Tmap_traits@V?$basic_string@DU?$char_traits@D@std@@V?$allocator@D@2@@std@@PAUtagEntityBuildInfo@@U?$less@V?$basic_string@DU?$char_traits@D@std@@V?$allocator@D@2@@std@@@2@V?$allocator@U?$pair@$$CBV?$basic_string@DU?$char_traits@D@std@@V?$allocator@D@2@@std@@PAUtagEntityBuildInfo@@@std@@@2@$0A@@std@@@std@@QAEXXZ 00409250 f i Game.obj
 0001:00008250       ?_Inc@const_iterator@?$_Tree@V?$_Tmap_traits@V?$basic_string@DU?$char_traits@D@std@@V?$allocator@D@2@@std@@PAUtagBuildFileInfo@@U?$less@V?$basic_string@DU?$char_traits@D@std@@V?$allocator@D@2@@std@@@2@V?$allocator@U?$pair@$$CBV?$basic_string@DU?$char_traits@D@std@@V?$allocator@D@2@@std@@PAUtagBuildFileInfo@@@std@@@2@$0A@@std@@@std@@QAEXXZ 00409250 f i Game.obj
 0001:00008250       ?_Inc@const_iterator@?$_Tree@V?$_Tmap_traits@V?$basic_string@DU?$char_traits@D@std@@V?$allocator@D@2@@std@@PAVAccount@@U?$less@V?$basic_string@DU?$char_traits@D@std@@V?$allocator@D@2@@std@@@2@V?$allocator@U?$pair@$$CBV?$basic_string@DU?$char_traits@D@std@@V?$allocator@D@2@@std@@PAVAccount@@@std@@@2@$0A@@std@@@std@@QAEXXZ 00409250 f i Game.obj
 0001:000082c0       ?_Getifld@?$num_get@DV?$istreambuf_iterator@DU?$char_traits@D@std@@@std@@@std@@ABAHPADAAV?$istreambuf_iterator@DU?$char_traits@D@std@@@2@1HABVlocale@2@@Z 004092c0 f i Game.obj
 0001:00008710       ?_Getffld@?$num_get@DV?$istreambuf_iterator@DU?$char_traits@D@std@@@std@@@std@@ABAHPADAAV?$istreambuf_iterator@DU?$char_traits@D@std@@@2@1ABVlocale@2@@Z 00409710 f i Game.obj
 0001:00009330       ?falsename@?$numpunct@D@std@@QBE?AV?$basic_string@DU?$char_traits@D@std@@V?$allocator@D@2@@2@XZ 0040a330 f i Game.obj
 0001:00009350       ?truename@?$numpunct@D@std@@QBE?AV?$basic_string@DU?$char_traits@D@std@@V?$allocator@D@2@@2@XZ 0040a350 f i Game.obj
 0001:00009370       ?do_decimal_point@?$numpunct@D@std@@MBEDXZ 0040a370 f i Game.obj
 0001:00009380       ?do_thousands_sep@?$numpunct@D@std@@MBEDXZ 0040a380 f i Game.obj
 0001:00009390       ?do_grouping@?$numpunct@D@std@@MBE?AV?$basic_string@DU?$char_traits@D@std@@V?$allocator@D@2@@2@XZ 0040a390 f i Game.obj
 0001:000093e0       ?do_falsename@?$numpunct@D@std@@MBE?AV?$basic_string@DU?$char_traits@D@std@@V?$allocator@D@2@@2@XZ 0040a3e0 f i Game.obj
 0001:00009430       ?do_truename@?$numpunct@D@std@@MBE?AV?$basic_string@DU?$char_traits@D@std@@V?$allocator@D@2@@2@XZ 0040a430 f i Game.obj
 0001:00009480       ??_G?$numpunct@D@std@@MAEPAXI@Z 0040a480 f i Game.obj
 0001:00009480       ??_E?$numpunct@D@std@@MAEPAXI@Z 0040a480 f i  CIL library: CIL module
 0001:000094d0       ?erase@?$_Tree@V?$_Tmap_traits@KUtagWorldServer@CGame@@U?$less@K@std@@V?$allocator@U?$pair@$$CBKUtagWorldServer@CGame@@@std@@@4@$0A@@std@@@std@@QAE?AViterator@12@V312@@Z 0040a4d0 f i Game.obj
 0001:000097e0       ?_Lrotate@?$_Tree@V?$_Tmap_traits@KUtagWorldServer@CGame@@U?$less@K@std@@V?$allocator@U?$pair@$$CBKUtagWorldServer@CGame@@@std@@@4@$0A@@std@@@std@@IAEXPAU_Node@?$_Tree_nod@V?$_Tmap_traits@KUtagWorldServer@CGame@@U?$less@K@std@@V?$allocator@U?$pair@$$CBKUtagWorldServer@CGame@@@std@@@4@$0A@@std@@@2@@Z 0040a7e0 f i Game.obj
 0001:00009830       ?_Rrotate@?$_Tree@V?$_Tmap_traits@KUtagWorldServer@CGame@@U?$less@K@std@@V?$allocator@U?$pair@$$CBKUtagWorldServer@CGame@@@std@@@4@$0A@@std@@@std@@IAEXPAU_Node@?$_Tree_nod@V?$_Tmap_traits@KUtagWorldServer@CGame@@U?$less@K@std@@V?$allocator@U?$pair@$$CBKUtagWorldServer@CGame@@@std@@@4@$0A@@std@@@2@@Z 0040a830 f i Game.obj
 0001:00009880       ?_Buynode@?$_Tree@V?$_Tmap_traits@KUtagWorldServer@CGame@@U?$less@K@std@@V?$allocator@U?$pair@$$CBKUtagWorldServer@CGame@@@std@@@4@$0A@@std@@@std@@IAEPAU_Node@?$_Tree_nod@V?$_Tmap_traits@KUtagWorldServer@CGame@@U?$less@K@std@@V?$allocator@U?$pair@$$CBKUtagWorldServer@CGame@@@std@@@4@$0A@@std@@@2@XZ 0040a880 f i Game.obj
 0001:000098c0       ?_Buynode@?$_Tree@V?$_Tmap_traits@KUtagWorldServer@CGame@@U?$less@K@std@@V?$allocator@U?$pair@$$CBKUtagWorldServer@CGame@@@std@@@4@$0A@@std@@@std@@IAEPAU_Node@?$_Tree_nod@V?$_Tmap_traits@KUtagWorldServer@CGame@@U?$less@K@std@@V?$allocator@U?$pair@$$CBKUtagWorldServer@CGame@@@std@@@4@$0A@@std@@@2@PAU342@00ABU?$pair@$$CBKUtagWorldServer@CGame@@@2@D@Z 0040a8c0 f i Game.obj
 0001:00009990       ?erase@?$_Tree@V?$_Tmap_traits@JUtagWorldInfo@CGame@@U?$less@J@std@@V?$allocator@U?$pair@$$CBJUtagWorldInfo@CGame@@@std@@@4@$0A@@std@@@std@@QAE?AViterator@12@V312@@Z 0040a990 f i Game.obj
 0001:00009cc0       ?_Buynode@?$_Tree@V?$_Tmap_traits@JUtagWorldInfo@CGame@@U?$less@J@std@@V?$allocator@U?$pair@$$CBJUtagWorldInfo@CGame@@@std@@@4@$0A@@std@@@std@@IAEPAU_Node@?$_Tree_nod@V?$_Tmap_traits@JUtagWorldInfo@CGame@@U?$less@J@std@@V?$allocator@U?$pair@$$CBJUtagWorldInfo@CGame@@@std@@@4@$0A@@std@@@2@XZ 0040acc0 f i Game.obj
 0001:00009cc0       ?_Buynode@?$_Tree@V?$_Tmap_traits@KUtagTimer@CTimer@@U?$less@K@std@@V?$allocator@U?$pair@$$CBKUtagTimer@CTimer@@@std@@@4@$0A@@std@@@std@@IAEPAU_Node@?$_Tree_nod@V?$_Tmap_traits@KUtagTimer@CTimer@@U?$less@K@std@@V?$allocator@U?$pair@$$CBKUtagTimer@CTimer@@@std@@@4@$0A@@std@@@2@XZ 0040acc0 f i serverpublic:Timer.obj
 0001:00009d00       ?_Inc@const_iterator@?$_Tree@V?$_Tmap_traits@V?$basic_string@DU?$char_traits@D@std@@V?$allocator@D@2@@std@@UtagEntityAttrInfo@@U?$less@V?$basic_string@DU?$char_traits@D@std@@V?$allocator@D@2@@std@@@2@V?$allocator@U?$pair@$$CBV?$basic_string@DU?$char_traits@D@std@@V?$allocator@D@2@@std@@UtagEntityAttrInfo@@@std@@@2@$0A@@std@@@std@@QAEXXZ 0040ad00 f i Game.obj
 0001:00009d70       ?_Inc@const_iterator@?$_Tree@V?$_Tmap_traits@V?$basic_string@DU?$char_traits@D@std@@V?$allocator@D@2@@std@@V?$map@VCGUID@@PAVCEntityGroup@@U?$less@VCGUID@@@std@@V?$allocator@U?$pair@$$CBVCGUID@@PAVCEntityGroup@@@std@@@4@@2@U?$less@V?$basic_string@DU?$char_traits@D@std@@V?$allocator@D@2@@std@@@2@V?$allocator@U?$pair@$$CBV?$basic_string@DU?$char_traits@D@std@@V?$allocator@D@2@@std@@V?$map@VCGUID@@PAVCEntityGroup@@U?$less@VCGUID@@@std@@V?$allocator@U?$pair@$$CBVCGUID@@PAVCEntityGroup@@@std@@@4@@2@@std@@@2@$0A@@std@@@std@@QAEXXZ 0040ad70 f i Game.obj
 0001:00009de0       ?_Inc@const_iterator@?$_Tree@V?$_Tmap_traits@VCGUID@@PAVCEntityGroup@@U?$less@VCGUID@@@std@@V?$allocator@U?$pair@$$CBVCGUID@@PAVCEntityGroup@@@std@@@4@$0A@@std@@@std@@QAEXXZ 0040ade0 f i Game.obj
 0001:00009de0       ?_Inc@const_iterator@?$_Tree@V?$_Tmap_traits@VCGUID@@PAVCBaseEntity@@U?$less@VCGUID@@@std@@V?$allocator@U?$pair@$$CBVCGUID@@PAVCBaseEntity@@@std@@@4@$0A@@std@@@std@@QAEXXZ 0040ade0 f i Game.obj
 0001:00009e50       ??D?$istreambuf_iterator@DU?$char_traits@D@std@@@std@@QBEDXZ 0040ae50 f i Game.obj
 0001:00009ea0       ??E?$istreambuf_iterator@DU?$char_traits@D@std@@@std@@QAEAAV01@XZ 0040aea0 f i Game.obj
 0001:00009f00       ?grouping@?$numpunct@D@std@@QBE?AV?$basic_string@DU?$char_traits@D@std@@V?$allocator@D@2@@2@XZ 0040af00 f i Game.obj
 0001:00009f20       ?_Tidy@?$numpunct@D@std@@AAEXXZ 0040af20 f i Game.obj
 0001:00009f50       ?append@?$basic_string@DU?$char_traits@D@std@@V?$allocator@D@2@@std@@QAEAAV12@ABV12@II@Z 0040af50 f i Game.obj
 0001:0000a050       ?_Erase@?$_Tree@V?$_Tmap_traits@KUtagWorldServer@CGame@@U?$less@K@std@@V?$allocator@U?$pair@$$CBKUtagWorldServer@CGame@@@std@@@4@$0A@@std@@@std@@IAEXPAU_Node@?$_Tree_nod@V?$_Tmap_traits@KUtagWorldServer@CGame@@U?$less@K@std@@V?$allocator@U?$pair@$$CBKUtagWorldServer@CGame@@@std@@@4@$0A@@std@@@2@@Z 0040b050 f i Game.obj
 0001:0000a0b0       ?_Max@?$_Tree@V?$_Tmap_traits@KUtagWorldServer@CGame@@U?$less@K@std@@V?$allocator@U?$pair@$$CBKUtagWorldServer@CGame@@@std@@@4@$0A@@std@@@std@@KAPAU_Node@?$_Tree_nod@V?$_Tmap_traits@KUtagWorldServer@CGame@@U?$less@K@std@@V?$allocator@U?$pair@$$CBKUtagWorldServer@CGame@@@std@@@4@$0A@@std@@@2@PAU342@@Z 0040b0b0 f i Game.obj
 0001:0000a0d0       ?_Erase@?$_Tree@V?$_Tmap_traits@JUtagWorldInfo@CGame@@U?$less@J@std@@V?$allocator@U?$pair@$$CBJUtagWorldInfo@CGame@@@std@@@4@$0A@@std@@@std@@IAEXPAU_Node@?$_Tree_nod@V?$_Tmap_traits@JUtagWorldInfo@CGame@@U?$less@J@std@@V?$allocator@U?$pair@$$CBJUtagWorldInfo@CGame@@@std@@@4@$0A@@std@@@2@@Z 0040b0d0 f i Game.obj
 0001:0000a130       ?_Lrotate@?$_Tree@V?$_Tmap_traits@KUtagTimer@CTimer@@U?$less@K@std@@V?$allocator@U?$pair@$$CBKUtagTimer@CTimer@@@std@@@4@$0A@@std@@@std@@IAEXPAU_Node@?$_Tree_nod@V?$_Tmap_traits@KUtagTimer@CTimer@@U?$less@K@std@@V?$allocator@U?$pair@$$CBKUtagTimer@CTimer@@@std@@@4@$0A@@std@@@2@@Z 0040b130 f i serverpublic:Timer.obj
 0001:0000a130       ?_Lrotate@?$_Tree@V?$_Tmap_traits@JUtagWorldInfo@CGame@@U?$less@J@std@@V?$allocator@U?$pair@$$CBJUtagWorldInfo@CGame@@@std@@@4@$0A@@std@@@std@@IAEXPAU_Node@?$_Tree_nod@V?$_Tmap_traits@JUtagWorldInfo@CGame@@U?$less@J@std@@V?$allocator@U?$pair@$$CBJUtagWorldInfo@CGame@@@std@@@4@$0A@@std@@@2@@Z 0040b130 f i Game.obj
 0001:0000a180       ?_Dec@const_iterator@?$_Tree@V?$_Tmap_traits@KUtagWorldServer@CGame@@U?$less@K@std@@V?$allocator@U?$pair@$$CBKUtagWorldServer@CGame@@@std@@@4@$0A@@std@@@std@@QAEXXZ 0040b180 f i Game.obj
 0001:0000a200       ?_Min@?$_Tree@V?$_Tmap_traits@V?$basic_string@DU?$char_traits@D@std@@V?$allocator@D@2@@std@@UtagEntityAttrInfo@@U?$less@V?$basic_string@DU?$char_traits@D@std@@V?$allocator@D@2@@std@@@2@V?$allocator@U?$pair@$$CBV?$basic_string@DU?$char_traits@D@std@@V?$allocator@D@2@@std@@UtagEntityAttrInfo@@@std@@@2@$0A@@std@@@std@@KAPAU_Node@?$_Tree_nod@V?$_Tmap_traits@V?$basic_string@DU?$char_traits@D@std@@V?$allocator@D@2@@std@@UtagEntityAttrInfo@@U?$less@V?$basic_string@DU?$char_traits@D@std@@V?$allocator@D@2@@std@@@2@V?$allocator@U?$pair@$$CBV?$basic_string@DU?$char_traits@D@std@@V?$allocator@D@2@@std@@UtagEntityAttrInfo@@@std@@@2@$0A@@std@@@2@PAU342@@Z 0040b200 f i Game.obj
 0001:0000a220       ?_Min@?$_Tree@V?$_Tmap_traits@V?$basic_string@DU?$char_traits@D@std@@V?$allocator@D@2@@std@@PAUtagBuildFileInfo@@U?$less@V?$basic_string@DU?$char_traits@D@std@@V?$allocator@D@2@@std@@@2@V?$allocator@U?$pair@$$CBV?$basic_string@DU?$char_traits@D@std@@V?$allocator@D@2@@std@@PAUtagBuildFileInfo@@@std@@@2@$0A@@std@@@std@@KAPAU_Node@?$_Tree_nod@V?$_Tmap_traits@V?$basic_string@DU?$char_traits@D@std@@V?$allocator@D@2@@std@@PAUtagBuildFileInfo@@U?$less@V?$basic_string@DU?$char_traits@D@std@@V?$allocator@D@2@@std@@@2@V?$allocator@U?$pair@$$CBV?$basic_string@DU?$char_traits@D@std@@V?$allocator@D@2@@std@@PAUtagBuildFileInfo@@@std@@@2@$0A@@std@@@2@PAU342@@Z 0040b220 f i Game.obj
 0001:0000a220       ?_Min@?$_Tree@V?$_Tmap_traits@V?$basic_string@DU?$char_traits@D@std@@V?$allocator@D@2@@std@@PAUtagEntityBuildInfo@@U?$less@V?$basic_string@DU?$char_traits@D@std@@V?$allocator@D@2@@std@@@2@V?$allocator@U?$pair@$$CBV?$basic_string@DU?$char_traits@D@std@@V?$allocator@D@2@@std@@PAUtagEntityBuildInfo@@@std@@@2@$0A@@std@@@std@@KAPAU_Node@?$_Tree_nod@V?$_Tmap_traits@V?$basic_string@DU?$char_traits@D@std@@V?$allocator@D@2@@std@@PAUtagEntityBuildInfo@@U?$less@V?$basic_string@DU?$char_traits@D@std@@V?$allocator@D@2@@std@@@2@V?$allocator@U?$pair@$$CBV?$basic_string@DU?$char_traits@D@std@@V?$allocator@D@2@@std@@PAUtagEntityBuildInfo@@@std@@@2@$0A@@std@@@2@PAU342@@Z 0040b220 f i Game.obj
 0001:0000a220       ?_Min@?$_Tree@V?$_Tmap_traits@V?$basic_string@DU?$char_traits@D@std@@V?$allocator@D@2@@std@@PAVAccount@@U?$less@V?$basic_string@DU?$char_traits@D@std@@V?$allocator@D@2@@std@@@2@V?$allocator@U?$pair@$$CBV?$basic_string@DU?$char_traits@D@std@@V?$allocator@D@2@@std@@PAVAccount@@@std@@@2@$0A@@std@@@std@@KAPAU_Node@?$_Tree_nod@V?$_Tmap_traits@V?$basic_string@DU?$char_traits@D@std@@V?$allocator@D@2@@std@@PAVAccount@@U?$less@V?$basic_string@DU?$char_traits@D@std@@V?$allocator@D@2@@std@@@2@V?$allocator@U?$pair@$$CBV?$basic_string@DU?$char_traits@D@std@@V?$allocator@D@2@@std@@PAVAccount@@@std@@@2@$0A@@std@@@2@PAU342@@Z 0040b220 f i Game.obj
 0001:0000a240       ?_Min@?$_Tree@V?$_Tmap_traits@VCGUID@@PAVCEntityGroup@@U?$less@VCGUID@@@std@@V?$allocator@U?$pair@$$CBVCGUID@@PAVCEntityGroup@@@std@@@4@$0A@@std@@@std@@KAPAU_Node@?$_Tree_nod@V?$_Tmap_traits@VCGUID@@PAVCEntityGroup@@U?$less@VCGUID@@@std@@V?$allocator@U?$pair@$$CBVCGUID@@PAVCEntityGroup@@@std@@@4@$0A@@std@@@2@PAU342@@Z 0040b240 f i Game.obj
 0001:0000a240       ?_Min@?$_Tree@V?$_Tmap_traits@VCGUID@@PAVCBaseEntity@@U?$less@VCGUID@@@std@@V?$allocator@U?$pair@$$CBVCGUID@@PAVCBaseEntity@@@std@@@4@$0A@@std@@@std@@KAPAU_Node@?$_Tree_nod@V?$_Tmap_traits@VCGUID@@PAVCBaseEntity@@U?$less@VCGUID@@@std@@V?$allocator@U?$pair@$$CBVCGUID@@PAVCBaseEntity@@@std@@@4@$0A@@std@@@2@PAU342@@Z 0040b240 f i Game.obj
 0001:0000a260       ??$?8DU?$char_traits@D@std@@V?$allocator@D@1@@std@@YA_NABV?$basic_string@DU?$char_traits@D@std@@V?$allocator@D@2@@0@PBD@Z 0040b260 f i Game.obj
 0001:0000a2a0       ??$?5DU?$char_traits@D@std@@V?$allocator@D@1@@std@@YAAAV?$basic_istream@DU?$char_traits@D@std@@@0@AAV10@AAV?$basic_string@DU?$char_traits@D@std@@V?$allocator@D@2@@0@@Z 0040b2a0 f i Game.obj
 0001:0000a450       ??$?HDU?$char_traits@D@std@@V?$allocator@D@1@@std@@YA?AV?$basic_string@DU?$char_traits@D@std@@V?$allocator@D@2@@0@PBDABV10@@Z 0040b450 f i Game.obj
 0001:0000a510       ??$use_facet@V?$num_get@DV?$istreambuf_iterator@DU?$char_traits@D@std@@@std@@@std@@@std@@YAABV?$num_get@DV?$istreambuf_iterator@DU?$char_traits@D@std@@@std@@@0@ABVlocale@0@@Z 0040b510 f i Game.obj
 0001:0000a660       ??$use_facet@V?$numpunct@D@std@@@std@@YAABV?$numpunct@D@0@ABVlocale@0@@Z 0040b660 f i Game.obj
 0001:0000a7b0       ??$_Getloctxt@DV?$istreambuf_iterator@DU?$char_traits@D@std@@@std@@@std@@YAHAAV?$istreambuf_iterator@DU?$char_traits@D@std@@@0@0IPBD@Z 0040b7b0 f i Game.obj
 0001:0000aa60       ??$_Allocate@U_Node@?$_Tree_nod@V?$_Tmap_traits@KUtagWorldServer@CGame@@U?$less@K@std@@V?$allocator@U?$pair@$$CBKUtagWorldServer@CGame@@@std@@@4@$0A@@std@@@std@@@std@@YAPAU_Node@?$_Tree_nod@V?$_Tmap_traits@KUtagWorldServer@CGame@@U?$less@K@std@@V?$allocator@U?$pair@$$CBKUtagWorldServer@CGame@@@std@@@4@$0A@@std@@@0@IPAU120@@Z 0040ba60 f i Game.obj
 0001:0000aac0       ??1?$pair@$$CBV?$basic_string@DU?$char_traits@D@std@@V?$allocator@D@2@@std@@V?$map@VCGUID@@PAVCEntityGroup@@U?$less@VCGUID@@@std@@V?$allocator@U?$pair@$$CBVCGUID@@PAVCEntityGroup@@@std@@@4@@2@@std@@QAE@XZ 0040bac0 f i Game.obj
 0001:0000ab30       ??1tagColInfo@@QAE@XZ      0040bb30 f i public:RankDef.obj
 0001:0000ab30       ??1?$basic_string@DU?$char_traits@D@std@@V?$allocator@D@2@@std@@QAE@XZ 0040bb30 f i Game.obj
 0001:0000ab30       ??1?$pair@$$CBV?$basic_string@DU?$char_traits@D@std@@V?$allocator@D@2@@std@@PAVAccount@@@std@@QAE@XZ 0040bb30 f i Game.obj
 0001:0000ab60       ??1?$map@VCGUID@@PAVCEntityGroup@@U?$less@VCGUID@@@std@@V?$allocator@U?$pair@$$CBVCGUID@@PAVCEntityGroup@@@std@@@4@@std@@QAE@XZ 0040bb60 f i Game.obj
 0001:0000ab70       ?_Getcat@?$num_get@DV?$istreambuf_iterator@DU?$char_traits@D@std@@@std@@@std@@SAIPAPBVfacet@locale@2@@Z 0040bb70 f i Game.obj
 0001:0000abe0       ?equal@?$istreambuf_iterator@DU?$char_traits@D@std@@@std@@QBE_NABV12@@Z 0040bbe0 f i Game.obj
 0001:0000ac90       ?_Getcat@?$numpunct@D@std@@SAIPAPBVfacet@locale@2@@Z 0040bc90 f i Game.obj
 0001:0000ad00       ?_Tidy@?$_Tree@V?$_Tmap_traits@VCGUID@@PAVCEntityGroup@@U?$less@VCGUID@@@std@@V?$allocator@U?$pair@$$CBVCGUID@@PAVCEntityGroup@@@std@@@4@$0A@@std@@@std@@IAEXXZ 0040bd00 f i Game.obj
 0001:0000ad40       ??0?$num_get@DV?$istreambuf_iterator@DU?$char_traits@D@std@@@std@@@std@@QAE@I@Z 0040bd40 f i Game.obj
 0001:0000adf0       ??0?$numpunct@D@std@@QAE@I@Z 0040bdf0 f i Game.obj
 0001:0000aec0       ?erase@?$_Tree@V?$_Tmap_traits@VCGUID@@PAVCEntityGroup@@U?$less@VCGUID@@@std@@V?$allocator@U?$pair@$$CBVCGUID@@PAVCEntityGroup@@@std@@@4@$0A@@std@@@std@@QAE?AViterator@12@V312@0@Z 0040bec0 f i Game.obj
 0001:0000afa0       ?_Init@?$numpunct@D@std@@IAEXABV_Locinfo@2@@Z 0040bfa0 f i Game.obj
 0001:0000b0d0       ?erase@?$_Tree@V?$_Tmap_traits@VCGUID@@PAVCEntityGroup@@U?$less@VCGUID@@@std@@V?$allocator@U?$pair@$$CBVCGUID@@PAVCEntityGroup@@@std@@@4@$0A@@std@@@std@@QAE?AViterator@12@V312@@Z 0040c0d0 f i Game.obj
 0001:0000b3b0       ?_Lrotate@?$_Tree@V?$_Tmap_traits@VCGUID@@PAVCEntityGroup@@U?$less@VCGUID@@@std@@V?$allocator@U?$pair@$$CBVCGUID@@PAVCEntityGroup@@@std@@@4@$0A@@std@@@std@@IAEXPAU_Node@?$_Tree_nod@V?$_Tmap_traits@VCGUID@@PAVCEntityGroup@@U?$less@VCGUID@@@std@@V?$allocator@U?$pair@$$CBVCGUID@@PAVCEntityGroup@@@std@@@4@$0A@@std@@@2@@Z 0040c3b0 f i Game.obj
 0001:0000b400       ?_Max@?$_Tree@V?$_Tmap_traits@VCGUID@@PAVCEntityGroup@@U?$less@VCGUID@@@std@@V?$allocator@U?$pair@$$CBVCGUID@@PAVCEntityGroup@@@std@@@4@$0A@@std@@@std@@KAPAU_Node@?$_Tree_nod@V?$_Tmap_traits@VCGUID@@PAVCEntityGroup@@U?$less@VCGUID@@@std@@V?$allocator@U?$pair@$$CBVCGUID@@PAVCEntityGroup@@@std@@@4@$0A@@std@@@2@PAU342@@Z 0040c400 f i Game.obj
 0001:0000b420       ?_Rrotate@?$_Tree@V?$_Tmap_traits@VCGUID@@PAVCEntityGroup@@U?$less@VCGUID@@@std@@V?$allocator@U?$pair@$$CBVCGUID@@PAVCEntityGroup@@@std@@@4@$0A@@std@@@std@@IAEXPAU_Node@?$_Tree_nod@V?$_Tmap_traits@VCGUID@@PAVCEntityGroup@@U?$less@VCGUID@@@std@@V?$allocator@U?$pair@$$CBVCGUID@@PAVCEntityGroup@@@std@@@4@$0A@@std@@@2@@Z 0040c420 f i Game.obj
 0001:0000b480       ??$_Destroy_range@UtagPingWorldServerInfo@CGame@@V?$allocator@UtagPingWorldServerInfo@CGame@@@std@@@std@@YAXPAUtagPingWorldServerInfo@CGame@@0AAV?$allocator@UtagPingWorldServerInfo@CGame@@@0@U_Nonscalar_ptr_iterator_tag@0@@Z 0040c480 f i Game.obj
 0001:0000b4f0       ??$_Maklocstr@D@std@@YAPADPBDPADABU_Cvtvec@@@Z 0040c4f0 f i Game.obj
 0001:0000b540       ??_E?$num_get@DV?$istreambuf_iterator@DU?$char_traits@D@std@@@std@@@std@@MAEPAXI@Z 0040c540 f i  CIL library: CIL module
 0001:0000b540       ??_E?$codecvt@DDH@std@@MAEPAXI@Z 0040c540 f i  CIL library: CIL module
 0001:0000b540       ??_G?$num_put@DV?$ostreambuf_iterator@DU?$char_traits@D@std@@@std@@@std@@MAEPAXI@Z 0040c540 f i public:AppFrameDef.obj
 0001:0000b540       ??_E?$num_put@DV?$ostreambuf_iterator@DU?$char_traits@D@std@@@std@@@std@@MAEPAXI@Z 0040c540 f i  CIL library: CIL module
 0001:0000b540       ??_Efacet@locale@std@@UAEPAXI@Z 0040c540 f i  CIL library: CIL module
 0001:0000b540       ??_Gfacet@locale@std@@UAEPAXI@Z 0040c540 f i Game.obj
 0001:0000b540       ??_G?$codecvt@DDH@std@@MAEPAXI@Z 0040c540 f i Game.obj
 0001:0000b540       ??_G?$num_get@DV?$istreambuf_iterator@DU?$char_traits@D@std@@@std@@@std@@MAEPAXI@Z 0040c540 f i Game.obj
 0001:0000b560       ??1bad_alloc@std@@UAE@XZ   0040c560 f i Game.obj
 0001:0000b570       ??_Ebad_alloc@std@@UAEPAXI@Z 0040c570 f i  CIL library: CIL module
 0001:0000b570       ??_Gbad_alloc@std@@UAEPAXI@Z 0040c570 f i Game.obj
 0001:0000b5a0       ??0bad_alloc@std@@QAE@ABV01@@Z 0040c5a0 f i Game.obj
 0001:0000b5c0       ?compare@?$basic_string@DU?$char_traits@D@std@@V?$allocator@D@2@@std@@QBEHIIPBDI@Z 0040c5c0 f i Game.obj
 0001:0000b630       ?compare@?$char_traits@D@std@@SAHPBD0I@Z 0040c630 f i Game.obj
 0001:0000b6c0       ?_Incref@facet@locale@std@@QAEXXZ 0040c6c0 f i Game.obj
 0001:0000b6f0       ?snextc@?$basic_streambuf@DU?$char_traits@D@std@@@std@@QAEHXZ 0040c6f0 f i Game.obj
 0001:0000b770       ?_Gnavail@?$basic_streambuf@DU?$char_traits@D@std@@@std@@IBEHXZ 0040c770 f i Game.obj
 0001:0000b790       ?erase@?$basic_string@DU?$char_traits@D@std@@V?$allocator@D@2@@std@@QAEAAV12@II@Z 0040c790 f i Game.obj
 0001:0000b820       ??$use_facet@V?$ctype@D@std@@@std@@YAABV?$ctype@D@0@ABVlocale@0@@Z 0040c820 f i Game.obj
 0001:0000b970       ?_Getcat@?$ctype@D@std@@SAIPAPBVfacet@locale@2@@Z 0040c970 f i Game.obj
 0001:0000b9f0       ??0?$ctype@D@std@@QAE@PBF_NI@Z 0040c9f0 f i Game.obj
 0001:0000baf0       ??_E?$ctype@D@std@@MAEPAXI@Z 0040caf0 f i  CIL library: CIL module
 0001:0000baf0       ??_G?$ctype@D@std@@MAEPAXI@Z 0040caf0 f i Game.obj
 0001:0000bb40       ?do_tolower@?$ctype@D@std@@MBEPBDPADPBD@Z 0040cb40 f i Game.obj
 0001:0000bb70       ?do_tolower@?$ctype@D@std@@MBEDD@Z 0040cb70 f i Game.obj
 0001:0000bb90       ?do_toupper@?$ctype@D@std@@MBEPBDPADPBD@Z 0040cb90 f i Game.obj
 0001:0000bbc0       ?do_toupper@?$ctype@D@std@@MBEDD@Z 0040cbc0 f i Game.obj
 0001:0000bbe0       ?do_widen@?$ctype@D@std@@MBEPBDPBD0PAD@Z 0040cbe0 f i Game.obj
 0001:0000bc10       ?do_widen@?$ctype@D@std@@MBEDD@Z 0040cc10 f i Game.obj
 0001:0000bc20       ?_Do_widen_s@?$ctype@D@std@@MBEPBDPBD0PADI@Z 0040cc20 f i Game.obj
 0001:0000bc60       ?do_narrow@?$ctype@D@std@@MBEPBDPBD0DPAD@Z 0040cc60 f i Game.obj
 0001:0000bc90       ?do_narrow@?$ctype@D@std@@MBEDDD@Z 0040cc90 f i Game.obj
 0001:0000bca0       ?_Do_narrow_s@?$ctype@D@std@@MBEPBDPBD0DPADI@Z 0040cca0 f i Game.obj
 0001:0000bce0       ?_Myptr@?$basic_string@DU?$char_traits@D@std@@V?$allocator@D@2@@std@@IBEPBDXZ 0040cce0 f i Game.obj
 0001:0000bcf0       ?_Grow@?$basic_string@DU?$char_traits@D@std@@V?$allocator@D@2@@std@@IAE_NI_N@Z 0040ccf0 f i Game.obj
 0001:0000bdb0       ?_Copy@?$basic_string@DU?$char_traits@D@std@@V?$allocator@D@2@@std@@IAEXII@Z 0040cdb0 f i Game.obj
 0001:0000bef0       ??1length_error@std@@UAE@XZ 0040cef0 f i Game.obj
 0001:0000bef0       ??1out_of_range@std@@UAE@XZ 0040cef0 f i Game.obj
 0001:0000bf30       ??_Glength_error@std@@UAEPAXI@Z 0040cf30 f i Game.obj
 0001:0000bf30       ??_Eout_of_range@std@@UAEPAXI@Z 0040cf30 f i  CIL library: CIL module
 0001:0000bf30       ??_Gout_of_range@std@@UAEPAXI@Z 0040cf30 f i Game.obj
 0001:0000bf30       ??_Elength_error@std@@UAEPAXI@Z 0040cf30 f i  CIL library: CIL module
 0001:0000bf30       ??_Elogic_error@std@@UAEPAXI@Z 0040cf30 f i  CIL library: CIL module
 0001:0000bf30       ??_Glogic_error@std@@UAEPAXI@Z 0040cf30 f i Game.obj
 0001:0000bf80       ??0length_error@std@@QAE@ABV01@@Z 0040cf80 f i Game.obj
 0001:0000bfa0       ??0logic_error@std@@QAE@ABV01@@Z 0040cfa0 f i Game.obj
 0001:0000c020       ??0logic_error@std@@QAE@ABV?$basic_string@DU?$char_traits@D@std@@V?$allocator@D@2@@1@@Z 0040d020 f i Game.obj
 0001:0000c090       ??_G?$basic_ostream@DU?$char_traits@D@std@@@std@@UAEPAXI@Z 0040d090 f i Game.obj
 0001:0000c090       ??_E?$basic_ostream@DU?$char_traits@D@std@@@std@@UAEPAXI@Z 0040d090 f i  CIL library: CIL module
 0001:0000c0d0       ??_D?$basic_ostream@DU?$char_traits@D@std@@@std@@QAEXXZ 0040d0d0 f i Game.obj
 0001:0000c0f0       ?append@?$basic_string@DU?$char_traits@D@std@@V?$allocator@D@2@@std@@QAEAAV12@ID@Z 0040d0f0 f i Game.obj
 0001:0000c1a0       ?_Chassign@?$basic_string@DU?$char_traits@D@std@@V?$allocator@D@2@@std@@IAEXIID@Z 0040d1a0 f i Game.obj
 0001:0000c200       ?assign@?$basic_string@DU?$char_traits@D@std@@V?$allocator@D@2@@std@@QAEAAV12@ID@Z 0040d200 f i Game.obj
 0001:0000c290       ??1_Locinfo@std@@QAE@XZ    0040d290 f i Game.obj
 0001:0000c370       ??0_Locinfo@std@@QAE@PBD@Z 0040d370 f i Game.obj
 0001:0000c440       ??0runtime_error@std@@QAE@ABV?$basic_string@DU?$char_traits@D@std@@V?$allocator@D@2@@1@@Z 0040d440 f i Game.obj
 0001:0000c4b0       ??_Efailure@ios_base@std@@UAEPAXI@Z 0040d4b0 f i  CIL library: CIL module
 0001:0000c4b0       ??_Gfailure@ios_base@std@@UAEPAXI@Z 0040d4b0 f i Game.obj
 0001:0000c4b0       ??_Gruntime_error@std@@UAEPAXI@Z 0040d4b0 f i Game.obj
 0001:0000c4b0       ??_Eruntime_error@std@@UAEPAXI@Z 0040d4b0 f i  CIL library: CIL module
 0001:0000c500       ??1failure@ios_base@std@@UAE@XZ 0040d500 f i Game.obj
 0001:0000c500       ??1runtime_error@std@@UAE@XZ 0040d500 f i Game.obj
 0001:0000c540       ?what@runtime_error@std@@UBEPBDXZ 0040d540 f i Game.obj
 0001:0000c540       ?what@logic_error@std@@UBEPBDXZ 0040d540 f i Game.obj
 0001:0000c550       ??0runtime_error@std@@QAE@ABV01@@Z 0040d550 f i Game.obj
 0001:0000c5d0       ?do_always_noconv@codecvt_base@std@@MBE_NXZ 0040d5d0 f i Game.obj
 0001:0000c5e0       ?do_max_length@codecvt_base@std@@MBEHXZ 0040d5e0 f i Game.obj
 0001:0000c5e0       ?do_encoding@codecvt_base@std@@MBEHXZ 0040d5e0 f i Game.obj
 0001:0000c5f0       ?do_out@?$codecvt@DDH@std@@MBEHAAHPBD1AAPBDPAD3AAPAD@Z 0040d5f0 f i Game.obj
 0001:0000c5f0       ?do_in@?$codecvt@DDH@std@@MBEHAAHPBD1AAPBDPAD3AAPAD@Z 0040d5f0 f i Game.obj
 0001:0000c610       ?do_unshift@?$codecvt@DDH@std@@MBEHAAHPAD1AAPAD@Z 0040d610 f i Game.obj
 0001:0000c630       ?do_length@?$codecvt@DDH@std@@MBEHABHPBD1I@Z 0040d630 f i Game.obj
 0001:0000c650       ??1codecvt_base@std@@UAE@XZ 0040d650 f i Game.obj
 0001:0000c650       ??1ctype_base@std@@UAE@XZ  0040d650 f i Game.obj
 0001:0000c650       ??1facet@locale@std@@UAE@XZ 0040d650 f i Game.obj
 0001:0000c660       ?init@?$basic_ios@DU?$char_traits@D@std@@@std@@IAEXPAV?$basic_streambuf@DU?$char_traits@D@std@@@2@_N@Z 0040d660 f i Game.obj
 0001:0000c6c0       ?_Init@ios_base@std@@IAEXXZ 0040d6c0 f i Game.obj
 0001:0000c740       ?clear@ios_base@std@@QAEXH_N@Z 0040d740 f i Game.obj
 0001:0000c870       ??0failure@ios_base@std@@QAE@ABV012@@Z 0040d870 f i Game.obj
 0001:0000c890       ?widen@?$basic_ios@DU?$char_traits@D@std@@@std@@QBEDD@Z 0040d890 f i Game.obj
 0001:0000c950       ??_E?$basic_istream@DU?$char_traits@D@std@@@std@@UAEPAXI@Z 0040d950 f i  CIL library: CIL module
 0001:0000c950       ??_G?$basic_istream@DU?$char_traits@D@std@@@std@@UAEPAXI@Z 0040d950 f i Game.obj
 0001:0000c990       ?assign@?$basic_string@DU?$char_traits@D@std@@V?$allocator@D@2@@std@@QAEAAV12@ABV12@II@Z 0040d990 f i Game.obj
 0001:0000ca70       ?_Tidy@?$basic_string@DU?$char_traits@D@std@@V?$allocator@D@2@@std@@IAEX_NI@Z 0040da70 f i Game.obj
 0001:0000cac0       ??1?$basic_ostream@DU?$char_traits@D@std@@@std@@UAE@XZ 0040dac0 f i Game.obj
 0001:0000cad0       ??_E?$basic_stringbuf@DU?$char_traits@D@std@@V?$allocator@D@2@@std@@UAEPAXI@Z 0040dad0 f i  CIL library: CIL module
 0001:0000cad0       ??_G?$basic_stringbuf@DU?$char_traits@D@std@@V?$allocator@D@2@@std@@UAEPAXI@Z 0040dad0 f i Game.obj
 0001:0000cb00       ?overflow@?$basic_stringbuf@DU?$char_traits@D@std@@V?$allocator@D@2@@std@@MAEHH@Z 0040db00 f i Game.obj
 0001:0000ccb0       ?pbackfail@?$basic_stringbuf@DU?$char_traits@D@std@@V?$allocator@D@2@@std@@MAEHH@Z 0040dcb0 f i Game.obj
 0001:0000cd00       ?underflow@?$basic_stringbuf@DU?$char_traits@D@std@@V?$allocator@D@2@@std@@MAEHXZ 0040dd00 f i Game.obj
 0001:0000cd70       ?uflow@?$basic_streambuf@DU?$char_traits@D@std@@@std@@MAEHXZ 0040dd70 f i Game.obj
 0001:0000cda0       ?xsgetn@?$basic_streambuf@DU?$char_traits@D@std@@@std@@MAEHPADH@Z 0040dda0 f i Game.obj
 0001:0000cdc0       ?_Xsgetn_s@?$basic_streambuf@DU?$char_traits@D@std@@@std@@MAEHPADIH@Z 0040ddc0 f i Game.obj
 0001:0000ce60       ?xsputn@?$basic_streambuf@DU?$char_traits@D@std@@@std@@MAEHPBDH@Z 0040de60 f i Game.obj
 0001:0000cf00       ?_Pnavail@?$basic_streambuf@DU?$char_traits@D@std@@@std@@IBEHXZ 0040df00 f i Game.obj
 0001:0000cf20       ?seekoff@?$basic_stringbuf@DU?$char_traits@D@std@@V?$allocator@D@2@@std@@MAE?AV?$fpos@H@2@JHH@Z 0040df20 f i Game.obj
 0001:0000d080       ?seekpos@?$basic_stringbuf@DU?$char_traits@D@std@@V?$allocator@D@2@@std@@MAE?AV?$fpos@H@2@V32@H@Z 0040e080 f i Game.obj
 0001:0000d150       ?setbuf@?$basic_streambuf@DU?$char_traits@D@std@@@std@@MAEPAV12@PADH@Z 0040e150 f i Game.obj
 0001:0000d160       ??1?$basic_streambuf@DU?$char_traits@D@std@@@std@@UAE@XZ 0040e160 f i Game.obj
 0001:0000d1e0       ??_E?$basic_streambuf@DU?$char_traits@D@std@@@std@@UAEPAXI@Z 0040e1e0 f i  CIL library: CIL module
 0001:0000d1e0       ??_G?$basic_streambuf@DU?$char_traits@D@std@@@std@@UAEPAXI@Z 0040e1e0 f i Game.obj
 0001:0000d200       ?overflow@?$basic_streambuf@DU?$char_traits@D@std@@@std@@MAEHH@Z 0040e200 f i Game.obj
 0001:0000d200       ?pbackfail@?$basic_streambuf@DU?$char_traits@D@std@@@std@@MAEHH@Z 0040e200 f i Game.obj
 0001:0000d210       ?underflow@?$basic_streambuf@DU?$char_traits@D@std@@@std@@MAEHXZ 0040e210 f i Game.obj
 0001:0000d220       ?seekoff@?$basic_streambuf@DU?$char_traits@D@std@@@std@@MAE?AV?$fpos@H@2@JHH@Z 0040e220 f i Game.obj
 0001:0000d240       ?seekpos@?$basic_streambuf@DU?$char_traits@D@std@@@std@@MAE?AV?$fpos@H@2@V32@H@Z 0040e240 f i Game.obj
 0001:0000d260       ?_Tidy@?$basic_stringbuf@DU?$char_traits@D@std@@V?$allocator@D@2@@std@@IAEXXZ 0040e260 f i Game.obj
 0001:0000d2c0       ??0?$basic_stringbuf@DU?$char_traits@D@std@@V?$allocator@D@2@@std@@QAE@H@Z 0040e2c0 f i Game.obj
 0001:0000d340       ??0?$basic_streambuf@DU?$char_traits@D@std@@@std@@IAE@XZ 0040e340 f i Game.obj
 0001:0000d440       ?_Init@?$basic_streambuf@DU?$char_traits@D@std@@@std@@IAEXXZ 0040e440 f i Game.obj
 0001:0000d4a0       ?_Init@?$basic_stringbuf@DU?$char_traits@D@std@@V?$allocator@D@2@@std@@IAEXPBDIH@Z 0040e4a0 f i Game.obj
 0001:0000d550       ?close@?$basic_filebuf@DU?$char_traits@D@std@@@std@@QAEPAV12@XZ 0040e550 f i Game.obj
 0001:0000d5e0       ?_Endwrite@?$basic_filebuf@DU?$char_traits@D@std@@@std@@IAE_NXZ 0040e5e0 f i Game.obj
 0001:0000d8f0       ??D?$_String_iterator@DU?$char_traits@D@std@@V?$allocator@D@2@@std@@QBEAADXZ 0040e8f0 f i Game.obj
 0001:0000d930       ?begin@?$basic_string@DU?$char_traits@D@std@@V?$allocator@D@2@@std@@QAE?AV?$_String_iterator@DU?$char_traits@D@std@@V?$allocator@D@2@@2@XZ 0040e930 f i Game.obj
 0001:0000d990       ?_Init@?$basic_filebuf@DU?$char_traits@D@std@@@std@@IAEXPAU_iobuf@@W4_Initfl@12@@Z 0040e990 f i Game.obj
 0001:0000da30       ?open@?$basic_filebuf@DU?$char_traits@D@std@@@std@@QAEPAV12@PBDHH@Z 0040ea30 f i Game.obj
 0001:0000db10       ??$use_facet@V?$codecvt@DDH@std@@@std@@YAABV?$codecvt@DDH@0@ABVlocale@0@@Z 0040eb10 f i Game.obj
 0001:0000dc60       ?getloc@?$basic_streambuf@DU?$char_traits@D@std@@@std@@QBE?AVlocale@2@XZ 0040ec60 f i Game.obj
 0001:0000dc90       ??1?$basic_filebuf@DU?$char_traits@D@std@@@std@@UAE@XZ 0040ec90 f i Game.obj
 0001:0000dd00       ??_E?$basic_filebuf@DU?$char_traits@D@std@@@std@@UAEPAXI@Z 0040ed00 f i  CIL library: CIL module
 0001:0000dd00       ??_G?$basic_filebuf@DU?$char_traits@D@std@@@std@@UAEPAXI@Z 0040ed00 f i Game.obj
 0001:0000dd20       ?overflow@?$basic_filebuf@DU?$char_traits@D@std@@@std@@MAEHH@Z 0040ed20 f i Game.obj
 0001:0000e0d0       ??$_Fputc@D@std@@YA_NDPAU_iobuf@@@Z 0040f0d0 f i Game.obj
 0001:0000e0f0       ?pbackfail@?$basic_filebuf@DU?$char_traits@D@std@@@std@@MAEHH@Z 0040f0f0 f i Game.obj
 0001:0000e160       ?underflow@?$basic_filebuf@DU?$char_traits@D@std@@@std@@MAEHXZ 0040f160 f i Game.obj
 0001:0000e1b0       ?uflow@?$basic_filebuf@DU?$char_traits@D@std@@@std@@MAEHXZ 0040f1b0 f i Game.obj
 0001:0000e520       ?seekoff@?$basic_filebuf@DU?$char_traits@D@std@@@std@@MAE?AV?$fpos@H@2@JHH@Z 0040f520 f i Game.obj
 0001:0000e600       ?seekpos@?$basic_filebuf@DU?$char_traits@D@std@@@std@@MAE?AV?$fpos@H@2@V32@H@Z 0040f600 f i Game.obj
 0001:0000e6f0       ?setbuf@?$basic_filebuf@DU?$char_traits@D@std@@@std@@MAEPAV?$basic_streambuf@DU?$char_traits@D@std@@@2@PADH@Z 0040f6f0 f i Game.obj
 0001:0000e740       ?sync@?$basic_filebuf@DU?$char_traits@D@std@@@std@@MAEHXZ 0040f740 f i Game.obj
 0001:0000e770       ?imbue@?$basic_filebuf@DU?$char_traits@D@std@@@std@@MAEXABVlocale@2@@Z 0040f770 f i Game.obj
 0001:0000e7b0       ??0?$basic_filebuf@DU?$char_traits@D@std@@@std@@QAE@PAU_iobuf@@@Z 0040f7b0 f i Game.obj
 0001:0000e7e0       ??1?$basic_istream@DU?$char_traits@D@std@@@std@@UAE@XZ 0040f7e0 f i Game.obj
 0001:0000e7f0       ??_Gios_base@std@@UAEPAXI@Z 0040f7f0 f i Game.obj
 0001:0000e7f0       ??_E?$basic_ios@DU?$char_traits@D@std@@@std@@UAEPAXI@Z 0040f7f0 f i  CIL library: CIL module
 0001:0000e7f0       ??_G?$basic_ios@DU?$char_traits@D@std@@@std@@UAEPAXI@Z 0040f7f0 f i Game.obj
 0001:0000e7f0       ??_Eios_base@std@@UAEPAXI@Z 0040f7f0 f i  CIL library: CIL module
 0001:0000e820       ??0out_of_range@std@@QAE@ABV01@@Z 0040f820 f i Game.obj
 0001:0000e840       ??1locale@std@@QAE@XZ      0040f840 f i Game.obj
 0001:0000e890       ?_Decref@facet@locale@std@@QAEPAV123@XZ 0040f890 f i Game.obj
 0001:0000e8d0       ?getloc@ios_base@std@@QBE?AVlocale@2@XZ 0040f8d0 f i Game.obj
 0001:0000e910       ??1sentry@?$basic_istream@DU?$char_traits@D@std@@@std@@QAE@XZ 0040f910 f i Game.obj
 0001:0000e910       ??1_Sentry_base@?$basic_istream@DU?$char_traits@D@std@@@std@@QAE@XZ 0040f910 f i Game.obj
 0001:0000e930       ??0sentry@?$basic_istream@DU?$char_traits@D@std@@@std@@QAE@AAV12@_N@Z 0040f930 f i Game.obj
 0001:0000e9b0       ?_Ipfx@?$basic_istream@DU?$char_traits@D@std@@@std@@QAE_N_N@Z 0040f9b0 f i Game.obj
 0001:0000eb50       ?flush@?$basic_ostream@DU?$char_traits@D@std@@@std@@QAEAAV12@XZ 0040fb50 f i Game.obj
 0001:0000ebb0       ??A?$vector@EV?$allocator@E@std@@@std@@QAEAAEI@Z 0040fbb0 f i Game.obj
 0001:0000ebe0       ??1?$basic_ios@DU?$char_traits@D@std@@@std@@UAE@XZ 0040fbe0 f i Game.obj
 0001:0000ebf0       ??4?$basic_string@DU?$char_traits@D@std@@V?$allocator@D@2@@std@@QAEAAV01@PBD@Z 0040fbf0 f i Game.obj
 0001:0000ebf0       ?assign@?$basic_string@DU?$char_traits@D@std@@V?$allocator@D@2@@std@@QAEAAV12@PBD@Z 0040fbf0 f i Game.obj
 0001:0000ec20       ?assign@?$basic_string@DU?$char_traits@D@std@@V?$allocator@D@2@@std@@QAEAAV12@PBDI@Z 0040fc20 f i Game.obj
 0001:0000ecf0       ??0?$basic_string@DU?$char_traits@D@std@@V?$allocator@D@2@@std@@QAE@PBD@Z 0040fcf0 f i Game.obj
 0001:0000ed30       ?erase@?$_Tree@V?$_Tmap_traits@V?$basic_string@DU?$char_traits@D@std@@V?$allocator@D@2@@std@@V12@U?$less@V?$basic_string@DU?$char_traits@D@std@@V?$allocator@D@2@@std@@@2@V?$allocator@U?$pair@$$CBV?$basic_string@DU?$char_traits@D@std@@V?$allocator@D@2@@std@@V12@@std@@@2@$0A@@std@@@std@@QAE?AViterator@12@V312@0@Z 0040fd30 f i stdafx.obj
 0001:0000ee00       ?erase@?$_Tree@V?$_Tmap_traits@V?$basic_string@DU?$char_traits@D@std@@V?$allocator@D@2@@std@@V12@U?$less@V?$basic_string@DU?$char_traits@D@std@@V?$allocator@D@2@@std@@@2@V?$allocator@U?$pair@$$CBV?$basic_string@DU?$char_traits@D@std@@V?$allocator@D@2@@std@@V12@@std@@@2@$0A@@std@@@std@@QAE?AViterator@12@V312@@Z 0040fe00 f i stdafx.obj
 0001:0000f120       ?_Buynode@?$_Tree@V?$_Tmap_traits@V?$basic_string@DU?$char_traits@D@std@@V?$allocator@D@2@@std@@V12@U?$less@V?$basic_string@DU?$char_traits@D@std@@V?$allocator@D@2@@std@@@2@V?$allocator@U?$pair@$$CBV?$basic_string@DU?$char_traits@D@std@@V?$allocator@D@2@@std@@V12@@std@@@2@$0A@@std@@@std@@IAEPAU_Node@?$_Tree_nod@V?$_Tmap_traits@V?$basic_string@DU?$char_traits@D@std@@V?$allocator@D@2@@std@@V12@U?$less@V?$basic_string@DU?$char_traits@D@std@@V?$allocator@D@2@@std@@@2@V?$allocator@U?$pair@$$CBV?$basic_string@DU?$char_traits@D@std@@V?$allocator@D@2@@std@@V12@@std@@@2@$0A@@std@@@2@XZ 00410120 f i stdafx.obj
 0001:0000f160       ?_Erase@?$_Tree@V?$_Tmap_traits@V?$basic_string@DU?$char_traits@D@std@@V?$allocator@D@2@@std@@V12@U?$less@V?$basic_string@DU?$char_traits@D@std@@V?$allocator@D@2@@std@@@2@V?$allocator@U?$pair@$$CBV?$basic_string@DU?$char_traits@D@std@@V?$allocator@D@2@@std@@V12@@std@@@2@$0A@@std@@@std@@IAEXPAU_Node@?$_Tree_nod@V?$_Tmap_traits@V?$basic_string@DU?$char_traits@D@std@@V?$allocator@D@2@@std@@V12@U?$less@V?$basic_string@DU?$char_traits@D@std@@V?$allocator@D@2@@std@@@2@V?$allocator@U?$pair@$$CBV?$basic_string@DU?$char_traits@D@std@@V?$allocator@D@2@@std@@V12@@std@@@2@$0A@@std@@@2@@Z 00410160 f i stdafx.obj
 0001:0000f1e0       ?_Lrotate@?$_Tree@V?$_Tmap_traits@V?$basic_string@DU?$char_traits@D@std@@V?$allocator@D@2@@std@@V12@U?$less@V?$basic_string@DU?$char_traits@D@std@@V?$allocator@D@2@@std@@@2@V?$allocator@U?$pair@$$CBV?$basic_string@DU?$char_traits@D@std@@V?$allocator@D@2@@std@@V12@@std@@@2@$0A@@std@@@std@@IAEXPAU_Node@?$_Tree_nod@V?$_Tmap_traits@V?$basic_string@DU?$char_traits@D@std@@V?$allocator@D@2@@std@@V12@U?$less@V?$basic_string@DU?$char_traits@D@std@@V?$allocator@D@2@@std@@@2@V?$allocator@U?$pair@$$CBV?$basic_string@DU?$char_traits@D@std@@V?$allocator@D@2@@std@@V12@@std@@@2@$0A@@std@@@2@@Z 004101e0 f i stdafx.obj
 0001:0000f230       ?_Max@?$_Tree@V?$_Tmap_traits@V?$basic_string@DU?$char_traits@D@std@@V?$allocator@D@2@@std@@V12@U?$less@V?$basic_string@DU?$char_traits@D@std@@V?$allocator@D@2@@std@@@2@V?$allocator@U?$pair@$$CBV?$basic_string@DU?$char_traits@D@std@@V?$allocator@D@2@@std@@V12@@std@@@2@$0A@@std@@@std@@KAPAU_Node@?$_Tree_nod@V?$_Tmap_traits@V?$basic_string@DU?$char_traits@D@std@@V?$allocator@D@2@@std@@V12@U?$less@V?$basic_string@DU?$char_traits@D@std@@V?$allocator@D@2@@std@@@2@V?$allocator@U?$pair@$$CBV?$basic_string@DU?$char_traits@D@std@@V?$allocator@D@2@@std@@V12@@std@@@2@$0A@@std@@@2@PAU342@@Z 00410230 f i stdafx.obj
 0001:0000f250       ?_Rrotate@?$_Tree@V?$_Tmap_traits@V?$basic_string@DU?$char_traits@D@std@@V?$allocator@D@2@@std@@V12@U?$less@V?$basic_string@DU?$char_traits@D@std@@V?$allocator@D@2@@std@@@2@V?$allocator@U?$pair@$$CBV?$basic_string@DU?$char_traits@D@std@@V?$allocator@D@2@@std@@V12@@std@@@2@$0A@@std@@@std@@IAEXPAU_Node@?$_Tree_nod@V?$_Tmap_traits@V?$basic_string@DU?$char_traits@D@std@@V?$allocator@D@2@@std@@V12@U?$less@V?$basic_string@DU?$char_traits@D@std@@V?$allocator@D@2@@std@@@2@V?$allocator@U?$pair@$$CBV?$basic_string@DU?$char_traits@D@std@@V?$allocator@D@2@@std@@V12@@std@@@2@$0A@@std@@@2@@Z 00410250 f i stdafx.obj
 0001:0000f2a0       ?_Inc@const_iterator@?$_Tree@V?$_Tmap_traits@V?$basic_string@DU?$char_traits@D@std@@V?$allocator@D@2@@std@@V12@U?$less@V?$basic_string@DU?$char_traits@D@std@@V?$allocator@D@2@@std@@@2@V?$allocator@U?$pair@$$CBV?$basic_string@DU?$char_traits@D@std@@V?$allocator@D@2@@std@@V12@@std@@@2@$0A@@std@@@std@@QAEXXZ 004102a0 f i stdafx.obj
 0001:0000f310       ??$_Allocate@U_Node@?$_Tree_nod@V?$_Tmap_traits@V?$basic_string@DU?$char_traits@D@std@@V?$allocator@D@2@@std@@V12@U?$less@V?$basic_string@DU?$char_traits@D@std@@V?$allocator@D@2@@std@@@2@V?$allocator@U?$pair@$$CBV?$basic_string@DU?$char_traits@D@std@@V?$allocator@D@2@@std@@V12@@std@@@2@$0A@@std@@@std@@@std@@YAPAU_Node@?$_Tree_nod@V?$_Tmap_traits@V?$basic_string@DU?$char_traits@D@std@@V?$allocator@D@2@@std@@V12@U?$less@V?$basic_string@DU?$char_traits@D@std@@V?$allocator@D@2@@std@@@2@V?$allocator@U?$pair@$$CBV?$basic_string@DU?$char_traits@D@std@@V?$allocator@D@2@@std@@V12@@std@@@2@$0A@@std@@@0@IPAU120@@Z 00410310 f i stdafx.obj
 0001:0000f310       ??$_Allocate@U_Node@?$_List_nod@UtagSysBroadcast@CGame@@V?$allocator@UtagSysBroadcast@CGame@@@std@@@std@@@std@@YAPAU_Node@?$_List_nod@UtagSysBroadcast@CGame@@V?$allocator@UtagSysBroadcast@CGame@@@std@@@0@IPAU120@@Z 00410310 f i Game.obj
 0001:0000f370       ??0CBaseMessage@@QAE@XZ    00410370 f   Net:BaseMessage.obj
 0001:0000f3c0       ??_ECBaseMessage@@UAEPAXI@Z 004103c0 f i  CIL library: CIL module
 0001:0000f3c0       ??_GCBaseMessage@@UAEPAXI@Z 004103c0 f i Net:BaseMessage.obj
 0001:0000f410       ??1CBaseMessage@@UAE@XZ    00410410 f   Net:BaseMessage.obj
 0001:0000f440       ?Init@CBaseMessage@@QAEXK@Z 00410440 f   Net:BaseMessage.obj
 0001:0000f530       ?Init@CBaseMessage@@QAEXAAV?$vector@PAVCDataBlock@@V?$allocator@PAVCDataBlock@@@std@@@std@@QAY05$$CBE_N@Z 00410530 f   Net:BaseMessage.obj
 0001:0000f6a0       ?UnInit@CBaseMessage@@QAEXXZ 004106a0 f   Net:BaseMessage.obj
 0001:0000f760       ?Clone@CBaseMessage@@QAEXPAV1@@Z 00410760 f   Net:BaseMessage.obj
 0001:0000f8a0       ?AddWrDataBlock@CBaseMessage@@QAEXXZ 004108a0 f   Net:BaseMessage.obj
 0001:0000f950       ?AddRdDataBlock@CBaseMessage@@QAEXXZ 00410950 f   Net:BaseMessage.obj
 0001:0000f9d0       ?Initial@CBaseMessage@@SA_NPAVCDataBlockAllocator@@J@Z 004109d0 f   Net:BaseMessage.obj
 0001:0000fb20       ?Release@CBaseMessage@@SA_NXZ 00410b20 f   Net:BaseMessage.obj
 0001:0000fbc0       ?AllocMsg@CBaseMessage@@SGPAV1@XZ 00410bc0 f   Net:BaseMessage.obj
 0001:0000fc50       ?FreeMsg@CBaseMessage@@SGXPAV1@@Z 00410c50 f   Net:BaseMessage.obj
 0001:0000fce0       ?Add@CBaseMessage@@QAEXE@Z 00410ce0 f   Net:BaseMessage.obj
 0001:0000fce0       ?Add@CBaseMessage@@QAEXD@Z 00410ce0 f   Net:BaseMessage.obj
 0001:0000fd00       ?Add@CBaseMessage@@QAEXJ@Z 00410d00 f   Net:BaseMessage.obj
 0001:0000fd20       ?Add@CBaseMessage@@QAEXPBD@Z 00410d20 f   Net:BaseMessage.obj
 0001:0000fd60       ?Add@CBaseMessage@@QAEXABVCGUID@@@Z 00410d60 f   Net:BaseMessage.obj
 0001:0000fdc0       ?Add@CBaseMessage@@IAEXPAEK@Z 00410dc0 f   Net:BaseMessage.obj
 0001:0000fec0       ?AddEx@CBaseMessage@@QAEXPAXJ@Z 00410ec0 f   Net:BaseMessage.obj
 0001:0000fef0       ?GetByte@CBaseMessage@@QAEEXZ 00410ef0 f   Net:BaseMessage.obj
 0001:0000ff10       ?GetWord@CBaseMessage@@QAEGXZ 00410f10 f   Net:BaseMessage.obj
 0001:0000ff30       ?GetLong@CBaseMessage@@QAEJXZ 00410f30 f   Net:BaseMessage.obj
 0001:0000ff50       ?GetGUID@CBaseMessage@@QAE_NAAVCGUID@@@Z 00410f50 f   Net:BaseMessage.obj
 0001:0000ffc0       ?GetStr@CBaseMessage@@QAEPADPADJ@Z 00410fc0 f   Net:BaseMessage.obj
 0001:00010020       ?Get@CBaseMessage@@IAEPAXPAEK@Z 00411020 f   Net:BaseMessage.obj
 0001:000100a0       ?GetEx@CBaseMessage@@QAEPAXPAXJ@Z 004110a0 f   Net:BaseMessage.obj
 0001:000100f0       ?GetMsgPrio@CBaseMessage@@SAFJ@Z 004110f0 f   Net:BaseMessage.obj
 0001:00010150       ?Encrypt@CBaseMessage@@QAEXQAY05$$CBE@Z 00411150 f   Net:BaseMessage.obj
 0001:000101a0       ?Decrypt@CBaseMessage@@QAEXQAY05$$CBE@Z 004111a0 f   Net:BaseMessage.obj
 0001:000101f0       ??1?$vector@PAVCDataBlock@@V?$allocator@PAVCDataBlock@@@std@@@std@@QAE@XZ 004111f0 f i Net:BaseMessage.obj
 0001:00010220       ?push_back@?$vector@PAVCDataBlock@@V?$allocator@PAVCDataBlock@@@std@@@std@@QAEXABQAVCDataBlock@@@Z 00411220 f i Net:BaseMessage.obj
 0001:00010280       ?find@?$_Tree@V?$_Tmap_traits@JFU?$less@J@std@@V?$allocator@U?$pair@$$CBJF@std@@@2@$0A@@std@@@std@@QAE?AViterator@12@ABJ@Z 00411280 f i Net:BaseMessage.obj
 0001:00010300       ?insert@?$vector@PAVCDataBlock@@V?$allocator@PAVCDataBlock@@@std@@@std@@QAE?AV?$_Vector_iterator@PAVCDataBlock@@V?$allocator@PAVCDataBlock@@@std@@@2@V32@ABQAVCDataBlock@@@Z 00411300 f i Net:BaseMessage.obj
 0001:00010390       ?_Ufill@?$vector@PAVCDataBlock@@V?$allocator@PAVCDataBlock@@@std@@@std@@IAEPAPAVCDataBlock@@PAPAV3@IABQAV3@@Z 00411390 f i Net:BaseMessage.obj
 0001:000103c0       ?_Buynode@?$list@PAVCServerClient@@V?$allocator@PAVCServerClient@@@std@@@std@@IAEPAU_Node@?$_List_nod@PAVCServerClient@@V?$allocator@PAVCServerClient@@@std@@@2@XZ 004113c0 f i Net:Servers.obj
 0001:000103c0       ?_Buynode@?$list@PAVPER_IO_OPERATION_DATA@@V?$allocator@PAVPER_IO_OPERATION_DATA@@@std@@@std@@IAEPAU_Node@?$_List_nod@PAVPER_IO_OPERATION_DATA@@V?$allocator@PAVPER_IO_OPERATION_DATA@@@std@@@2@XZ 004113c0 f i Net:Servers.obj
 0001:000103c0       ?_Buynode@?$list@PAVCDataBlock@@V?$allocator@PAVCDataBlock@@@std@@@std@@IAEPAU_Node@?$_List_nod@PAVCDataBlock@@V?$allocator@PAVCDataBlock@@@std@@@2@XZ 004113c0 f i Net:ServerClient.obj
 0001:000103c0       ?_Buynode@?$list@PAVCBaseMessage@@V?$allocator@PAVCBaseMessage@@@std@@@std@@IAEPAU_Node@?$_List_nod@PAVCBaseMessage@@V?$allocator@PAVCBaseMessage@@@std@@@2@XZ 004113c0 f i Net:BaseMessage.obj
 0001:000103c0       ?_Buynode@?$list@PAUtagSocketOper@@V?$allocator@PAUtagSocketOper@@@std@@@std@@IAEPAU_Node@?$_List_nod@PAUtagSocketOper@@V?$allocator@PAUtagSocketOper@@@std@@@2@XZ 004113c0 f i Net:Servers.obj
 0001:000103e0       ?_Insert_n@?$vector@PAVCDataBlock@@V?$allocator@PAVCDataBlock@@@std@@@std@@IAEXV?$_Vector_iterator@PAVCDataBlock@@V?$allocator@PAVCDataBlock@@@std@@@2@IABQAVCDataBlock@@@Z 004113e0 f i Net:BaseMessage.obj
 0001:000105f0       ?erase@?$_Tree@V?$_Tmap_traits@JFU?$less@J@std@@V?$allocator@U?$pair@$$CBJF@std@@@2@$0A@@std@@@std@@QAE?AViterator@12@V312@0@Z 004115f0 f i Net:BaseMessage.obj
 0001:000106e0       ?erase@?$_Tree@V?$_Tset_traits@JU?$less@J@std@@V?$allocator@J@2@$0A@@std@@@std@@QAE?AViterator@12@V312@0@Z 004116e0 f i Net:BaseMessage.obj
 0001:000107d0       ?_Lrotate@?$_Tree@V?$_Tset_traits@JU?$less@J@std@@V?$allocator@J@2@$0A@@std@@@std@@IAEXPAU_Node@?$_Tree_nod@V?$_Tset_traits@JU?$less@J@std@@V?$allocator@J@2@$0A@@std@@@2@@Z 004117d0 f i Net:BaseMessage.obj
 0001:00010820       ?_Rrotate@?$_Tree@V?$_Tset_traits@JU?$less@J@std@@V?$allocator@J@2@$0A@@std@@@std@@IAEXPAU_Node@?$_Tree_nod@V?$_Tset_traits@JU?$less@J@std@@V?$allocator@J@2@$0A@@std@@@2@@Z 00411820 f i Net:BaseMessage.obj
 0001:00010870       ?erase@?$_Tree@V?$_Tset_traits@PAVCBaseMessage@@U?$less@PAVCBaseMessage@@@std@@V?$allocator@PAVCBaseMessage@@@3@$0A@@std@@@std@@QAE?AViterator@12@V312@0@Z 00411870 f i Net:BaseMessage.obj
 0001:00010960       ?erase@?$_Tree@V?$_Tmap_traits@JFU?$less@J@std@@V?$allocator@U?$pair@$$CBJF@std@@@2@$0A@@std@@@std@@QAE?AViterator@12@V312@@Z 00411960 f i Net:BaseMessage.obj
 0001:00010c30       ?_Lrotate@?$_Tree@V?$_Tmap_traits@JFU?$less@J@std@@V?$allocator@U?$pair@$$CBJF@std@@@2@$0A@@std@@@std@@IAEXPAU_Node@?$_Tree_nod@V?$_Tmap_traits@JFU?$less@J@std@@V?$allocator@U?$pair@$$CBJF@std@@@2@$0A@@std@@@2@@Z 00411c30 f i Net:BaseMessage.obj
 0001:00010c80       ?_Rrotate@?$_Tree@V?$_Tmap_traits@JFU?$less@J@std@@V?$allocator@U?$pair@$$CBJF@std@@@2@$0A@@std@@@std@@IAEXPAU_Node@?$_Tree_nod@V?$_Tmap_traits@JFU?$less@J@std@@V?$allocator@U?$pair@$$CBJF@std@@@2@$0A@@std@@@2@@Z 00411c80 f i Net:BaseMessage.obj
 0001:00010cd0       ?erase@?$_Tree@V?$_Tset_traits@JU?$less@J@std@@V?$allocator@J@2@$0A@@std@@@std@@QAE?AViterator@12@V312@@Z 00411cd0 f i Net:BaseMessage.obj
 0001:00010fa0       ?_Buynode@?$_Tree@V?$_Tset_traits@PAVCBaseMessage@@U?$less@PAVCBaseMessage@@@std@@V?$allocator@PAVCBaseMessage@@@3@$0A@@std@@@std@@IAEPAU_Node@?$_Tree_nod@V?$_Tset_traits@PAVCBaseMessage@@U?$less@PAVCBaseMessage@@@std@@V?$allocator@PAVCBaseMessage@@@3@$0A@@std@@@2@XZ 00411fa0 f i Net:BaseMessage.obj
 0001:00010fa0       ?_Buynode@?$_Tree@V?$_Tset_traits@JU?$less@J@std@@V?$allocator@J@2@$0A@@std@@@std@@IAEPAU_Node@?$_Tree_nod@V?$_Tset_traits@JU?$less@J@std@@V?$allocator@J@2@$0A@@std@@@2@XZ 00411fa0 f i Net:BaseMessage.obj
 0001:00010fe0       ?erase@?$_Tree@V?$_Tset_traits@PAVCBaseMessage@@U?$less@PAVCBaseMessage@@@std@@V?$allocator@PAVCBaseMessage@@@3@$0A@@std@@@std@@QAE?AViterator@12@V312@@Z 00411fe0 f i Net:BaseMessage.obj
 0001:000112c0       ?_Max@?$_Tree@V?$_Tset_traits@JU?$less@J@std@@V?$allocator@J@2@$0A@@std@@@std@@KAPAU_Node@?$_Tree_nod@V?$_Tset_traits@JU?$less@J@std@@V?$allocator@J@2@$0A@@std@@@2@PAU342@@Z 004122c0 f i Net:BaseMessage.obj
 0001:000112e0       ?_Erase@?$_Tree@V?$_Tset_traits@JU?$less@J@std@@V?$allocator@J@2@$0A@@std@@@std@@IAEXPAU_Node@?$_Tree_nod@V?$_Tset_traits@JU?$less@J@std@@V?$allocator@J@2@$0A@@std@@@2@@Z 004122e0 f i Net:BaseMessage.obj
 0001:000112e0       ?_Erase@?$_Tree@V?$_Tset_traits@PAVCBaseMessage@@U?$less@PAVCBaseMessage@@@std@@V?$allocator@PAVCBaseMessage@@@3@$0A@@std@@@std@@IAEXPAU_Node@?$_Tree_nod@V?$_Tset_traits@PAVCBaseMessage@@U?$less@PAVCBaseMessage@@@std@@V?$allocator@PAVCBaseMessage@@@3@$0A@@std@@@2@@Z 004122e0 f i Net:BaseMessage.obj
 0001:00011320       ?_Lrotate@?$_Tree@V?$_Tset_traits@PAVCBaseMessage@@U?$less@PAVCBaseMessage@@@std@@V?$allocator@PAVCBaseMessage@@@3@$0A@@std@@@std@@IAEXPAU_Node@?$_Tree_nod@V?$_Tset_traits@PAVCBaseMessage@@U?$less@PAVCBaseMessage@@@std@@V?$allocator@PAVCBaseMessage@@@3@$0A@@std@@@2@@Z 00412320 f i Net:BaseMessage.obj
 0001:00011370       ?_Rrotate@?$_Tree@V?$_Tset_traits@PAVCBaseMessage@@U?$less@PAVCBaseMessage@@@std@@V?$allocator@PAVCBaseMessage@@@3@$0A@@std@@@std@@IAEXPAU_Node@?$_Tree_nod@V?$_Tset_traits@PAVCBaseMessage@@U?$less@PAVCBaseMessage@@@std@@V?$allocator@PAVCBaseMessage@@@3@$0A@@std@@@2@@Z 00412370 f i Net:BaseMessage.obj
 0001:000113c0       ?_Inc@const_iterator@?$_Tree@V?$_Tmap_traits@JPAVCServerClient@@U?$less@J@std@@V?$allocator@U?$pair@$$CBJPAVCServerClient@@@std@@@3@$0A@@std@@@std@@QAEXXZ 004123c0 f i Net:Servers.obj
 0001:000113c0       ?_Inc@const_iterator@?$_Tree@V?$_Tmap_traits@JPAVCDataObject@@U?$less@J@std@@V?$allocator@U?$pair@$$CBJPAVCDataObject@@@std@@@3@$0A@@std@@@std@@QAEXXZ 004123c0 f i public:ColumnProperty.obj
 0001:000113c0       ?_Inc@const_iterator@?$_Tree@V?$_Tmap_traits@PAEJU?$less@PAE@std@@V?$allocator@U?$pair@QAEJ@std@@@2@$0A@@std@@@std@@QAEXXZ 004123c0 f i public:DataBlockAllocator.obj
 0001:000113c0       ?_Inc@const_iterator@?$_Tree@V?$_Tmap_traits@JFU?$less@J@std@@V?$allocator@U?$pair@$$CBJF@std@@@2@$0A@@std@@@std@@QAEXXZ 004123c0 f i Net:BaseMessage.obj
 0001:000113c0       ?_Inc@const_iterator@?$_Tree@V?$_Tmap_traits@KKU?$less@K@std@@V?$allocator@U?$pair@$$CBKK@std@@@2@$0A@@std@@@std@@QAEXXZ 004123c0 f i Net:Servers.obj
 0001:000113c0       ?_Inc@const_iterator@?$_Tree@V?$_Tmap_traits@JJU?$less@J@std@@V?$allocator@U?$pair@$$CBJJ@std@@@2@$0A@@std@@@std@@QAEXXZ 004123c0 f i Net:Servers.obj
 0001:000113c0       ?_Inc@const_iterator@?$_Tree@V?$_Tmap_traits@HPAVCDataBlock@@U?$less@H@std@@V?$allocator@U?$pair@$$CBHPAVCDataBlock@@@std@@@3@$0A@@std@@@std@@QAEXXZ 004123c0 f i Net:ServerClient.obj
 0001:000113c0       ?_Inc@const_iterator@?$_Tree@V?$_Tmap_traits@JPAEU?$less@J@std@@V?$allocator@U?$pair@$$CBJPAE@std@@@2@$00@std@@@std@@QAEXXZ 004123c0 f i public:DataBlockAllocator.obj
 0001:00011430       ?_Inc@const_iterator@?$_Tree@V?$_Tset_traits@JU?$less@J@std@@V?$allocator@J@2@$0A@@std@@@std@@QAEXXZ 00412430 f i Net:BaseMessage.obj
 0001:00011430       ?_Inc@const_iterator@?$_Tree@V?$_Tset_traits@PAVCBaseMessage@@U?$less@PAVCBaseMessage@@@std@@V?$allocator@PAVCBaseMessage@@@3@$0A@@std@@@std@@QAEXXZ 00412430 f i Net:BaseMessage.obj
 0001:000114a0       ??$_Umove@PAPAVCDataBlock@@@?$vector@PAVCDataBlock@@V?$allocator@PAVCDataBlock@@@std@@@std@@IAEPAPAVCDataBlock@@PAPAV2@00@Z 004124a0 f i Net:BaseMessage.obj
 0001:000114d0       ?IsDiscardFlagEqual@CBaseMessage@@UAE_NPAV1@@Z 004124d0 f i Net:BaseMessage.obj
 0001:000114e0       ?_Xlen@?$vector@PAVCDataBlock@@V?$allocator@PAVCDataBlock@@@std@@@std@@KAXXZ 004124e0 f i Net:BaseMessage.obj
 0001:000114e0       ?_Xlen@?$vector@PAXV?$allocator@PAX@std@@@std@@KAXXZ 004124e0 f i Game.obj
 0001:000114e0       ?_Xlen@?$vector@UtagColInfo@@V?$allocator@UtagColInfo@@@std@@@std@@KAXXZ 004124e0 f i public:RankDef.obj
 0001:000114e0       ?_Xlen@?$vector@PAVCTableManager@@V?$allocator@PAVCTableManager@@@std@@@std@@KAXXZ 004124e0 f i public:RankDef.obj
 0001:000114e0       ?_Xlen@?$vector@EV?$allocator@E@std@@@std@@KAXXZ 004124e0 f i Game.obj
 0001:00011560       ?_Buy@?$vector@PAVCDataBlock@@V?$allocator@PAVCDataBlock@@@std@@@std@@IAE_NI@Z 00412560 f i Net:BaseMessage.obj
 0001:000115b0       ??8CGUID@@QBE_NABV0@@Z     004125b0 f i Net:BaseMessage.obj
 0001:000115e0       ?GetSize@CBaseMessage@@QAEKXZ 004125e0 f i Net:BaseMessage.obj
 0001:00011640       ??4?$vector@PAVCDataBlock@@V?$allocator@PAVCDataBlock@@@std@@@std@@QAEAAV01@ABV01@@Z 00412640 f i Net:BaseMessage.obj
 0001:00011770       ??$unchecked_copy@PAPAVCDataBlock@@PAPAV1@@stdext@@YAPAPAVCDataBlock@@PAPAV1@00@Z 00412770 f i Net:BaseMessage.obj
 0001:000117b0       ?clear@?$vector@PAVCDataBlock@@V?$allocator@PAVCDataBlock@@@std@@@std@@QAEXXZ 004127b0 f i Net:BaseMessage.obj
 0001:00011810       ?MySocketInit@CMySocket@@SA_NXZ 00412810 f   Net:MySocket.obj
 0001:000118b0       ??_GCMySocket@@UAEPAXI@Z   004128b0 f i Net:MySocket.obj
 0001:000118b0       ??_ECMySocket@@UAEPAXI@Z   004128b0 f i  CIL library: CIL module
 0001:000118f0       ??1CMySocket@@UAE@XZ       004128f0 f   Net:MySocket.obj
 0001:00011920       ?Create@CMySocket@@UAE_NIPBDHJ_N@Z 00412920 f   Net:MySocket.obj
 0001:000119e0       ?CreateEx@CMySocket@@UAE_NIPBDH@Z 004129e0 f   Net:MySocket.obj
 0001:00011aa0       ?Bind@CMySocket@@QAE_NIPBD@Z 00412aa0 f   Net:MySocket.obj
 0001:00011ba0       ?SetSocketOpt@CMySocket@@UAEXXZ 00412ba0 f   Net:MySocket.obj
 0001:00011c20       ?SetHostName@CMySocket@@QAEXXZ 00412c20 f   Net:MySocket.obj
 0001:00011d10       ?Close@CMySocket@@UAE_NXZ  00412d10 f   Net:MySocket.obj
 0001:00011d40       ?ShutDown@CMySocket@@QAE_NXZ 00412d40 f   Net:MySocket.obj
 0001:00011dc0       ?Recv@CMySocket@@UAEHPAXHH@Z 00412dc0 f   Net:MySocket.obj
 0001:00011e50       ?Send@CMySocket@@UAEHPBXHH@Z 00412e50 f   Net:MySocket.obj
 0001:00011e60       ?RecvFrom@CMySocket@@UAEHPAXHPADAAKH@Z 00412e60 f   Net:MySocket.obj
 0001:00011f50       ?Sendto@CMySocket@@UAEHPBXHPBDKH@Z 00412f50 f   Net:MySocket.obj
 0001:00012000       ?SetKey@CMySocket@@QAEXHH@Z 00413000 f   Net:MySocket.obj
 0001:00012020       ?Reset@CBaseMessage@@UAEXXZ 00413020 f i Net:BaseMessage.obj
 0001:00012020       ?SetSendRevBuf@CMySocket@@UAEXXZ 00413020 f i Net:MySocket.obj
 0001:00012020       ?SetSendRevBuf@CServerClient@@UAEXXZ 00413020 f i Net:ServerClient.obj
 0001:00012020       ??3@YAXPAX0@Z              00413020 f i Game.obj
 0001:00012030       ?Initial@CMemClient@@QAE_NPBDPAVCDataBlockAllocator@@@Z 00413030 f   Net:MemClient.obj
 0001:000121e0       ?Release@CMemClient@@QAE_NXZ 004131e0 f   Net:MemClient.obj
 0001:000122a0       ?Send@CMemClient@@QAE_NPAVCBaseMessage@@W4eFileMapServerType@@@Z 004132a0 f   Net:MemClient.obj
 0001:000122d0       ?Send@CMemClient@@AAEXXZ   004132d0 f   Net:MemClient.obj
 0001:00012300       ?ProcFunc@@YGIPAX@Z        00413300 f   Net:MemClient.obj
 0001:000123d0       ?SendMsgFunc@@YGIPAX@Z     004133d0 f   Net:MemClient.obj
 0001:00012470       ??0CServer@@QAE@XZ         00413470 f   Net:Servers.obj
 0001:000128b0       ??_ECServer@@UAEPAXI@Z     004138b0 f i  CIL library: CIL module
 0001:000128b0       ??_GCServer@@UAEPAXI@Z     004138b0 f i Net:Servers.obj
 0001:000128d0       ??1?$map@JPAVCServerClient@@U?$less@J@std@@V?$allocator@U?$pair@$$CBJPAVCServerClient@@@std@@@3@@std@@QAE@XZ 004138d0 f i Net:Servers.obj
 0001:000128e0       ??1?$map@JUtagDataStat@CServer@@U?$less@J@std@@V?$allocator@U?$pair@$$CBJUtagDataStat@CServer@@@std@@@4@@std@@QAE@XZ 004138e0 f i Net:Servers.obj
 0001:000128f0       ??1?$map@JUtagMsgStat@CServer@@U?$less@J@std@@V?$allocator@U?$pair@$$CBJUtagMsgStat@CServer@@@std@@@4@@std@@QAE@XZ 004138f0 f i Net:Servers.obj
 0001:00012900       ??1?$map@KKU?$less@K@std@@V?$allocator@U?$pair@$$CBKK@std@@@2@@std@@QAE@XZ 00413900 f i Net:Servers.obj
 0001:00012900       ??1?$map@HPAVCDataBlock@@U?$less@H@std@@V?$allocator@U?$pair@$$CBHPAVCDataBlock@@@std@@@3@@std@@QAE@XZ 00413900 f i Net:ServerClient.obj
 0001:00012910       ??1CServer@@UAE@XZ         00413910 f   Net:Servers.obj
 0001:00012bd0       ?Start@CServer@@QAE_NEPAVCDataBlockAllocator@@JJJ_NJJJJJJJJJJJJJJ@Z 00413bd0 f   Net:Servers.obj
 0001:00012f20       ?Host@CServer@@QAE_NIPBDJK@Z 00413f20 f   Net:Servers.obj
 0001:00012fc0       ?InitClients@CServer@@QAEXXZ 00413fc0 f   Net:Servers.obj
 0001:00013080       ?ReleaseClients@CServer@@QAEXXZ 00414080 f   Net:Servers.obj
 0001:000130e0       ?CreateWorkerThreads@CServer@@QAE_NH@Z 004140e0 f   Net:Servers.obj
 0001:00013230       ?Exit@CServer@@QAEXXZ      00414230 f   Net:Servers.obj
 0001:00013360       ?ExitWorkerThread@CServer@@QAEXXZ 00414360 f   Net:Servers.obj
 0001:00013480       ?AllocSockOper@CServer@@QAEPAUtagSocketOper@@XZ 00414480 f   Net:Servers.obj
 0001:00013500       ?AllocIoOper@CServer@@QAEPAVPER_IO_OPERATION_DATA@@XZ 00414500 f   Net:Servers.obj
 0001:000135f0       ?FreeIoOper@CServer@@QAEXPAVPER_IO_OPERATION_DATA@@@Z 004145f0 f   Net:Servers.obj
 0001:00013680       ?OnClose@CServer@@UAEXH@Z  00414680 f   Net:Servers.obj
 0001:00013680       ?OnClose@CMySocket@@UAEXH@Z 00414680 f   Net:MySocket.obj
 0001:000136b0       ?OnAccept@CServer@@UAEXH@Z 004146b0 f   Net:Servers.obj
 0001:00013960       ?OnError@CServer@@QAEXPAVPER_IO_OPERATION_DATA@@JH@Z 00414960 f   Net:Servers.obj
 0001:00013a80       ?OnClose@CServer@@QAEXPAVPER_IO_OPERATION_DATA@@J@Z 00414a80 f   Net:Servers.obj
 0001:00013b30       ?OnSend@CServer@@QAEXPAVPER_IO_OPERATION_DATA@@JJ@Z 00414b30 f   Net:Servers.obj
 0001:00013b90       ?OnReceive@CServer@@QAEXPAVPER_IO_OPERATION_DATA@@JJ@Z 00414b90 f   Net:Servers.obj
 0001:00013d00       ?OnOutOfBandData@CMySocket@@UAEXH@Z 00414d00 f   Net:MySocket.obj
 0001:00013d00       ?OnReceive@CMySocket@@UAEXH@Z 00414d00 f   Net:MySocket.obj
 0001:00013d00       ?OnConnect@CMySocket@@UAEXH@Z 00414d00 f   Net:MySocket.obj
 0001:00013d00       ?SetIP@CBaseMessage@@UAEXPBD@Z 00414d00 f   Net:BaseMessage.obj
 0001:00013d00       ?OnReceive@CServer@@UAEXH@Z 00414d00 f   Net:Servers.obj
 0001:00013d00       ?imbue@?$basic_streambuf@DU?$char_traits@D@std@@@std@@MAEXABVlocale@2@@Z 00414d00 f   Game.obj
 0001:00013d00       ?OnAccept@CMySocket@@UAEXH@Z 00414d00 f   Net:MySocket.obj
 0001:00013d00       ?OnSend@CMySocket@@UAEXH@Z 00414d00 f   Net:MySocket.obj
 0001:00013d00       ?OnSend@CServerClient@@UAEXH@Z 00414d00 f   Net:ServerClient.obj
 0001:00013d10       ?ASend@CServer@@QAEHJPAVCBaseMessage@@@Z 00414d10 f   Net:Servers.obj
 0001:00013da0       ?AssociateSocketWithCP@CServer@@QAE_NIK@Z 00414da0 f   Net:Servers.obj
 0001:00013e80       ?OnDisConnAll@CServer@@QAEJXZ 00414e80 f   Net:Servers.obj
 0001:00013ee0       ?OnCloseAll@CServer@@QAEJXZ 00414ee0 f   Net:Servers.obj
 0001:00013f40       ?FindForbidIP@CServer@@QAE_NK@Z 00414f40 f   Net:Servers.obj
 0001:00013fd0       ?AddSendSize@CServer@@QAEJJJ@Z 00414fd0 f   Net:Servers.obj
 0001:00014070       ?AddRecvSize@CServer@@QAEJJJ@Z 00415070 f   Net:Servers.obj
 0001:00014120       ?DoNewAcceptSocket@CServer@@QAEXXZ 00415120 f   Net:Servers.obj
 0001:00014200       ?AllocClient@CServer@@QAEPAVCServerClient@@_N@Z 00415200 f   Net:Servers.obj
 0001:000142d0       ?FreeClient@CServer@@QAEXPAVCServerClient@@@Z 004152d0 f   Net:Servers.obj
 0001:00014320       ?DisConn@CServer@@QAE_NJ@Z 00415320 f   Net:Servers.obj
 0001:00014390       ?CloseAll@CServer@@QAE_NXZ 00415390 f   Net:Servers.obj
 0001:000143f0       ?OnClientInit@CServer@@QAE_NPAVCServerClient@@@Z 004153f0 f   Net:Servers.obj
 0001:000144a0       ?DoWorkerThreadFunc@@YAXPAVCServer@@@Z 004154a0 f   Net:Servers.obj
 0001:00014690       ?WorkerThreadFunc@@YGIPAX@Z 00415690 f   Net:Servers.obj
 0001:00014730       ?AcceptThreadFunc@@YGIPAX@Z 00415730 f   Net:Servers.obj
 0001:000147d0       ?DoNetThreadFunc@@YAXPAVCServer@@@Z 004157d0 f   Net:Servers.obj
 0001:00014b30       ?NetThreadFunc@@YGIPAX@Z   00415b30 f   Net:Servers.obj
 0001:00014bd0       ??A?$map@JPAVCDataObject@@U?$less@J@std@@V?$allocator@U?$pair@$$CBJPAVCDataObject@@@std@@@3@@std@@QAEAAPAVCDataObject@@ABJ@Z 00415bd0 f i public:ColumnProperty.obj
 0001:00014bd0       ??A?$map@HPAVCDataBlock@@U?$less@H@std@@V?$allocator@U?$pair@$$CBHPAVCDataBlock@@@std@@@3@@std@@QAEAAPAVCDataBlock@@ABH@Z 00415bd0 f i Net:ServerClient.obj
 0001:00014bd0       ??A?$map@JJU?$less@J@std@@V?$allocator@U?$pair@$$CBJJ@std@@@2@@std@@QAEAAJABJ@Z 00415bd0 f i Net:Servers.obj
 0001:00014c50       ??1?$deque@PAUtagFileAsynOper@CClientResource@@V?$allocator@PAUtagFileAsynOper@CClientResource@@@std@@@std@@QAE@XZ 00415c50 f i public:ClientResource.obj
 0001:00014c50       ??1?$deque@PAUtagSocketOper@@V?$allocator@PAUtagSocketOper@@@std@@@std@@QAE@XZ 00415c50 f i Net:Servers.obj
 0001:00014c50       ??1?$deque@PAVCBaseMessage@@V?$allocator@PAVCBaseMessage@@@std@@@std@@QAE@XZ 00415c50 f i Net:MsgQueue.obj
 0001:00014c60       ?push_back@?$list@PAVPER_IO_OPERATION_DATA@@V?$allocator@PAVPER_IO_OPERATION_DATA@@@std@@@std@@QAEXABQAVPER_IO_OPERATION_DATA@@@Z 00415c60 f i Net:Servers.obj
 0001:00014c60       ?push_back@?$list@PAUtagSocketOper@@V?$allocator@PAUtagSocketOper@@@std@@@std@@QAEXABQAUtagSocketOper@@@Z 00415c60 f i Net:Servers.obj
 0001:00014c90       ?push_back@?$vector@PAXV?$allocator@PAX@std@@@std@@QAEXABQAX@Z 00415c90 f i Net:Servers.obj
 0001:00014d00       ?clear@?$vector@PAXV?$allocator@PAX@std@@@std@@QAEXXZ 00415d00 f i Net:Servers.obj
 0001:00014d40       ??A?$map@JUtagDataStat@CServer@@U?$less@J@std@@V?$allocator@U?$pair@$$CBJUtagDataStat@CServer@@@std@@@4@@std@@QAEAAUtagDataStat@CServer@@ABJ@Z 00415d40 f i Net:Servers.obj
 0001:00014dd0       ?find@?$_Tree@V?$_Tmap_traits@JUtagDataStat@CServer@@U?$less@J@std@@V?$allocator@U?$pair@$$CBJUtagDataStat@CServer@@@std@@@4@$0A@@std@@@std@@QAE?AViterator@12@ABJ@Z 00415dd0 f i Net:Servers.obj
 0001:00014e40       ??A?$map@KKU?$less@K@std@@V?$allocator@U?$pair@$$CBKK@std@@@2@@std@@QAEAAKABK@Z 00415e40 f i Net:Servers.obj
 0001:00014ec0       ?erase@?$_Tree@V?$_Tmap_traits@KKU?$less@K@std@@V?$allocator@U?$pair@$$CBKK@std@@@2@$0A@@std@@@std@@QAEIABK@Z 00415ec0 f i Net:Servers.obj
 0001:00014f30       ?find@?$_Tree@V?$_Tmap_traits@KKU?$less@K@std@@V?$allocator@U?$pair@$$CBKK@std@@@2@$0A@@std@@@std@@QAE?AViterator@12@ABK@Z 00415f30 f i Net:Servers.obj
 0001:00014fa0       ?insert@?$_Tree@V?$_Tmap_traits@JJU?$less@J@std@@V?$allocator@U?$pair@$$CBJJ@std@@@2@$0A@@std@@@std@@QAE?AViterator@12@V312@ABU?$pair@$$CBJJ@2@@Z 00415fa0 f i Net:Servers.obj
 0001:00014fa0       ?insert@?$_Tree@V?$_Tmap_traits@HPAVCDataBlock@@U?$less@H@std@@V?$allocator@U?$pair@$$CBHPAVCDataBlock@@@std@@@3@$0A@@std@@@std@@QAE?AViterator@12@V312@ABU?$pair@$$CBHPAVCDataBlock@@@2@@Z 00415fa0 f i Net:ServerClient.obj
 0001:00014fa0       ?insert@?$_Tree@V?$_Tmap_traits@JPAVCDataObject@@U?$less@J@std@@V?$allocator@U?$pair@$$CBJPAVCDataObject@@@std@@@3@$0A@@std@@@std@@QAE?AViterator@12@V312@ABU?$pair@$$CBJPAVCDataObject@@@2@@Z 00415fa0 f i public:ColumnProperty.obj
 0001:00015180       ?_Tidy@?$deque@PAUtagFileAsynOper@CClientResource@@V?$allocator@PAUtagFileAsynOper@CClientResource@@@std@@@std@@IAEXXZ 00416180 f i public:ClientResource.obj
 0001:00015180       ?_Tidy@?$deque@PAVCBaseMessage@@V?$allocator@PAVCBaseMessage@@@std@@@std@@IAEXXZ 00416180 f i Net:MsgQueue.obj
 0001:00015180       ?_Tidy@?$deque@PAUtagSocketOper@@V?$allocator@PAUtagSocketOper@@@std@@@std@@IAEXXZ 00416180 f i Net:Servers.obj
 0001:000151f0       ?erase@?$list@PAVCDataBlock@@V?$allocator@PAVCDataBlock@@@std@@@std@@QAE?AV?$_Iterator@$00@12@V312@@Z 004161f0 f i Net:ServerClient.obj
 0001:000151f0       ?erase@?$list@PAVPER_IO_OPERATION_DATA@@V?$allocator@PAVPER_IO_OPERATION_DATA@@@std@@@std@@QAE?AV?$_Iterator@$00@12@V312@@Z 004161f0 f i Net:Servers.obj
 0001:000151f0       ?erase@?$list@PAUtagSocketOper@@V?$allocator@PAUtagSocketOper@@@std@@@std@@QAE?AV?$_Iterator@$00@12@V312@@Z 004161f0 f i Net:Servers.obj
 0001:000151f0       ?erase@?$list@PAVCBaseMessage@@V?$allocator@PAVCBaseMessage@@@std@@@std@@QAE?AV?$_Iterator@$00@12@V312@@Z 004161f0 f i Net:BaseMessage.obj
 0001:00015250       ?_Tidy@?$_Tree@V?$_Tmap_traits@JPAVCServerClient@@U?$less@J@std@@V?$allocator@U?$pair@$$CBJPAVCServerClient@@@std@@@3@$0A@@std@@@std@@IAEXXZ 00416250 f i Net:Servers.obj
 0001:00015290       ?erase@?$vector@PAXV?$allocator@PAX@std@@@std@@QAE?AV?$_Vector_iterator@PAXV?$allocator@PAX@std@@@2@V32@0@Z 00416290 f i Net:Servers.obj
 0001:000152f0       ?insert@?$_Tree@V?$_Tmap_traits@JUtagDataStat@CServer@@U?$less@J@std@@V?$allocator@U?$pair@$$CBJUtagDataStat@CServer@@@std@@@4@$0A@@std@@@std@@QAE?AViterator@12@V312@ABU?$pair@$$CBJUtagDataStat@CServer@@@2@@Z 004162f0 f i Net:Servers.obj
 0001:000154d0       ?_Erase@?$_Tree@V?$_Tmap_traits@VCGUID@@PAVCEntityGroup@@U?$less@VCGUID@@@std@@V?$allocator@U?$pair@$$CBVCGUID@@PAVCEntityGroup@@@std@@@4@$0A@@std@@@std@@IAEXPAU_Node@?$_Tree_nod@V?$_Tmap_traits@VCGUID@@PAVCEntityGroup@@U?$less@VCGUID@@@std@@V?$allocator@U?$pair@$$CBVCGUID@@PAVCEntityGroup@@@std@@@4@$0A@@std@@@2@@Z 004164d0 f i Game.obj
 0001:000154d0       ?_Erase@?$_Tree@V?$_Tmap_traits@JUtagDataStat@CServer@@U?$less@J@std@@V?$allocator@U?$pair@$$CBJUtagDataStat@CServer@@@std@@@4@$0A@@std@@@std@@IAEXPAU_Node@?$_Tree_nod@V?$_Tmap_traits@JUtagDataStat@CServer@@U?$less@J@std@@V?$allocator@U?$pair@$$CBJUtagDataStat@CServer@@@std@@@4@$0A@@std@@@2@@Z 004164d0 f i Net:Servers.obj
 0001:000154d0       ?_Erase@?$_Tree@V?$_Tmap_traits@VCGUID@@PAVCNetSession@@U?$less@VCGUID@@@std@@V?$allocator@U?$pair@$$CBVCGUID@@PAVCNetSession@@@std@@@4@$0A@@std@@@std@@IAEXPAU_Node@?$_Tree_nod@V?$_Tmap_traits@VCGUID@@PAVCNetSession@@U?$less@VCGUID@@@std@@V?$allocator@U?$pair@$$CBVCGUID@@PAVCNetSession@@@std@@@4@$0A@@std@@@2@@Z 004164d0 f i public:NetSessionManager.obj
 0001:00015510       ?_Tidy@?$_Tree@V?$_Tmap_traits@JUtagDataStat@CServer@@U?$less@J@std@@V?$allocator@U?$pair@$$CBJUtagDataStat@CServer@@@std@@@4@$0A@@std@@@std@@IAEXXZ 00416510 f i Net:Servers.obj
 0001:00015550       ?_Erase@?$_Tree@V?$_Tmap_traits@JUtagMsgStat@CServer@@U?$less@J@std@@V?$allocator@U?$pair@$$CBJUtagMsgStat@CServer@@@std@@@4@$0A@@std@@@std@@IAEXPAU_Node@?$_Tree_nod@V?$_Tmap_traits@JUtagMsgStat@CServer@@U?$less@J@std@@V?$allocator@U?$pair@$$CBJUtagMsgStat@CServer@@@std@@@4@$0A@@std@@@2@@Z 00416550 f i Net:Servers.obj
 0001:00015590       ?_Tidy@?$_Tree@V?$_Tmap_traits@JUtagMsgStat@CServer@@U?$less@J@std@@V?$allocator@U?$pair@$$CBJUtagMsgStat@CServer@@@std@@@4@$0A@@std@@@std@@IAEXXZ 00416590 f i Net:Servers.obj
 0001:000155d0       ?insert@?$_Tree@V?$_Tmap_traits@KKU?$less@K@std@@V?$allocator@U?$pair@$$CBKK@std@@@2@$0A@@std@@@std@@QAE?AViterator@12@V312@ABU?$pair@$$CBKK@2@@Z 004165d0 f i Net:Servers.obj
 0001:000157b0       ?equal_range@?$_Tree@V?$_Tmap_traits@KKU?$less@K@std@@V?$allocator@U?$pair@$$CBKK@std@@@2@$0A@@std@@@std@@QAE?AU?$pair@Viterator@?$_Tree@V?$_Tmap_traits@KKU?$less@K@std@@V?$allocator@U?$pair@$$CBKK@std@@@2@$0A@@std@@@std@@V123@@2@ABK@Z 004167b0 f i Net:Servers.obj
 0001:00015810       ?_Buynode@?$list@PAVCBaseMessage@@V?$allocator@PAVCBaseMessage@@@std@@@std@@IAEPAU_Node@?$_List_nod@PAVCBaseMessage@@V?$allocator@PAVCBaseMessage@@@std@@@2@PAU342@0ABQAVCBaseMessage@@@Z 00416810 f i Net:BaseMessage.obj
 0001:00015810       ?_Buynode@?$list@PAUtagSocketOper@@V?$allocator@PAUtagSocketOper@@@std@@@std@@IAEPAU_Node@?$_List_nod@PAUtagSocketOper@@V?$allocator@PAUtagSocketOper@@@std@@@2@PAU342@0ABQAUtagSocketOper@@@Z 00416810 f i Net:Servers.obj
 0001:00015810       ?_Buynode@?$list@PAVCDataBlock@@V?$allocator@PAVCDataBlock@@@std@@@std@@IAEPAU_Node@?$_List_nod@PAVCDataBlock@@V?$allocator@PAVCDataBlock@@@std@@@2@PAU342@0ABQAVCDataBlock@@@Z 00416810 f i Net:ServerClient.obj
 0001:00015810       ?_Buynode@?$list@PAVPER_IO_OPERATION_DATA@@V?$allocator@PAVPER_IO_OPERATION_DATA@@@std@@@std@@IAEPAU_Node@?$_List_nod@PAVPER_IO_OPERATION_DATA@@V?$allocator@PAVPER_IO_OPERATION_DATA@@@std@@@2@PAU342@0ABQAVPER_IO_OPERATION_DATA@@@Z 00416810 f i Net:Servers.obj
 0001:00015850       ?erase@?$_Tree@V?$_Tmap_traits@JPAVCServerClient@@U?$less@J@std@@V?$allocator@U?$pair@$$CBJPAVCServerClient@@@std@@@3@$0A@@std@@@std@@QAE?AViterator@12@V312@0@Z 00416850 f i Net:Servers.obj
 0001:00015920       ?insert@?$_Tree@V?$_Tmap_traits@JUtagDataStat@CServer@@U?$less@J@std@@V?$allocator@U?$pair@$$CBJUtagDataStat@CServer@@@std@@@4@$0A@@std@@@std@@QAE?AU?$pair@Viterator@?$_Tree@V?$_Tmap_traits@JUtagDataStat@CServer@@U?$less@J@std@@V?$allocator@U?$pair@$$CBJUtagDataStat@CServer@@@std@@@4@$0A@@std@@@std@@_N@2@ABU?$pair@$$CBJUtagDataStat@CServer@@@2@@Z 00416920 f i Net:Servers.obj
 0001:00015a00       ?erase@?$_Tree@V?$_Tmap_traits@JUtagDataStat@CServer@@U?$less@J@std@@V?$allocator@U?$pair@$$CBJUtagDataStat@CServer@@@std@@@4@$0A@@std@@@std@@QAE?AViterator@12@V312@0@Z 00416a00 f i Net:Servers.obj
 0001:00015ad0       ?_Insert@?$_Tree@V?$_Tmap_traits@JUtagDataStat@CServer@@U?$less@J@std@@V?$allocator@U?$pair@$$CBJUtagDataStat@CServer@@@std@@@4@$0A@@std@@@std@@IAE?AViterator@12@_NPAU_Node@?$_Tree_nod@V?$_Tmap_traits@JUtagDataStat@CServer@@U?$less@J@std@@V?$allocator@U?$pair@$$CBJUtagDataStat@CServer@@@std@@@4@$0A@@std@@@2@ABU?$pair@$$CBJUtagDataStat@CServer@@@2@@Z 00416ad0 f i Net:Servers.obj
 0001:00015d20       ?erase@?$_Tree@V?$_Tmap_traits@JUtagMsgStat@CServer@@U?$less@J@std@@V?$allocator@U?$pair@$$CBJUtagMsgStat@CServer@@@std@@@4@$0A@@std@@@std@@QAE?AViterator@12@V312@0@Z 00416d20 f i Net:Servers.obj
 0001:00015df0       ?_Lrotate@?$_Tree@V?$_Tmap_traits@JUtagMsgStat@CServer@@U?$less@J@std@@V?$allocator@U?$pair@$$CBJUtagMsgStat@CServer@@@std@@@4@$0A@@std@@@std@@IAEXPAU_Node@?$_Tree_nod@V?$_Tmap_traits@JUtagMsgStat@CServer@@U?$less@J@std@@V?$allocator@U?$pair@$$CBJUtagMsgStat@CServer@@@std@@@4@$0A@@std@@@2@@Z 00416df0 f i Net:Servers.obj
 0001:00015e40       ?_Rrotate@?$_Tree@V?$_Tmap_traits@JUtagMsgStat@CServer@@U?$less@J@std@@V?$allocator@U?$pair@$$CBJUtagMsgStat@CServer@@@std@@@4@$0A@@std@@@std@@IAEXPAU_Node@?$_Tree_nod@V?$_Tmap_traits@JUtagMsgStat@CServer@@U?$less@J@std@@V?$allocator@U?$pair@$$CBJUtagMsgStat@CServer@@@std@@@4@$0A@@std@@@2@@Z 00416e40 f i Net:Servers.obj
 0001:00015e90       ?insert@?$_Tree@V?$_Tmap_traits@KKU?$less@K@std@@V?$allocator@U?$pair@$$CBKK@std@@@2@$0A@@std@@@std@@QAE?AU?$pair@Viterator@?$_Tree@V?$_Tmap_traits@KKU?$less@K@std@@V?$allocator@U?$pair@$$CBKK@std@@@2@$0A@@std@@@std@@_N@2@ABU?$pair@$$CBKK@2@@Z 00416e90 f i Net:Servers.obj
 0001:00015f70       ?_Insert@?$_Tree@V?$_Tmap_traits@HPAVCDataBlock@@U?$less@H@std@@V?$allocator@U?$pair@$$CBHPAVCDataBlock@@@std@@@3@$0A@@std@@@std@@IAE?AViterator@12@_NPAU_Node@?$_Tree_nod@V?$_Tmap_traits@HPAVCDataBlock@@U?$less@H@std@@V?$allocator@U?$pair@$$CBHPAVCDataBlock@@@std@@@3@$0A@@std@@@2@ABU?$pair@$$CBHPAVCDataBlock@@@2@@Z 00416f70 f i Net:ServerClient.obj
 0001:00015f70       ?_Insert@?$_Tree@V?$_Tmap_traits@JJU?$less@J@std@@V?$allocator@U?$pair@$$CBJJ@std@@@2@$0A@@std@@@std@@IAE?AViterator@12@_NPAU_Node@?$_Tree_nod@V?$_Tmap_traits@JJU?$less@J@std@@V?$allocator@U?$pair@$$CBJJ@std@@@2@$0A@@std@@@2@ABU?$pair@$$CBJJ@2@@Z 00416f70 f i Net:Servers.obj
 0001:00015f70       ?_Insert@?$_Tree@V?$_Tmap_traits@JPAVCDataObject@@U?$less@J@std@@V?$allocator@U?$pair@$$CBJPAVCDataObject@@@std@@@3@$0A@@std@@@std@@IAE?AViterator@12@_NPAU_Node@?$_Tree_nod@V?$_Tmap_traits@JPAVCDataObject@@U?$less@J@std@@V?$allocator@U?$pair@$$CBJPAVCDataObject@@@std@@@3@$0A@@std@@@2@ABU?$pair@$$CBJPAVCDataObject@@@2@@Z 00416f70 f i public:ColumnProperty.obj
 0001:00015f70       ?_Insert@?$_Tree@V?$_Tmap_traits@KKU?$less@K@std@@V?$allocator@U?$pair@$$CBKK@std@@@2@$0A@@std@@@std@@IAE?AViterator@12@_NPAU_Node@?$_Tree_nod@V?$_Tmap_traits@KKU?$less@K@std@@V?$allocator@U?$pair@$$CBKK@std@@@2@$0A@@std@@@2@ABU?$pair@$$CBKK@2@@Z 00416f70 f i Net:Servers.obj
 0001:00015f70       ?_Insert@?$_Tree@V?$_Tmap_traits@JPAVCEntityProperty@@U?$less@J@std@@V?$allocator@U?$pair@$$CBJPAVCEntityProperty@@@std@@@3@$0A@@std@@@std@@IAE?AViterator@12@_NPAU_Node@?$_Tree_nod@V?$_Tmap_traits@JPAVCEntityProperty@@U?$less@J@std@@V?$allocator@U?$pair@$$CBJPAVCEntityProperty@@@std@@@3@$0A@@std@@@2@ABU?$pair@$$CBJPAVCEntityProperty@@@2@@Z 00416f70 f i serverpublic:EntityProperty.obj
 0001:000161c0       ?erase@?$_Tree@V?$_Tmap_traits@JPAVCServerClient@@U?$less@J@std@@V?$allocator@U?$pair@$$CBJPAVCServerClient@@@std@@@3@$0A@@std@@@std@@QAE?AViterator@12@V312@@Z 004171c0 f i Net:Servers.obj
 0001:00016490       ?_Buynode@?$_Tree@V?$_Tmap_traits@JUtagDataStat@CServer@@U?$less@J@std@@V?$allocator@U?$pair@$$CBJUtagDataStat@CServer@@@std@@@4@$0A@@std@@@std@@IAEPAU_Node@?$_Tree_nod@V?$_Tmap_traits@JUtagDataStat@CServer@@U?$less@J@std@@V?$allocator@U?$pair@$$CBJUtagDataStat@CServer@@@std@@@4@$0A@@std@@@2@PAU342@00ABU?$pair@$$CBJUtagDataStat@CServer@@@2@D@Z 00417490 f i Net:Servers.obj
 0001:000164e0       ?erase@?$_Tree@V?$_Tmap_traits@JUtagMsgStat@CServer@@U?$less@J@std@@V?$allocator@U?$pair@$$CBJUtagMsgStat@CServer@@@std@@@4@$0A@@std@@@std@@QAE?AViterator@12@V312@@Z 004174e0 f i Net:Servers.obj
 0001:000167a0       ?_Buynode@?$_Tree@V?$_Tmap_traits@JUtagMsgStat@CServer@@U?$less@J@std@@V?$allocator@U?$pair@$$CBJUtagMsgStat@CServer@@@std@@@4@$0A@@std@@@std@@IAEPAU_Node@?$_Tree_nod@V?$_Tmap_traits@JUtagMsgStat@CServer@@U?$less@J@std@@V?$allocator@U?$pair@$$CBJUtagMsgStat@CServer@@@std@@@4@$0A@@std@@@2@XZ 004177a0 f i Net:Servers.obj
 0001:000167e0       ?_Inc@const_iterator@?$_Tree@V?$_Tmap_traits@JUtagMsgStat@CServer@@U?$less@J@std@@V?$allocator@U?$pair@$$CBJUtagMsgStat@CServer@@@std@@@4@$0A@@std@@@std@@QAEXXZ 004177e0 f i Net:Servers.obj
 0001:00016850       ?_Max@?$_Tree@V?$_Tmap_traits@JUtagMsgStat@CServer@@U?$less@J@std@@V?$allocator@U?$pair@$$CBJUtagMsgStat@CServer@@@std@@@4@$0A@@std@@@std@@KAPAU_Node@?$_Tree_nod@V?$_Tmap_traits@JUtagMsgStat@CServer@@U?$less@J@std@@V?$allocator@U?$pair@$$CBJUtagMsgStat@CServer@@@std@@@4@$0A@@std@@@2@PAU342@@Z 00417850 f i Net:Servers.obj
 0001:00016870       ?_Dec@const_iterator@?$_Tree@V?$_Tmap_traits@JUtagDataStat@CServer@@U?$less@J@std@@V?$allocator@U?$pair@$$CBJUtagDataStat@CServer@@@std@@@4@$0A@@std@@@std@@QAEXXZ 00417870 f i Net:Servers.obj
 0001:000168f0       ?_Inc@const_iterator@?$_Tree@V?$_Tmap_traits@JUtagDataStat@CServer@@U?$less@J@std@@V?$allocator@U?$pair@$$CBJUtagDataStat@CServer@@@std@@@4@$0A@@std@@@std@@QAEXXZ 004178f0 f i Net:Servers.obj
 0001:000168f0       ?_Inc@const_iterator@?$_Tree@V?$_Tmap_traits@VCGUID@@PAVCNetSession@@U?$less@VCGUID@@@std@@V?$allocator@U?$pair@$$CBVCGUID@@PAVCNetSession@@@std@@@4@$0A@@std@@@std@@QAEXXZ 004178f0 f i public:NetSessionManager.obj
 0001:00016960       ??$fill@PAPAVCTableManager@@PAV1@@std@@YAXPAPAVCTableManager@@0ABQAV1@@Z 00417960 f i public:RankDef.obj
 0001:00016960       ??$fill@PAPAXPAX@std@@YAXPAPAX0ABQAX@Z 00417960 f i Net:Servers.obj
 0001:00016980       ??$_Unchecked_move_backward@PAPAVCTableManager@@PAPAV1@@stdext@@YAPAPAVCTableManager@@PAPAV1@00@Z 00417980 f i public:RankDef.obj
 0001:00016980       ??$_Unchecked_move_backward@PAPAXPAPAX@stdext@@YAPAPAXPAPAX00@Z 00417980 f i Net:Servers.obj
 0001:000169b0       ??$_Allocate@U_Node@?$_Tree_nod@V?$_Tmap_traits@JUtagMsgStat@CServer@@U?$less@J@std@@V?$allocator@U?$pair@$$CBJUtagMsgStat@CServer@@@std@@@4@$0A@@std@@@std@@@std@@YAPAU_Node@?$_Tree_nod@V?$_Tmap_traits@JUtagMsgStat@CServer@@U?$less@J@std@@V?$allocator@U?$pair@$$CBJUtagMsgStat@CServer@@@std@@@4@$0A@@std@@@0@IPAU120@@Z 004179b0 f i Net:Servers.obj
 0001:00016a10       ??$_Distance2@Viterator@?$_Tree@V?$_Tmap_traits@KKU?$less@K@std@@V?$allocator@U?$pair@$$CBKK@std@@@2@$0A@@std@@@std@@I@std@@YAXViterator@?$_Tree@V?$_Tmap_traits@KKU?$less@K@std@@V?$allocator@U?$pair@$$CBKK@std@@@2@$0A@@std@@@0@0AAIUbidirectional_iterator_tag@0@@Z 00417a10 f i Net:Servers.obj
 0001:00016a50       ?ResetDataBufSize@PER_IO_OPERATION_DATA@@QAEXJ@Z 00417a50 f i Net:Servers.obj
 0001:00016a90       ??_ECMsgQueue@@UAEPAXI@Z   00417a90 f i  CIL library: CIL module
 0001:00016a90       ??_GCMsgQueue@@UAEPAXI@Z   00417a90 f i Net:MsgQueue.obj
 0001:00016ab0       ??1CMsgQueue@@UAE@XZ       00417ab0 f   Net:MsgQueue.obj
 0001:00016b10       ?PushMsgsoFront@CMsgQueue@@QAE_NAAV?$deque@PAVCBaseMessage@@V?$allocator@PAVCBaseMessage@@@std@@@std@@@Z 00417b10 f   Net:MsgQueue.obj
 0001:00016be0       ?PopMessage@CMsgQueue@@QAEPAVCBaseMessage@@XZ 00417be0 f   Net:MsgQueue.obj
 0001:00016c80       ?Clear@CMsgQueue@@QAEXXZ   00417c80 f   Net:MsgQueue.obj
 0001:00016d30       ??4?$deque@PAVCBaseMessage@@V?$allocator@PAVCBaseMessage@@@std@@@std@@QAEAAV01@ABV01@@Z 00417d30 f i Net:MsgQueue.obj
 0001:00016f70       ?push_back@?$deque@PAUtagFileAsynOper@CClientResource@@V?$allocator@PAUtagFileAsynOper@CClientResource@@@std@@@std@@QAEXABQAUtagFileAsynOper@CClientResource@@@Z 00417f70 f i public:ClientResource.obj
 0001:00016f70       ?push_back@?$deque@PAUtagSocketOper@@V?$allocator@PAUtagSocketOper@@@std@@@std@@QAEXABQAUtagSocketOper@@@Z 00417f70 f i Net:SocketCommands.obj
 0001:00016f70       ?push_back@?$deque@PAVCBaseMessage@@V?$allocator@PAVCBaseMessage@@@std@@@std@@QAEXABQAVCBaseMessage@@@Z 00417f70 f i Net:MsgQueue.obj
 0001:00016ff0       ?_Growmap@?$deque@PAUtagFileAsynOper@CClientResource@@V?$allocator@PAUtagFileAsynOper@CClientResource@@@std@@@std@@IAEXI@Z 00417ff0 f i public:ClientResource.obj
 0001:00016ff0       ?_Growmap@?$deque@PAUtagSocketOper@@V?$allocator@PAUtagSocketOper@@@std@@@std@@IAEXI@Z 00417ff0 f i Net:SocketCommands.obj
 0001:00016ff0       ?_Growmap@?$deque@PAVCBaseMessage@@V?$allocator@PAVCBaseMessage@@@std@@@std@@IAEXI@Z 00417ff0 f i Net:MsgQueue.obj
 0001:00017150       ??H?$_Deque_const_iterator@PAUtagSocketOper@@V?$allocator@PAUtagSocketOper@@@std@@$00@std@@QBE?AV01@H@Z 00418150 f i Net:SocketCommands.obj
 0001:00017150       ??H?$_Deque_const_iterator@PAVCBaseMessage@@V?$allocator@PAVCBaseMessage@@@std@@$00@std@@QBE?AV01@H@Z 00418150 f i Net:MsgQueue.obj
 0001:00017190       ?pop_back@?$deque@PAVCBaseMessage@@V?$allocator@PAVCBaseMessage@@@std@@@std@@QAEXXZ 00418190 f i Net:MsgQueue.obj
 0001:00017190       ?pop_back@?$deque@PAUtagSocketOper@@V?$allocator@PAUtagSocketOper@@@std@@@std@@QAEXXZ 00418190 f i Net:Servers.obj
 0001:000171b0       ?_Xlen@?$deque@PAVCBaseMessage@@V?$allocator@PAVCBaseMessage@@@std@@@std@@KAXXZ 004181b0 f i Net:MsgQueue.obj
 0001:000171b0       ?_Xlen@?$deque@PAUtagFileAsynOper@CClientResource@@V?$allocator@PAUtagFileAsynOper@CClientResource@@@std@@@std@@KAXXZ 004181b0 f i public:ClientResource.obj
 0001:000171b0       ?_Xlen@?$deque@PAUtagSocketOper@@V?$allocator@PAUtagSocketOper@@@std@@@std@@KAXXZ 004181b0 f i Net:SocketCommands.obj
 0001:00017230       ?allocate@?$allocator@PAPAVCBaseMessage@@@std@@QAEPAPAPAVCBaseMessage@@I@Z 00418230 f i Net:MsgQueue.obj
 0001:00017230       ?allocate@?$allocator@PAPAUtagSocketOper@@@std@@QAEPAPAPAUtagSocketOper@@I@Z 00418230 f i Net:SocketCommands.obj
 0001:00017230       ?allocate@?$allocator@PAPAUtagFileAsynOper@CClientResource@@@std@@QAEPAPAPAUtagFileAsynOper@CClientResource@@I@Z 00418230 f i public:ClientResource.obj
 0001:00017290       ??$copy@V?$_Deque_iterator@PAVCBaseMessage@@V?$allocator@PAVCBaseMessage@@@std@@$00@std@@V12@@std@@YA?AV?$_Deque_iterator@PAVCBaseMessage@@V?$allocator@PAVCBaseMessage@@@std@@$00@0@V10@00@Z 00418290 f i Net:MsgQueue.obj
 0001:00017290       ??$copy@V?$_Deque_iterator@PAUtagSocketOper@@V?$allocator@PAUtagSocketOper@@@std@@$00@std@@V12@@std@@YA?AV?$_Deque_iterator@PAUtagSocketOper@@V?$allocator@PAUtagSocketOper@@@std@@$00@0@V10@00@Z 00418290 f i Net:SocketCommands.obj
 0001:00017290       ??$copy@V?$_Deque_const_iterator@PAVCBaseMessage@@V?$allocator@PAVCBaseMessage@@@std@@$00@std@@V?$_Deque_iterator@PAVCBaseMessage@@V?$allocator@PAVCBaseMessage@@@std@@$00@2@@std@@YA?AV?$_Deque_iterator@PAVCBaseMessage@@V?$allocator@PAVCBaseMessage@@@std@@$00@0@V?$_Deque_const_iterator@PAVCBaseMessage@@V?$allocator@PAVCBaseMessage@@@std@@$00@0@0V10@@Z 00418290 f i Net:MsgQueue.obj
 0001:00017290       ??$copy@V?$_Deque_const_iterator@PAUtagSocketOper@@V?$allocator@PAUtagSocketOper@@@std@@$00@std@@V?$_Deque_iterator@PAUtagSocketOper@@V?$allocator@PAUtagSocketOper@@@std@@$00@2@@std@@YA?AV?$_Deque_iterator@PAUtagSocketOper@@V?$allocator@PAUtagSocketOper@@@std@@$00@0@V?$_Deque_const_iterator@PAUtagSocketOper@@V?$allocator@PAUtagSocketOper@@@std@@$00@0@0V10@@Z 00418290 f i Net:SocketCommands.obj
 0001:00017300       ??$insert@V?$_Deque_iterator@PAVCBaseMessage@@V?$allocator@PAVCBaseMessage@@@std@@$00@std@@@?$deque@PAVCBaseMessage@@V?$allocator@PAVCBaseMessage@@@std@@@std@@QAEXV?$_Deque_iterator@PAVCBaseMessage@@V?$allocator@PAVCBaseMessage@@@std@@$00@1@00@Z 00418300 f i Net:MsgQueue.obj
 0001:00017300       ??$insert@V?$_Deque_const_iterator@PAVCBaseMessage@@V?$allocator@PAVCBaseMessage@@@std@@$00@std@@@?$deque@PAVCBaseMessage@@V?$allocator@PAVCBaseMessage@@@std@@@std@@QAEXV?$_Deque_iterator@PAVCBaseMessage@@V?$allocator@PAVCBaseMessage@@@std@@$00@1@V?$_Deque_const_iterator@PAVCBaseMessage@@V?$allocator@PAVCBaseMessage@@@std@@$00@1@1@Z 00418300 f i Net:MsgQueue.obj
 0001:00017360       ??$copy_backward@V?$_Deque_iterator@PAVCBaseMessage@@V?$allocator@PAVCBaseMessage@@@std@@$00@std@@V12@@std@@YA?AV?$_Deque_iterator@PAVCBaseMessage@@V?$allocator@PAVCBaseMessage@@@std@@$00@0@V10@00@Z 00418360 f i Net:MsgQueue.obj
 0001:00017360       ??$copy_backward@V?$_Deque_iterator@PAUtagSocketOper@@V?$allocator@PAUtagSocketOper@@@std@@$00@std@@V12@@std@@YA?AV?$_Deque_iterator@PAUtagSocketOper@@V?$allocator@PAUtagSocketOper@@@std@@$00@0@V10@00@Z 00418360 f i Net:SocketCommands.obj
 0001:000173d0       ??$_Copy_opt@V?$_Deque_const_iterator@PAVCBaseMessage@@V?$allocator@PAVCBaseMessage@@@std@@$0A@@std@@V?$_Deque_iterator@PAVCBaseMessage@@V?$allocator@PAVCBaseMessage@@@std@@$00@2@@std@@YA?AV?$_Deque_iterator@PAVCBaseMessage@@V?$allocator@PAVCBaseMessage@@@std@@$00@0@V?$_Deque_const_iterator@PAVCBaseMessage@@V?$allocator@PAVCBaseMessage@@@std@@$0A@@0@0V10@Urandom_access_iterator_tag@0@U_Nonscalar_ptr_iterator_tag@0@U_Range_checked_iterator_tag@0@@Z 004183d0 f i Net:MsgQueue.obj
 0001:000173d0       ??$_Copy_opt@V?$_Deque_iterator@PAUtagSocketOper@@V?$allocator@PAUtagSocketOper@@@std@@$0A@@std@@V?$_Deque_iterator@PAUtagSocketOper@@V?$allocator@PAUtagSocketOper@@@std@@$00@2@@std@@YA?AV?$_Deque_iterator@PAUtagSocketOper@@V?$allocator@PAUtagSocketOper@@@std@@$00@0@V?$_Deque_iterator@PAUtagSocketOper@@V?$allocator@PAUtagSocketOper@@@std@@$0A@@0@0V10@Urandom_access_iterator_tag@0@U_Nonscalar_ptr_iterator_tag@0@U_Range_checked_iterator_tag@0@@Z 004183d0 f i Net:SocketCommands.obj
 0001:000173d0       ??$_Copy_opt@V?$_Deque_const_iterator@PAUtagSocketOper@@V?$allocator@PAUtagSocketOper@@@std@@$0A@@std@@V?$_Deque_iterator@PAUtagSocketOper@@V?$allocator@PAUtagSocketOper@@@std@@$00@2@@std@@YA?AV?$_Deque_iterator@PAUtagSocketOper@@V?$allocator@PAUtagSocketOper@@@std@@$00@0@V?$_Deque_const_iterator@PAUtagSocketOper@@V?$allocator@PAUtagSocketOper@@@std@@$0A@@0@0V10@Urandom_access_iterator_tag@0@U_Nonscalar_ptr_iterator_tag@0@U_Range_checked_iterator_tag@0@@Z 004183d0 f i Net:SocketCommands.obj
 0001:000173d0       ??$_Copy_opt@V?$_Deque_iterator@PAVCBaseMessage@@V?$allocator@PAVCBaseMessage@@@std@@$0A@@std@@V?$_Deque_iterator@PAVCBaseMessage@@V?$allocator@PAVCBaseMessage@@@std@@$00@2@@std@@YA?AV?$_Deque_iterator@PAVCBaseMessage@@V?$allocator@PAVCBaseMessage@@@std@@$00@0@V?$_Deque_iterator@PAVCBaseMessage@@V?$allocator@PAVCBaseMessage@@@std@@$0A@@0@0V10@Urandom_access_iterator_tag@0@U_Nonscalar_ptr_iterator_tag@0@U_Range_checked_iterator_tag@0@@Z 004183d0 f i Net:MsgQueue.obj
 0001:00017490       ??$_Insert@V?$_Deque_iterator@PAVCBaseMessage@@V?$allocator@PAVCBaseMessage@@@std@@$00@std@@@?$deque@PAVCBaseMessage@@V?$allocator@PAVCBaseMessage@@@std@@@std@@QAEXV?$_Deque_iterator@PAVCBaseMessage@@V?$allocator@PAVCBaseMessage@@@std@@$00@1@00Ubidirectional_iterator_tag@1@@Z 00418490 f i Net:MsgQueue.obj
 0001:00017490       ??$_Insert@V?$_Deque_const_iterator@PAVCBaseMessage@@V?$allocator@PAVCBaseMessage@@@std@@$00@std@@@?$deque@PAVCBaseMessage@@V?$allocator@PAVCBaseMessage@@@std@@@std@@QAEXV?$_Deque_iterator@PAVCBaseMessage@@V?$allocator@PAVCBaseMessage@@@std@@$00@1@V?$_Deque_const_iterator@PAVCBaseMessage@@V?$allocator@PAVCBaseMessage@@@std@@$00@1@1Ubidirectional_iterator_tag@1@@Z 00418490 f i Net:MsgQueue.obj
 0001:00017bf0       ??$_Copy_backward_opt@V?$_Deque_iterator@PAVCBaseMessage@@V?$allocator@PAVCBaseMessage@@@std@@$0A@@std@@V?$_Deque_iterator@PAVCBaseMessage@@V?$allocator@PAVCBaseMessage@@@std@@$00@2@@std@@YA?AV?$_Deque_iterator@PAVCBaseMessage@@V?$allocator@PAVCBaseMessage@@@std@@$00@0@V?$_Deque_iterator@PAVCBaseMessage@@V?$allocator@PAVCBaseMessage@@@std@@$0A@@0@0V10@Urandom_access_iterator_tag@0@U_Nonscalar_ptr_iterator_tag@0@U_Range_checked_iterator_tag@0@@Z 00418bf0 f i Net:MsgQueue.obj
 0001:00017bf0       ??$_Copy_backward_opt@V?$_Deque_iterator@PAUtagSocketOper@@V?$allocator@PAUtagSocketOper@@@std@@$0A@@std@@V?$_Deque_iterator@PAUtagSocketOper@@V?$allocator@PAUtagSocketOper@@@std@@$00@2@@std@@YA?AV?$_Deque_iterator@PAUtagSocketOper@@V?$allocator@PAUtagSocketOper@@@std@@$00@0@V?$_Deque_iterator@PAUtagSocketOper@@V?$allocator@PAUtagSocketOper@@@std@@$0A@@0@0V10@Urandom_access_iterator_tag@0@U_Nonscalar_ptr_iterator_tag@0@U_Range_checked_iterator_tag@0@@Z 00418bf0 f i Net:SocketCommands.obj
 0001:00017cb0       ?push_front@?$deque@PAVCBaseMessage@@V?$allocator@PAVCBaseMessage@@@std@@@std@@QAEXABQAVCBaseMessage@@@Z 00418cb0 f i Net:MsgQueue.obj
 0001:00017d30       ??A?$_Deque_iterator@PAVCBaseMessage@@V?$allocator@PAVCBaseMessage@@@std@@$00@std@@QBEAAPAVCBaseMessage@@H@Z 00418d30 f i Net:MsgQueue.obj
 0001:00017d30       ??A?$_Deque_iterator@PAUtagSocketOper@@V?$allocator@PAUtagSocketOper@@@std@@$00@std@@QBEAAPAUtagSocketOper@@H@Z 00418d30 f i Net:SocketCommands.obj
 0001:00017d90       ??$_Copy_opt@V?$_Deque_const_iterator@PAVCBaseMessage@@V?$allocator@PAVCBaseMessage@@@std@@$0A@@std@@V?$_Deque_iterator@PAVCBaseMessage@@V?$allocator@PAVCBaseMessage@@@std@@$0A@@2@Uforward_iterator_tag@2@@std@@YA?AV?$_Deque_iterator@PAVCBaseMessage@@V?$allocator@PAVCBaseMessage@@@std@@$0A@@0@V?$_Deque_const_iterator@PAVCBaseMessage@@V?$allocator@PAVCBaseMessage@@@std@@$0A@@0@0V10@Uforward_iterator_tag@0@U_Nonscalar_ptr_iterator_tag@0@U_Range_checked_iterator_tag@0@@Z 00418d90 f i Net:MsgQueue.obj
 0001:00017d90       ??$_Copy_opt@V?$_Deque_iterator@PAVCBaseMessage@@V?$allocator@PAVCBaseMessage@@@std@@$0A@@std@@V12@Uforward_iterator_tag@2@@std@@YA?AV?$_Deque_iterator@PAVCBaseMessage@@V?$allocator@PAVCBaseMessage@@@std@@$0A@@0@V10@00Uforward_iterator_tag@0@U_Nonscalar_ptr_iterator_tag@0@U_Range_checked_iterator_tag@0@@Z 00418d90 f i Net:MsgQueue.obj
 0001:00017d90       ??$_Copy_opt@V?$_Deque_iterator@PAUtagSocketOper@@V?$allocator@PAUtagSocketOper@@@std@@$0A@@std@@V12@Uforward_iterator_tag@2@@std@@YA?AV?$_Deque_iterator@PAUtagSocketOper@@V?$allocator@PAUtagSocketOper@@@std@@$0A@@0@V10@00Uforward_iterator_tag@0@U_Nonscalar_ptr_iterator_tag@0@U_Range_checked_iterator_tag@0@@Z 00418d90 f i Net:SocketCommands.obj
 0001:00017d90       ??$_Copy_opt@V?$_Deque_const_iterator@PAUtagSocketOper@@V?$allocator@PAUtagSocketOper@@@std@@$0A@@std@@V?$_Deque_iterator@PAUtagSocketOper@@V?$allocator@PAUtagSocketOper@@@std@@$0A@@2@Uforward_iterator_tag@2@@std@@YA?AV?$_Deque_iterator@PAUtagSocketOper@@V?$allocator@PAUtagSocketOper@@@std@@$0A@@0@V?$_Deque_const_iterator@PAUtagSocketOper@@V?$allocator@PAUtagSocketOper@@@std@@$0A@@0@0V10@Uforward_iterator_tag@0@U_Nonscalar_ptr_iterator_tag@0@U_Range_checked_iterator_tag@0@@Z 00418d90 f i Net:SocketCommands.obj
 0001:00017e50       ??$_Copy_backward_opt@V?$_Deque_iterator@PAUtagSocketOper@@V?$allocator@PAUtagSocketOper@@@std@@$0A@@std@@V12@Uforward_iterator_tag@2@@std@@YA?AV?$_Deque_iterator@PAUtagSocketOper@@V?$allocator@PAUtagSocketOper@@@std@@$0A@@0@V10@00Uforward_iterator_tag@0@U_Nonscalar_ptr_iterator_tag@0@U_Range_checked_iterator_tag@0@@Z 00418e50 f i Net:SocketCommands.obj
 0001:00017e50       ??$_Copy_backward_opt@V?$_Deque_iterator@PAVCBaseMessage@@V?$allocator@PAVCBaseMessage@@@std@@$0A@@std@@V12@Uforward_iterator_tag@2@@std@@YA?AV?$_Deque_iterator@PAVCBaseMessage@@V?$allocator@PAVCBaseMessage@@@std@@$0A@@0@V10@00Uforward_iterator_tag@0@U_Nonscalar_ptr_iterator_tag@0@U_Range_checked_iterator_tag@0@@Z 00418e50 f i Net:MsgQueue.obj
 0001:00017f20       ??0Config@AppFrame@@QAE@XZ 00418f20 f i Net:stdafx.obj
 0001:00017fa0       ??1Config@AppFrame@@QAE@XZ 00418fa0 f i Net:stdafx.obj
 0001:00018050       ??0Layout@AppFrame@@QAE@XZ 00419050 f i Net:stdafx.obj
 0001:000180c0       ??1Layout@AppFrame@@QAE@XZ 004190c0 f i Net:stdafx.obj
 0001:00018130       ?_Tidy@?$_Tree@V?$_Tmap_traits@V?$basic_string@DU?$char_traits@D@std@@V?$allocator@D@2@@std@@UWindow@Layout@AppFrame@@U?$less@V?$basic_string@DU?$char_traits@D@std@@V?$allocator@D@2@@std@@@2@V?$allocator@U?$pair@$$CBV?$basic_string@DU?$char_traits@D@std@@V?$allocator@D@2@@std@@UWindow@Layout@AppFrame@@@std@@@2@$0A@@std@@@std@@IAEXXZ 00419130 f i Net:stdafx.obj
 0001:00018170       ?erase@?$_Tree@V?$_Tmap_traits@V?$basic_string@DU?$char_traits@D@std@@V?$allocator@D@2@@std@@UWindow@Layout@AppFrame@@U?$less@V?$basic_string@DU?$char_traits@D@std@@V?$allocator@D@2@@std@@@2@V?$allocator@U?$pair@$$CBV?$basic_string@DU?$char_traits@D@std@@V?$allocator@D@2@@std@@UWindow@Layout@AppFrame@@@std@@@2@$0A@@std@@@std@@QAE?AViterator@12@V312@0@Z 00419170 f i Net:stdafx.obj
 0001:00018240       ?erase@?$_Tree@V?$_Tmap_traits@V?$basic_string@DU?$char_traits@D@std@@V?$allocator@D@2@@std@@UWindow@Layout@AppFrame@@U?$less@V?$basic_string@DU?$char_traits@D@std@@V?$allocator@D@2@@std@@@2@V?$allocator@U?$pair@$$CBV?$basic_string@DU?$char_traits@D@std@@V?$allocator@D@2@@std@@UWindow@Layout@AppFrame@@@std@@@2@$0A@@std@@@std@@QAE?AViterator@12@V312@@Z 00419240 f i Net:stdafx.obj
 0001:00018570       ?_Buynode@?$_Tree@V?$_Tmap_traits@V?$basic_string@DU?$char_traits@D@std@@V?$allocator@D@2@@std@@UWindow@Layout@AppFrame@@U?$less@V?$basic_string@DU?$char_traits@D@std@@V?$allocator@D@2@@std@@@2@V?$allocator@U?$pair@$$CBV?$basic_string@DU?$char_traits@D@std@@V?$allocator@D@2@@std@@UWindow@Layout@AppFrame@@@std@@@2@$0A@@std@@@std@@IAEPAU_Node@?$_Tree_nod@V?$_Tmap_traits@V?$basic_string@DU?$char_traits@D@std@@V?$allocator@D@2@@std@@UWindow@Layout@AppFrame@@U?$less@V?$basic_string@DU?$char_traits@D@std@@V?$allocator@D@2@@std@@@2@V?$allocator@U?$pair@$$CBV?$basic_string@DU?$char_traits@D@std@@V?$allocator@D@2@@std@@UWindow@Layout@AppFrame@@@std@@@2@$0A@@std@@@2@XZ 00419570 f i Net:stdafx.obj
 0001:000185b0       ?_Erase@?$_Tree@V?$_Tmap_traits@V?$basic_string@DU?$char_traits@D@std@@V?$allocator@D@2@@std@@UWindow@Layout@AppFrame@@U?$less@V?$basic_string@DU?$char_traits@D@std@@V?$allocator@D@2@@std@@@2@V?$allocator@U?$pair@$$CBV?$basic_string@DU?$char_traits@D@std@@V?$allocator@D@2@@std@@UWindow@Layout@AppFrame@@@std@@@2@$0A@@std@@@std@@IAEXPAU_Node@?$_Tree_nod@V?$_Tmap_traits@V?$basic_string@DU?$char_traits@D@std@@V?$allocator@D@2@@std@@UWindow@Layout@AppFrame@@U?$less@V?$basic_string@DU?$char_traits@D@std@@V?$allocator@D@2@@std@@@2@V?$allocator@U?$pair@$$CBV?$basic_string@DU?$char_traits@D@std@@V?$allocator@D@2@@std@@UWindow@Layout@AppFrame@@@std@@@2@$0A@@std@@@2@@Z 004195b0 f i Net:stdafx.obj
 0001:00018610       ?_Lrotate@?$_Tree@V?$_Tmap_traits@V?$basic_string@DU?$char_traits@D@std@@V?$allocator@D@2@@std@@UWindow@Layout@AppFrame@@U?$less@V?$basic_string@DU?$char_traits@D@std@@V?$allocator@D@2@@std@@@2@V?$allocator@U?$pair@$$CBV?$basic_string@DU?$char_traits@D@std@@V?$allocator@D@2@@std@@UWindow@Layout@AppFrame@@@std@@@2@$0A@@std@@@std@@IAEXPAU_Node@?$_Tree_nod@V?$_Tmap_traits@V?$basic_string@DU?$char_traits@D@std@@V?$allocator@D@2@@std@@UWindow@Layout@AppFrame@@U?$less@V?$basic_string@DU?$char_traits@D@std@@V?$allocator@D@2@@std@@@2@V?$allocator@U?$pair@$$CBV?$basic_string@DU?$char_traits@D@std@@V?$allocator@D@2@@std@@UWindow@Layout@AppFrame@@@std@@@2@$0A@@std@@@2@@Z 00419610 f i Net:stdafx.obj
 0001:00018660       ?_Rrotate@?$_Tree@V?$_Tmap_traits@V?$basic_string@DU?$char_traits@D@std@@V?$allocator@D@2@@std@@UWindow@Layout@AppFrame@@U?$less@V?$basic_string@DU?$char_traits@D@std@@V?$allocator@D@2@@std@@@2@V?$allocator@U?$pair@$$CBV?$basic_string@DU?$char_traits@D@std@@V?$allocator@D@2@@std@@UWindow@Layout@AppFrame@@@std@@@2@$0A@@std@@@std@@IAEXPAU_Node@?$_Tree_nod@V?$_Tmap_traits@V?$basic_string@DU?$char_traits@D@std@@V?$allocator@D@2@@std@@UWindow@Layout@AppFrame@@U?$less@V?$basic_string@DU?$char_traits@D@std@@V?$allocator@D@2@@std@@@2@V?$allocator@U?$pair@$$CBV?$basic_string@DU?$char_traits@D@std@@V?$allocator@D@2@@std@@UWindow@Layout@AppFrame@@@std@@@2@$0A@@std@@@2@@Z 00419660 f i Net:stdafx.obj
 0001:000186b0       ?_Inc@const_iterator@?$_Tree@V?$_Tmap_traits@V?$basic_string@DU?$char_traits@D@std@@V?$allocator@D@2@@std@@UWindow@Layout@AppFrame@@U?$less@V?$basic_string@DU?$char_traits@D@std@@V?$allocator@D@2@@std@@@2@V?$allocator@U?$pair@$$CBV?$basic_string@DU?$char_traits@D@std@@V?$allocator@D@2@@std@@UWindow@Layout@AppFrame@@@std@@@2@$0A@@std@@@std@@QAEXXZ 004196b0 f i Net:stdafx.obj
 0001:00018720       ??$_Allocate@U_Node@?$_Tree_nod@V?$_Tmap_traits@V?$basic_string@DU?$char_traits@D@std@@V?$allocator@D@2@@std@@UWindow@Layout@AppFrame@@U?$less@V?$basic_string@DU?$char_traits@D@std@@V?$allocator@D@2@@std@@@2@V?$allocator@U?$pair@$$CBV?$basic_string@DU?$char_traits@D@std@@V?$allocator@D@2@@std@@UWindow@Layout@AppFrame@@@std@@@2@$0A@@std@@@std@@@std@@YAPAU_Node@?$_Tree_nod@V?$_Tmap_traits@V?$basic_string@DU?$char_traits@D@std@@V?$allocator@D@2@@std@@UWindow@Layout@AppFrame@@U?$less@V?$basic_string@DU?$char_traits@D@std@@V?$allocator@D@2@@std@@@2@V?$allocator@U?$pair@$$CBV?$basic_string@DU?$char_traits@D@std@@V?$allocator@D@2@@std@@UWindow@Layout@AppFrame@@@std@@@2@$0A@@std@@@0@IPAU120@@Z 00419720 f i Net:stdafx.obj
 0001:00018780       ?KeyInit@@YAXPBEQAY05E@Z   00419780 f   Net:MsgCry.obj
 0001:00018a90       ?Encrypt@@YAHPAEHQAY05$$CBE@Z 00419a90 f   Net:MsgCry.obj
 0001:00018ae0       ?Decrypt@@YAHPAEHQAY05$$CBE@Z 00419ae0 f   Net:MsgCry.obj
 0001:00018b30       ?EnDES@@YAXPAEQAY05$$CBE@Z 00419b30 f   Net:MsgCry.obj
 0001:00018c20       ?DeDES@@YAXPAEQAY05$$CBE@Z 00419c20 f   Net:MsgCry.obj
 0001:00018d00       ?Permute@@YAXPAEQAY1BAA@7E0@Z 00419d00 f   Net:MsgCry.obj
 0001:00018d70       ?SelectFuncInit@@YAXXZ     00419d70 f   Net:MsgCry.obj
 0001:00018f10       ?P32Init@@YAXXZ            00419f10 f   Net:MsgCry.obj
 0001:000190d0       ?DESPermInit@@YAXQAY1BAA@7EQAE@Z 0041a0d0 f   Net:MsgCry.obj
 0001:00019260       ?Iter@@YAXHPAE0QAY05$$CBE@Z 0041a260 f   Net:MsgCry.obj
 0001:000192e0       ?CipherFunc@@YAXPAEH0QAY05$$CBE@Z 0041a2e0 f   Net:MsgCry.obj
 0001:00019390       ?Perm32@@YAXPAE0@Z         0041a390 f   Net:MsgCry.obj
 0001:00019490       ?Expand@@YAXPAE0@Z         0041a490 f   Net:MsgCry.obj
 0001:00019590       ?Contract@@YAXPAE0@Z       0041a590 f   Net:MsgCry.obj
 0001:00019630       ??0CMapFile@@QAE@XZ        0041a630 f   Net:MapFile.obj
 0001:000196b0       ??1?$map@V?$basic_string@DU?$char_traits@D@std@@V?$allocator@D@2@@std@@PAUtagFileInfo@@U?$less@V?$basic_string@DU?$char_traits@D@std@@V?$allocator@D@2@@std@@@2@V?$allocator@U?$pair@$$CBV?$basic_string@DU?$char_traits@D@std@@V?$allocator@D@2@@std@@PAUtagFileInfo@@@std@@@2@@std@@QAE@XZ 0041a6b0 f i public:ClientResource.obj
 0001:000196b0       ??1?$map@V?$basic_string@DU?$char_traits@D@std@@V?$allocator@D@2@@std@@PAUtagFileInfo0x@@U?$less@V?$basic_string@DU?$char_traits@D@std@@V?$allocator@D@2@@std@@@2@V?$allocator@U?$pair@$$CBV?$basic_string@DU?$char_traits@D@std@@V?$allocator@D@2@@std@@PAUtagFileInfo0x@@@std@@@2@@std@@QAE@XZ 0041a6b0 f i Net:MapFile.obj
 0001:000196c0       ??1CMapFile@@QAE@XZ        0041a6c0 f   Net:MapFile.obj
 0001:00019760       ?Initial@CMapFile@@QAE_NW4eFileMapServerType@@PBD1@Z 0041a760 f   Net:MapFile.obj
 0001:00019c50       ?Reset@CMapFile@@QAEXXZ    0041ac50 f   Net:MapFile.obj
 0001:00019cb0       ?ReleaseAllFiles@CMapFile@@AAEXXZ 0041acb0 f   Net:MapFile.obj
 0001:00019d90       ?WriteData@CMapFile@@AAEHHPBDH@Z 0041ad90 f   Net:MapFile.obj
 0001:00019ea0       ?ReadData@CMapFile@@AAEHHPADH@Z 0041aea0 f   Net:MapFile.obj
 0001:00019fb0       ?SendMsg@CMapFile@@QAEJXZ  0041afb0 f   Net:MapFile.obj
 0001:0001a200       ?SendMsgimmediately@CMapFile@@AAE?AW4eRetSendMsg@1@PAVCBaseMessage@@@Z 0041b200 f   Net:MapFile.obj
 0001:0001a510       ?SendMsg@CMapFile@@QAEXPAVCBaseMessage@@@Z 0041b510 f   Net:MapFile.obj
 0001:0001a660       ?RecvMsg@CMapFile@@QAEPAVCBaseMessage@@XZ 0041b660 f   Net:MapFile.obj
 0001:0001a9b0       ?erase@?$_Tree@V?$_Tmap_traits@V?$basic_string@DU?$char_traits@D@std@@V?$allocator@D@2@@std@@PAUtagFileInfo@@U?$less@V?$basic_string@DU?$char_traits@D@std@@V?$allocator@D@2@@std@@@2@V?$allocator@U?$pair@$$CBV?$basic_string@DU?$char_traits@D@std@@V?$allocator@D@2@@std@@PAUtagFileInfo@@@std@@@2@$0A@@std@@@std@@QAE?AViterator@12@V312@@Z 0041b9b0 f i public:ClientResource.obj
 0001:0001a9b0       ?erase@?$_Tree@V?$_Tmap_traits@V?$basic_string@DU?$char_traits@D@std@@V?$allocator@D@2@@std@@PAUtagFileInfo0x@@U?$less@V?$basic_string@DU?$char_traits@D@std@@V?$allocator@D@2@@std@@@2@V?$allocator@U?$pair@$$CBV?$basic_string@DU?$char_traits@D@std@@V?$allocator@D@2@@std@@PAUtagFileInfo0x@@@std@@@2@$0A@@std@@@std@@QAE?AViterator@12@V312@@Z 0041b9b0 f i Net:MapFile.obj
 0001:0001acc0       ?erase@?$_Tree@V?$_Tmap_traits@V?$basic_string@DU?$char_traits@D@std@@V?$allocator@D@2@@std@@PAUtagFileInfo@@U?$less@V?$basic_string@DU?$char_traits@D@std@@V?$allocator@D@2@@std@@@2@V?$allocator@U?$pair@$$CBV?$basic_string@DU?$char_traits@D@std@@V?$allocator@D@2@@std@@PAUtagFileInfo@@@std@@@2@$0A@@std@@@std@@QAE?AViterator@12@V312@0@Z 0041bcc0 f i public:ClientResource.obj
 0001:0001acc0       ?erase@?$_Tree@V?$_Tmap_traits@V?$basic_string@DU?$char_traits@D@std@@V?$allocator@D@2@@std@@PAUtagFileInfo0x@@U?$less@V?$basic_string@DU?$char_traits@D@std@@V?$allocator@D@2@@std@@@2@V?$allocator@U?$pair@$$CBV?$basic_string@DU?$char_traits@D@std@@V?$allocator@D@2@@std@@PAUtagFileInfo0x@@@std@@@2@$0A@@std@@@std@@QAE?AViterator@12@V312@0@Z 0041bcc0 f i Net:MapFile.obj
 0001:0001ad90       ?_Erase@?$_Tree@V?$_Tmap_traits@V?$basic_string@DU?$char_traits@D@std@@V?$allocator@D@2@@std@@PAVLog@AppFrame@@U?$less@V?$basic_string@DU?$char_traits@D@std@@V?$allocator@D@2@@std@@@2@V?$allocator@U?$pair@$$CBV?$basic_string@DU?$char_traits@D@std@@V?$allocator@D@2@@std@@PAVLog@AppFrame@@@std@@@2@$0A@@std@@@std@@IAEXPAU_Node@?$_Tree_nod@V?$_Tmap_traits@V?$basic_string@DU?$char_traits@D@std@@V?$allocator@D@2@@std@@PAVLog@AppFrame@@U?$less@V?$basic_string@DU?$char_traits@D@std@@V?$allocator@D@2@@std@@@2@V?$allocator@U?$pair@$$CBV?$basic_string@DU?$char_traits@D@std@@V?$allocator@D@2@@std@@PAVLog@AppFrame@@@std@@@2@$0A@@std@@@2@@Z 0041bd90 f i public:Logger.obj
 0001:0001ad90       ?_Erase@?$_Tree@V?$_Tmap_traits@V?$basic_string@DU?$char_traits@D@std@@V?$allocator@D@2@@std@@PAUtagFileInfo@@U?$less@V?$basic_string@DU?$char_traits@D@std@@V?$allocator@D@2@@std@@@2@V?$allocator@U?$pair@$$CBV?$basic_string@DU?$char_traits@D@std@@V?$allocator@D@2@@std@@PAUtagFileInfo@@@std@@@2@$0A@@std@@@std@@IAEXPAU_Node@?$_Tree_nod@V?$_Tmap_traits@V?$basic_string@DU?$char_traits@D@std@@V?$allocator@D@2@@std@@PAUtagFileInfo@@U?$less@V?$basic_string@DU?$char_traits@D@std@@V?$allocator@D@2@@std@@@2@V?$allocator@U?$pair@$$CBV?$basic_string@DU?$char_traits@D@std@@V?$allocator@D@2@@std@@PAUtagFileInfo@@@std@@@2@$0A@@std@@@2@@Z 0041bd90 f i public:ClientResource.obj
 0001:0001ad90       ?_Erase@?$_Tree@V?$_Tmap_traits@V?$basic_string@DU?$char_traits@D@std@@V?$allocator@D@2@@std@@PAUtagFileInfo0x@@U?$less@V?$basic_string@DU?$char_traits@D@std@@V?$allocator@D@2@@std@@@2@V?$allocator@U?$pair@$$CBV?$basic_string@DU?$char_traits@D@std@@V?$allocator@D@2@@std@@PAUtagFileInfo0x@@@std@@@2@$0A@@std@@@std@@IAEXPAU_Node@?$_Tree_nod@V?$_Tmap_traits@V?$basic_string@DU?$char_traits@D@std@@V?$allocator@D@2@@std@@PAUtagFileInfo0x@@U?$less@V?$basic_string@DU?$char_traits@D@std@@V?$allocator@D@2@@std@@@2@V?$allocator@U?$pair@$$CBV?$basic_string@DU?$char_traits@D@std@@V?$allocator@D@2@@std@@PAUtagFileInfo0x@@@std@@@2@$0A@@std@@@2@@Z 0041bd90 f i Net:MapFile.obj
 0001:0001adf0       ?_Lrotate@?$_Tree@V?$_Tmap_traits@V?$basic_string@DU?$char_traits@D@std@@V?$allocator@D@2@@std@@PAUtagFileInfo0x@@U?$less@V?$basic_string@DU?$char_traits@D@std@@V?$allocator@D@2@@std@@@2@V?$allocator@U?$pair@$$CBV?$basic_string@DU?$char_traits@D@std@@V?$allocator@D@2@@std@@PAUtagFileInfo0x@@@std@@@2@$0A@@std@@@std@@IAEXPAU_Node@?$_Tree_nod@V?$_Tmap_traits@V?$basic_string@DU?$char_traits@D@std@@V?$allocator@D@2@@std@@PAUtagFileInfo0x@@U?$less@V?$basic_string@DU?$char_traits@D@std@@V?$allocator@D@2@@std@@@2@V?$allocator@U?$pair@$$CBV?$basic_string@DU?$char_traits@D@std@@V?$allocator@D@2@@std@@PAUtagFileInfo0x@@@std@@@2@$0A@@std@@@2@@Z 0041bdf0 f i Net:MapFile.obj
 0001:0001adf0       ?_Lrotate@?$_Tree@V?$_Tmap_traits@V?$basic_string@DU?$char_traits@D@std@@V?$allocator@D@2@@std@@PAVLog@AppFrame@@U?$less@V?$basic_string@DU?$char_traits@D@std@@V?$allocator@D@2@@std@@@2@V?$allocator@U?$pair@$$CBV?$basic_string@DU?$char_traits@D@std@@V?$allocator@D@2@@std@@PAVLog@AppFrame@@@std@@@2@$0A@@std@@@std@@IAEXPAU_Node@?$_Tree_nod@V?$_Tmap_traits@V?$basic_string@DU?$char_traits@D@std@@V?$allocator@D@2@@std@@PAVLog@AppFrame@@U?$less@V?$basic_string@DU?$char_traits@D@std@@V?$allocator@D@2@@std@@@2@V?$allocator@U?$pair@$$CBV?$basic_string@DU?$char_traits@D@std@@V?$allocator@D@2@@std@@PAVLog@AppFrame@@@std@@@2@$0A@@std@@@2@@Z 0041bdf0 f i public:Logger.obj
 0001:0001adf0       ?_Lrotate@?$_Tree@V?$_Tmap_traits@V?$basic_string@DU?$char_traits@D@std@@V?$allocator@D@2@@std@@PAUtagFileInfo@@U?$less@V?$basic_string@DU?$char_traits@D@std@@V?$allocator@D@2@@std@@@2@V?$allocator@U?$pair@$$CBV?$basic_string@DU?$char_traits@D@std@@V?$allocator@D@2@@std@@PAUtagFileInfo@@@std@@@2@$0A@@std@@@std@@IAEXPAU_Node@?$_Tree_nod@V?$_Tmap_traits@V?$basic_string@DU?$char_traits@D@std@@V?$allocator@D@2@@std@@PAUtagFileInfo@@U?$less@V?$basic_string@DU?$char_traits@D@std@@V?$allocator@D@2@@std@@@2@V?$allocator@U?$pair@$$CBV?$basic_string@DU?$char_traits@D@std@@V?$allocator@D@2@@std@@PAUtagFileInfo@@@std@@@2@$0A@@std@@@2@@Z 0041bdf0 f i public:ClientResource.obj
 0001:0001ae40       ?_Tidy@?$_Tree@V?$_Tmap_traits@V?$basic_string@DU?$char_traits@D@std@@V?$allocator@D@2@@std@@PAUtagFileInfo@@U?$less@V?$basic_string@DU?$char_traits@D@std@@V?$allocator@D@2@@std@@@2@V?$allocator@U?$pair@$$CBV?$basic_string@DU?$char_traits@D@std@@V?$allocator@D@2@@std@@PAUtagFileInfo@@@std@@@2@$0A@@std@@@std@@IAEXXZ 0041be40 f i public:ClientResource.obj
 0001:0001ae40       ?_Tidy@?$_Tree@V?$_Tmap_traits@V?$basic_string@DU?$char_traits@D@std@@V?$allocator@D@2@@std@@PAUtagFileInfo0x@@U?$less@V?$basic_string@DU?$char_traits@D@std@@V?$allocator@D@2@@std@@@2@V?$allocator@U?$pair@$$CBV?$basic_string@DU?$char_traits@D@std@@V?$allocator@D@2@@std@@PAUtagFileInfo0x@@@std@@@2@$0A@@std@@@std@@IAEXXZ 0041be40 f i Net:MapFile.obj
 0001:0001ae80       ?_Inc@const_iterator@?$_Tree@V?$_Tmap_traits@V?$basic_string@DU?$char_traits@D@std@@V?$allocator@D@2@@std@@PAUtagFileInfo0x@@U?$less@V?$basic_string@DU?$char_traits@D@std@@V?$allocator@D@2@@std@@@2@V?$allocator@U?$pair@$$CBV?$basic_string@DU?$char_traits@D@std@@V?$allocator@D@2@@std@@PAUtagFileInfo0x@@@std@@@2@$0A@@std@@@std@@QAEXXZ 0041be80 f i Net:MapFile.obj
 0001:0001ae80       ?_Inc@const_iterator@?$_Tree@V?$_Tmap_traits@V?$basic_string@DU?$char_traits@D@std@@V?$allocator@D@2@@std@@PAVLog@AppFrame@@U?$less@V?$basic_string@DU?$char_traits@D@std@@V?$allocator@D@2@@std@@@2@V?$allocator@U?$pair@$$CBV?$basic_string@DU?$char_traits@D@std@@V?$allocator@D@2@@std@@PAVLog@AppFrame@@@std@@@2@$0A@@std@@@std@@QAEXXZ 0041be80 f i public:Logger.obj
 0001:0001ae80       ?_Inc@const_iterator@?$_Tree@V?$_Tmap_traits@V?$basic_string@DU?$char_traits@D@std@@V?$allocator@D@2@@std@@PAUtagFileInfo@@U?$less@V?$basic_string@DU?$char_traits@D@std@@V?$allocator@D@2@@std@@@2@V?$allocator@U?$pair@$$CBV?$basic_string@DU?$char_traits@D@std@@V?$allocator@D@2@@std@@PAUtagFileInfo@@@std@@@2@$0A@@std@@@std@@QAEXXZ 0041be80 f i public:ClientResource.obj
 0001:0001aef0       ?SetTotalSize@CBaseMessage@@QAEXXZ 0041bef0 f i Net:MapFile.obj
 0001:0001af40       ?OnOneMessageSizeOver@CServerClient@@UAEXJJ@Z 0041bf40 f i Net:ServerClient.obj
 0001:0001af40       ?OnTotalMessageSizeOver@CServerClient@@UAEXJJ@Z 0041bf40 f i Net:ServerClient.obj
 0001:0001af50       ?CheckMsg@CServerClient@@UAE_NPAVCBaseMessage@@@Z 0041bf50 f i Net:ServerClient.obj
 0001:0001af60       ??0CServerClient@@QAE@PAVCServer@@PAVCDataBlockAllocator@@@Z 0041bf60 f   Net:ServerClient.obj
 0001:0001b060       ??_GCServerClient@@UAEPAXI@Z 0041c060 f i Net:ServerClient.obj
 0001:0001b060       ??_ECServerClient@@UAEPAXI@Z 0041c060 f i  CIL library: CIL module
 0001:0001b080       ?Init@CServerClient@@QAEXXZ 0041c080 f   Net:ServerClient.obj
 0001:0001b1f0       ?Release@CServerClient@@QAEXXZ 0041c1f0 f   Net:ServerClient.obj
 0001:0001b3d0       ??1CServerClient@@UAE@XZ   0041c3d0 f   Net:ServerClient.obj
 0001:0001b470       ?SetParam@CServerClient@@QAEX_NJJJJJJJ@Z 0041c470 f   Net:ServerClient.obj
 0001:0001b4c0       ?StartReadData@CServerClient@@QAE_NXZ 0041c4c0 f   Net:ServerClient.obj
 0001:0001b530       ?ReadFromCompletionPort@CServerClient@@QAE_NPAVPER_IO_OPERATION_DATA@@PAVCDataBlock@@@Z 0041c530 f   Net:ServerClient.obj
 0001:0001b6c0       ?Send@CServerClient@@UAEHPBXHH@Z 0041c6c0 f   Net:ServerClient.obj
 0001:0001b7f0       ?SendZeroByteData@CServerClient@@AAEXXZ 0041c7f0 f   Net:ServerClient.obj
 0001:0001b8d0       ?Send@CServerClient@@AAEHPAVCBaseMessage@@H@Z 0041c8d0 f   Net:ServerClient.obj
 0001:0001bb50       ?AddSendMsg@CServerClient@@QAE_NPAVCBaseMessage@@@Z 0041cb50 f   Net:ServerClient.obj
 0001:0001bc80       ?AddReceiveData@CServerClient@@QAE_NJPAVCDataBlock@@@Z 0041cc80 f   Net:ServerClient.obj
 0001:0001bdc0       ?GetNextReadDB@CServerClient@@QAEPAVCDataBlock@@XZ 0041cdc0 f   Net:ServerClient.obj
 0001:0001be40       ?GetCurMsgLen@CServerClient@@QAEJXZ 0041ce40 f   Net:ServerClient.obj
 0001:0001c1b0       ?PushReadDataBack@CServerClient@@QAEXPAVCDataBlock@@@Z 0041d1b0 f   Net:ServerClient.obj
 0001:0001c210       ?OnReceive@CServerClient@@UAEXH@Z 0041d210 f   Net:ServerClient.obj
 0001:0001c820       ?OnAccept@CServerClient@@UAEXH@Z 0041d820 f   Net:ServerClient.obj
 0001:0001c8e0       ?OnClose@CServerClient@@UAEXH@Z 0041d8e0 f   Net:ServerClient.obj
 0001:0001c9c0       ?AddRecvSize@CServerClient@@QAEJJ@Z 0041d9c0 f   Net:ServerClient.obj
 0001:0001ca40       ?GetCurSendSizePerSecond@CServerClient@@QAEJXZ 0041da40 f   Net:ServerClient.obj
 0001:0001ca70       ??1?$list@PAUtagSocketOper@@V?$allocator@PAUtagSocketOper@@@std@@@std@@QAE@XZ 0041da70 f i Net:Servers.obj
 0001:0001ca70       ??1?$list@PAVCDataBlock@@V?$allocator@PAVCDataBlock@@@std@@@std@@QAE@XZ 0041da70 f i Net:ServerClient.obj
 0001:0001ca70       ??1?$list@PAVCBaseMessage@@V?$allocator@PAVCBaseMessage@@@std@@@std@@QAE@XZ 0041da70 f i Net:BaseMessage.obj
 0001:0001ca70       ??1?$list@PAVCServerClient@@V?$allocator@PAVCServerClient@@@std@@@std@@QAE@XZ 0041da70 f i Net:Servers.obj
 0001:0001ca70       ??1?$list@PAVPER_IO_OPERATION_DATA@@V?$allocator@PAVPER_IO_OPERATION_DATA@@@std@@@std@@QAE@XZ 0041da70 f i Net:Servers.obj
 0001:0001ca80       ?_Tidy@?$list@PAVCDataBlock@@V?$allocator@PAVCDataBlock@@@std@@@std@@IAEXXZ 0041da80 f i Net:ServerClient.obj
 0001:0001ca80       ?_Tidy@?$list@PAVCBaseMessage@@V?$allocator@PAVCBaseMessage@@@std@@@std@@IAEXXZ 0041da80 f i Net:BaseMessage.obj
 0001:0001ca80       ?_Tidy@?$list@PAVPER_IO_OPERATION_DATA@@V?$allocator@PAVPER_IO_OPERATION_DATA@@@std@@@std@@IAEXXZ 0041da80 f i Net:Servers.obj
 0001:0001ca80       ?_Tidy@?$list@PAVCServerClient@@V?$allocator@PAVCServerClient@@@std@@@std@@IAEXXZ 0041da80 f i Net:Servers.obj
 0001:0001ca80       ?_Tidy@?$list@PAUtagSocketOper@@V?$allocator@PAUtagSocketOper@@@std@@@std@@IAEXXZ 0041da80 f i Net:Servers.obj
 0001:0001cad0       ?_Max@?$_Tree@V?$_Tmap_traits@KKU?$less@K@std@@V?$allocator@U?$pair@$$CBKK@std@@@2@$0A@@std@@@std@@KAPAU_Node@?$_Tree_nod@V?$_Tmap_traits@KKU?$less@K@std@@V?$allocator@U?$pair@$$CBKK@std@@@2@$0A@@std@@@2@PAU342@@Z 0041dad0 f i Net:Servers.obj
 0001:0001cad0       ?_Max@?$_Tree@V?$_Tmap_traits@JJU?$less@J@std@@V?$allocator@U?$pair@$$CBJJ@std@@@2@$0A@@std@@@std@@KAPAU_Node@?$_Tree_nod@V?$_Tmap_traits@JJU?$less@J@std@@V?$allocator@U?$pair@$$CBJJ@std@@@2@$0A@@std@@@2@PAU342@@Z 0041dad0 f i Net:Servers.obj
 0001:0001cad0       ?_Max@?$_Tree@V?$_Tmap_traits@HPAVCDataBlock@@U?$less@H@std@@V?$allocator@U?$pair@$$CBHPAVCDataBlock@@@std@@@3@$0A@@std@@@std@@KAPAU_Node@?$_Tree_nod@V?$_Tmap_traits@HPAVCDataBlock@@U?$less@H@std@@V?$allocator@U?$pair@$$CBHPAVCDataBlock@@@std@@@3@$0A@@std@@@2@PAU342@@Z 0041dad0 f i Net:ServerClient.obj
 0001:0001cad0       ?_Max@?$_Tree@V?$_Tmap_traits@PAEJU?$less@PAE@std@@V?$allocator@U?$pair@QAEJ@std@@@2@$0A@@std@@@std@@KAPAU_Node@?$_Tree_nod@V?$_Tmap_traits@PAEJU?$less@PAE@std@@V?$allocator@U?$pair@QAEJ@std@@@2@$0A@@std@@@2@PAU342@@Z 0041dad0 f i public:DataBlockAllocator.obj
 0001:0001cad0       ?_Max@?$_Tree@V?$_Tmap_traits@JFU?$less@J@std@@V?$allocator@U?$pair@$$CBJF@std@@@2@$0A@@std@@@std@@KAPAU_Node@?$_Tree_nod@V?$_Tmap_traits@JFU?$less@J@std@@V?$allocator@U?$pair@$$CBJF@std@@@2@$0A@@std@@@2@PAU342@@Z 0041dad0 f i Net:BaseMessage.obj
 0001:0001cad0       ?_Max@?$_Tree@V?$_Tmap_traits@JPAVCDataObject@@U?$less@J@std@@V?$allocator@U?$pair@$$CBJPAVCDataObject@@@std@@@3@$0A@@std@@@std@@KAPAU_Node@?$_Tree_nod@V?$_Tmap_traits@JPAVCDataObject@@U?$less@J@std@@V?$allocator@U?$pair@$$CBJPAVCDataObject@@@std@@@3@$0A@@std@@@2@PAU342@@Z 0041dad0 f i public:ColumnProperty.obj
 0001:0001cad0       ?_Max@?$_Tree@V?$_Tmap_traits@JPAEU?$less@J@std@@V?$allocator@U?$pair@$$CBJPAE@std@@@2@$00@std@@@std@@KAPAU_Node@?$_Tree_nod@V?$_Tmap_traits@JPAEU?$less@J@std@@V?$allocator@U?$pair@$$CBJPAE@std@@@2@$00@std@@@2@PAU342@@Z 0041dad0 f i public:DataBlockAllocator.obj
 0001:0001cad0       ?_Max@?$_Tree@V?$_Tmap_traits@JPAVCEntityProperty@@U?$less@J@std@@V?$allocator@U?$pair@$$CBJPAVCEntityProperty@@@std@@@3@$0A@@std@@@std@@KAPAU_Node@?$_Tree_nod@V?$_Tmap_traits@JPAVCEntityProperty@@U?$less@J@std@@V?$allocator@U?$pair@$$CBJPAVCEntityProperty@@@std@@@3@$0A@@std@@@2@PAU342@@Z 0041dad0 f i serverpublic:EntityProperty.obj
 0001:0001caf0       ??8const_iterator@?$_Tree@V?$_Tmap_traits@V?$basic_string@DU?$char_traits@D@std@@V?$allocator@D@2@@std@@V12@U?$less@V?$basic_string@DU?$char_traits@D@std@@V?$allocator@D@2@@std@@@2@V?$allocator@U?$pair@$$CBV?$basic_string@DU?$char_traits@D@std@@V?$allocator@D@2@@std@@V12@@std@@@2@$0A@@std@@@std@@QBE_NABV012@@Z 0041daf0 f i stdafx.obj
 0001:0001caf0       ??8const_iterator@?$_Tree@V?$_Tmap_traits@V?$basic_string@DU?$char_traits@D@std@@V?$allocator@D@2@@std@@UtagFileIndex@@U?$less@V?$basic_string@DU?$char_traits@D@std@@V?$allocator@D@2@@std@@@2@V?$allocator@U?$pair@$$CBV?$basic_string@DU?$char_traits@D@std@@V?$allocator@D@2@@std@@UtagFileIndex@@@std@@@2@$0A@@std@@@std@@QBE_NABV012@@Z 0041daf0 f i public:Package.obj
 0001:0001caf0       ??8const_iterator@?$_Tree@V?$_Tmap_traits@V?$basic_string@DU?$char_traits@D@std@@V?$allocator@D@2@@std@@UWindow@Layouts@AppFrame@@U?$less@V?$basic_string@DU?$char_traits@D@std@@V?$allocator@D@2@@std@@@2@V?$allocator@U?$pair@$$CBV?$basic_string@DU?$char_traits@D@std@@V?$allocator@D@2@@std@@UWindow@Layouts@AppFrame@@@std@@@2@$0A@@std@@@std@@QBE_NABV012@@Z 0041daf0 f i public:AppFrameDef.obj
 0001:0001caf0       ??8const_iterator@?$_Tree@V?$_Tmap_traits@KKU?$less@K@std@@V?$allocator@U?$pair@$$CBKK@std@@@2@$0A@@std@@@std@@QBE_NABV012@@Z 0041daf0 f i Net:Servers.obj
 0001:0001caf0       ??8const_iterator@?$_Tree@V?$_Tmap_traits@JJU?$less@J@std@@V?$allocator@U?$pair@$$CBJJ@std@@@2@$0A@@std@@@std@@QBE_NABV012@@Z 0041daf0 f i Net:Servers.obj
 0001:0001caf0       ??8const_iterator@?$_Tree@V?$_Tmap_traits@V?$basic_string@DU?$char_traits@D@std@@V?$allocator@D@2@@std@@PAUtagFileInfo@@U?$less@V?$basic_string@DU?$char_traits@D@std@@V?$allocator@D@2@@std@@@2@V?$allocator@U?$pair@$$CBV?$basic_string@DU?$char_traits@D@std@@V?$allocator@D@2@@std@@PAUtagFileInfo@@@std@@@2@$0A@@std@@@std@@QBE_NABV012@@Z 0041daf0 f i public:ClientResource.obj
 0001:0001caf0       ??8const_iterator@?$_Tree@V?$_Tmap_traits@JUtagDataStat@CServer@@U?$less@J@std@@V?$allocator@U?$pair@$$CBJUtagDataStat@CServer@@@std@@@4@$0A@@std@@@std@@QBE_NABV012@@Z 0041daf0 f i Net:Servers.obj
 0001:0001caf0       ??8const_iterator@?$_Tree@V?$_Tmap_traits@JPAVCDataObject@@U?$less@J@std@@V?$allocator@U?$pair@$$CBJPAVCDataObject@@@std@@@3@$0A@@std@@@std@@QBE_NABV012@@Z 0041daf0 f i public:ColumnProperty.obj
 0001:0001caf0       ??8const_iterator@?$_Tree@V?$_Tmap_traits@KUtagWorldServer@CGame@@U?$less@K@std@@V?$allocator@U?$pair@$$CBKUtagWorldServer@CGame@@@std@@@4@$0A@@std@@@std@@QBE_NABV012@@Z 0041daf0 f i Game.obj
 0001:0001caf0       ??8const_iterator@?$_Tree@V?$_Tmap_traits@HPAVCDataBlock@@U?$less@H@std@@V?$allocator@U?$pair@$$CBHPAVCDataBlock@@@std@@@3@$0A@@std@@@std@@QBE_NABV012@@Z 0041daf0 f i Net:ServerClient.obj
 0001:0001caf0       ??8const_iterator@?$_Tree@V?$_Tmap_traits@KUtagPackageInfo@@U?$less@K@std@@V?$allocator@U?$pair@$$CBKUtagPackageInfo@@@std@@@3@$0A@@std@@@std@@QBE_NABV012@@Z 0041daf0 f i public:ClientResource.obj
 0001:0001cb10       ?_Incsize@?$list@PAVCBaseMessage@@V?$allocator@PAVCBaseMessage@@@std@@@std@@IAEXI@Z 0041db10 f i Net:BaseMessage.obj
 0001:0001cb10       ?_Incsize@?$list@PAVPER_IO_OPERATION_DATA@@V?$allocator@PAVPER_IO_OPERATION_DATA@@@std@@@std@@IAEXI@Z 0041db10 f i Net:Servers.obj
 0001:0001cb10       ?_Incsize@?$list@PAVCDataBlock@@V?$allocator@PAVCDataBlock@@@std@@@std@@IAEXI@Z 0041db10 f i Net:ServerClient.obj
 0001:0001cb10       ?_Incsize@?$list@PAUtagSocketOper@@V?$allocator@PAUtagSocketOper@@@std@@@std@@IAEXI@Z 0041db10 f i Net:Servers.obj
 0001:0001cbb0       ?_Dec@const_iterator@?$_Tree@V?$_Tmap_traits@JJU?$less@J@std@@V?$allocator@U?$pair@$$CBJJ@std@@@2@$0A@@std@@@std@@QAEXXZ 0041dbb0 f i Net:Servers.obj
 0001:0001cbb0       ?_Dec@const_iterator@?$_Tree@V?$_Tmap_traits@JPAVCDataObject@@U?$less@J@std@@V?$allocator@U?$pair@$$CBJPAVCDataObject@@@std@@@3@$0A@@std@@@std@@QAEXXZ 0041dbb0 f i public:ColumnProperty.obj
 0001:0001cbb0       ?_Dec@const_iterator@?$_Tree@V?$_Tmap_traits@JPAVCEntityProperty@@U?$less@J@std@@V?$allocator@U?$pair@$$CBJPAVCEntityProperty@@@std@@@3@$0A@@std@@@std@@QAEXXZ 0041dbb0 f i serverpublic:EntityProperty.obj
 0001:0001cbb0       ?_Dec@const_iterator@?$_Tree@V?$_Tmap_traits@KKU?$less@K@std@@V?$allocator@U?$pair@$$CBKK@std@@@2@$0A@@std@@@std@@QAEXXZ 0041dbb0 f i Net:Servers.obj
 0001:0001cbb0       ?_Dec@const_iterator@?$_Tree@V?$_Tmap_traits@HPAVCDataBlock@@U?$less@H@std@@V?$allocator@U?$pair@$$CBHPAVCDataBlock@@@std@@@3@$0A@@std@@@std@@QAEXXZ 0041dbb0 f i Net:ServerClient.obj
 0001:0001cc30       ?GetType@CBaseMessage@@QAEKXZ 0041dc30 f i Net:ServerClient.obj
 0001:0001cc90       ??1CSocketCommands@@QAE@XZ 0041dc90 f   Net:SocketCommands.obj
 0001:0001ccd0       ?Push_Back@CSocketCommands@@QAE_NPAUtagSocketOper@@@Z 0041dcd0 f   Net:SocketCommands.obj
 0001:0001cd10       ??4?$deque@PAUtagSocketOper@@V?$allocator@PAUtagSocketOper@@@std@@@std@@QAEAAV01@ABV01@@Z 0041dd10 f i Net:SocketCommands.obj
 0001:0001cf50       ?erase@?$deque@PAVCBaseMessage@@V?$allocator@PAVCBaseMessage@@@std@@@std@@QAE?AV?$_Deque_iterator@PAVCBaseMessage@@V?$allocator@PAVCBaseMessage@@@std@@$00@2@V32@0@Z 0041df50 f i Net:MsgQueue.obj
 0001:0001cf50       ?erase@?$deque@PAUtagSocketOper@@V?$allocator@PAUtagSocketOper@@@std@@@std@@QAE?AV?$_Deque_iterator@PAUtagSocketOper@@V?$allocator@PAUtagSocketOper@@@std@@$00@2@V32@0@Z 0041df50 f i Net:SocketCommands.obj
 0001:0001d120       ?pop_front@?$deque@PAUtagSocketOper@@V?$allocator@PAUtagSocketOper@@@std@@@std@@QAEXXZ 0041e120 f i Net:SocketCommands.obj
 0001:0001d120       ?pop_front@?$deque@PAVCBaseMessage@@V?$allocator@PAVCBaseMessage@@@std@@@std@@QAEXXZ 0041e120 f i Net:MsgQueue.obj
 0001:0001d160       ??$insert@V?$_Deque_const_iterator@PAUtagSocketOper@@V?$allocator@PAUtagSocketOper@@@std@@$00@std@@@?$deque@PAUtagSocketOper@@V?$allocator@PAUtagSocketOper@@@std@@@std@@QAEXV?$_Deque_iterator@PAUtagSocketOper@@V?$allocator@PAUtagSocketOper@@@std@@$00@1@V?$_Deque_const_iterator@PAUtagSocketOper@@V?$allocator@PAUtagSocketOper@@@std@@$00@1@1@Z 0041e160 f i Net:SocketCommands.obj
 0001:0001d1c0       ??$_Insert@V?$_Deque_const_iterator@PAUtagSocketOper@@V?$allocator@PAUtagSocketOper@@@std@@$00@std@@@?$deque@PAUtagSocketOper@@V?$allocator@PAUtagSocketOper@@@std@@@std@@QAEXV?$_Deque_iterator@PAUtagSocketOper@@V?$allocator@PAUtagSocketOper@@@std@@$00@1@V?$_Deque_const_iterator@PAUtagSocketOper@@V?$allocator@PAUtagSocketOper@@@std@@$00@1@1Ubidirectional_iterator_tag@1@@Z 0041e1c0 f i Net:SocketCommands.obj
 0001:0001d920       ?push_front@?$deque@PAUtagSocketOper@@V?$allocator@PAUtagSocketOper@@@std@@@std@@QAEXABQAUtagSocketOper@@@Z 0041e920 f i Net:SocketCommands.obj
 0001:0001d9a0       ?InitApp@AppFrame@@YAHPAUHINSTANCE__@@HP6GIPAX@Z@Z 0041e9a0 f   public:AppFrame.obj
 0001:0001da60       ?MyRegisterClass@AppFrame@@YAGPAUHINSTANCE__@@@Z 0041ea60 f   public:AppFrame.obj
 0001:0001daf0       ?InitInstance@AppFrame@@YAHPAUHINSTANCE__@@H@Z 0041eaf0 f   public:AppFrame.obj
 0001:0001db50       ?WndProc@AppFrame@@YGJPAUHWND__@@IIJ@Z 0041eb50 f   public:AppFrame.obj
 0001:0001de70       ?random@@YAHH@Z            0041ee70 f   public:Tools.obj
 0001:0001dec0       ?PutDebugString@@YAXPBDZZ  0041eec0 f   public:Tools.obj
 0001:0001dfe0       ?PutStringToFile@@YAXPBD0@Z 0041efe0 f   public:Tools.obj
 0001:0001e0f0       ?FindFile@@YAXPBD0PAV?$list@V?$basic_string@DU?$char_traits@D@std@@V?$allocator@D@2@@std@@V?$allocator@V?$basic_string@DU?$char_traits@D@std@@V?$allocator@D@2@@std@@@2@@std@@@Z 0041f0f0 f   public:Tools.obj
 0001:0001e390       ?OutputStackInfo@@YAXPBD@Z 0041f390 f   public:Tools.obj
 0001:0001e470       ?push_back@?$list@V?$basic_string@DU?$char_traits@D@std@@V?$allocator@D@2@@std@@V?$allocator@V?$basic_string@DU?$char_traits@D@std@@V?$allocator@D@2@@std@@@2@@std@@QAEXABV?$basic_string@DU?$char_traits@D@std@@V?$allocator@D@2@@2@@Z 0041f470 f i public:Tools.obj
 0001:0001e4b0       ?_Buynode@?$list@V?$basic_string@DU?$char_traits@D@std@@V?$allocator@D@2@@std@@V?$allocator@V?$basic_string@DU?$char_traits@D@std@@V?$allocator@D@2@@std@@@2@@std@@IAEPAU_Node@?$_List_nod@V?$basic_string@DU?$char_traits@D@std@@V?$allocator@D@2@@std@@V?$allocator@V?$basic_string@DU?$char_traits@D@std@@V?$allocator@D@2@@std@@@2@@2@PAU342@0ABV?$basic_string@DU?$char_traits@D@std@@V?$allocator@D@2@@2@@Z 0041f4b0 f i public:Tools.obj
 0001:0001e550       ?_Incsize@?$list@V?$basic_string@DU?$char_traits@D@std@@V?$allocator@D@2@@std@@V?$allocator@V?$basic_string@DU?$char_traits@D@std@@V?$allocator@D@2@@std@@@2@@std@@IAEXI@Z 0041f550 f i public:Tools.obj
 0001:0001e600       ??$_Construct@V?$basic_string@DU?$char_traits@D@std@@V?$allocator@D@2@@std@@V12@@std@@YAXPAV?$basic_string@DU?$char_traits@D@std@@V?$allocator@D@2@@0@ABV10@@Z 0041f600 f i public:Tools.obj
 0001:0001e670       ?LoadTextRes@AppFrame@@YA_NABV?$basic_string@DU?$char_traits@D@std@@V?$allocator@D@2@@std@@_N@Z 0041f670 f   public:TextRes.obj
 0001:0001ea10       ?GetText@AppFrame@@YAPBDABV?$basic_string@DU?$char_traits@D@std@@V?$allocator@D@2@@std@@@Z 0041fa10 f   public:TextRes.obj
 0001:0001eac0       ??A?$map@V?$basic_string@DU?$char_traits@D@std@@V?$allocator@D@2@@std@@V12@U?$less@V?$basic_string@DU?$char_traits@D@std@@V?$allocator@D@2@@std@@@2@V?$allocator@U?$pair@$$CBV?$basic_string@DU?$char_traits@D@std@@V?$allocator@D@2@@std@@V12@@std@@@2@@std@@QAEAAV?$basic_string@DU?$char_traits@D@std@@V?$allocator@D@2@@1@ABV21@@Z 0041fac0 f i public:TextRes.obj
 0001:0001ec10       ?insert@?$_Tree@V?$_Tmap_traits@V?$basic_string@DU?$char_traits@D@std@@V?$allocator@D@2@@std@@V12@U?$less@V?$basic_string@DU?$char_traits@D@std@@V?$allocator@D@2@@std@@@2@V?$allocator@U?$pair@$$CBV?$basic_string@DU?$char_traits@D@std@@V?$allocator@D@2@@std@@V12@@std@@@2@$0A@@std@@@std@@QAE?AU?$pair@Viterator@?$_Tree@V?$_Tmap_traits@V?$basic_string@DU?$char_traits@D@std@@V?$allocator@D@2@@std@@V12@U?$less@V?$basic_string@DU?$char_traits@D@std@@V?$allocator@D@2@@std@@@2@V?$allocator@U?$pair@$$CBV?$basic_string@DU?$char_traits@D@std@@V?$allocator@D@2@@std@@V12@@std@@@2@$0A@@std@@@std@@_N@2@ABU?$pair@$$CBV?$basic_string@DU?$char_traits@D@std@@V?$allocator@D@2@@std@@V12@@2@@Z 0041fc10 f i public:TextRes.obj
 0001:0001ed70       ?find@?$_Tree@V?$_Tmap_traits@V?$basic_string@DU?$char_traits@D@std@@V?$allocator@D@2@@std@@V12@U?$less@V?$basic_string@DU?$char_traits@D@std@@V?$allocator@D@2@@std@@@2@V?$allocator@U?$pair@$$CBV?$basic_string@DU?$char_traits@D@std@@V?$allocator@D@2@@std@@V12@@std@@@2@$0A@@std@@@std@@QAE?AViterator@12@ABV?$basic_string@DU?$char_traits@D@std@@V?$allocator@D@2@@2@@Z 0041fd70 f i public:TextRes.obj
 0001:0001edf0       ??1?$list@V?$basic_string@DU?$char_traits@D@std@@V?$allocator@D@2@@std@@V?$allocator@V?$basic_string@DU?$char_traits@D@std@@V?$allocator@D@2@@std@@@2@@std@@QAE@XZ 0041fdf0 f i public:TextRes.obj
 0001:0001ee10       ?insert@?$_Tree@V?$_Tmap_traits@V?$basic_string@DU?$char_traits@D@std@@V?$allocator@D@2@@std@@V12@U?$less@V?$basic_string@DU?$char_traits@D@std@@V?$allocator@D@2@@std@@@2@V?$allocator@U?$pair@$$CBV?$basic_string@DU?$char_traits@D@std@@V?$allocator@D@2@@std@@V12@@std@@@2@$0A@@std@@@std@@QAE?AViterator@12@V312@ABU?$pair@$$CBV?$basic_string@DU?$char_traits@D@std@@V?$allocator@D@2@@std@@V12@@2@@Z 0041fe10 f i public:TextRes.obj
 0001:0001f020       ?_Insert@?$_Tree@V?$_Tmap_traits@V?$basic_string@DU?$char_traits@D@std@@V?$allocator@D@2@@std@@V12@U?$less@V?$basic_string@DU?$char_traits@D@std@@V?$allocator@D@2@@std@@@2@V?$allocator@U?$pair@$$CBV?$basic_string@DU?$char_traits@D@std@@V?$allocator@D@2@@std@@V12@@std@@@2@$0A@@std@@@std@@IAE?AViterator@12@_NPAU_Node@?$_Tree_nod@V?$_Tmap_traits@V?$basic_string@DU?$char_traits@D@std@@V?$allocator@D@2@@std@@V12@U?$less@V?$basic_string@DU?$char_traits@D@std@@V?$allocator@D@2@@std@@@2@V?$allocator@U?$pair@$$CBV?$basic_string@DU?$char_traits@D@std@@V?$allocator@D@2@@std@@V12@@std@@@2@$0A@@std@@@2@ABU?$pair@$$CBV?$basic_string@DU?$char_traits@D@std@@V?$allocator@D@2@@std@@V12@@2@@Z 00420020 f i public:TextRes.obj
 0001:0001f290       ?_Buynode@?$list@V?$basic_string@DU?$char_traits@D@std@@V?$allocator@D@2@@std@@V?$allocator@V?$basic_string@DU?$char_traits@D@std@@V?$allocator@D@2@@std@@@2@@std@@IAEPAU_Node@?$_List_nod@V?$basic_string@DU?$char_traits@D@std@@V?$allocator@D@2@@std@@V?$allocator@V?$basic_string@DU?$char_traits@D@std@@V?$allocator@D@2@@std@@@2@@2@XZ 00420290 f i public:TextRes.obj
 0001:0001f2b0       ??0?$pair@$$CBV?$basic_string@DU?$char_traits@D@std@@V?$allocator@D@2@@std@@V12@@std@@QAE@ABV?$basic_string@DU?$char_traits@D@std@@V?$allocator@D@2@@1@0@Z 004202b0 f i public:TextRes.obj
 0001:0001f330       ?_Lbound@?$_Tree@V?$_Tmap_traits@V?$basic_string@DU?$char_traits@D@std@@V?$allocator@D@2@@std@@V12@U?$less@V?$basic_string@DU?$char_traits@D@std@@V?$allocator@D@2@@std@@@2@V?$allocator@U?$pair@$$CBV?$basic_string@DU?$char_traits@D@std@@V?$allocator@D@2@@std@@V12@@std@@@2@$0A@@std@@@std@@IBEPAU_Node@?$_Tree_nod@V?$_Tmap_traits@V?$basic_string@DU?$char_traits@D@std@@V?$allocator@D@2@@std@@V12@U?$less@V?$basic_string@DU?$char_traits@D@std@@V?$allocator@D@2@@std@@@2@V?$allocator@U?$pair@$$CBV?$basic_string@DU?$char_traits@D@std@@V?$allocator@D@2@@std@@V12@@std@@@2@$0A@@std@@@2@ABV?$basic_string@DU?$char_traits@D@std@@V?$allocator@D@2@@2@@Z 00420330 f i public:TextRes.obj
 0001:0001f3d0       ?_Buynode@?$_Tree@V?$_Tmap_traits@V?$basic_string@DU?$char_traits@D@std@@V?$allocator@D@2@@std@@V12@U?$less@V?$basic_string@DU?$char_traits@D@std@@V?$allocator@D@2@@std@@@2@V?$allocator@U?$pair@$$CBV?$basic_string@DU?$char_traits@D@std@@V?$allocator@D@2@@std@@V12@@std@@@2@$0A@@std@@@std@@IAEPAU_Node@?$_Tree_nod@V?$_Tmap_traits@V?$basic_string@DU?$char_traits@D@std@@V?$allocator@D@2@@std@@V12@U?$less@V?$basic_string@DU?$char_traits@D@std@@V?$allocator@D@2@@std@@@2@V?$allocator@U?$pair@$$CBV?$basic_string@DU?$char_traits@D@std@@V?$allocator@D@2@@std@@V12@@std@@@2@$0A@@std@@@2@PAU342@00ABU?$pair@$$CBV?$basic_string@DU?$char_traits@D@std@@V?$allocator@D@2@@std@@V12@@2@D@Z 004203d0 f i public:TextRes.obj
 0001:0001f470       ?clear@?$list@V?$basic_string@DU?$char_traits@D@std@@V?$allocator@D@2@@std@@V?$allocator@V?$basic_string@DU?$char_traits@D@std@@V?$allocator@D@2@@std@@@2@@std@@QAEXXZ 00420470 f i public:TextRes.obj
 0001:0001f4d0       ?_Dec@const_iterator@?$_Tree@V?$_Tmap_traits@V?$basic_string@DU?$char_traits@D@std@@V?$allocator@D@2@@std@@V12@U?$less@V?$basic_string@DU?$char_traits@D@std@@V?$allocator@D@2@@std@@@2@V?$allocator@U?$pair@$$CBV?$basic_string@DU?$char_traits@D@std@@V?$allocator@D@2@@std@@V12@@std@@@2@$0A@@std@@@std@@QAEXXZ 004204d0 f i public:TextRes.obj
 0001:0001f550       ??0?$pair@$$CBV?$basic_string@DU?$char_traits@D@std@@V?$allocator@D@2@@std@@V12@@std@@QAE@ABU01@@Z 00420550 f i public:TextRes.obj
 0001:0001f5d0       ??$sprintf_s@$0BAA@@@YAHAAY0BAA@DPBDZZ 004205d0 f i public:TextRes.obj
 0001:0001f5f0       ?_GetLongFromByteArray@@YAJPAEAAJJ@Z 004205f0 f i public:TextRes.obj
 0001:0001f630       ??0CDataBlockAllocator@@QAE@HHH@Z 00420630 f   public:DataBlockAllocator.obj
 0001:0001f730       ?Initial@CDataBlockAllocator@@AAEXH@Z 00420730 f   public:DataBlockAllocator.obj
 0001:0001f8e0       ?Release@CDataBlockAllocator@@AAEXXZ 004208e0 f   public:DataBlockAllocator.obj
 0001:0001fb00       ?AllocDB@CDataBlockAllocator@@QAEPAVCDataBlock@@J@Z 00420b00 f   public:DataBlockAllocator.obj
 0001:0001fc10       ?FreeDB@CDataBlockAllocator@@QAEXPAVCDataBlock@@@Z 00420c10 f   public:DataBlockAllocator.obj
 0001:0001fca0       ??0CClientResource@@QAE@XZ 00420ca0 f   public:ClientResource.obj
 0001:0001fd80       ??1?$map@KUtagPackageInfo@@U?$less@K@std@@V?$allocator@U?$pair@$$CBKUtagPackageInfo@@@std@@@3@@std@@QAE@XZ 00420d80 f i public:ClientResource.obj
 0001:0001fd90       ??1CClientResource@@QAE@XZ 00420d90 f   public:ClientResource.obj
 0001:0001ff00       ?InitialInstance@CClientResource@@SAXXZ 00420f00 f   public:ClientResource.obj
 0001:0001ff70       ?GetInstance@CClientResource@@SAPAV1@XZ 00420f70 f   public:ClientResource.obj
 0001:0001ff80       ?Initial@CClientResource@@QAEXW4eResourceType@@AAV?$basic_string@DU?$char_traits@D@std@@V?$allocator@D@2@@std@@1PAUHWND__@@@Z 00420f80 f   public:ClientResource.obj
 0001:00020030       ?LoadPackage@CClientResource@@QAE_N_N@Z 00421030 f   public:ClientResource.obj
 0001:000201b0       ?LoadEx@CClientResource@@QAE_NXZ 004211b0 f   public:ClientResource.obj
 0001:00020400       ?GetPackage@CClientResource@@QAEPAVCPackage@@K@Z 00421400 f   public:ClientResource.obj
 0001:00020460       ?IsFileExist@CClientResource@@QAE_NPBD@Z 00421460 f   public:ClientResource.obj
 0001:00020570       ??1tagFileInfo@@QAE@XZ     00421570 f i public:ClientResource.obj
 0001:000205e0       ?FindFileList@CClientResource@@QAEXAAV?$basic_string@DU?$char_traits@D@std@@V?$allocator@D@2@@std@@0AAV?$list@V?$basic_string@DU?$char_traits@D@std@@V?$allocator@D@2@@std@@V?$allocator@V?$basic_string@DU?$char_traits@D@std@@V?$allocator@D@2@@std@@@2@@3@@Z 004215e0 f   public:ClientResource.obj
 0001:00020610       ?StartAsynReadFileThread@CClientResource@@QAEXXZ 00421610 f   public:ClientResource.obj
 0001:00020690       ?ExitAsynReadFileThread@CClientResource@@QAEXXZ 00421690 f   public:ClientResource.obj
 0001:00020880       ?PopRequestReadFile@CClientResource@@AAEPAUtagFileAsynOper@1@XZ 00421880 f   public:ClientResource.obj
 0001:00020960       ?OpenRFile@CClientResource@@AAEPAVCRFile@@PBD@Z 00421960 f   public:ClientResource.obj
 0001:00020c70       ?SyncReadFile@CClientResource@@QAEPAVCRFile@@PBD@Z 00421c70 f   public:ClientResource.obj
 0001:00020d10       ?AsynReadFileProc@CClientResource@@SGIPAX@Z 00421d10 f   public:ClientResource.obj
 0001:00020da0       ?rfOpen@@YAPAVCRFile@@PBD@Z 00421da0 f   public:ClientResource.obj
 0001:00020dc0       ?rfClose@@YAXPAVCRFile@@@Z 00421dc0 f   public:ClientResource.obj
 0001:00020df0       ??A?$map@KUtagPackageInfo@@U?$less@K@std@@V?$allocator@U?$pair@$$CBKUtagPackageInfo@@@std@@@3@@std@@QAEAAUtagPackageInfo@@ABK@Z 00421df0 f i public:ClientResource.obj
 0001:00020f40       ?find@?$_Tree@V?$_Tmap_traits@KUtagPackageInfo@@U?$less@K@std@@V?$allocator@U?$pair@$$CBKUtagPackageInfo@@@std@@@3@$0A@@std@@@std@@QAE?AViterator@12@ABK@Z 00421f40 f i public:ClientResource.obj
 0001:00020fb0       ??Diterator@?$_Tree@V?$_Tmap_traits@V?$basic_string@DU?$char_traits@D@std@@V?$allocator@D@2@@std@@PAUtagFileInfo@@U?$less@V?$basic_string@DU?$char_traits@D@std@@V?$allocator@D@2@@std@@@2@V?$allocator@U?$pair@$$CBV?$basic_string@DU?$char_traits@D@std@@V?$allocator@D@2@@std@@PAUtagFileInfo@@@std@@@2@$0A@@std@@@std@@QBEAAU?$pair@$$CBV?$basic_string@DU?$char_traits@D@std@@V?$allocator@D@2@@std@@PAUtagFileInfo@@@2@XZ 00421fb0 f i public:ClientResource.obj
 0001:00020fd0       ??1tagWorldServer@CGame@@QAE@XZ 00421fd0 f i Game.obj
 0001:00020fd0       ??1?$pair@$$CBKUtagPackageInfo@@@std@@QAE@XZ 00421fd0 f i public:ClientResource.obj
 0001:00021000       ?find_first_of@?$basic_string@DU?$char_traits@D@std@@V?$allocator@D@2@@std@@QBEIPBDII@Z 00422000 f i public:ClientResource.obj
 0001:00021080       ?find_last_of@?$basic_string@DU?$char_traits@D@std@@V?$allocator@D@2@@std@@QBEIPBDII@Z 00422080 f i public:ClientResource.obj
 0001:00021130       ?insert@?$_Tree@V?$_Tmap_traits@KUtagPackageInfo@@U?$less@K@std@@V?$allocator@U?$pair@$$CBKUtagPackageInfo@@@std@@@3@$0A@@std@@@std@@QAE?AViterator@12@V312@ABU?$pair@$$CBKUtagPackageInfo@@@2@@Z 00422130 f i public:ClientResource.obj
 0001:000212f0       ?_Erase@?$_Tree@V?$_Tmap_traits@KUtagPackageInfo@@U?$less@K@std@@V?$allocator@U?$pair@$$CBKUtagPackageInfo@@@std@@@3@$0A@@std@@@std@@IAEXPAU_Node@?$_Tree_nod@V?$_Tmap_traits@KUtagPackageInfo@@U?$less@K@std@@V?$allocator@U?$pair@$$CBKUtagPackageInfo@@@std@@@3@$0A@@std@@@2@@Z 004222f0 f i public:ClientResource.obj
 0001:00021350       ?_Tidy@?$_Tree@V?$_Tmap_traits@KUtagPackageInfo@@U?$less@K@std@@V?$allocator@U?$pair@$$CBKUtagPackageInfo@@@std@@@3@$0A@@std@@@std@@IAEXXZ 00422350 f i public:ClientResource.obj
 0001:00021390       ?append@?$basic_string@DU?$char_traits@D@std@@V?$allocator@D@2@@std@@QAEAAV12@PBDI@Z 00422390 f i public:ClientResource.obj
 0001:00021480       ?insert@?$_Tree@V?$_Tmap_traits@KUtagPackageInfo@@U?$less@K@std@@V?$allocator@U?$pair@$$CBKUtagPackageInfo@@@std@@@3@$0A@@std@@@std@@QAE?AU?$pair@Viterator@?$_Tree@V?$_Tmap_traits@KUtagPackageInfo@@U?$less@K@std@@V?$allocator@U?$pair@$$CBKUtagPackageInfo@@@std@@@3@$0A@@std@@@std@@_N@2@ABU?$pair@$$CBKUtagPackageInfo@@@2@@Z 00422480 f i public:ClientResource.obj
 0001:00021560       ?erase@?$_Tree@V?$_Tmap_traits@KUtagPackageInfo@@U?$less@K@std@@V?$allocator@U?$pair@$$CBKUtagPackageInfo@@@std@@@3@$0A@@std@@@std@@QAE?AViterator@12@V312@0@Z 00422560 f i public:ClientResource.obj
 0001:00021630       ?_Insert@?$_Tree@V?$_Tmap_traits@KUtagPackageInfo@@U?$less@K@std@@V?$allocator@U?$pair@$$CBKUtagPackageInfo@@@std@@@3@$0A@@std@@@std@@IAE?AViterator@12@_NPAU_Node@?$_Tree_nod@V?$_Tmap_traits@KUtagPackageInfo@@U?$less@K@std@@V?$allocator@U?$pair@$$CBKUtagPackageInfo@@@std@@@3@$0A@@std@@@2@ABU?$pair@$$CBKUtagPackageInfo@@@2@@Z 00422630 f i public:ClientResource.obj
 0001:00021870       ?_Max@?$_Tree@V?$_Tmap_traits@KUtagPackageInfo@@U?$less@K@std@@V?$allocator@U?$pair@$$CBKUtagPackageInfo@@@std@@@3@$0A@@std@@@std@@KAPAU_Node@?$_Tree_nod@V?$_Tmap_traits@KUtagPackageInfo@@U?$less@K@std@@V?$allocator@U?$pair@$$CBKUtagPackageInfo@@@std@@@3@$0A@@std@@@2@PAU342@@Z 00422870 f i public:ClientResource.obj
 0001:00021890       ?_Buynode@?$_Tree@V?$_Tmap_traits@KUtagPackageInfo@@U?$less@K@std@@V?$allocator@U?$pair@$$CBKUtagPackageInfo@@@std@@@3@$0A@@std@@@std@@IAEPAU_Node@?$_Tree_nod@V?$_Tmap_traits@KUtagPackageInfo@@U?$less@K@std@@V?$allocator@U?$pair@$$CBKUtagPackageInfo@@@std@@@3@$0A@@std@@@2@XZ 00422890 f i public:ClientResource.obj
 0001:000218d0       ?erase@?$_Tree@V?$_Tmap_traits@KUtagPackageInfo@@U?$less@K@std@@V?$allocator@U?$pair@$$CBKUtagPackageInfo@@@std@@@3@$0A@@std@@@std@@QAE?AViterator@12@V312@@Z 004228d0 f i public:ClientResource.obj
 0001:00021be0       ?_Lrotate@?$_Tree@V?$_Tmap_traits@KUtagPackageInfo@@U?$less@K@std@@V?$allocator@U?$pair@$$CBKUtagPackageInfo@@@std@@@3@$0A@@std@@@std@@IAEXPAU_Node@?$_Tree_nod@V?$_Tmap_traits@KUtagPackageInfo@@U?$less@K@std@@V?$allocator@U?$pair@$$CBKUtagPackageInfo@@@std@@@3@$0A@@std@@@2@@Z 00422be0 f i public:ClientResource.obj
 0001:00021c30       ?_Rrotate@?$_Tree@V?$_Tmap_traits@KUtagPackageInfo@@U?$less@K@std@@V?$allocator@U?$pair@$$CBKUtagPackageInfo@@@std@@@3@$0A@@std@@@std@@IAEXPAU_Node@?$_Tree_nod@V?$_Tmap_traits@KUtagPackageInfo@@U?$less@K@std@@V?$allocator@U?$pair@$$CBKUtagPackageInfo@@@std@@@3@$0A@@std@@@2@@Z 00422c30 f i public:ClientResource.obj
 0001:00021c80       ?_Buynode@?$_Tree@V?$_Tmap_traits@KUtagPackageInfo@@U?$less@K@std@@V?$allocator@U?$pair@$$CBKUtagPackageInfo@@@std@@@3@$0A@@std@@@std@@IAEPAU_Node@?$_Tree_nod@V?$_Tmap_traits@KUtagPackageInfo@@U?$less@K@std@@V?$allocator@U?$pair@$$CBKUtagPackageInfo@@@std@@@3@$0A@@std@@@2@PAU342@00ABU?$pair@$$CBKUtagPackageInfo@@@2@D@Z 00422c80 f i public:ClientResource.obj
 0001:00021d10       ?_Inc@const_iterator@?$_Tree@V?$_Tmap_traits@KUtagPackageInfo@@U?$less@K@std@@V?$allocator@U?$pair@$$CBKUtagPackageInfo@@@std@@@3@$0A@@std@@@std@@QAEXXZ 00422d10 f i public:ClientResource.obj
 0001:00021d80       ?_Dec@const_iterator@?$_Tree@V?$_Tmap_traits@KUtagPackageInfo@@U?$less@K@std@@V?$allocator@U?$pair@$$CBKUtagPackageInfo@@@std@@@3@$0A@@std@@@std@@QAEXXZ 00422d80 f i public:ClientResource.obj
 0001:00021e00       ??0_Node@?$_Tree_nod@V?$_Tmap_traits@KUtagPackageInfo@@U?$less@K@std@@V?$allocator@U?$pair@$$CBKUtagPackageInfo@@@std@@@3@$0A@@std@@@std@@QAE@PAU012@00ABU?$pair@$$CBKUtagPackageInfo@@@2@D@Z 00422e00 f i public:ClientResource.obj
 0001:00021e60       ??$?HDU?$char_traits@D@std@@V?$allocator@D@1@@std@@YA?AV?$basic_string@DU?$char_traits@D@std@@V?$allocator@D@2@@0@ABV10@PBD@Z 00422e60 f i public:ClientResource.obj
 0001:00021f20       ??$?HDU?$char_traits@D@std@@V?$allocator@D@1@@std@@YA?AV?$basic_string@DU?$char_traits@D@std@@V?$allocator@D@2@@0@ABV10@0@Z 00422f20 f i public:ClientResource.obj
 0001:00021fd0       ?clear@?$list@UtagPackFileInfo@@V?$allocator@UtagPackFileInfo@@@std@@@std@@QAEXXZ 00422fd0 f i public:ClientResource.obj
 0001:00022030       ??1Menu@AppFrame@@QAE@XZ   00423030 f i Net:stdafx.obj
 0001:00022030       ??1tagPackageInfo@@QAE@XZ  00423030 f i public:ClientResource.obj
 0001:00022030       ??1tagPackFileInfo@@QAE@XZ 00423030 f i public:ClientResource.obj
 0001:00022060       ?_Buynode@?$list@UtagPackFileInfo@@V?$allocator@UtagPackFileInfo@@@std@@@std@@IAEPAU_Node@?$_List_nod@UtagPackFileInfo@@V?$allocator@UtagPackFileInfo@@@std@@@2@PAU342@0ABUtagPackFileInfo@@@Z 00423060 f i public:ClientResource.obj
 0001:000220f0       ?_Incsize@?$list@UtagPackFileInfo@@V?$allocator@UtagPackFileInfo@@@std@@@std@@IAEXI@Z 004230f0 f i public:ClientResource.obj
 0001:00022190       ??$_Construct@UtagPackFileInfo@@U1@@std@@YAXPAUtagPackFileInfo@@ABU1@@Z 00423190 f i public:ClientResource.obj
 0001:00022210       ?_Max@?$_Tree@V?$_Tmap_traits@V?$basic_string@DU?$char_traits@D@std@@V?$allocator@D@2@@std@@PAVLog@AppFrame@@U?$less@V?$basic_string@DU?$char_traits@D@std@@V?$allocator@D@2@@std@@@2@V?$allocator@U?$pair@$$CBV?$basic_string@DU?$char_traits@D@std@@V?$allocator@D@2@@std@@PAVLog@AppFrame@@@std@@@2@$0A@@std@@@std@@KAPAU_Node@?$_Tree_nod@V?$_Tmap_traits@V?$basic_string@DU?$char_traits@D@std@@V?$allocator@D@2@@std@@PAVLog@AppFrame@@U?$less@V?$basic_string@DU?$char_traits@D@std@@V?$allocator@D@2@@std@@@2@V?$allocator@U?$pair@$$CBV?$basic_string@DU?$char_traits@D@std@@V?$allocator@D@2@@std@@PAVLog@AppFrame@@@std@@@2@$0A@@std@@@2@PAU342@@Z 00423210 f i public:Logger.obj
 0001:00022210       ?_Max@?$_Tree@V?$_Tmap_traits@V?$basic_string@DU?$char_traits@D@std@@V?$allocator@D@2@@std@@PAUtagFileInfo0x@@U?$less@V?$basic_string@DU?$char_traits@D@std@@V?$allocator@D@2@@std@@@2@V?$allocator@U?$pair@$$CBV?$basic_string@DU?$char_traits@D@std@@V?$allocator@D@2@@std@@PAUtagFileInfo0x@@@std@@@2@$0A@@std@@@std@@KAPAU_Node@?$_Tree_nod@V?$_Tmap_traits@V?$basic_string@DU?$char_traits@D@std@@V?$allocator@D@2@@std@@PAUtagFileInfo0x@@U?$less@V?$basic_string@DU?$char_traits@D@std@@V?$allocator@D@2@@std@@@2@V?$allocator@U?$pair@$$CBV?$basic_string@DU?$char_traits@D@std@@V?$allocator@D@2@@std@@PAUtagFileInfo0x@@@std@@@2@$0A@@std@@@2@PAU342@@Z 00423210 f i Net:MapFile.obj
 0001:00022210       ?_Max@?$_Tree@V?$_Tmap_traits@V?$basic_string@DU?$char_traits@D@std@@V?$allocator@D@2@@std@@PAUtagFileInfo@@U?$less@V?$basic_string@DU?$char_traits@D@std@@V?$allocator@D@2@@std@@@2@V?$allocator@U?$pair@$$CBV?$basic_string@DU?$char_traits@D@std@@V?$allocator@D@2@@std@@PAUtagFileInfo@@@std@@@2@$0A@@std@@@std@@KAPAU_Node@?$_Tree_nod@V?$_Tmap_traits@V?$basic_string@DU?$char_traits@D@std@@V?$allocator@D@2@@std@@PAUtagFileInfo@@U?$less@V?$basic_string@DU?$char_traits@D@std@@V?$allocator@D@2@@std@@@2@V?$allocator@U?$pair@$$CBV?$basic_string@DU?$char_traits@D@std@@V?$allocator@D@2@@std@@PAUtagFileInfo@@@std@@@2@$0A@@std@@@2@PAU342@@Z 00423210 f i public:ClientResource.obj
 0001:00022230       ?_Rrotate@?$_Tree@V?$_Tmap_traits@V?$basic_string@DU?$char_traits@D@std@@V?$allocator@D@2@@std@@PAUtagFileInfo0x@@U?$less@V?$basic_string@DU?$char_traits@D@std@@V?$allocator@D@2@@std@@@2@V?$allocator@U?$pair@$$CBV?$basic_string@DU?$char_traits@D@std@@V?$allocator@D@2@@std@@PAUtagFileInfo0x@@@std@@@2@$0A@@std@@@std@@IAEXPAU_Node@?$_Tree_nod@V?$_Tmap_traits@V?$basic_string@DU?$char_traits@D@std@@V?$allocator@D@2@@std@@PAUtagFileInfo0x@@U?$less@V?$basic_string@DU?$char_traits@D@std@@V?$allocator@D@2@@std@@@2@V?$allocator@U?$pair@$$CBV?$basic_string@DU?$char_traits@D@std@@V?$allocator@D@2@@std@@PAUtagFileInfo0x@@@std@@@2@$0A@@std@@@2@@Z 00423230 f i Net:MapFile.obj
 0001:00022230       ?_Rrotate@?$_Tree@V?$_Tmap_traits@V?$basic_string@DU?$char_traits@D@std@@V?$allocator@D@2@@std@@PAVLog@AppFrame@@U?$less@V?$basic_string@DU?$char_traits@D@std@@V?$allocator@D@2@@std@@@2@V?$allocator@U?$pair@$$CBV?$basic_string@DU?$char_traits@D@std@@V?$allocator@D@2@@std@@PAVLog@AppFrame@@@std@@@2@$0A@@std@@@std@@IAEXPAU_Node@?$_Tree_nod@V?$_Tmap_traits@V?$basic_string@DU?$char_traits@D@std@@V?$allocator@D@2@@std@@PAVLog@AppFrame@@U?$less@V?$basic_string@DU?$char_traits@D@std@@V?$allocator@D@2@@std@@@2@V?$allocator@U?$pair@$$CBV?$basic_string@DU?$char_traits@D@std@@V?$allocator@D@2@@std@@PAVLog@AppFrame@@@std@@@2@$0A@@std@@@2@@Z 00423230 f i public:Logger.obj
 0001:00022230       ?_Rrotate@?$_Tree@V?$_Tmap_traits@V?$basic_string@DU?$char_traits@D@std@@V?$allocator@D@2@@std@@PAUtagFileInfo@@U?$less@V?$basic_string@DU?$char_traits@D@std@@V?$allocator@D@2@@std@@@2@V?$allocator@U?$pair@$$CBV?$basic_string@DU?$char_traits@D@std@@V?$allocator@D@2@@std@@PAUtagFileInfo@@@std@@@2@$0A@@std@@@std@@IAEXPAU_Node@?$_Tree_nod@V?$_Tmap_traits@V?$basic_string@DU?$char_traits@D@std@@V?$allocator@D@2@@std@@PAUtagFileInfo@@U?$less@V?$basic_string@DU?$char_traits@D@std@@V?$allocator@D@2@@std@@@2@V?$allocator@U?$pair@$$CBV?$basic_string@DU?$char_traits@D@std@@V?$allocator@D@2@@std@@PAUtagFileInfo@@@std@@@2@$0A@@std@@@2@@Z 00423230 f i public:ClientResource.obj
 0001:00022280       ??0Configure@AppFrame@@QAE@XZ 00423280 f i public:AppFrameDef.obj
 0001:00022300       ??1Configure@AppFrame@@QAE@XZ 00423300 f i public:AppFrameDef.obj
 0001:000223b0       ??0Layouts@AppFrame@@QAE@XZ 004233b0 f i public:AppFrameDef.obj
 0001:00022420       ??1Layouts@AppFrame@@QAE@XZ 00423420 f i public:AppFrameDef.obj
 0001:00022490       ?InitConfig@AppFrame@@YA_NPAUHWND__@@@Z 00423490 f   public:AppFrameDef.obj
 0001:000226a0       ?FiniConfig@AppFrame@@YAXXZ 004236a0 f   public:AppFrameDef.obj
 0001:000230a0       ?ToggleMenus@AppFrame@@YA_NH@Z 004240a0 f   public:AppFrameDef.obj
 0001:00023960       ?SetTitle@AppFrame@@YA_NABV?$basic_string@DU?$char_traits@D@std@@V?$allocator@D@2@@std@@_N@Z 00424960 f   public:AppFrameDef.obj
 0001:00023f30       ?GetWndFunc@AppFrame@@YAP6A_NPAUHWND__@@H@Z0@Z 00424f30 f   public:AppFrameDef.obj
 0001:00023fc0       ?MsgProc@AppFrame@@YA_NPAUHWND__@@HH@Z 00424fc0 f   public:AppFrameDef.obj
 0001:000241a0       ?GetWnd@AppFrame@@YAPAUHWND__@@ABV?$basic_string@DU?$char_traits@D@std@@V?$allocator@D@2@@std@@@Z 004251a0 f   public:AppFrameDef.obj
 0001:00024220       ?GetWnd@AppFrame@@YAPAUWindow@Layouts@1@PAUHWND__@@@Z 00425220 f   public:AppFrameDef.obj
 0001:000242b0       ?ExitThread@AppFrame@@YAXXZ 004252b0 f   public:AppFrameDef.obj
 0001:00024350       ?ShowLogs@AppFrame@@YAXABV?$basic_string@DU?$char_traits@D@std@@V?$allocator@D@2@@std@@@Z 00425350 f   public:AppFrameDef.obj
 0001:00024510       ?AddToList@AppFrame@@YAXABV?$basic_string@DU?$char_traits@D@std@@V?$allocator@D@2@@std@@0@Z 00425510 f   public:AppFrameDef.obj
 0001:00024550       ?AddWarnLog@AppFrame@@YAXPBDZZ 00425550 f   public:AppFrameDef.obj
 0001:00024670       ?AddStdLog@AppFrame@@YAXPBDZZ 00425670 f   public:AppFrameDef.obj
 0001:00024790       ?AddLog@AppFrame@@YAXW4LogLevel@1@PBDZZ 00425790 f   public:AppFrameDef.obj
 0001:00024810       ?NotifyMessageBox@AppFrame@@YAHPBD0I@Z 00425810 f   public:AppFrameDef.obj
 0001:00024880       ?end@?$basic_string@DU?$char_traits@D@std@@V?$allocator@D@2@@std@@QAE?AV?$_String_iterator@DU?$char_traits@D@std@@V?$allocator@D@2@@2@XZ 00425880 f i public:AppFrameDef.obj
 0001:000248e0       ??6?$basic_ostream@DU?$char_traits@D@std@@@std@@QAEAAV01@H@Z 004258e0 f i public:AppFrameDef.obj
 0001:00024a30       ??A?$map@V?$basic_string@DU?$char_traits@D@std@@V?$allocator@D@2@@std@@UWindow@Layouts@AppFrame@@U?$less@V?$basic_string@DU?$char_traits@D@std@@V?$allocator@D@2@@std@@@2@V?$allocator@U?$pair@$$CBV?$basic_string@DU?$char_traits@D@std@@V?$allocator@D@2@@std@@UWindow@Layouts@AppFrame@@@std@@@2@@std@@QAEAAUWindow@Layouts@AppFrame@@ABV?$basic_string@DU?$char_traits@D@std@@V?$allocator@D@2@@1@@Z 00425a30 f i public:AppFrameDef.obj
 0001:00024ba0       ?find@?$_Tree@V?$_Tmap_traits@V?$basic_string@DU?$char_traits@D@std@@V?$allocator@D@2@@std@@UWindow@Layouts@AppFrame@@U?$less@V?$basic_string@DU?$char_traits@D@std@@V?$allocator@D@2@@std@@@2@V?$allocator@U?$pair@$$CBV?$basic_string@DU?$char_traits@D@std@@V?$allocator@D@2@@std@@UWindow@Layouts@AppFrame@@@std@@@2@$0A@@std@@@std@@QAE?AViterator@12@ABV?$basic_string@DU?$char_traits@D@std@@V?$allocator@D@2@@2@@Z 00425ba0 f i public:AppFrameDef.obj
 0001:00024c20       ?Inst@?$CSingleton@VLogger@AppFrame@@@@SAAAVLogger@AppFrame@@XZ 00425c20 f i public:AppFrameDef.obj
 0001:00024c90       ??1?$pair@$$CBV?$basic_string@DU?$char_traits@D@std@@V?$allocator@D@2@@std@@V12@@std@@QAE@XZ 00425c90 f i stdafx.obj
 0001:00024c90       ??1?$pair@$$CBV?$basic_string@DU?$char_traits@D@std@@V?$allocator@D@2@@std@@UWindow@Layouts@AppFrame@@@std@@QAE@XZ 00425c90 f i public:AppFrameDef.obj
 0001:00024ce0       ?find@?$basic_string@DU?$char_traits@D@std@@V?$allocator@D@2@@std@@QBEIPBDII@Z 00425ce0 f i public:AppFrameDef.obj
 0001:00024da0       ?insert@?$_Tree@V?$_Tmap_traits@V?$basic_string@DU?$char_traits@D@std@@V?$allocator@D@2@@std@@UWindow@Layouts@AppFrame@@U?$less@V?$basic_string@DU?$char_traits@D@std@@V?$allocator@D@2@@std@@@2@V?$allocator@U?$pair@$$CBV?$basic_string@DU?$char_traits@D@std@@V?$allocator@D@2@@std@@UWindow@Layouts@AppFrame@@@std@@@2@$0A@@std@@@std@@QAE?AViterator@12@V312@ABU?$pair@$$CBV?$basic_string@DU?$char_traits@D@std@@V?$allocator@D@2@@std@@UWindow@Layouts@AppFrame@@@2@@Z 00425da0 f i public:AppFrameDef.obj
 0001:00024fd0       ?_Erase@?$_Tree@V?$_Tmap_traits@V?$basic_string@DU?$char_traits@D@std@@V?$allocator@D@2@@std@@UWindow@Layouts@AppFrame@@U?$less@V?$basic_string@DU?$char_traits@D@std@@V?$allocator@D@2@@std@@@2@V?$allocator@U?$pair@$$CBV?$basic_string@DU?$char_traits@D@std@@V?$allocator@D@2@@std@@UWindow@Layouts@AppFrame@@@std@@@2@$0A@@std@@@std@@IAEXPAU_Node@?$_Tree_nod@V?$_Tmap_traits@V?$basic_string@DU?$char_traits@D@std@@V?$allocator@D@2@@std@@UWindow@Layouts@AppFrame@@U?$less@V?$basic_string@DU?$char_traits@D@std@@V?$allocator@D@2@@std@@@2@V?$allocator@U?$pair@$$CBV?$basic_string@DU?$char_traits@D@std@@V?$allocator@D@2@@std@@UWindow@Layouts@AppFrame@@@std@@@2@$0A@@std@@@2@@Z 00425fd0 f i public:AppFrameDef.obj
 0001:00025050       ?_Tidy@?$_Tree@V?$_Tmap_traits@V?$basic_string@DU?$char_traits@D@std@@V?$allocator@D@2@@std@@UWindow@Layouts@AppFrame@@U?$less@V?$basic_string@DU?$char_traits@D@std@@V?$allocator@D@2@@std@@@2@V?$allocator@U?$pair@$$CBV?$basic_string@DU?$char_traits@D@std@@V?$allocator@D@2@@std@@UWindow@Layouts@AppFrame@@@std@@@2@$0A@@std@@@std@@IAEXXZ 00426050 f i public:AppFrameDef.obj
 0001:00025090       ??0?$pair@$$CBV?$basic_string@DU?$char_traits@D@std@@V?$allocator@D@2@@std@@UWindow@Layouts@AppFrame@@@std@@QAE@ABV?$basic_string@DU?$char_traits@D@std@@V?$allocator@D@2@@1@ABUWindow@Layouts@AppFrame@@@Z 00426090 f i public:AppFrameDef.obj
 0001:00025140       ?do_put@?$num_put@DV?$ostreambuf_iterator@DU?$char_traits@D@std@@@std@@@std@@MBE?AV?$ostreambuf_iterator@DU?$char_traits@D@std@@@2@V32@AAVios_base@2@D_N@Z 00426140 f i public:AppFrameDef.obj
 0001:00025380       ?do_put@?$num_put@DV?$ostreambuf_iterator@DU?$char_traits@D@std@@@std@@@std@@MBE?AV?$ostreambuf_iterator@DU?$char_traits@D@std@@@2@V32@AAVios_base@2@DJ@Z 00426380 f i public:AppFrameDef.obj
 0001:00025410       ?do_put@?$num_put@DV?$ostreambuf_iterator@DU?$char_traits@D@std@@@std@@@std@@MBE?AV?$ostreambuf_iterator@DU?$char_traits@D@std@@@2@V32@AAVios_base@2@DK@Z 00426410 f i public:AppFrameDef.obj
 0001:000254a0       ?do_put@?$num_put@DV?$ostreambuf_iterator@DU?$char_traits@D@std@@@std@@@std@@MBE?AV?$ostreambuf_iterator@DU?$char_traits@D@std@@@2@V32@AAVios_base@2@D_J@Z 004264a0 f i public:AppFrameDef.obj
 0001:00025530       ?do_put@?$num_put@DV?$ostreambuf_iterator@DU?$char_traits@D@std@@@std@@@std@@MBE?AV?$ostreambuf_iterator@DU?$char_traits@D@std@@@2@V32@AAVios_base@2@D_K@Z 00426530 f i public:AppFrameDef.obj
 0001:000255c0       ?do_put@?$num_put@DV?$ostreambuf_iterator@DU?$char_traits@D@std@@@std@@@std@@MBE?AV?$ostreambuf_iterator@DU?$char_traits@D@std@@@2@V32@AAVios_base@2@DN@Z 004265c0 f i public:AppFrameDef.obj
 0001:00025780       ?do_put@?$num_put@DV?$ostreambuf_iterator@DU?$char_traits@D@std@@@std@@@std@@MBE?AV?$ostreambuf_iterator@DU?$char_traits@D@std@@@2@V32@AAVios_base@2@DO@Z 00426780 f i public:AppFrameDef.obj
 0001:00025950       ?do_put@?$num_put@DV?$ostreambuf_iterator@DU?$char_traits@D@std@@@std@@@std@@MBE?AV?$ostreambuf_iterator@DU?$char_traits@D@std@@@2@V32@AAVios_base@2@DPBX@Z 00426950 f i public:AppFrameDef.obj
 0001:000259c0       ?insert@?$_Tree@V?$_Tmap_traits@V?$basic_string@DU?$char_traits@D@std@@V?$allocator@D@2@@std@@UWindow@Layouts@AppFrame@@U?$less@V?$basic_string@DU?$char_traits@D@std@@V?$allocator@D@2@@std@@@2@V?$allocator@U?$pair@$$CBV?$basic_string@DU?$char_traits@D@std@@V?$allocator@D@2@@std@@UWindow@Layouts@AppFrame@@@std@@@2@$0A@@std@@@std@@QAE?AU?$pair@Viterator@?$_Tree@V?$_Tmap_traits@V?$basic_string@DU?$char_traits@D@std@@V?$allocator@D@2@@std@@UWindow@Layouts@AppFrame@@U?$less@V?$basic_string@DU?$char_traits@D@std@@V?$allocator@D@2@@std@@@2@V?$allocator@U?$pair@$$CBV?$basic_string@DU?$char_traits@D@std@@V?$allocator@D@2@@std@@UWindow@Layouts@AppFrame@@@std@@@2@$0A@@std@@@std@@_N@2@ABU?$pair@$$CBV?$basic_string@DU?$char_traits@D@std@@V?$allocator@D@2@@std@@UWindow@Layouts@AppFrame@@@2@@Z 004269c0 f i public:AppFrameDef.obj
 0001:00025b20       ?erase@?$_Tree@V?$_Tmap_traits@V?$basic_string@DU?$char_traits@D@std@@V?$allocator@D@2@@std@@UWindow@Layouts@AppFrame@@U?$less@V?$basic_string@DU?$char_traits@D@std@@V?$allocator@D@2@@std@@@2@V?$allocator@U?$pair@$$CBV?$basic_string@DU?$char_traits@D@std@@V?$allocator@D@2@@std@@UWindow@Layouts@AppFrame@@@std@@@2@$0A@@std@@@std@@QAE?AViterator@12@V312@0@Z 00426b20 f i public:AppFrameDef.obj
 0001:00025bf0       ?_Insert@?$_Tree@V?$_Tmap_traits@V?$basic_string@DU?$char_traits@D@std@@V?$allocator@D@2@@std@@UWindow@Layouts@AppFrame@@U?$less@V?$basic_string@DU?$char_traits@D@std@@V?$allocator@D@2@@std@@@2@V?$allocator@U?$pair@$$CBV?$basic_string@DU?$char_traits@D@std@@V?$allocator@D@2@@std@@UWindow@Layouts@AppFrame@@@std@@@2@$0A@@std@@@std@@IAE?AViterator@12@_NPAU_Node@?$_Tree_nod@V?$_Tmap_traits@V?$basic_string@DU?$char_traits@D@std@@V?$allocator@D@2@@std@@UWindow@Layouts@AppFrame@@U?$less@V?$basic_string@DU?$char_traits@D@std@@V?$allocator@D@2@@std@@@2@V?$allocator@U?$pair@$$CBV?$basic_string@DU?$char_traits@D@std@@V?$allocator@D@2@@std@@UWindow@Layouts@AppFrame@@@std@@@2@$0A@@std@@@2@ABU?$pair@$$CBV?$basic_string@DU?$char_traits@D@std@@V?$allocator@D@2@@std@@UWindow@Layouts@AppFrame@@@2@@Z 00426bf0 f i public:AppFrameDef.obj
 0001:00025e30       ?_Lbound@?$_Tree@V?$_Tmap_traits@V?$basic_string@DU?$char_traits@D@std@@V?$allocator@D@2@@std@@UWindow@Layouts@AppFrame@@U?$less@V?$basic_string@DU?$char_traits@D@std@@V?$allocator@D@2@@std@@@2@V?$allocator@U?$pair@$$CBV?$basic_string@DU?$char_traits@D@std@@V?$allocator@D@2@@std@@UWindow@Layouts@AppFrame@@@std@@@2@$0A@@std@@@std@@IBEPAU_Node@?$_Tree_nod@V?$_Tmap_traits@V?$basic_string@DU?$char_traits@D@std@@V?$allocator@D@2@@std@@UWindow@Layouts@AppFrame@@U?$less@V?$basic_string@DU?$char_traits@D@std@@V?$allocator@D@2@@std@@@2@V?$allocator@U?$pair@$$CBV?$basic_string@DU?$char_traits@D@std@@V?$allocator@D@2@@std@@UWindow@Layouts@AppFrame@@@std@@@2@$0A@@std@@@2@ABV?$basic_string@DU?$char_traits@D@std@@V?$allocator@D@2@@2@@Z 00426e30 f i public:AppFrameDef.obj
 0001:00025ec0       ?_Inc@const_iterator@?$_Tree@V?$_Tmap_traits@V?$basic_string@DU?$char_traits@D@std@@V?$allocator@D@2@@std@@UWindow@Layouts@AppFrame@@U?$less@V?$basic_string@DU?$char_traits@D@std@@V?$allocator@D@2@@std@@@2@V?$allocator@U?$pair@$$CBV?$basic_string@DU?$char_traits@D@std@@V?$allocator@D@2@@std@@UWindow@Layouts@AppFrame@@@std@@@2@$0A@@std@@@std@@QAEXXZ 00426ec0 f i public:AppFrameDef.obj
 0001:00025f30       ?_Fput@?$num_put@DV?$ostreambuf_iterator@DU?$char_traits@D@std@@@std@@@std@@ABA?AV?$ostreambuf_iterator@DU?$char_traits@D@std@@@2@V32@AAVios_base@2@DPBDIIII@Z 00426f30 f i public:AppFrameDef.obj
 0001:000265e0       ?_Ifmt@?$num_put@DV?$ostreambuf_iterator@DU?$char_traits@D@std@@@std@@@std@@ABAPADPADPBDH@Z 004275e0 f i public:AppFrameDef.obj
 0001:00026670       ?_Iput@?$num_put@DV?$ostreambuf_iterator@DU?$char_traits@D@std@@@std@@@std@@ABA?AV?$ostreambuf_iterator@DU?$char_traits@D@std@@@2@V32@AAVios_base@2@DPADI@Z 00427670 f i public:AppFrameDef.obj
 0001:00026990       ?_Rep@?$num_put@DV?$ostreambuf_iterator@DU?$char_traits@D@std@@@std@@@std@@ABA?AV?$ostreambuf_iterator@DU?$char_traits@D@std@@@2@V32@DI@Z 00427990 f i public:AppFrameDef.obj
 0001:00026a00       ?insert@?$basic_string@DU?$char_traits@D@std@@V?$allocator@D@2@@std@@QAEAAV12@IID@Z 00427a00 f i public:AppFrameDef.obj
 0001:00026af0       ?erase@?$_Tree@V?$_Tmap_traits@V?$basic_string@DU?$char_traits@D@std@@V?$allocator@D@2@@std@@UWindow@Layouts@AppFrame@@U?$less@V?$basic_string@DU?$char_traits@D@std@@V?$allocator@D@2@@std@@@2@V?$allocator@U?$pair@$$CBV?$basic_string@DU?$char_traits@D@std@@V?$allocator@D@2@@std@@UWindow@Layouts@AppFrame@@@std@@@2@$0A@@std@@@std@@QAE?AViterator@12@V312@@Z 00427af0 f i public:AppFrameDef.obj
 0001:00026e10       ?_Lrotate@?$_Tree@V?$_Tmap_traits@V?$basic_string@DU?$char_traits@D@std@@V?$allocator@D@2@@std@@UWindow@Layouts@AppFrame@@U?$less@V?$basic_string@DU?$char_traits@D@std@@V?$allocator@D@2@@std@@@2@V?$allocator@U?$pair@$$CBV?$basic_string@DU?$char_traits@D@std@@V?$allocator@D@2@@std@@UWindow@Layouts@AppFrame@@@std@@@2@$0A@@std@@@std@@IAEXPAU_Node@?$_Tree_nod@V?$_Tmap_traits@V?$basic_string@DU?$char_traits@D@std@@V?$allocator@D@2@@std@@UWindow@Layouts@AppFrame@@U?$less@V?$basic_string@DU?$char_traits@D@std@@V?$allocator@D@2@@std@@@2@V?$allocator@U?$pair@$$CBV?$basic_string@DU?$char_traits@D@std@@V?$allocator@D@2@@std@@UWindow@Layouts@AppFrame@@@std@@@2@$0A@@std@@@2@@Z 00427e10 f i public:AppFrameDef.obj
 0001:00026e60       ?_Rrotate@?$_Tree@V?$_Tmap_traits@V?$basic_string@DU?$char_traits@D@std@@V?$allocator@D@2@@std@@UWindow@Layouts@AppFrame@@U?$less@V?$basic_string@DU?$char_traits@D@std@@V?$allocator@D@2@@std@@@2@V?$allocator@U?$pair@$$CBV?$basic_string@DU?$char_traits@D@std@@V?$allocator@D@2@@std@@UWindow@Layouts@AppFrame@@@std@@@2@$0A@@std@@@std@@IAEXPAU_Node@?$_Tree_nod@V?$_Tmap_traits@V?$basic_string@DU?$char_traits@D@std@@V?$allocator@D@2@@std@@UWindow@Layouts@AppFrame@@U?$less@V?$basic_string@DU?$char_traits@D@std@@V?$allocator@D@2@@std@@@2@V?$allocator@U?$pair@$$CBV?$basic_string@DU?$char_traits@D@std@@V?$allocator@D@2@@std@@UWindow@Layouts@AppFrame@@@std@@@2@$0A@@std@@@2@@Z 00427e60 f i public:AppFrameDef.obj
 0001:00026eb0       ?_Buynode@?$_Tree@V?$_Tmap_traits@V?$basic_string@DU?$char_traits@D@std@@V?$allocator@D@2@@std@@UWindow@Layouts@AppFrame@@U?$less@V?$basic_string@DU?$char_traits@D@std@@V?$allocator@D@2@@std@@@2@V?$allocator@U?$pair@$$CBV?$basic_string@DU?$char_traits@D@std@@V?$allocator@D@2@@std@@UWindow@Layouts@AppFrame@@@std@@@2@$0A@@std@@@std@@IAEPAU_Node@?$_Tree_nod@V?$_Tmap_traits@V?$basic_string@DU?$char_traits@D@std@@V?$allocator@D@2@@std@@UWindow@Layouts@AppFrame@@U?$less@V?$basic_string@DU?$char_traits@D@std@@V?$allocator@D@2@@std@@@2@V?$allocator@U?$pair@$$CBV?$basic_string@DU?$char_traits@D@std@@V?$allocator@D@2@@std@@UWindow@Layouts@AppFrame@@@std@@@2@$0A@@std@@@2@XZ 00427eb0 f i public:AppFrameDef.obj
 0001:00026ef0       ?_Buynode@?$_Tree@V?$_Tmap_traits@V?$basic_string@DU?$char_traits@D@std@@V?$allocator@D@2@@std@@UWindow@Layouts@AppFrame@@U?$less@V?$basic_string@DU?$char_traits@D@std@@V?$allocator@D@2@@std@@@2@V?$allocator@U?$pair@$$CBV?$basic_string@DU?$char_traits@D@std@@V?$allocator@D@2@@std@@UWindow@Layouts@AppFrame@@@std@@@2@$0A@@std@@@std@@IAEPAU_Node@?$_Tree_nod@V?$_Tmap_traits@V?$basic_string@DU?$char_traits@D@std@@V?$allocator@D@2@@std@@UWindow@Layouts@AppFrame@@U?$less@V?$basic_string@DU?$char_traits@D@std@@V?$allocator@D@2@@std@@@2@V?$allocator@U?$pair@$$CBV?$basic_string@DU?$char_traits@D@std@@V?$allocator@D@2@@std@@UWindow@Layouts@AppFrame@@@std@@@2@$0A@@std@@@2@PAU342@00ABU?$pair@$$CBV?$basic_string@DU?$char_traits@D@std@@V?$allocator@D@2@@std@@UWindow@Layouts@AppFrame@@@2@D@Z 00427ef0 f i public:AppFrameDef.obj
 0001:00026f90       ?_Putc@?$num_put@DV?$ostreambuf_iterator@DU?$char_traits@D@std@@@std@@@std@@ABA?AV?$ostreambuf_iterator@DU?$char_traits@D@std@@@2@V32@PBDI@Z 00427f90 f i public:AppFrameDef.obj
 0001:00026f90       ?_Put@?$num_put@DV?$ostreambuf_iterator@DU?$char_traits@D@std@@@std@@@std@@ABA?AV?$ostreambuf_iterator@DU?$char_traits@D@std@@@2@V32@PBDI@Z 00427f90 f i public:AppFrameDef.obj
 0001:00027010       ?_Putgrouped@?$num_put@DV?$ostreambuf_iterator@DU?$char_traits@D@std@@@std@@@std@@ABA?AV?$ostreambuf_iterator@DU?$char_traits@D@std@@@2@V32@PBDID@Z 00428010 f i public:AppFrameDef.obj
 0001:000270e0       ?_Max@?$_Tree@V?$_Tmap_traits@V?$basic_string@DU?$char_traits@D@std@@V?$allocator@D@2@@std@@UWindow@Layouts@AppFrame@@U?$less@V?$basic_string@DU?$char_traits@D@std@@V?$allocator@D@2@@std@@@2@V?$allocator@U?$pair@$$CBV?$basic_string@DU?$char_traits@D@std@@V?$allocator@D@2@@std@@UWindow@Layouts@AppFrame@@@std@@@2@$0A@@std@@@std@@KAPAU_Node@?$_Tree_nod@V?$_Tmap_traits@V?$basic_string@DU?$char_traits@D@std@@V?$allocator@D@2@@std@@UWindow@Layouts@AppFrame@@U?$less@V?$basic_string@DU?$char_traits@D@std@@V?$allocator@D@2@@std@@@2@V?$allocator@U?$pair@$$CBV?$basic_string@DU?$char_traits@D@std@@V?$allocator@D@2@@std@@UWindow@Layouts@AppFrame@@@std@@@2@$0A@@std@@@2@PAU342@@Z 004280e0 f i public:AppFrameDef.obj
 0001:00027100       ?_Dec@const_iterator@?$_Tree@V?$_Tmap_traits@V?$basic_string@DU?$char_traits@D@std@@V?$allocator@D@2@@std@@UWindow@Layouts@AppFrame@@U?$less@V?$basic_string@DU?$char_traits@D@std@@V?$allocator@D@2@@std@@@2@V?$allocator@U?$pair@$$CBV?$basic_string@DU?$char_traits@D@std@@V?$allocator@D@2@@std@@UWindow@Layouts@AppFrame@@@std@@@2@$0A@@std@@@std@@QAEXXZ 00428100 f i public:AppFrameDef.obj
 0001:00027180       ??0?$pair@$$CBV?$basic_string@DU?$char_traits@D@std@@V?$allocator@D@2@@std@@UWindow@Layouts@AppFrame@@@std@@QAE@ABU01@@Z 00428180 f i public:AppFrameDef.obj
 0001:00027230       ??$?6$$BY0DF@$$CBD@Log@AppFrame@@QAEAAV01@AAY0DF@$$CBD@Z 00428230 f i public:AppFrameDef.obj
 0001:00027260       ??$?6$$BY01$$CBD@Log@AppFrame@@QAEAAV01@AAY01$$CBD@Z 00428260 f i public:AppFrameDef.obj
 0001:00027290       ??$?6$$BY02$$CBD@Log@AppFrame@@QAEAAV01@AAY02$$CBD@Z 00428290 f i public:AppFrameDef.obj
 0001:000272c0       ??$?6H@Log@AppFrame@@QAEAAV01@ABH@Z 004282c0 f i public:AppFrameDef.obj
 0001:000272f0       ??$?6$$BY07$$CBD@Log@AppFrame@@QAEAAV01@AAY07$$CBD@Z 004282f0 f i public:AppFrameDef.obj
 0001:00027320       ??$?6$$BY0P@$$CBD@Log@AppFrame@@QAEAAV01@AAY0P@$$CBD@Z 00428320 f i public:AppFrameDef.obj
 0001:00027350       ??$?6$$BY0BI@$$CBD@Log@AppFrame@@QAEAAV01@AAY0BI@$$CBD@Z 00428350 f i public:AppFrameDef.obj
 0001:00027350       ??$?6$$BY0BF@$$CBD@Log@AppFrame@@QAEAAV01@AAY0BF@$$CBD@Z 00428350 f i public:AppFrameDef.obj
 0001:00027380       ??$GetAttr@PAH@ConfigParse@@QBEPBDPBDPAH@Z 00428380 f i public:AppFrameDef.obj
 0001:00027460       ??$?6U?$char_traits@D@std@@@std@@YAAAV?$basic_ostream@DU?$char_traits@D@std@@@0@AAV10@PBD@Z 00428460 f i public:AppFrameDef.obj
 0001:000276a0       ??$?6U?$char_traits@D@std@@@std@@YAAAV?$basic_ostream@DU?$char_traits@D@std@@@0@AAV10@D@Z 004286a0 f i public:AppFrameDef.obj
 0001:000278e0       ??$?6DU?$char_traits@D@std@@V?$allocator@D@1@@std@@YAAAV?$basic_ostream@DU?$char_traits@D@std@@@0@AAV10@ABV?$basic_string@DU?$char_traits@D@std@@V?$allocator@D@2@@0@@Z 004288e0 f i public:AppFrameDef.obj
 0001:00027b50       ??$?6$$BY0BO@$$CBD@Log@AppFrame@@QAEAAV01@AAY0BO@$$CBD@Z 00428b50 f i public:AppFrameDef.obj
 0001:00027b80       ??$use_facet@V?$num_put@DV?$ostreambuf_iterator@DU?$char_traits@D@std@@@std@@@std@@@std@@YAABV?$num_put@DV?$ostreambuf_iterator@DU?$char_traits@D@std@@@std@@@0@ABVlocale@0@@Z 00428b80 f i public:AppFrameDef.obj
 0001:00027cd0       ??6?$basic_ostream@DU?$char_traits@D@std@@@std@@QAEAAV01@K@Z 00428cd0 f i public:AppFrameDef.obj
 0001:00027e20       ?_Getcat@?$num_put@DV?$ostreambuf_iterator@DU?$char_traits@D@std@@@std@@@std@@SAIPAPBVfacet@locale@2@@Z 00428e20 f i public:AppFrameDef.obj
 0001:00027e90       ??0?$num_put@DV?$ostreambuf_iterator@DU?$char_traits@D@std@@@std@@@std@@QAE@I@Z 00428e90 f i public:AppFrameDef.obj
 0001:00027f30       ??1sentry@?$basic_ostream@DU?$char_traits@D@std@@@std@@QAE@XZ 00428f30 f i public:AppFrameDef.obj
 0001:00027fa0       ??1_Sentry_base@?$basic_ostream@DU?$char_traits@D@std@@@std@@QAE@XZ 00428fa0 f i public:AppFrameDef.obj
 0001:00027fc0       ?_Osfx@?$basic_ostream@DU?$char_traits@D@std@@@std@@QAEXXZ 00428fc0 f i public:AppFrameDef.obj
 0001:00028020       ??0sentry@?$basic_ostream@DU?$char_traits@D@std@@@std@@QAE@AAV12@@Z 00429020 f i public:AppFrameDef.obj
 0001:000280b0       ?str@?$basic_ostringstream@DU?$char_traits@D@std@@V?$allocator@D@2@@std@@QBE?AV?$basic_string@DU?$char_traits@D@std@@V?$allocator@D@2@@2@XZ 004290b0 f i public:AppFrameDef.obj
 0001:000280d0       ?str@?$basic_stringbuf@DU?$char_traits@D@std@@V?$allocator@D@2@@std@@QBE?AV?$basic_string@DU?$char_traits@D@std@@V?$allocator@D@2@@2@XZ 004290d0 f i public:AppFrameDef.obj
 0001:00028250       ??_D?$basic_ostringstream@DU?$char_traits@D@std@@V?$allocator@D@2@@std@@QAEXXZ 00429250 f i public:AppFrameDef.obj
 0001:00028270       ??1?$basic_ostringstream@DU?$char_traits@D@std@@V?$allocator@D@2@@std@@UAE@XZ 00429270 f i public:AppFrameDef.obj
 0001:000282f0       ??_E?$basic_ostringstream@DU?$char_traits@D@std@@V?$allocator@D@2@@std@@UAEPAXI@Z 004292f0 f i  CIL library: CIL module
 0001:000282f0       ??_G?$basic_ostringstream@DU?$char_traits@D@std@@V?$allocator@D@2@@std@@UAEPAXI@Z 004292f0 f i public:AppFrameDef.obj
 0001:00028330       ??0?$basic_ostringstream@DU?$char_traits@D@std@@V?$allocator@D@2@@std@@QAE@H@Z 00429330 f i public:AppFrameDef.obj
 0001:00028400       ??0?$basic_ostream@DU?$char_traits@D@std@@@std@@QAE@PAV?$basic_streambuf@DU?$char_traits@D@std@@@1@_N@Z 00429400 f i public:AppFrameDef.obj
 0001:00028490       ??6Log@AppFrame@@QAEAAV01@W4LogLevel@1@@Z 00429490 f i public:AppFrameDef.obj
 0001:000284b0       ?getInstance@CNetSessionManager@@SAPAV1@XZ 004294b0 f   public:NetSessionManager.obj
 0001:00028550       ?Release@CNetSessionManager@@QAEXXZ 00429550 f   public:NetSessionManager.obj
 0001:00028640       ?Run@CNetSessionManager@@QAEXXZ 00429640 f   public:NetSessionManager.obj
 0001:00028750       ?erase@?$_Tree@V?$_Tmap_traits@VCGUID@@PAVCNetSession@@U?$less@VCGUID@@@std@@V?$allocator@U?$pair@$$CBVCGUID@@PAVCNetSession@@@std@@@4@$0A@@std@@@std@@QAE?AViterator@12@V312@@Z 00429750 f i public:NetSessionManager.obj
 0001:00028750       ?erase@?$_Tree@V?$_Tmap_traits@JUtagDataStat@CServer@@U?$less@J@std@@V?$allocator@U?$pair@$$CBJUtagDataStat@CServer@@@std@@@4@$0A@@std@@@std@@QAE?AViterator@12@V312@@Z 00429750 f i Net:Servers.obj
 0001:00028a10       ?erase@?$_Tree@V?$_Tmap_traits@VCGUID@@PAVCNetSession@@U?$less@VCGUID@@@std@@V?$allocator@U?$pair@$$CBVCGUID@@PAVCNetSession@@@std@@@4@$0A@@std@@@std@@QAE?AViterator@12@V312@0@Z 00429a10 f i public:NetSessionManager.obj
 0001:00028ae0       ?_Lrotate@?$_Tree@V?$_Tmap_traits@VCGUID@@PAVCNetSession@@U?$less@VCGUID@@@std@@V?$allocator@U?$pair@$$CBVCGUID@@PAVCNetSession@@@std@@@4@$0A@@std@@@std@@IAEXPAU_Node@?$_Tree_nod@V?$_Tmap_traits@VCGUID@@PAVCNetSession@@U?$less@VCGUID@@@std@@V?$allocator@U?$pair@$$CBVCGUID@@PAVCNetSession@@@std@@@4@$0A@@std@@@2@@Z 00429ae0 f i public:NetSessionManager.obj
 0001:00028ae0       ?_Lrotate@?$_Tree@V?$_Tmap_traits@JUtagDataStat@CServer@@U?$less@J@std@@V?$allocator@U?$pair@$$CBJUtagDataStat@CServer@@@std@@@4@$0A@@std@@@std@@IAEXPAU_Node@?$_Tree_nod@V?$_Tmap_traits@JUtagDataStat@CServer@@U?$less@J@std@@V?$allocator@U?$pair@$$CBJUtagDataStat@CServer@@@std@@@4@$0A@@std@@@2@@Z 00429ae0 f i Net:Servers.obj
 0001:00028b30       ?_Max@?$_Tree@V?$_Tmap_traits@JUtagDataStat@CServer@@U?$less@J@std@@V?$allocator@U?$pair@$$CBJUtagDataStat@CServer@@@std@@@4@$0A@@std@@@std@@KAPAU_Node@?$_Tree_nod@V?$_Tmap_traits@JUtagDataStat@CServer@@U?$less@J@std@@V?$allocator@U?$pair@$$CBJUtagDataStat@CServer@@@std@@@4@$0A@@std@@@2@PAU342@@Z 00429b30 f i Net:Servers.obj
 0001:00028b30       ?_Max@?$_Tree@V?$_Tmap_traits@VCGUID@@PAVCNetSession@@U?$less@VCGUID@@@std@@V?$allocator@U?$pair@$$CBVCGUID@@PAVCNetSession@@@std@@@4@$0A@@std@@@std@@KAPAU_Node@?$_Tree_nod@V?$_Tmap_traits@VCGUID@@PAVCNetSession@@U?$less@VCGUID@@@std@@V?$allocator@U?$pair@$$CBVCGUID@@PAVCNetSession@@@std@@@4@$0A@@std@@@2@PAU342@@Z 00429b30 f i public:NetSessionManager.obj
 0001:00028b50       ?_Rrotate@?$_Tree@V?$_Tmap_traits@JUtagDataStat@CServer@@U?$less@J@std@@V?$allocator@U?$pair@$$CBJUtagDataStat@CServer@@@std@@@4@$0A@@std@@@std@@IAEXPAU_Node@?$_Tree_nod@V?$_Tmap_traits@JUtagDataStat@CServer@@U?$less@J@std@@V?$allocator@U?$pair@$$CBJUtagDataStat@CServer@@@std@@@4@$0A@@std@@@2@@Z 00429b50 f i Net:Servers.obj
 0001:00028b50       ?_Rrotate@?$_Tree@V?$_Tmap_traits@VCGUID@@PAVCNetSession@@U?$less@VCGUID@@@std@@V?$allocator@U?$pair@$$CBVCGUID@@PAVCNetSession@@@std@@@4@$0A@@std@@@std@@IAEXPAU_Node@?$_Tree_nod@V?$_Tmap_traits@VCGUID@@PAVCNetSession@@U?$less@VCGUID@@@std@@V?$allocator@U?$pair@$$CBVCGUID@@PAVCNetSession@@@std@@@4@$0A@@std@@@2@@Z 00429b50 f i public:NetSessionManager.obj
 0001:00028ba0       ??R?$less@VCGUID@@@std@@QBE_NABVCGUID@@0@Z 00429ba0 f i public:NetSessionManager.obj
 0001:00028be0       ?_Buynode@?$_Tree@V?$_Tmap_traits@JUtagDataStat@CServer@@U?$less@J@std@@V?$allocator@U?$pair@$$CBJUtagDataStat@CServer@@@std@@@4@$0A@@std@@@std@@IAEPAU_Node@?$_Tree_nod@V?$_Tmap_traits@JUtagDataStat@CServer@@U?$less@J@std@@V?$allocator@U?$pair@$$CBJUtagDataStat@CServer@@@std@@@4@$0A@@std@@@2@XZ 00429be0 f i Net:Servers.obj
 0001:00028be0       ?_Buynode@?$_Tree@V?$_Tmap_traits@VCGUID@@PAVCNetSession@@U?$less@VCGUID@@@std@@V?$allocator@U?$pair@$$CBVCGUID@@PAVCNetSession@@@std@@@4@$0A@@std@@@std@@IAEPAU_Node@?$_Tree_nod@V?$_Tmap_traits@VCGUID@@PAVCNetSession@@U?$less@VCGUID@@@std@@V?$allocator@U?$pair@$$CBVCGUID@@PAVCNetSession@@@std@@@4@$0A@@std@@@2@XZ 00429be0 f i public:NetSessionManager.obj
 0001:00028c20       ?WriteLog@_Sword3@@YAXPAXPBDZZ 00429c20 f   public:CrashDumper.obj
 0001:00028c90       ?GetExceptionMsg@_Sword3@@YAPBDK@Z 00429c90 f   public:CrashDumper.obj
 0001:00028e30       ?DumpStackInfo@_Sword3@@YAXPAK@Z 00429e30 f   public:CrashDumper.obj
 0001:00028fe0       ?DumpSystemInfo@_Sword3@@YAXXZ 00429fe0 f   public:CrashDumper.obj
 0001:000297f0       ?FormatOutputValue@_Sword3@@YAPADPADW4BasicType@1@_KPAX@Z 0042a7f0 f   public:CrashDumper.obj
 0001:00029910       ?GetBasicType@_Sword3@@YA?AW4BasicType@1@K_K@Z 0042a910 f   public:CrashDumper.obj
 0001:00029990       ?DumpTypeIndex@_Sword3@@YAPADPAD_KKIKAAH@Z 0042a990 f   public:CrashDumper.obj
 0001:00029a30       ?FormatSymbolValue@_Sword3@@YAHPAU_SYMBOL_INFO@@PAU_tagSTACKFRAME@@PADI@Z 0042aa30 f   public:CrashDumper.obj
 0001:00029b20       ?EnumerateSymbolsCallback@_Sword3@@YGHPAU_SYMBOL_INFO@@KPAX@Z 0042ab20 f   public:CrashDumper.obj
 0001:00029bc0       ?DumpCallStack@_Sword3@@YAXPAU_CONTEXT@@H@Z 0042abc0 f   public:CrashDumper.obj
 0001:00029fc0       ?CrashFilter@_Sword3@@YAHPAU_EXCEPTION_POINTERS@@KPAD@Z 0042afc0 f   public:CrashDumper.obj
 0001:0002a460       ?CreateGUID@CGUID@@SA_NAAV1@@Z 0042b460 f   public:GUID.obj
 0001:0002a480       ??0CGUID@@QAE@PBD@Z        0042b480 f   public:GUID.obj
 0001:0002a7b0       ?tostring@CGUID@@QBE_NPAD@Z 0042b7b0 f i public:GUID.obj
 0001:0002a810       ?_AddToByteArray@@YAXPAV?$vector@EV?$allocator@E@std@@@std@@PAXJ@Z 0042b810 f   public:Public.obj
 0001:0002a870       ?_AddToByteArray@@YAXPAV?$vector@EV?$allocator@E@std@@@std@@PBD@Z 0042b870 f   public:Public.obj
 0001:0002a8d0       ?_AddToByteArray@@YAXPAV?$vector@EV?$allocator@E@std@@@std@@J@Z 0042b8d0 f   public:Public.obj
 0001:0002a920       ?_AddToByteArray@@YAXPAV?$vector@EV?$allocator@E@std@@@std@@E@Z 0042b920 f   public:Public.obj
 0001:0002a940       ?_AddToByteArray@@YAXPAV?$vector@EV?$allocator@E@std@@@std@@G@Z 0042b940 f   public:Public.obj
 0001:0002a990       ?_AddToByteArray@@YAXPAV?$vector@EV?$allocator@E@std@@@std@@K@Z 0042b990 f   public:Public.obj
 0001:0002a9d0       ?_AddToByteArray@@YAXPAV?$vector@EV?$allocator@E@std@@@std@@ABVCGUID@@@Z 0042b9d0 f   public:Public.obj
 0001:0002aa70       ?_GetBufferFromByteArray@@YA_NPAEAAJAAVCGUID@@J@Z 0042ba70 f   public:Public.obj
 0001:0002ab40       ?_GetBufferFromByteArray@@YAPAXPAEAAJPAXJJ@Z 0042bb40 f   public:Public.obj
 0001:0002ab90       ?_GetStringFromByteArray@@YAPADPAEAAJPADJ@Z 0042bb90 f   public:Public.obj
 0001:0002ac10       ?push_back@?$vector@EV?$allocator@E@std@@@std@@QAEXABE@Z 0042bc10 f i public:Public.obj
 0001:0002ac70       ?resize@?$vector@EV?$allocator@E@std@@@std@@QAEXIE@Z 0042bc70 f i public:Public.obj
 0001:0002ad40       ?insert@?$vector@EV?$allocator@E@std@@@std@@QAE?AV?$_Vector_iterator@EV?$allocator@E@std@@@2@V32@ABE@Z 0042bd40 f i public:Public.obj
 0001:0002add0       ?_Ufill@?$vector@EV?$allocator@E@std@@@std@@IAEPAEPAEIABE@Z 0042bdd0 f i public:Public.obj
 0001:0002ae00       ?erase@?$vector@EV?$allocator@E@std@@@std@@QAE?AV?$_Vector_iterator@EV?$allocator@E@std@@@2@V32@0@Z 0042be00 f i public:Public.obj
 0001:0002ae60       ?_Insert_n@?$vector@EV?$allocator@E@std@@@std@@IAEXV?$_Vector_iterator@EV?$allocator@E@std@@@2@IABE@Z 0042be60 f i public:Public.obj
 0001:0002b050       ??0CRFile@@QAE@PBDPAEK@Z   0042c050 f   public:RFile.obj
 0001:0002b080       ??0CRFile@@QAE@PBDPAU_iobuf@@@Z 0042c080 f   public:RFile.obj
 0001:0002b130       ?ReadToStream@CRFile@@QAE_NAAV?$basic_stringstream@DU?$char_traits@D@std@@V?$allocator@D@2@@std@@@Z 0042c130 f   public:RFile.obj
 0001:0002b170       ?CheckRFileStr@@YAXAAV?$basic_string@DU?$char_traits@D@std@@V?$allocator@D@2@@std@@@Z 0042c170 f   public:RFile.obj
 0001:0002b340       ?seekg@?$basic_istream@DU?$char_traits@D@std@@@std@@QAEAAV12@JH@Z 0042c340 f i public:RFile.obj
 0001:0002b3b0       ?replace@?$basic_string@DU?$char_traits@D@std@@V?$allocator@D@2@@std@@QAEAAV12@IIABV12@II@Z 0042c3b0 f i public:RFile.obj
 0001:0002b5d0       ?ReadTo@@YA_NAAV?$basic_istream@DU?$char_traits@D@std@@@std@@PBD@Z 0042c5d0 f   public:ReadWrite.obj
 0001:0002b6f0       ??5?$basic_istream@DU?$char_traits@D@std@@@std@@QAEAAV01@AAH@Z 0042c6f0 f i public:ReadWrite.obj
 0001:0002b880       ??_GCDataBlock@@UAEPAXI@Z  0042c880 f i public:DataBlock.obj
 0001:0002b880       ??_ECDataBlock@@UAEPAXI@Z  0042c880 f i  CIL library: CIL module
 0001:0002b8c0       ??0ConfigParse@@QAE@PBD_N@Z 0042c8c0 f   public:ConfigParse.obj
 0001:0002b9e0       ??1ConfigParse@@QAE@XZ     0042c9e0 f   public:ConfigParse.obj
 0001:0002ba00       ?SetNextSibling@ConfigParse@@QAE_NPBD@Z 0042ca00 f   public:ConfigParse.obj
 0001:0002bac0       ?SetFirstChild@ConfigParse@@QAE_NPBD@Z 0042cac0 f   public:ConfigParse.obj
 0001:0002bb90       ?GetAttr@ConfigParse@@QBEPBDPBD@Z 0042cb90 f   public:ConfigParse.obj
 0001:0002bc50       ?FirstChildElement@TiXmlNode@@QAEPAVTiXmlElement@@XZ 0042cc50 f i public:tinyxml.obj
 0001:0002bc50       ?RootElement@TiXmlDocument@@QAEPAVTiXmlElement@@XZ 0042cc50 f i public:ConfigParse.obj
 0001:0002bc80       ??0CFilesInfo@@QAE@PAUHWND__@@@Z 0042cc80 f   public:FilesInfo.obj
 0001:0002bd80       ??_ECFilesInfo@@UAEPAXI@Z  0042cd80 f i  CIL library: CIL module
 0001:0002bd80       ??_GCFilesInfo@@UAEPAXI@Z  0042cd80 f i public:FilesInfo.obj
 0001:0002bda0       ??1CFilesInfo@@UAE@XZ      0042cda0 f   public:FilesInfo.obj
 0001:0002be70       ?Load@CFilesInfo@@QAE_NAAV?$basic_string@DU?$char_traits@D@std@@V?$allocator@D@2@@std@@@Z 0042ce70 f   public:FilesInfo.obj
 0001:0002c070       ?LoadPackInfo@CFilesInfo@@QAE_NPAU_iobuf@@@Z 0042d070 f   public:FilesInfo.obj
 0001:0002c210       ?LoadFolderInfo@CFilesInfo@@QAE_NPAU_iobuf@@PAUtagFileInfo@@@Z 0042d210 f   public:FilesInfo.obj
 0001:0002c4d0       ?AddFolderInfo@CFilesInfo@@QAEPAUtagFileInfo@@PAU2@AAV?$basic_string@DU?$char_traits@D@std@@V?$allocator@D@2@@std@@KKKKK@Z 0042d4d0 f   public:FilesInfo.obj
 0001:0002c5e0       ?AddFileInfo@CFilesInfo@@QAEPAUtagFileInfo@@PAU2@AAV?$basic_string@DU?$char_traits@D@std@@V?$allocator@D@2@@std@@KKKKKK@Z 0042d5e0 f   public:FilesInfo.obj
 0001:0002c6f0       ?UpdateFileInfo@CFilesInfo@@QAEPAUtagFileInfo@@AAV?$basic_string@DU?$char_traits@D@std@@V?$allocator@D@2@@std@@KKKKKK@Z 0042d6f0 f   public:FilesInfo.obj
 0001:0002ce70       ?DelFileInfo@CFilesInfo@@QAEXPAUtagFileInfo@@@Z 0042de70 f   public:FilesInfo.obj
 0001:0002cfa0       ?Clear@CFilesInfo@@QAEXXZ  0042dfa0 f   public:FilesInfo.obj
 0001:0002d050       ?FindChildFileInfoByText@CFilesInfo@@QAEPAUtagFileInfo@@PAU2@AAV?$basic_string@DU?$char_traits@D@std@@V?$allocator@D@2@@std@@@Z 0042e050 f   public:FilesInfo.obj
 0001:0002d120       ?GetFileInfoByText@CFilesInfo@@QAEPAUtagFileInfo@@V?$basic_string@DU?$char_traits@D@std@@V?$allocator@D@2@@std@@@Z 0042e120 f   public:FilesInfo.obj
 0001:0002d4d0       ?GetFileTextWithParent@CFilesInfo@@QAE?AV?$basic_string@DU?$char_traits@D@std@@V?$allocator@D@2@@std@@PAUtagFileInfo@@@Z 0042e4d0 f   public:FilesInfo.obj
 0001:0002d5f0       ?AddFileSize@CFilesInfo@@QAEXPAUtagFileInfo@@H@Z 0042e5f0 f   public:FilesInfo.obj
 0001:0002d630       ?UpdateParentFolderInfo@CFilesInfo@@QAEXPAUtagFileInfo@@@Z 0042e630 f   public:FilesInfo.obj
 0001:0002d710       ?FindFileList@CFilesInfo@@QAEXAAV?$basic_string@DU?$char_traits@D@std@@V?$allocator@D@2@@std@@0AAV?$list@V?$basic_string@DU?$char_traits@D@std@@V?$allocator@D@2@@std@@V?$allocator@V?$basic_string@DU?$char_traits@D@std@@V?$allocator@D@2@@std@@@2@@3@@Z 0042e710 f   public:FilesInfo.obj
 0001:0002d880       ?FindFileList@CFilesInfo@@QAEXPAUtagFileInfo@@AAV?$basic_string@DU?$char_traits@D@std@@V?$allocator@D@2@@std@@AAV?$list@V?$basic_string@DU?$char_traits@D@std@@V?$allocator@D@2@@std@@V?$allocator@V?$basic_string@DU?$char_traits@D@std@@V?$allocator@D@2@@std@@@2@@4@@Z 0042e880 f   public:FilesInfo.obj
 0001:0002da40       ??A?$map@V?$basic_string@DU?$char_traits@D@std@@V?$allocator@D@2@@std@@PAUtagFileInfo@@U?$less@V?$basic_string@DU?$char_traits@D@std@@V?$allocator@D@2@@std@@@2@V?$allocator@U?$pair@$$CBV?$basic_string@DU?$char_traits@D@std@@V?$allocator@D@2@@std@@PAUtagFileInfo@@@std@@@2@@std@@QAEAAPAUtagFileInfo@@ABV?$basic_string@DU?$char_traits@D@std@@V?$allocator@D@2@@1@@Z 0042ea40 f i public:FilesInfo.obj
 0001:0002db40       ?find@?$_Tree@V?$_Tmap_traits@V?$basic_string@DU?$char_traits@D@std@@V?$allocator@D@2@@std@@PAVLog@AppFrame@@U?$less@V?$basic_string@DU?$char_traits@D@std@@V?$allocator@D@2@@std@@@2@V?$allocator@U?$pair@$$CBV?$basic_string@DU?$char_traits@D@std@@V?$allocator@D@2@@std@@PAVLog@AppFrame@@@std@@@2@$0A@@std@@@std@@QAE?AViterator@12@ABV?$basic_string@DU?$char_traits@D@std@@V?$allocator@D@2@@2@@Z 0042eb40 f i public:Logger.obj
 0001:0002db40       ?find@?$_Tree@V?$_Tmap_traits@V?$basic_string@DU?$char_traits@D@std@@V?$allocator@D@2@@std@@PAUtagFileInfo@@U?$less@V?$basic_string@DU?$char_traits@D@std@@V?$allocator@D@2@@std@@@2@V?$allocator@U?$pair@$$CBV?$basic_string@DU?$char_traits@D@std@@V?$allocator@D@2@@std@@PAUtagFileInfo@@@std@@@2@$0A@@std@@@std@@QAE?AViterator@12@ABV?$basic_string@DU?$char_traits@D@std@@V?$allocator@D@2@@2@@Z 0042eb40 f i public:FilesInfo.obj
 0001:0002dbc0       ??1?$list@UtagPackFileInfo@@V?$allocator@UtagPackFileInfo@@@std@@@std@@QAE@XZ 0042ebc0 f i public:FilesInfo.obj
 0001:0002dbe0       ?insert@?$_Tree@V?$_Tmap_traits@V?$basic_string@DU?$char_traits@D@std@@V?$allocator@D@2@@std@@PAUtagFileInfo@@U?$less@V?$basic_string@DU?$char_traits@D@std@@V?$allocator@D@2@@std@@@2@V?$allocator@U?$pair@$$CBV?$basic_string@DU?$char_traits@D@std@@V?$allocator@D@2@@std@@PAUtagFileInfo@@@std@@@2@$0A@@std@@@std@@QAE?AViterator@12@V312@ABU?$pair@$$CBV?$basic_string@DU?$char_traits@D@std@@V?$allocator@D@2@@std@@PAUtagFileInfo@@@2@@Z 0042ebe0 f i public:FilesInfo.obj
 0001:0002de10       ?_Buynode@?$list@UtagPackFileInfo@@V?$allocator@UtagPackFileInfo@@@std@@@std@@IAEPAU_Node@?$_List_nod@UtagPackFileInfo@@V?$allocator@UtagPackFileInfo@@@std@@@2@XZ 0042ee10 f i public:FilesInfo.obj
 0001:0002de30       ?_Dec@const_iterator@?$_Tree@V?$_Tmap_traits@V?$basic_string@DU?$char_traits@D@std@@V?$allocator@D@2@@std@@PAVLog@AppFrame@@U?$less@V?$basic_string@DU?$char_traits@D@std@@V?$allocator@D@2@@std@@@2@V?$allocator@U?$pair@$$CBV?$basic_string@DU?$char_traits@D@std@@V?$allocator@D@2@@std@@PAVLog@AppFrame@@@std@@@2@$0A@@std@@@std@@QAEXXZ 0042ee30 f i public:Logger.obj
 0001:0002de30       ?_Dec@const_iterator@?$_Tree@V?$_Tmap_traits@V?$basic_string@DU?$char_traits@D@std@@V?$allocator@D@2@@std@@PAUtagFileInfo@@U?$less@V?$basic_string@DU?$char_traits@D@std@@V?$allocator@D@2@@std@@@2@V?$allocator@U?$pair@$$CBV?$basic_string@DU?$char_traits@D@std@@V?$allocator@D@2@@std@@PAUtagFileInfo@@@std@@@2@$0A@@std@@@std@@QAEXXZ 0042ee30 f i public:FilesInfo.obj
 0001:0002deb0       ??$insert@V?$_String_iterator@DU?$char_traits@D@std@@V?$allocator@D@2@@std@@@?$basic_string@DU?$char_traits@D@std@@V?$allocator@D@2@@std@@QAEXV?$_String_iterator@DU?$char_traits@D@std@@V?$allocator@D@2@@1@00@Z 0042eeb0 f i public:FilesInfo.obj
 0001:0002def0       ??$_Replace@V?$_String_iterator@DU?$char_traits@D@std@@V?$allocator@D@2@@std@@@?$basic_string@DU?$char_traits@D@std@@V?$allocator@D@2@@std@@QAEAAV01@V?$_String_iterator@DU?$char_traits@D@std@@V?$allocator@D@2@@1@000Uinput_iterator_tag@1@@Z 0042eef0 f i public:FilesInfo.obj
 0001:0002dfb0       ?replace@?$basic_string@DU?$char_traits@D@std@@V?$allocator@D@2@@std@@QAEAAV12@V?$_String_iterator@DU?$char_traits@D@std@@V?$allocator@D@2@@2@0ABV12@@Z 0042efb0 f i public:FilesInfo.obj
 0001:0002e060       ??$_Construct@V?$_String_iterator@DU?$char_traits@D@std@@V?$allocator@D@2@@std@@@?$basic_string@DU?$char_traits@D@std@@V?$allocator@D@2@@std@@QAEXV?$_String_iterator@DU?$char_traits@D@std@@V?$allocator@D@2@@1@0Uforward_iterator_tag@1@@Z 0042f060 f i public:FilesInfo.obj
 0001:0002e1b0       ??0tagFileInfo@@QAE@AAV?$basic_string@DU?$char_traits@D@std@@V?$allocator@D@2@@std@@KKKKKK_NPAU0@@Z 0042f1b0 f i public:FilesInfo.obj
 0001:0002e2a0       ??0tagFileInfo@@QAE@XZ     0042f2a0 f i public:FilesInfo.obj
 0001:0002e370       ?DeCompressData@@YAXPBEKPAEPAK@Z 0042f370 f   public:Package.obj
 0001:0002e3b0       ??0CPackage@@QAE@PAVCClientResource@@AAV?$basic_string@DU?$char_traits@D@std@@V?$allocator@D@2@@std@@KK@Z 0042f3b0 f   public:Package.obj
 0001:0002e4a0       ??1?$map@V?$basic_string@DU?$char_traits@D@std@@V?$allocator@D@2@@std@@UtagFileIndex@@U?$less@V?$basic_string@DU?$char_traits@D@std@@V?$allocator@D@2@@std@@@2@V?$allocator@U?$pair@$$CBV?$basic_string@DU?$char_traits@D@std@@V?$allocator@D@2@@std@@UtagFileIndex@@@std@@@2@@std@@QAE@XZ 0042f4a0 f i public:Package.obj
 0001:0002e4b0       ??1?$multiset@UtagFileIndex@@USortEmpty@@V?$allocator@UtagFileIndex@@@std@@@std@@QAE@XZ 0042f4b0 f i public:Package.obj
 0001:0002e4c0       ??1CPackage@@QAE@XZ        0042f4c0 f   public:Package.obj
 0001:0002e570       ?OpenFileHandle@CPackage@@QAEXPBD@Z 0042f570 f   public:Package.obj
 0001:0002e6b0       ?Open@CPackage@@QAE_NPBD_N@Z 0042f6b0 f   public:Package.obj
 0001:0002ea20       ?ExtractToBuf@CPackage@@QAE_NPBDAAPAEIAAK222@Z 0042fa20 f   public:Package.obj
 0001:0002ecb0       ?GetFileSize@CPackage@@QAEJPBD@Z 0042fcb0 f   public:Package.obj
 0001:0002eda0       ??A?$map@V?$basic_string@DU?$char_traits@D@std@@V?$allocator@D@2@@std@@UtagFileIndex@@U?$less@V?$basic_string@DU?$char_traits@D@std@@V?$allocator@D@2@@std@@@2@V?$allocator@U?$pair@$$CBV?$basic_string@DU?$char_traits@D@std@@V?$allocator@D@2@@std@@UtagFileIndex@@@std@@@2@@std@@QAEAAUtagFileIndex@@ABV?$basic_string@DU?$char_traits@D@std@@V?$allocator@D@2@@1@@Z 0042fda0 f i public:Package.obj
 0001:0002eee0       ?erase@?$_Tree@V?$_Tmap_traits@V?$basic_string@DU?$char_traits@D@std@@V?$allocator@D@2@@std@@UtagFileIndex@@U?$less@V?$basic_string@DU?$char_traits@D@std@@V?$allocator@D@2@@std@@@2@V?$allocator@U?$pair@$$CBV?$basic_string@DU?$char_traits@D@std@@V?$allocator@D@2@@std@@UtagFileIndex@@@std@@@2@$0A@@std@@@std@@QAE?AViterator@12@V312@@Z 0042fee0 f i public:Package.obj
 0001:0002f270       ?find@?$_Tree@V?$_Tmap_traits@V?$basic_string@DU?$char_traits@D@std@@V?$allocator@D@2@@std@@UtagFileIndex@@U?$less@V?$basic_string@DU?$char_traits@D@std@@V?$allocator@D@2@@std@@@2@V?$allocator@U?$pair@$$CBV?$basic_string@DU?$char_traits@D@std@@V?$allocator@D@2@@std@@UtagFileIndex@@@std@@@2@$0A@@std@@@std@@QAE?AViterator@12@ABV?$basic_string@DU?$char_traits@D@std@@V?$allocator@D@2@@2@@Z 00430270 f i public:Package.obj
 0001:0002f2f0       ?erase@?$_Tree@V?$_Tset_traits@UtagFileIndex@@USortEmpty@@V?$allocator@UtagFileIndex@@@std@@$00@std@@@std@@QAE?AViterator@12@V312@@Z 004302f0 f i public:Package.obj
 0001:0002f640       ?insert@?$_Tree@V?$_Tmap_traits@V?$basic_string@DU?$char_traits@D@std@@V?$allocator@D@2@@std@@UtagFileIndex@@U?$less@V?$basic_string@DU?$char_traits@D@std@@V?$allocator@D@2@@std@@@2@V?$allocator@U?$pair@$$CBV?$basic_string@DU?$char_traits@D@std@@V?$allocator@D@2@@std@@UtagFileIndex@@@std@@@2@$0A@@std@@@std@@QAE?AViterator@12@V312@ABU?$pair@$$CBV?$basic_string@DU?$char_traits@D@std@@V?$allocator@D@2@@std@@UtagFileIndex@@@2@@Z 00430640 f i public:Package.obj
 0001:0002f870       ?_Erase@?$_Tree@V?$_Tmap_traits@V?$basic_string@DU?$char_traits@D@std@@V?$allocator@D@2@@std@@UtagFileIndex@@U?$less@V?$basic_string@DU?$char_traits@D@std@@V?$allocator@D@2@@std@@@2@V?$allocator@U?$pair@$$CBV?$basic_string@DU?$char_traits@D@std@@V?$allocator@D@2@@std@@UtagFileIndex@@@std@@@2@$0A@@std@@@std@@IAEXPAU_Node@?$_Tree_nod@V?$_Tmap_traits@V?$basic_string@DU?$char_traits@D@std@@V?$allocator@D@2@@std@@UtagFileIndex@@U?$less@V?$basic_string@DU?$char_traits@D@std@@V?$allocator@D@2@@std@@@2@V?$allocator@U?$pair@$$CBV?$basic_string@DU?$char_traits@D@std@@V?$allocator@D@2@@std@@UtagFileIndex@@@std@@@2@$0A@@std@@@2@@Z 00430870 f i public:Package.obj
 0001:0002f8d0       ?_Lrotate@?$_Tree@V?$_Tmap_traits@V?$basic_string@DU?$char_traits@D@std@@V?$allocator@D@2@@std@@UtagFileIndex@@U?$less@V?$basic_string@DU?$char_traits@D@std@@V?$allocator@D@2@@std@@@2@V?$allocator@U?$pair@$$CBV?$basic_string@DU?$char_traits@D@std@@V?$allocator@D@2@@std@@UtagFileIndex@@@std@@@2@$0A@@std@@@std@@IAEXPAU_Node@?$_Tree_nod@V?$_Tmap_traits@V?$basic_string@DU?$char_traits@D@std@@V?$allocator@D@2@@std@@UtagFileIndex@@U?$less@V?$basic_string@DU?$char_traits@D@std@@V?$allocator@D@2@@std@@@2@V?$allocator@U?$pair@$$CBV?$basic_string@DU?$char_traits@D@std@@V?$allocator@D@2@@std@@UtagFileIndex@@@std@@@2@$0A@@std@@@2@@Z 004308d0 f i public:Package.obj
 0001:0002f920       ?_Max@?$_Tree@V?$_Tmap_traits@V?$basic_string@DU?$char_traits@D@std@@V?$allocator@D@2@@std@@UtagFileIndex@@U?$less@V?$basic_string@DU?$char_traits@D@std@@V?$allocator@D@2@@std@@@2@V?$allocator@U?$pair@$$CBV?$basic_string@DU?$char_traits@D@std@@V?$allocator@D@2@@std@@UtagFileIndex@@@std@@@2@$0A@@std@@@std@@KAPAU_Node@?$_Tree_nod@V?$_Tmap_traits@V?$basic_string@DU?$char_traits@D@std@@V?$allocator@D@2@@std@@UtagFileIndex@@U?$less@V?$basic_string@DU?$char_traits@D@std@@V?$allocator@D@2@@std@@@2@V?$allocator@U?$pair@$$CBV?$basic_string@DU?$char_traits@D@std@@V?$allocator@D@2@@std@@UtagFileIndex@@@std@@@2@$0A@@std@@@2@PAU342@@Z 00430920 f i public:Package.obj
 0001:0002f940       ?_Min@?$_Tree@V?$_Tmap_traits@V?$basic_string@DU?$char_traits@D@std@@V?$allocator@D@2@@std@@UtagFileIndex@@U?$less@V?$basic_string@DU?$char_traits@D@std@@V?$allocator@D@2@@std@@@2@V?$allocator@U?$pair@$$CBV?$basic_string@DU?$char_traits@D@std@@V?$allocator@D@2@@std@@UtagFileIndex@@@std@@@2@$0A@@std@@@std@@KAPAU_Node@?$_Tree_nod@V?$_Tmap_traits@V?$basic_string@DU?$char_traits@D@std@@V?$allocator@D@2@@std@@UtagFileIndex@@U?$less@V?$basic_string@DU?$char_traits@D@std@@V?$allocator@D@2@@std@@@2@V?$allocator@U?$pair@$$CBV?$basic_string@DU?$char_traits@D@std@@V?$allocator@D@2@@std@@UtagFileIndex@@@std@@@2@$0A@@std@@@2@PAU342@@Z 00430940 f i public:Package.obj
 0001:0002f960       ?_Rrotate@?$_Tree@V?$_Tmap_traits@V?$basic_string@DU?$char_traits@D@std@@V?$allocator@D@2@@std@@UtagFileIndex@@U?$less@V?$basic_string@DU?$char_traits@D@std@@V?$allocator@D@2@@std@@@2@V?$allocator@U?$pair@$$CBV?$basic_string@DU?$char_traits@D@std@@V?$allocator@D@2@@std@@UtagFileIndex@@@std@@@2@$0A@@std@@@std@@IAEXPAU_Node@?$_Tree_nod@V?$_Tmap_traits@V?$basic_string@DU?$char_traits@D@std@@V?$allocator@D@2@@std@@UtagFileIndex@@U?$less@V?$basic_string@DU?$char_traits@D@std@@V?$allocator@D@2@@std@@@2@V?$allocator@U?$pair@$$CBV?$basic_string@DU?$char_traits@D@std@@V?$allocator@D@2@@std@@UtagFileIndex@@@std@@@2@$0A@@std@@@2@@Z 00430960 f i public:Package.obj
 0001:0002f9c0       ?_Tidy@?$_Tree@V?$_Tmap_traits@V?$basic_string@DU?$char_traits@D@std@@V?$allocator@D@2@@std@@UtagFileIndex@@U?$less@V?$basic_string@DU?$char_traits@D@std@@V?$allocator@D@2@@std@@@2@V?$allocator@U?$pair@$$CBV?$basic_string@DU?$char_traits@D@std@@V?$allocator@D@2@@std@@UtagFileIndex@@@std@@@2@$0A@@std@@@std@@IAEXXZ 004309c0 f i public:Package.obj
 0001:0002fa00       ?insert@?$_Tree@V?$_Tset_traits@UtagFileIndex@@USortEmpty@@V?$allocator@UtagFileIndex@@@std@@$00@std@@@std@@QAE?AU?$pair@Viterator@?$_Tree@V?$_Tset_traits@UtagFileIndex@@USortEmpty@@V?$allocator@UtagFileIndex@@@std@@$00@std@@@std@@_N@2@ABUtagFileIndex@@@Z 00430a00 f i public:Package.obj
 0001:0002fac0       ?_Erase@?$_Tree@V?$_Tset_traits@UtagFileIndex@@USortEmpty@@V?$allocator@UtagFileIndex@@@std@@$00@std@@@std@@IAEXPAU_Node@?$_Tree_nod@V?$_Tset_traits@UtagFileIndex@@USortEmpty@@V?$allocator@UtagFileIndex@@@std@@$00@std@@@2@@Z 00430ac0 f i public:Package.obj
 0001:0002fb00       ?_Lrotate@?$_Tree@V?$_Tset_traits@UtagFileIndex@@USortEmpty@@V?$allocator@UtagFileIndex@@@std@@$00@std@@@std@@IAEXPAU_Node@?$_Tree_nod@V?$_Tset_traits@UtagFileIndex@@USortEmpty@@V?$allocator@UtagFileIndex@@@std@@$00@std@@@2@@Z 00430b00 f i public:Package.obj
 0001:0002fb50       ?_Max@?$_Tree@V?$_Tset_traits@UtagFileIndex@@USortEmpty@@V?$allocator@UtagFileIndex@@@std@@$00@std@@@std@@KAPAU_Node@?$_Tree_nod@V?$_Tset_traits@UtagFileIndex@@USortEmpty@@V?$allocator@UtagFileIndex@@@std@@$00@std@@@2@PAU342@@Z 00430b50 f i public:Package.obj
 0001:0002fb70       ?_Min@?$_Tree@V?$_Tset_traits@UtagFileIndex@@USortEmpty@@V?$allocator@UtagFileIndex@@@std@@$00@std@@@std@@KAPAU_Node@?$_Tree_nod@V?$_Tset_traits@UtagFileIndex@@USortEmpty@@V?$allocator@UtagFileIndex@@@std@@$00@std@@@2@PAU342@@Z 00430b70 f i public:Package.obj
 0001:0002fb90       ?_Rrotate@?$_Tree@V?$_Tset_traits@UtagFileIndex@@USortEmpty@@V?$allocator@UtagFileIndex@@@std@@$00@std@@@std@@IAEXPAU_Node@?$_Tree_nod@V?$_Tset_traits@UtagFileIndex@@USortEmpty@@V?$allocator@UtagFileIndex@@@std@@$00@std@@@2@@Z 00430b90 f i public:Package.obj
 0001:0002fbf0       ?_Tidy@?$_Tree@V?$_Tset_traits@UtagFileIndex@@USortEmpty@@V?$allocator@UtagFileIndex@@@std@@$00@std@@@std@@IAEXXZ 00430bf0 f i public:Package.obj
 0001:0002fc30       ?insert@?$_Tree@V?$_Tmap_traits@V?$basic_string@DU?$char_traits@D@std@@V?$allocator@D@2@@std@@UtagFileIndex@@U?$less@V?$basic_string@DU?$char_traits@D@std@@V?$allocator@D@2@@std@@@2@V?$allocator@U?$pair@$$CBV?$basic_string@DU?$char_traits@D@std@@V?$allocator@D@2@@std@@UtagFileIndex@@@std@@@2@$0A@@std@@@std@@QAE?AU?$pair@Viterator@?$_Tree@V?$_Tmap_traits@V?$basic_string@DU?$char_traits@D@std@@V?$allocator@D@2@@std@@UtagFileIndex@@U?$less@V?$basic_string@DU?$char_traits@D@std@@V?$allocator@D@2@@std@@@2@V?$allocator@U?$pair@$$CBV?$basic_string@DU?$char_traits@D@std@@V?$allocator@D@2@@std@@UtagFileIndex@@@std@@@2@$0A@@std@@@std@@_N@2@ABU?$pair@$$CBV?$basic_string@DU?$char_traits@D@std@@V?$allocator@D@2@@std@@UtagFileIndex@@@2@@Z 00430c30 f i public:Package.obj
 0001:0002fda0       ?erase@?$_Tree@V?$_Tmap_traits@V?$basic_string@DU?$char_traits@D@std@@V?$allocator@D@2@@std@@UtagFileIndex@@U?$less@V?$basic_string@DU?$char_traits@D@std@@V?$allocator@D@2@@std@@@2@V?$allocator@U?$pair@$$CBV?$basic_string@DU?$char_traits@D@std@@V?$allocator@D@2@@std@@UtagFileIndex@@@std@@@2@$0A@@std@@@std@@QAE?AViterator@12@V312@0@Z 00430da0 f i public:Package.obj
 0001:0002fe70       ?_Insert@?$_Tree@V?$_Tmap_traits@V?$basic_string@DU?$char_traits@D@std@@V?$allocator@D@2@@std@@UtagFileIndex@@U?$less@V?$basic_string@DU?$char_traits@D@std@@V?$allocator@D@2@@std@@@2@V?$allocator@U?$pair@$$CBV?$basic_string@DU?$char_traits@D@std@@V?$allocator@D@2@@std@@UtagFileIndex@@@std@@@2@$0A@@std@@@std@@IAE?AViterator@12@_NPAU_Node@?$_Tree_nod@V?$_Tmap_traits@V?$basic_string@DU?$char_traits@D@std@@V?$allocator@D@2@@std@@UtagFileIndex@@U?$less@V?$basic_string@DU?$char_traits@D@std@@V?$allocator@D@2@@std@@@2@V?$allocator@U?$pair@$$CBV?$basic_string@DU?$char_traits@D@std@@V?$allocator@D@2@@std@@UtagFileIndex@@@std@@@2@$0A@@std@@@2@ABU?$pair@$$CBV?$basic_string@DU?$char_traits@D@std@@V?$allocator@D@2@@std@@UtagFileIndex@@@2@@Z 00430e70 f i public:Package.obj
 0001:000300c0       ?_Lbound@?$_Tree@V?$_Tmap_traits@V?$basic_string@DU?$char_traits@D@std@@V?$allocator@D@2@@std@@UtagFileIndex@@U?$less@V?$basic_string@DU?$char_traits@D@std@@V?$allocator@D@2@@std@@@2@V?$allocator@U?$pair@$$CBV?$basic_string@DU?$char_traits@D@std@@V?$allocator@D@2@@std@@UtagFileIndex@@@std@@@2@$0A@@std@@@std@@IBEPAU_Node@?$_Tree_nod@V?$_Tmap_traits@V?$basic_string@DU?$char_traits@D@std@@V?$allocator@D@2@@std@@UtagFileIndex@@U?$less@V?$basic_string@DU?$char_traits@D@std@@V?$allocator@D@2@@std@@@2@V?$allocator@U?$pair@$$CBV?$basic_string@DU?$char_traits@D@std@@V?$allocator@D@2@@std@@UtagFileIndex@@@std@@@2@$0A@@std@@@2@ABV?$basic_string@DU?$char_traits@D@std@@V?$allocator@D@2@@2@@Z 004310c0 f i public:Package.obj
 0001:00030150       ?erase@?$_Tree@V?$_Tset_traits@UtagFileIndex@@USortEmpty@@V?$allocator@UtagFileIndex@@@std@@$00@std@@@std@@QAE?AViterator@12@V312@0@Z 00431150 f i public:Package.obj
 0001:00030220       ?_Insert@?$_Tree@V?$_Tset_traits@UtagFileIndex@@USortEmpty@@V?$allocator@UtagFileIndex@@@std@@$00@std@@@std@@IAE?AViterator@12@_NPAU_Node@?$_Tree_nod@V?$_Tset_traits@UtagFileIndex@@USortEmpty@@V?$allocator@UtagFileIndex@@@std@@$00@std@@@2@ABUtagFileIndex@@@Z 00431220 f i public:Package.obj
 0001:00030470       ?_Buynode@?$_Tree@V?$_Tmap_traits@V?$basic_string@DU?$char_traits@D@std@@V?$allocator@D@2@@std@@UtagFileIndex@@U?$less@V?$basic_string@DU?$char_traits@D@std@@V?$allocator@D@2@@std@@@2@V?$allocator@U?$pair@$$CBV?$basic_string@DU?$char_traits@D@std@@V?$allocator@D@2@@std@@UtagFileIndex@@@std@@@2@$0A@@std@@@std@@IAEPAU_Node@?$_Tree_nod@V?$_Tmap_traits@V?$basic_string@DU?$char_traits@D@std@@V?$allocator@D@2@@std@@UtagFileIndex@@U?$less@V?$basic_string@DU?$char_traits@D@std@@V?$allocator@D@2@@std@@@2@V?$allocator@U?$pair@$$CBV?$basic_string@DU?$char_traits@D@std@@V?$allocator@D@2@@std@@UtagFileIndex@@@std@@@2@$0A@@std@@@2@XZ 00431470 f i public:Package.obj
 0001:000304b0       ?_Buynode@?$_Tree@V?$_Tmap_traits@V?$basic_string@DU?$char_traits@D@std@@V?$allocator@D@2@@std@@UtagFileIndex@@U?$less@V?$basic_string@DU?$char_traits@D@std@@V?$allocator@D@2@@std@@@2@V?$allocator@U?$pair@$$CBV?$basic_string@DU?$char_traits@D@std@@V?$allocator@D@2@@std@@UtagFileIndex@@@std@@@2@$0A@@std@@@std@@IAEPAU_Node@?$_Tree_nod@V?$_Tmap_traits@V?$basic_string@DU?$char_traits@D@std@@V?$allocator@D@2@@std@@UtagFileIndex@@U?$less@V?$basic_string@DU?$char_traits@D@std@@V?$allocator@D@2@@std@@@2@V?$allocator@U?$pair@$$CBV?$basic_string@DU?$char_traits@D@std@@V?$allocator@D@2@@std@@UtagFileIndex@@@std@@@2@$0A@@std@@@2@PAU342@00ABU?$pair@$$CBV?$basic_string@DU?$char_traits@D@std@@V?$allocator@D@2@@std@@UtagFileIndex@@@2@D@Z 004314b0 f i public:Package.obj
 0001:00030540       ?_Buynode@?$_Tree@V?$_Tset_traits@UtagFileIndex@@USortEmpty@@V?$allocator@UtagFileIndex@@@std@@$00@std@@@std@@IAEPAU_Node@?$_Tree_nod@V?$_Tset_traits@UtagFileIndex@@USortEmpty@@V?$allocator@UtagFileIndex@@@std@@$00@std@@@2@XZ 00431540 f i public:Package.obj
 0001:00030580       ?_Buynode@?$_Tree@V?$_Tset_traits@UtagFileIndex@@USortEmpty@@V?$allocator@UtagFileIndex@@@std@@$00@std@@@std@@IAEPAU_Node@?$_Tree_nod@V?$_Tset_traits@UtagFileIndex@@USortEmpty@@V?$allocator@UtagFileIndex@@@std@@$00@std@@@2@PAU342@00ABUtagFileIndex@@D@Z 00431580 f i public:Package.obj
 0001:000305d0       ?_Inc@const_iterator@?$_Tree@V?$_Tset_traits@UtagFileIndex@@USortEmpty@@V?$allocator@UtagFileIndex@@@std@@$00@std@@@std@@QAEXXZ 004315d0 f i public:Package.obj
 0001:00030640       ?_Inc@const_iterator@?$_Tree@V?$_Tmap_traits@V?$basic_string@DU?$char_traits@D@std@@V?$allocator@D@2@@std@@UtagFileIndex@@U?$less@V?$basic_string@DU?$char_traits@D@std@@V?$allocator@D@2@@std@@@2@V?$allocator@U?$pair@$$CBV?$basic_string@DU?$char_traits@D@std@@V?$allocator@D@2@@std@@UtagFileIndex@@@std@@@2@$0A@@std@@@std@@QAEXXZ 00431640 f i public:Package.obj
 0001:000306b0       ?_Dec@const_iterator@?$_Tree@V?$_Tmap_traits@V?$basic_string@DU?$char_traits@D@std@@V?$allocator@D@2@@std@@UtagFileIndex@@U?$less@V?$basic_string@DU?$char_traits@D@std@@V?$allocator@D@2@@std@@@2@V?$allocator@U?$pair@$$CBV?$basic_string@DU?$char_traits@D@std@@V?$allocator@D@2@@std@@UtagFileIndex@@@std@@@2@$0A@@std@@@std@@QAEXXZ 004316b0 f i public:Package.obj
 0001:00030740       ??0_Node@?$_Tree_nod@V?$_Tmap_traits@V?$basic_string@DU?$char_traits@D@std@@V?$allocator@D@2@@std@@UtagFileIndex@@U?$less@V?$basic_string@DU?$char_traits@D@std@@V?$allocator@D@2@@std@@@2@V?$allocator@U?$pair@$$CBV?$basic_string@DU?$char_traits@D@std@@V?$allocator@D@2@@std@@UtagFileIndex@@@std@@@2@$0A@@std@@@std@@QAE@PAU012@00ABU?$pair@$$CBV?$basic_string@DU?$char_traits@D@std@@V?$allocator@D@2@@std@@UtagFileIndex@@@2@D@Z 00431740 f i public:Package.obj
 0001:000307a0       ??$_Allocate@U_Node@?$_Tree_nod@V?$_Tmap_traits@V?$basic_string@DU?$char_traits@D@std@@V?$allocator@D@2@@std@@UtagFileIndex@@U?$less@V?$basic_string@DU?$char_traits@D@std@@V?$allocator@D@2@@std@@@2@V?$allocator@U?$pair@$$CBV?$basic_string@DU?$char_traits@D@std@@V?$allocator@D@2@@std@@UtagFileIndex@@@std@@@2@$0A@@std@@@std@@@std@@YAPAU_Node@?$_Tree_nod@V?$_Tmap_traits@V?$basic_string@DU?$char_traits@D@std@@V?$allocator@D@2@@std@@UtagFileIndex@@U?$less@V?$basic_string@DU?$char_traits@D@std@@V?$allocator@D@2@@std@@@2@V?$allocator@U?$pair@$$CBV?$basic_string@DU?$char_traits@D@std@@V?$allocator@D@2@@std@@UtagFileIndex@@@std@@@2@$0A@@std@@@0@IPAU120@@Z 004317a0 f i public:Package.obj
 0001:000307f0       ??$_Allocate@U_Node@?$_Tree_nod@V?$_Tset_traits@UtagFileIndex@@USortEmpty@@V?$allocator@UtagFileIndex@@@std@@$00@std@@@std@@@std@@YAPAU_Node@?$_Tree_nod@V?$_Tset_traits@UtagFileIndex@@USortEmpty@@V?$allocator@UtagFileIndex@@@std@@$00@std@@@0@IPAU120@@Z 004317f0 f i public:Package.obj
 0001:00030840       ??6Log@AppFrame@@QAEAAV01@W4LogFlag@1@@Z 00431840 f   public:Log.obj
 0001:00030880       ?InitStream@Log@AppFrame@@IAEXXZ 00431880 f   public:Log.obj
 0001:00030940       ?FlushFile@Log@AppFrame@@IAEXXZ 00431940 f   public:Log.obj
 0001:00030ac0       ??$_Uninit_fill_n@PAU?$pair@V?$basic_string@DU?$char_traits@D@std@@V?$allocator@D@2@@std@@W4LogLevel@AppFrame@@@std@@IU12@V?$allocator@U?$pair@V?$basic_string@DU?$char_traits@D@std@@V?$allocator@D@2@@std@@W4LogLevel@AppFrame@@@std@@@2@@std@@YAXPAU?$pair@V?$basic_string@DU?$char_traits@D@std@@V?$allocator@D@2@@std@@W4LogLevel@AppFrame@@@0@IABU10@AAV?$allocator@U?$pair@V?$basic_string@DU?$char_traits@D@std@@V?$allocator@D@2@@std@@W4LogLevel@AppFrame@@@std@@@0@U_Nonscalar_ptr_iterator_tag@0@U_Range_checked_iterator_tag@0@@Z 00431ac0 f i public:Log.obj
 0001:00030b70       ??$_Destroy_range@U?$pair@V?$basic_string@DU?$char_traits@D@std@@V?$allocator@D@2@@std@@W4LogLevel@AppFrame@@@std@@V?$allocator@U?$pair@V?$basic_string@DU?$char_traits@D@std@@V?$allocator@D@2@@std@@W4LogLevel@AppFrame@@@std@@@2@@std@@YAXPAU?$pair@V?$basic_string@DU?$char_traits@D@std@@V?$allocator@D@2@@std@@W4LogLevel@AppFrame@@@0@0AAV?$allocator@U?$pair@V?$basic_string@DU?$char_traits@D@std@@V?$allocator@D@2@@std@@W4LogLevel@AppFrame@@@std@@@0@U_Nonscalar_ptr_iterator_tag@0@@Z 00431b70 f i public:Log.obj
 0001:00030bb0       ?destroy@?$allocator@U?$pair@V?$basic_string@DU?$char_traits@D@std@@V?$allocator@D@2@@std@@W4LogLevel@AppFrame@@@std@@@std@@QAEXPAU?$pair@V?$basic_string@DU?$char_traits@D@std@@V?$allocator@D@2@@std@@W4LogLevel@AppFrame@@@2@@Z 00431bb0 f i public:Log.obj
 0001:00030bb0       ??1?$pair@$$CBV?$basic_string@DU?$char_traits@D@std@@V?$allocator@D@2@@std@@UtagFileIndex@@@std@@QAE@XZ 00431bb0 f i public:Package.obj
 0001:00030bb0       ??1?$pair@V?$basic_string@DU?$char_traits@D@std@@V?$allocator@D@2@@std@@W4LogLevel@AppFrame@@@std@@QAE@XZ 00431bb0 f i public:Log.obj
 0001:00030bb0       ??1?$pair@$$CBV?$basic_string@DU?$char_traits@D@std@@V?$allocator@D@2@@std@@PAUtagFileInfo@@@std@@QAE@XZ 00431bb0 f i public:ClientResource.obj
 0001:00030bb0       ??1?$pair@$$CBV?$basic_string@DU?$char_traits@D@std@@V?$allocator@D@2@@std@@PAVLog@AppFrame@@@std@@QAE@XZ 00431bb0 f i public:Logger.obj
 0001:00030bb0       ??1Window@Layouts@AppFrame@@QAE@XZ 00431bb0 f i public:AppFrameDef.obj
 0001:00030be0       ??$_Copy_backward_opt@PAU?$pair@V?$basic_string@DU?$char_traits@D@std@@V?$allocator@D@2@@std@@W4LogLevel@AppFrame@@@std@@PAU12@@std@@YAPAU?$pair@V?$basic_string@DU?$char_traits@D@std@@V?$allocator@D@2@@std@@W4LogLevel@AppFrame@@@0@PAU10@00Urandom_access_iterator_tag@0@U_Nonscalar_ptr_iterator_tag@0@U_Range_checked_iterator_tag@0@@Z 00431be0 f i public:Log.obj
 0001:00030c30       ??$_Uninit_copy@PAU?$pair@V?$basic_string@DU?$char_traits@D@std@@V?$allocator@D@2@@std@@W4LogLevel@AppFrame@@@std@@PAU12@V?$allocator@U?$pair@V?$basic_string@DU?$char_traits@D@std@@V?$allocator@D@2@@std@@W4LogLevel@AppFrame@@@std@@@2@@std@@YAPAU?$pair@V?$basic_string@DU?$char_traits@D@std@@V?$allocator@D@2@@std@@W4LogLevel@AppFrame@@@0@PAU10@00AAV?$allocator@U?$pair@V?$basic_string@DU?$char_traits@D@std@@V?$allocator@D@2@@std@@W4LogLevel@AppFrame@@@std@@@0@U_Nonscalar_ptr_iterator_tag@0@U_Range_checked_iterator_tag@0@@Z 00431c30 f i public:Log.obj
 0001:00030ce0       ?CacheStream@Log@AppFrame@@IAEXXZ 00431ce0 f i public:Log.obj
 0001:00030d90       ?push_back@?$vector@U?$pair@V?$basic_string@DU?$char_traits@D@std@@V?$allocator@D@2@@std@@W4LogLevel@AppFrame@@@std@@V?$allocator@U?$pair@V?$basic_string@DU?$char_traits@D@std@@V?$allocator@D@2@@std@@W4LogLevel@AppFrame@@@std@@@2@@std@@QAEXABU?$pair@V?$basic_string@DU?$char_traits@D@std@@V?$allocator@D@2@@std@@W4LogLevel@AppFrame@@@2@@Z 00431d90 f i public:Log.obj
 0001:00030e10       ?insert@?$vector@U?$pair@V?$basic_string@DU?$char_traits@D@std@@V?$allocator@D@2@@std@@W4LogLevel@AppFrame@@@std@@V?$allocator@U?$pair@V?$basic_string@DU?$char_traits@D@std@@V?$allocator@D@2@@std@@W4LogLevel@AppFrame@@@std@@@2@@std@@QAE?AV?$_Vector_iterator@U?$pair@V?$basic_string@DU?$char_traits@D@std@@V?$allocator@D@2@@std@@W4LogLevel@AppFrame@@@std@@V?$allocator@U?$pair@V?$basic_string@DU?$char_traits@D@std@@V?$allocator@D@2@@std@@W4LogLevel@AppFrame@@@std@@@2@@2@V32@ABU?$pair@V?$basic_string@DU?$char_traits@D@std@@V?$allocator@D@2@@std@@W4LogLevel@AppFrame@@@2@@Z 00431e10 f i public:Log.obj
 0001:00030ea0       ?_Insert_n@?$vector@U?$pair@V?$basic_string@DU?$char_traits@D@std@@V?$allocator@D@2@@std@@W4LogLevel@AppFrame@@@std@@V?$allocator@U?$pair@V?$basic_string@DU?$char_traits@D@std@@V?$allocator@D@2@@std@@W4LogLevel@AppFrame@@@std@@@2@@std@@IAEXV?$_Vector_iterator@U?$pair@V?$basic_string@DU?$char_traits@D@std@@V?$allocator@D@2@@std@@W4LogLevel@AppFrame@@@std@@V?$allocator@U?$pair@V?$basic_string@DU?$char_traits@D@std@@V?$allocator@D@2@@std@@W4LogLevel@AppFrame@@@std@@@2@@2@IABU?$pair@V?$basic_string@DU?$char_traits@D@std@@V?$allocator@D@2@@std@@W4LogLevel@AppFrame@@@2@@Z 00431ea0 f i public:Log.obj
 0001:00031170       ?_Xlen@?$vector@U?$pair@V?$basic_string@DU?$char_traits@D@std@@V?$allocator@D@2@@std@@W4LogLevel@AppFrame@@@std@@V?$allocator@U?$pair@V?$basic_string@DU?$char_traits@D@std@@V?$allocator@D@2@@std@@W4LogLevel@AppFrame@@@std@@@2@@std@@KAXXZ 00432170 f i public:Log.obj
 0001:000311f0       ?allocate@?$allocator@U?$pair@V?$basic_string@DU?$char_traits@D@std@@V?$allocator@D@2@@std@@W4LogLevel@AppFrame@@@std@@@std@@QAEPAU?$pair@V?$basic_string@DU?$char_traits@D@std@@V?$allocator@D@2@@std@@W4LogLevel@AppFrame@@@2@I@Z 004321f0 f i public:Log.obj
 0001:00031250       ??$_Umove@PAU?$pair@V?$basic_string@DU?$char_traits@D@std@@V?$allocator@D@2@@std@@W4LogLevel@AppFrame@@@std@@@?$vector@U?$pair@V?$basic_string@DU?$char_traits@D@std@@V?$allocator@D@2@@std@@W4LogLevel@AppFrame@@@std@@V?$allocator@U?$pair@V?$basic_string@DU?$char_traits@D@std@@V?$allocator@D@2@@std@@W4LogLevel@AppFrame@@@std@@@2@@std@@IAEPAU?$pair@V?$basic_string@DU?$char_traits@D@std@@V?$allocator@D@2@@std@@W4LogLevel@AppFrame@@@1@PAU21@00@Z 00432250 f i public:Log.obj
 0001:00031280       ??$fill@PAU?$pair@V?$basic_string@DU?$char_traits@D@std@@V?$allocator@D@2@@std@@W4LogLevel@AppFrame@@@std@@U12@@std@@YAXPAU?$pair@V?$basic_string@DU?$char_traits@D@std@@V?$allocator@D@2@@std@@W4LogLevel@AppFrame@@@0@0ABU10@@Z 00432280 f i public:Log.obj
 0001:000312b0       ??$make_pair@V?$basic_string@DU?$char_traits@D@std@@V?$allocator@D@2@@std@@W4LogLevel@AppFrame@@@std@@YA?AU?$pair@V?$basic_string@DU?$char_traits@D@std@@V?$allocator@D@2@@std@@W4LogLevel@AppFrame@@@0@V?$basic_string@DU?$char_traits@D@std@@V?$allocator@D@2@@0@W4LogLevel@AppFrame@@@Z 004322b0 f i public:Log.obj
 0001:00031330       ?FiniStream@Log@AppFrame@@IAEXXZ 00432330 f i public:Log.obj
 0001:00031430       ?put@?$basic_ostream@DU?$char_traits@D@std@@@std@@QAEAAV12@D@Z 00432430 f i public:Log.obj
 0001:00031550       ?GetCurTimeString@AppFrame@@YAXAAV?$basic_ostringstream@DU?$char_traits@D@std@@V?$allocator@D@2@@std@@@Z 00432550 f   public:DateTime.obj
 0001:000315c0       ?Time2String@AppFrame@@YAXAAV?$basic_ostringstream@DU?$char_traits@D@std@@V?$allocator@D@2@@std@@ABUTimeValue@1@@Z 004325c0 f   public:DateTime.obj
 0001:000317c0       ??0Logger@AppFrame@@QAE@XZ 004327c0 f   public:Logger.obj
 0001:00031880       ??1?$map@V?$basic_string@DU?$char_traits@D@std@@V?$allocator@D@2@@std@@PAVLog@AppFrame@@U?$less@V?$basic_string@DU?$char_traits@D@std@@V?$allocator@D@2@@std@@@2@V?$allocator@U?$pair@$$CBV?$basic_string@DU?$char_traits@D@std@@V?$allocator@D@2@@std@@PAVLog@AppFrame@@@std@@@2@@std@@QAE@XZ 00432880 f i public:Logger.obj
 0001:00031890       ??1Logger@AppFrame@@QAE@XZ 00432890 f   public:Logger.obj
 0001:00031960       ?AddLog@Logger@AppFrame@@QAEAAVLog@2@ABV?$basic_string@DU?$char_traits@D@std@@V?$allocator@D@2@@std@@W4LogLevel@2@_N@Z 00432960 f   public:Logger.obj
 0001:00031ac0       ?insert@?$_Tree@V?$_Tmap_traits@V?$basic_string@DU?$char_traits@D@std@@V?$allocator@D@2@@std@@PAUtagFileInfo@@U?$less@V?$basic_string@DU?$char_traits@D@std@@V?$allocator@D@2@@std@@@2@V?$allocator@U?$pair@$$CBV?$basic_string@DU?$char_traits@D@std@@V?$allocator@D@2@@std@@PAUtagFileInfo@@@std@@@2@$0A@@std@@@std@@QAE?AU?$pair@Viterator@?$_Tree@V?$_Tmap_traits@V?$basic_string@DU?$char_traits@D@std@@V?$allocator@D@2@@std@@PAUtagFileInfo@@U?$less@V?$basic_string@DU?$char_traits@D@std@@V?$allocator@D@2@@std@@@2@V?$allocator@U?$pair@$$CBV?$basic_string@DU?$char_traits@D@std@@V?$allocator@D@2@@std@@PAUtagFileInfo@@@std@@@2@$0A@@std@@@std@@_N@2@ABU?$pair@$$CBV?$basic_string@DU?$char_traits@D@std@@V?$allocator@D@2@@std@@PAUtagFileInfo@@@2@@Z 00432ac0 f i public:FilesInfo.obj
 0001:00031ac0       ?insert@?$_Tree@V?$_Tmap_traits@V?$basic_string@DU?$char_traits@D@std@@V?$allocator@D@2@@std@@PAVLog@AppFrame@@U?$less@V?$basic_string@DU?$char_traits@D@std@@V?$allocator@D@2@@std@@@2@V?$allocator@U?$pair@$$CBV?$basic_string@DU?$char_traits@D@std@@V?$allocator@D@2@@std@@PAVLog@AppFrame@@@std@@@2@$0A@@std@@@std@@QAE?AU?$pair@Viterator@?$_Tree@V?$_Tmap_traits@V?$basic_string@DU?$char_traits@D@std@@V?$allocator@D@2@@std@@PAVLog@AppFrame@@U?$less@V?$basic_string@DU?$char_traits@D@std@@V?$allocator@D@2@@std@@@2@V?$allocator@U?$pair@$$CBV?$basic_string@DU?$char_traits@D@std@@V?$allocator@D@2@@std@@PAVLog@AppFrame@@@std@@@2@$0A@@std@@@std@@_N@2@ABU?$pair@$$CBV?$basic_string@DU?$char_traits@D@std@@V?$allocator@D@2@@std@@PAVLog@AppFrame@@@2@@Z 00432ac0 f i public:Logger.obj
 0001:00031c20       ?erase@?$_Tree@V?$_Tmap_traits@V?$basic_string@DU?$char_traits@D@std@@V?$allocator@D@2@@std@@PAVLog@AppFrame@@U?$less@V?$basic_string@DU?$char_traits@D@std@@V?$allocator@D@2@@std@@@2@V?$allocator@U?$pair@$$CBV?$basic_string@DU?$char_traits@D@std@@V?$allocator@D@2@@std@@PAVLog@AppFrame@@@std@@@2@$0A@@std@@@std@@QAE?AViterator@12@V312@@Z 00432c20 f i public:Logger.obj
 0001:00031f30       ?_Insert@?$_Tree@V?$_Tmap_traits@V?$basic_string@DU?$char_traits@D@std@@V?$allocator@D@2@@std@@PAVLog@AppFrame@@U?$less@V?$basic_string@DU?$char_traits@D@std@@V?$allocator@D@2@@std@@@2@V?$allocator@U?$pair@$$CBV?$basic_string@DU?$char_traits@D@std@@V?$allocator@D@2@@std@@PAVLog@AppFrame@@@std@@@2@$0A@@std@@@std@@IAE?AViterator@12@_NPAU_Node@?$_Tree_nod@V?$_Tmap_traits@V?$basic_string@DU?$char_traits@D@std@@V?$allocator@D@2@@std@@PAVLog@AppFrame@@U?$less@V?$basic_string@DU?$char_traits@D@std@@V?$allocator@D@2@@std@@@2@V?$allocator@U?$pair@$$CBV?$basic_string@DU?$char_traits@D@std@@V?$allocator@D@2@@std@@PAVLog@AppFrame@@@std@@@2@$0A@@std@@@2@ABU?$pair@$$CBV?$basic_string@DU?$char_traits@D@std@@V?$allocator@D@2@@std@@PAVLog@AppFrame@@@2@@Z 00432f30 f i public:Logger.obj
 0001:00031f30       ?_Insert@?$_Tree@V?$_Tmap_traits@V?$basic_string@DU?$char_traits@D@std@@V?$allocator@D@2@@std@@PAUtagFileInfo@@U?$less@V?$basic_string@DU?$char_traits@D@std@@V?$allocator@D@2@@std@@@2@V?$allocator@U?$pair@$$CBV?$basic_string@DU?$char_traits@D@std@@V?$allocator@D@2@@std@@PAUtagFileInfo@@@std@@@2@$0A@@std@@@std@@IAE?AViterator@12@_NPAU_Node@?$_Tree_nod@V?$_Tmap_traits@V?$basic_string@DU?$char_traits@D@std@@V?$allocator@D@2@@std@@PAUtagFileInfo@@U?$less@V?$basic_string@DU?$char_traits@D@std@@V?$allocator@D@2@@std@@@2@V?$allocator@U?$pair@$$CBV?$basic_string@DU?$char_traits@D@std@@V?$allocator@D@2@@std@@PAUtagFileInfo@@@std@@@2@$0A@@std@@@2@ABU?$pair@$$CBV?$basic_string@DU?$char_traits@D@std@@V?$allocator@D@2@@std@@PAUtagFileInfo@@@2@@Z 00432f30 f i public:FilesInfo.obj
 0001:00032170       ?_Tidy@?$_Tree@V?$_Tmap_traits@V?$basic_string@DU?$char_traits@D@std@@V?$allocator@D@2@@std@@PAVLog@AppFrame@@U?$less@V?$basic_string@DU?$char_traits@D@std@@V?$allocator@D@2@@std@@@2@V?$allocator@U?$pair@$$CBV?$basic_string@DU?$char_traits@D@std@@V?$allocator@D@2@@std@@PAVLog@AppFrame@@@std@@@2@$0A@@std@@@std@@IAEXXZ 00433170 f i public:Logger.obj
 0001:000321c0       ?erase@?$_Tree@V?$_Tmap_traits@V?$basic_string@DU?$char_traits@D@std@@V?$allocator@D@2@@std@@PAVLog@AppFrame@@U?$less@V?$basic_string@DU?$char_traits@D@std@@V?$allocator@D@2@@std@@@2@V?$allocator@U?$pair@$$CBV?$basic_string@DU?$char_traits@D@std@@V?$allocator@D@2@@std@@PAVLog@AppFrame@@@std@@@2@$0A@@std@@@std@@QAE?AViterator@12@V312@0@Z 004331c0 f i public:Logger.obj
 0001:000322b0       ?_Lbound@?$_Tree@V?$_Tmap_traits@V?$basic_string@DU?$char_traits@D@std@@V?$allocator@D@2@@std@@PAUtagFileInfo@@U?$less@V?$basic_string@DU?$char_traits@D@std@@V?$allocator@D@2@@std@@@2@V?$allocator@U?$pair@$$CBV?$basic_string@DU?$char_traits@D@std@@V?$allocator@D@2@@std@@PAUtagFileInfo@@@std@@@2@$0A@@std@@@std@@IBEPAU_Node@?$_Tree_nod@V?$_Tmap_traits@V?$basic_string@DU?$char_traits@D@std@@V?$allocator@D@2@@std@@PAUtagFileInfo@@U?$less@V?$basic_string@DU?$char_traits@D@std@@V?$allocator@D@2@@std@@@2@V?$allocator@U?$pair@$$CBV?$basic_string@DU?$char_traits@D@std@@V?$allocator@D@2@@std@@PAUtagFileInfo@@@std@@@2@$0A@@std@@@2@ABV?$basic_string@DU?$char_traits@D@std@@V?$allocator@D@2@@2@@Z 004332b0 f i public:ClientResource.obj
 0001:000322b0       ?_Lbound@?$_Tree@V?$_Tmap_traits@V?$basic_string@DU?$char_traits@D@std@@V?$allocator@D@2@@std@@PAVLog@AppFrame@@U?$less@V?$basic_string@DU?$char_traits@D@std@@V?$allocator@D@2@@std@@@2@V?$allocator@U?$pair@$$CBV?$basic_string@DU?$char_traits@D@std@@V?$allocator@D@2@@std@@PAVLog@AppFrame@@@std@@@2@$0A@@std@@@std@@IBEPAU_Node@?$_Tree_nod@V?$_Tmap_traits@V?$basic_string@DU?$char_traits@D@std@@V?$allocator@D@2@@std@@PAVLog@AppFrame@@U?$less@V?$basic_string@DU?$char_traits@D@std@@V?$allocator@D@2@@std@@@2@V?$allocator@U?$pair@$$CBV?$basic_string@DU?$char_traits@D@std@@V?$allocator@D@2@@std@@PAVLog@AppFrame@@@std@@@2@$0A@@std@@@2@ABV?$basic_string@DU?$char_traits@D@std@@V?$allocator@D@2@@2@@Z 004332b0 f i public:Logger.obj
 0001:00032340       ?_Buynode@?$_Tree@V?$_Tmap_traits@V?$basic_string@DU?$char_traits@D@std@@V?$allocator@D@2@@std@@PAVLog@AppFrame@@U?$less@V?$basic_string@DU?$char_traits@D@std@@V?$allocator@D@2@@std@@@2@V?$allocator@U?$pair@$$CBV?$basic_string@DU?$char_traits@D@std@@V?$allocator@D@2@@std@@PAVLog@AppFrame@@@std@@@2@$0A@@std@@@std@@IAEPAU_Node@?$_Tree_nod@V?$_Tmap_traits@V?$basic_string@DU?$char_traits@D@std@@V?$allocator@D@2@@std@@PAVLog@AppFrame@@U?$less@V?$basic_string@DU?$char_traits@D@std@@V?$allocator@D@2@@std@@@2@V?$allocator@U?$pair@$$CBV?$basic_string@DU?$char_traits@D@std@@V?$allocator@D@2@@std@@PAVLog@AppFrame@@@std@@@2@$0A@@std@@@2@PAU342@00ABU?$pair@$$CBV?$basic_string@DU?$char_traits@D@std@@V?$allocator@D@2@@std@@PAVLog@AppFrame@@@2@D@Z 00433340 f i public:Logger.obj
 0001:00032340       ?_Buynode@?$_Tree@V?$_Tmap_traits@V?$basic_string@DU?$char_traits@D@std@@V?$allocator@D@2@@std@@PAUtagFileInfo@@U?$less@V?$basic_string@DU?$char_traits@D@std@@V?$allocator@D@2@@std@@@2@V?$allocator@U?$pair@$$CBV?$basic_string@DU?$char_traits@D@std@@V?$allocator@D@2@@std@@PAUtagFileInfo@@@std@@@2@$0A@@std@@@std@@IAEPAU_Node@?$_Tree_nod@V?$_Tmap_traits@V?$basic_string@DU?$char_traits@D@std@@V?$allocator@D@2@@std@@PAUtagFileInfo@@U?$less@V?$basic_string@DU?$char_traits@D@std@@V?$allocator@D@2@@std@@@2@V?$allocator@U?$pair@$$CBV?$basic_string@DU?$char_traits@D@std@@V?$allocator@D@2@@std@@PAUtagFileInfo@@@std@@@2@$0A@@std@@@2@PAU342@00ABU?$pair@$$CBV?$basic_string@DU?$char_traits@D@std@@V?$allocator@D@2@@std@@PAUtagFileInfo@@@2@D@Z 00433340 f i public:FilesInfo.obj
 0001:00032400       ?_Buynode@?$_Tree@V?$_Tmap_traits@V?$basic_string@DU?$char_traits@D@std@@V?$allocator@D@2@@std@@PAUtagFileInfo0x@@U?$less@V?$basic_string@DU?$char_traits@D@std@@V?$allocator@D@2@@std@@@2@V?$allocator@U?$pair@$$CBV?$basic_string@DU?$char_traits@D@std@@V?$allocator@D@2@@std@@PAUtagFileInfo0x@@@std@@@2@$0A@@std@@@std@@IAEPAU_Node@?$_Tree_nod@V?$_Tmap_traits@V?$basic_string@DU?$char_traits@D@std@@V?$allocator@D@2@@std@@PAUtagFileInfo0x@@U?$less@V?$basic_string@DU?$char_traits@D@std@@V?$allocator@D@2@@std@@@2@V?$allocator@U?$pair@$$CBV?$basic_string@DU?$char_traits@D@std@@V?$allocator@D@2@@std@@PAUtagFileInfo0x@@@std@@@2@$0A@@std@@@2@XZ 00433400 f i Net:MapFile.obj
 0001:00032400       ?_Buynode@?$_Tree@V?$_Tmap_traits@V?$basic_string@DU?$char_traits@D@std@@V?$allocator@D@2@@std@@PAVLog@AppFrame@@U?$less@V?$basic_string@DU?$char_traits@D@std@@V?$allocator@D@2@@std@@@2@V?$allocator@U?$pair@$$CBV?$basic_string@DU?$char_traits@D@std@@V?$allocator@D@2@@std@@PAVLog@AppFrame@@@std@@@2@$0A@@std@@@std@@IAEPAU_Node@?$_Tree_nod@V?$_Tmap_traits@V?$basic_string@DU?$char_traits@D@std@@V?$allocator@D@2@@std@@PAVLog@AppFrame@@U?$less@V?$basic_string@DU?$char_traits@D@std@@V?$allocator@D@2@@std@@@2@V?$allocator@U?$pair@$$CBV?$basic_string@DU?$char_traits@D@std@@V?$allocator@D@2@@std@@PAVLog@AppFrame@@@std@@@2@$0A@@std@@@2@XZ 00433400 f i public:Logger.obj
 0001:00032400       ?_Buynode@?$_Tree@V?$_Tmap_traits@V?$basic_string@DU?$char_traits@D@std@@V?$allocator@D@2@@std@@PAUtagFileInfo@@U?$less@V?$basic_string@DU?$char_traits@D@std@@V?$allocator@D@2@@std@@@2@V?$allocator@U?$pair@$$CBV?$basic_string@DU?$char_traits@D@std@@V?$allocator@D@2@@std@@PAUtagFileInfo@@@std@@@2@$0A@@std@@@std@@IAEPAU_Node@?$_Tree_nod@V?$_Tmap_traits@V?$basic_string@DU?$char_traits@D@std@@V?$allocator@D@2@@std@@PAUtagFileInfo@@U?$less@V?$basic_string@DU?$char_traits@D@std@@V?$allocator@D@2@@std@@@2@V?$allocator@U?$pair@$$CBV?$basic_string@DU?$char_traits@D@std@@V?$allocator@D@2@@std@@PAUtagFileInfo@@@std@@@2@$0A@@std@@@2@XZ 00433400 f i public:FilesInfo.obj
 0001:00032440       ??0Log@AppFrame@@IAE@ABV?$basic_string@DU?$char_traits@D@std@@V?$allocator@D@2@@std@@W4LogLevel@1@@Z 00433440 f i public:Logger.obj
 0001:00032540       ??0?$basic_ofstream@DU?$char_traits@D@std@@@std@@QAE@XZ 00433540 f i public:Logger.obj
 0001:00032670       ??_E?$basic_ofstream@DU?$char_traits@D@std@@@std@@UAEPAXI@Z 00433670 f i  CIL library: CIL module
 0001:00032670       ??_G?$basic_ofstream@DU?$char_traits@D@std@@@std@@UAEPAXI@Z 00433670 f i public:Logger.obj
 0001:000326b0       ??_D?$basic_ofstream@DU?$char_traits@D@std@@@std@@QAEXXZ 004336b0 f i public:Logger.obj
 0001:000326d0       ??1?$basic_ofstream@DU?$char_traits@D@std@@@std@@UAE@XZ 004336d0 f i public:Logger.obj
 0001:00032740       ??1?$vector@U?$pair@V?$basic_string@DU?$char_traits@D@std@@V?$allocator@D@2@@std@@W4LogLevel@AppFrame@@@std@@V?$allocator@U?$pair@V?$basic_string@DU?$char_traits@D@std@@V?$allocator@D@2@@std@@W4LogLevel@AppFrame@@@std@@@2@@std@@QAE@XZ 00433740 f i public:Logger.obj
 0001:00032780       ??1Log@AppFrame@@IAE@XZ    00433780 f i public:Logger.obj
 0001:000328a0       ?PutString@TiXmlBase@@KAXABVTiXmlString@@PAV2@@Z 004338a0 f   public:tinyxml.obj
 0001:00032be0       ??_GTiXmlNode@@UAEPAXI@Z   00433be0 f i public:tinyxml.obj
 0001:00032be0       ??_ETiXmlNode@@UAEPAXI@Z   00433be0 f i  CIL library: CIL module
 0001:00032c00       ??1TiXmlNode@@UAE@XZ       00433c00 f   public:tinyxml.obj
 0001:00032c80       ?LinkEndChild@TiXmlNode@@QAEPAV1@PAV1@@Z 00433c80 f   public:tinyxml.obj
 0001:00032e00       ?NextSiblingElement@TiXmlNode@@QAEPAVTiXmlElement@@XZ 00433e00 f   public:tinyxml.obj
 0001:00032e30       ?GetDocument@TiXmlNode@@QAEPAVTiXmlDocument@@XZ 00433e30 f   public:tinyxml.obj
 0001:00032e60       ??0TiXmlElement@@QAE@PBD@Z 00433e60 f   public:tinyxml.obj
 0001:00032f20       ??_GTiXmlElement@@UAEPAXI@Z 00433f20 f i public:tinyxml.obj
 0001:00032f20       ??_ETiXmlElement@@UAEPAXI@Z 00433f20 f i  CIL library: CIL module
 0001:00032f40       ??1TiXmlElement@@UAE@XZ    00433f40 f   public:tinyxml.obj
 0001:00032fb0       ?ClearThis@TiXmlElement@@IAEXXZ 00433fb0 f   public:tinyxml.obj
 0001:00033050       ?Attribute@TiXmlElement@@QBEPBDPBD@Z 00434050 f   public:tinyxml.obj
 0001:000330b0       ?SetAttribute@TiXmlElement@@QAEXPBD0@Z 004340b0 f   public:tinyxml.obj
 0001:000331f0       ?Print@TiXmlElement@@UBEXPAU_iobuf@@H@Z 004341f0 f   public:tinyxml.obj
 0001:00033380       ?CopyTo@TiXmlElement@@IBEXPAV1@@Z 00434380 f   public:tinyxml.obj
 0001:00033420       ?Accept@TiXmlElement@@UBE_NPAVTiXmlVisitor@@@Z 00434420 f   public:tinyxml.obj
 0001:00033480       ?Clone@TiXmlElement@@UBEPAVTiXmlNode@@XZ 00434480 f   public:tinyxml.obj
 0001:00033510       ??0TiXmlDocument@@QAE@XZ   00434510 f   public:tinyxml.obj
 0001:000335c0       ??0TiXmlDocument@@QAE@PBD@Z 004345c0 f   public:tinyxml.obj
 0001:00033690       ?LoadFile@TiXmlDocument@@QAE_NPBDW4TiXmlEncoding@@@Z 00434690 f   public:tinyxml.obj
 0001:00033730       ?LoadFile@TiXmlDocument@@QAE_NPAU_iobuf@@W4TiXmlEncoding@@@Z 00434730 f   public:tinyxml.obj
 0001:00033ae0       ?LoadData@TiXmlDocument@@QAE_NPBEHW4TiXmlEncoding@@@Z 00434ae0 f   public:tinyxml.obj
 0001:00033de0       ?CopyTo@TiXmlDocument@@ABEXPAV1@@Z 00434de0 f   public:tinyxml.obj
 0001:00033e70       ?Clone@TiXmlDocument@@MBEPAVTiXmlNode@@XZ 00434e70 f   public:tinyxml.obj
 0001:00033f00       ?Print@TiXmlDocument@@UBEXPAU_iobuf@@H@Z 00434f00 f   public:tinyxml.obj
 0001:00033f60       ?Accept@TiXmlDocument@@UBE_NPAVTiXmlVisitor@@@Z 00434f60 f   public:tinyxml.obj
 0001:00033fb0       ?Print@TiXmlAttribute@@QBEXPAU_iobuf@@HPAVTiXmlString@@@Z 00434fb0 f   public:tinyxml.obj
 0001:00034110       ?Print@TiXmlComment@@UBEXPAU_iobuf@@H@Z 00435110 f   public:tinyxml.obj
 0001:00034170       ?Accept@TiXmlComment@@UBE_NPAVTiXmlVisitor@@@Z 00435170 f   public:tinyxml.obj
 0001:00034190       ?Clone@TiXmlComment@@UBEPAVTiXmlNode@@XZ 00435190 f   public:tinyxml.obj
 0001:00034220       ?Print@TiXmlText@@UBEXPAU_iobuf@@H@Z 00435220 f   public:tinyxml.obj
 0001:00034320       ?Accept@TiXmlText@@UBE_NPAVTiXmlVisitor@@@Z 00435320 f   public:tinyxml.obj
 0001:00034340       ?Clone@TiXmlText@@MBEPAVTiXmlNode@@XZ 00435340 f   public:tinyxml.obj
 0001:00034400       ?Print@TiXmlDeclaration@@UBEXPAU_iobuf@@HPAVTiXmlString@@@Z 00435400 f   public:tinyxml.obj
 0001:00034520       ?CopyTo@TiXmlDeclaration@@IBEXPAV1@@Z 00435520 f   public:tinyxml.obj
 0001:000345a0       ?Accept@TiXmlDeclaration@@UBE_NPAVTiXmlVisitor@@@Z 004355a0 f   public:tinyxml.obj
 0001:000345c0       ?Clone@TiXmlDeclaration@@UBEPAVTiXmlNode@@XZ 004355c0 f   public:tinyxml.obj
 0001:00034620       ?Print@TiXmlUnknown@@UBEXPAU_iobuf@@H@Z 00435620 f   public:tinyxml.obj
 0001:00034660       ?Accept@TiXmlUnknown@@UBE_NPAVTiXmlVisitor@@@Z 00435660 f   public:tinyxml.obj
 0001:00034680       ?Clone@TiXmlUnknown@@UBEPAVTiXmlNode@@XZ 00435680 f   public:tinyxml.obj
 0001:00034710       ??1TiXmlAttributeSet@@QAE@XZ 00435710 f   public:tinyxml.obj
 0001:00034780       ?Add@TiXmlAttributeSet@@QAEXPAVTiXmlAttribute@@@Z 00435780 f   public:tinyxml.obj
 0001:000347f0       ?Find@TiXmlAttributeSet@@QBEPBVTiXmlAttribute@@ABVTiXmlString@@@Z 004357f0 f   public:tinyxml.obj
 0001:000347f0       ?Find@TiXmlAttributeSet@@QAEPAVTiXmlAttribute@@ABVTiXmlString@@@Z 004357f0 f   public:tinyxml.obj
 0001:00034850       ??$_snprintf_s@$0CA@@@YAHAAY0CA@DIPBDZZ 00435850 f i public:tinyxml.obj
 0001:00034870       ?ToComment@TiXmlNode@@UAEPAVTiXmlComment@@XZ 00435870 f i public:tinyxml.obj
 0001:00034870       ?ToText@TiXmlNode@@UBEPBVTiXmlText@@XZ 00435870 f i public:tinyxml.obj
 0001:00034870       ?ToDeclaration@TiXmlNode@@UAEPAVTiXmlDeclaration@@XZ 00435870 f i public:tinyxml.obj
 0001:00034870       ?ToComment@TiXmlNode@@UBEPBVTiXmlComment@@XZ 00435870 f i public:tinyxml.obj
 0001:00034870       ?ToDocument@TiXmlNode@@UBEPBVTiXmlDocument@@XZ 00435870 f i public:tinyxml.obj
 0001:00034870       ?ToDeclaration@TiXmlNode@@UBEPBVTiXmlDeclaration@@XZ 00435870 f i public:tinyxml.obj
 0001:00034870       ?ToUnknown@TiXmlNode@@UAEPAVTiXmlUnknown@@XZ 00435870 f i public:tinyxml.obj
 0001:00034870       ?ToElement@TiXmlNode@@UAEPAVTiXmlElement@@XZ 00435870 f i public:tinyxml.obj
 0001:00034870       ?ToText@TiXmlNode@@UAEPAVTiXmlText@@XZ 00435870 f i public:tinyxml.obj
 0001:00034870       ?sync@?$basic_streambuf@DU?$char_traits@D@std@@@std@@MAEHXZ 00435870 f i Game.obj
 0001:00034870       ?ToDocument@TiXmlNode@@UAEPAVTiXmlDocument@@XZ 00435870 f i public:tinyxml.obj
 0001:00034870       ?ToUnknown@TiXmlNode@@UBEPBVTiXmlUnknown@@XZ 00435870 f i public:tinyxml.obj
 0001:00034870       ?ToElement@TiXmlNode@@UBEPBVTiXmlElement@@XZ 00435870 f i public:tinyxml.obj
 0001:00034870       ?showmanyc@?$basic_streambuf@DU?$char_traits@D@std@@@std@@MAEHXZ 00435870 f i Game.obj
 0001:00034880       ??1TiXmlAttribute@@UAE@XZ  00435880 f i public:tinyxml.obj
 0001:000348b0       ??_GTiXmlAttribute@@UAEPAXI@Z 004358b0 f i public:tinyxml.obj
 0001:000348b0       ??_ETiXmlAttribute@@UAEPAXI@Z 004358b0 f i  CIL library: CIL module
 0001:00034900       ?Print@TiXmlAttribute@@UBEXPAU_iobuf@@H@Z 00435900 f i public:tinyxml.obj
 0001:00034910       ??0TiXmlUnknown@@QAE@XZ    00435910 f i public:tinyxml.obj
 0001:00034950       ??_ETiXmlUnknown@@UAEPAXI@Z 00435950 f i  CIL library: CIL module
 0001:00034950       ??_GTiXmlUnknown@@UAEPAXI@Z 00435950 f i public:tinyxml.obj
 0001:00034980       ?ToDocument@TiXmlDocument@@UAEPAV1@XZ 00435980 f i public:tinyxml.obj
 0001:00034980       ?ToDeclaration@TiXmlDeclaration@@UAEPAV1@XZ 00435980 f i public:tinyxml.obj
 0001:00034980       ?ToText@TiXmlText@@UBEPBV1@XZ 00435980 f i public:tinyxml.obj
 0001:00034980       ?ToText@TiXmlText@@UAEPAV1@XZ 00435980 f i public:tinyxml.obj
 0001:00034980       ?ToElement@TiXmlElement@@UBEPBV1@XZ 00435980 f i public:tinyxml.obj
 0001:00034980       ?ToDeclaration@TiXmlDeclaration@@UBEPBV1@XZ 00435980 f i public:tinyxml.obj
 0001:00034980       ?ToComment@TiXmlComment@@UBEPBV1@XZ 00435980 f i public:tinyxml.obj
 0001:00034980       ?ToUnknown@TiXmlUnknown@@UAEPAV1@XZ 00435980 f i public:tinyxml.obj
 0001:00034980       ?ToElement@TiXmlElement@@UAEPAV1@XZ 00435980 f i public:tinyxml.obj
 0001:00034980       ?ToUnknown@TiXmlUnknown@@UBEPBV1@XZ 00435980 f i public:tinyxml.obj
 0001:00034980       ?ToDocument@TiXmlDocument@@UBEPBV1@XZ 00435980 f i public:tinyxml.obj
 0001:00034980       ?ToComment@TiXmlComment@@UAEPAV1@XZ 00435980 f i public:tinyxml.obj
 0001:00034990       ??0TiXmlDeclaration@@QAE@XZ 00435990 f i public:tinyxml.obj
 0001:000349d0       ??_ETiXmlDeclaration@@UAEPAXI@Z 004359d0 f i  CIL library: CIL module
 0001:000349d0       ??_GTiXmlDeclaration@@UAEPAXI@Z 004359d0 f i public:tinyxml.obj
 0001:00034a30       ?Print@TiXmlDeclaration@@UBEXPAU_iobuf@@H@Z 00435a30 f i public:tinyxml.obj
 0001:00034a50       ??0TiXmlText@@QAE@PBD@Z    00435a50 f i public:tinyxml.obj
 0001:00034af0       ??_ETiXmlText@@UAEPAXI@Z   00435af0 f i  CIL library: CIL module
 0001:00034af0       ??_GTiXmlText@@UAEPAXI@Z   00435af0 f i public:tinyxml.obj
 0001:00034b20       ??0TiXmlComment@@QAE@XZ    00435b20 f i public:tinyxml.obj
 0001:00034b60       ??_ETiXmlComment@@UAEPAXI@Z 00435b60 f i  CIL library: CIL module
 0001:00034b60       ??_GTiXmlComment@@UAEPAXI@Z 00435b60 f i public:tinyxml.obj
 0001:00034b90       ??YTiXmlString@@QAEAAV0@PBD@Z 00435b90 f i public:tinyxml.obj
 0001:00034bf0       ??YTiXmlString@@QAEAAV0@ABV0@@Z 00435bf0 f i public:tinyxml.obj
 0001:00034c40       ??_GTiXmlDocument@@UAEPAXI@Z 00435c40 f i public:tinyxml.obj
 0001:00034c40       ??_ETiXmlDocument@@UAEPAXI@Z 00435c40 f i  CIL library: CIL module
 0001:00034c80       ??0TiXmlAttribute@@QAE@PBD0@Z 00435c80 f i public:tinyxml.obj
 0001:00034d40       ?SetValue@TiXmlAttribute@@QAEXPBD@Z 00435d40 f i public:tinyxml.obj
 0001:00034d70       ??4TiXmlString@@QAEAAV0@PBD@Z 00435d70 f i public:tinyxml.obj
 0001:00034da0       ??0TiXmlString@@QAE@PBD@Z  00435da0 f i public:tinyxml.obj
 0001:00034e10       ??1TiXmlString@@QAE@XZ     00435e10 f i public:tinyxml.obj
 0001:00034e30       ??1TiXmlBase@@UAE@XZ       00435e30 f i public:tinyxml.obj
 0001:00034e40       ??_GTiXmlBase@@UAEPAXI@Z   00435e40 f i public:tinyxml.obj
 0001:00034e40       ??_ETiXmlBase@@UAEPAXI@Z   00435e40 f i  CIL library: CIL module
 0001:00034e60       ??YTiXmlString@@QAEAAV0@D@Z 00435e60 f i public:tinyxml.obj
 0001:00034eb0       ?ConvertUTF32ToUTF8@TiXmlBase@@KAXKPADPAH@Z 00435eb0 f   public:tinyxmlparser.obj
 0001:00034f90       ?IsAlpha@TiXmlBase@@KAHEW4TiXmlEncoding@@@Z 00435f90 f   public:tinyxmlparser.obj
 0001:00034fb0       ?Stamp@TiXmlParsingData@@QAEXPBDW4TiXmlEncoding@@@Z 00435fb0 f   public:tinyxmlparser.obj
 0001:00035250       ?SkipWhiteSpace@TiXmlBase@@KAPBDPBDW4TiXmlEncoding@@@Z 00436250 f   public:tinyxmlparser.obj
 0001:00035310       ?ReadName@TiXmlBase@@KAPBDPBDPAVTiXmlString@@W4TiXmlEncoding@@@Z 00436310 f   public:tinyxmlparser.obj
 0001:000353f0       ?GetEntity@TiXmlBase@@KAPBDPBDPADPAHW4TiXmlEncoding@@@Z 004363f0 f   public:tinyxmlparser.obj
 0001:000355e0       ?StringEqual@TiXmlBase@@KA_NPBD0_NW4TiXmlEncoding@@@Z 004365e0 f   public:tinyxmlparser.obj
 0001:000356c0       ?ReadText@TiXmlBase@@KAPBDPBDPAVTiXmlString@@_N02W4TiXmlEncoding@@@Z 004366c0 f   public:tinyxmlparser.obj
 0001:000358c0       ?Parse@TiXmlDocument@@UAEPBDPBDPAVTiXmlParsingData@@W4TiXmlEncoding@@@Z 004368c0 f   public:tinyxmlparser.obj
 0001:00035b20       ?SetError@TiXmlDocument@@QAEXHPBDPAVTiXmlParsingData@@W4TiXmlEncoding@@@Z 00436b20 f   public:tinyxmlparser.obj
 0001:00035b90       ?Identify@TiXmlNode@@IAEPAV1@PBDW4TiXmlEncoding@@@Z 00436b90 f   public:tinyxmlparser.obj
 0001:00035da0       ?Parse@TiXmlElement@@UAEPBDPBDPAVTiXmlParsingData@@W4TiXmlEncoding@@@Z 00436da0 f   public:tinyxmlparser.obj
 0001:000361f0       ?ReadValue@TiXmlElement@@IAEPBDPBDPAVTiXmlParsingData@@W4TiXmlEncoding@@@Z 004371f0 f   public:tinyxmlparser.obj
 0001:00036400       ?Parse@TiXmlUnknown@@UAEPBDPBDPAVTiXmlParsingData@@W4TiXmlEncoding@@@Z 00437400 f   public:tinyxmlparser.obj
 0001:00036560       ?Parse@TiXmlComment@@UAEPBDPBDPAVTiXmlParsingData@@W4TiXmlEncoding@@@Z 00437560 f   public:tinyxmlparser.obj
 0001:00036650       ?Parse@TiXmlAttribute@@UAEPBDPBDPAVTiXmlParsingData@@W4TiXmlEncoding@@@Z 00437650 f   public:tinyxmlparser.obj
 0001:000367d0       ?Parse@TiXmlText@@UAEPBDPBDPAVTiXmlParsingData@@W4TiXmlEncoding@@@Z 004377d0 f   public:tinyxmlparser.obj
 0001:000369b0       ?Parse@TiXmlDeclaration@@UAEPBDPBDPAVTiXmlParsingData@@W4TiXmlEncoding@@@Z 004379b0 f   public:tinyxmlparser.obj
 0001:00036e30       ?Blank@TiXmlText@@IBE_NXZ  00437e30 f   public:tinyxmlparser.obj
 0001:00036ea0       ?GetChar@TiXmlBase@@KAPBDPBDPADPAHW4TiXmlEncoding@@@Z 00437ea0 f i public:tinyxmlparser.obj
 0001:00036f60       ?IsWhiteSpace@TiXmlBase@@KA_ND@Z 00437f60 f i public:tinyxmlparser.obj
 0001:00036f90       ?reserve@TiXmlString@@QAEXI@Z 00437f90 f   public:tinystr.obj
 0001:00037050       ?assign@TiXmlString@@QAEAAV1@PBDI@Z 00438050 f   public:tinystr.obj
 0001:00037130       ?append@TiXmlString@@QAEAAV1@PBDI@Z 00438130 f   public:tinystr.obj
 0001:00037180       ??0_bstr_t@@QAE@PBD@Z      00438180 f i serverpublic:MyAdoBase.obj
 0001:00037210       ??0_variant_t@@QAE@ABV_bstr_t@@@Z 00438210 f i serverpublic:MyAdoBase.obj
 0001:00037260       ?Execute@Connection15@@QAE?AV?$_com_ptr_t@V?$_com_IIID@U_Recordset@@$1?_GUID_00000556_0000_0010_8000_00aa006d2ea4@@3U__s_GUID@@B@@@@V_bstr_t@@PAUtagVARIANT@@J@Z 00438260 f i serverpublic:MyAdoBase.obj
 0001:00037330       ?Open@Connection15@@QAEJV_bstr_t@@00J@Z 00438330 f i serverpublic:MyAdoBase.obj
 0001:00037470       ?Open@Recordset15@@QAEJABV_variant_t@@0W4CursorTypeEnum@@W4LockTypeEnum@@J@Z 00438470 f i serverpublic:MyAdoBase.obj
 0001:000374f0       ?Initialize@CMyAdoBase@@SA_NV?$basic_string@DU?$char_traits@D@std@@V?$allocator@D@2@@std@@000000@Z 004384f0 f   serverpublic:MyAdoBase.obj
 0001:000379c0       ?PrintErr@CMyAdoBase@@SAXPBDAAV_com_error@@@Z 004389c0 f   serverpublic:MyAdoBase.obj
 0001:00037cb0       ?PrintErr@CMyAdoBase@@SAXPBD@Z 00438cb0 f   serverpublic:MyAdoBase.obj
 0001:00037cd0       ?CreateRs@CMyAdoBase@@SAJAAV?$_com_ptr_t@V?$_com_IIID@U_Recordset@@$1?_GUID_00000556_0000_0010_8000_00aa006d2ea4@@3U__s_GUID@@B@@@@@Z 00438cd0 f   serverpublic:MyAdoBase.obj
 0001:00037d50       ?ReleaseRs@CMyAdoBase@@SAJAAV?$_com_ptr_t@V?$_com_IIID@U_Recordset@@$1?_GUID_00000556_0000_0010_8000_00aa006d2ea4@@3U__s_GUID@@B@@@@@Z 00438d50 f   serverpublic:MyAdoBase.obj
 0001:00037db0       ??0CMyAdoBase@@QAE@XZ      00438db0 f   serverpublic:MyAdoBase.obj
 0001:00037dc0       ??_GCMyAdoBase@@UAEPAXI@Z  00438dc0 f i serverpublic:MyAdoBase.obj
 0001:00037dc0       ??_ECMyAdoBase@@UAEPAXI@Z  00438dc0 f i  CIL library: CIL module
 0001:00037de0       ??1CMyAdoBase@@UAE@XZ      00438de0 f   serverpublic:MyAdoBase.obj
 0001:00037df0       ?ExecuteCn@CMyAdoBase@@SAJPBDAAV?$_com_ptr_t@V?$_com_IIID@U_Connection@@$1?_GUID_00000550_0000_0010_8000_00aa006d2ea4@@3U__s_GUID@@B@@@@@Z 00438df0 f   serverpublic:MyAdoBase.obj
 0001:00037e90       ?OpenRs@CMyAdoBase@@SAJPBDAAV?$_com_ptr_t@V?$_com_IIID@U_Recordset@@$1?_GUID_00000556_0000_0010_8000_00aa006d2ea4@@3U__s_GUID@@B@@@@AAV?$_com_ptr_t@V?$_com_IIID@U_Connection@@$1?_GUID_00000550_0000_0010_8000_00aa006d2ea4@@3U__s_GUID@@B@@@@W4CursorTypeEnum@@W4LockTypeEnum@@J@Z 00438e90 f   serverpublic:MyAdoBase.obj
 0001:00037fd0       ?ReleaseCn@CMyAdoBase@@SAJAAV?$_com_ptr_t@V?$_com_IIID@U_Connection@@$1?_GUID_00000550_0000_0010_8000_00aa006d2ea4@@3U__s_GUID@@B@@@@@Z 00438fd0 f   serverpublic:MyAdoBase.obj
 0001:00038020       ?clear@?$basic_string@DU?$char_traits@D@std@@V?$allocator@D@2@@std@@QAEXXZ 00439020 f i serverpublic:MyAdoBase.obj
 0001:00038090       ?Release@?$_com_ptr_t@V?$_com_IIID@U_Connection@@$1?_GUID_00000550_0000_0010_8000_00aa006d2ea4@@3U__s_GUID@@B@@@@QAEXXZ 00439090 f i serverpublic:MyAdoBase.obj
 0001:000380c0       ?erase@?$basic_string@DU?$char_traits@D@std@@V?$allocator@D@2@@std@@QAE?AV?$_String_iterator@DU?$char_traits@D@std@@V?$allocator@D@2@@2@V32@0@Z 004390c0 f i serverpublic:MyAdoBase.obj
 0001:000381d0       ??0CWordsFilter@@AAE@XZ    004391d0 f   serverpublic:WordsFilter.obj
 0001:00038240       ?GetInstance@CWordsFilter@@SAPAV1@XZ 00439240 f   serverpublic:WordsFilter.obj
 0001:000382c0       ?Release@CWordsFilter@@SAXXZ 004392c0 f   serverpublic:WordsFilter.obj
 0001:00038320       ?erase@?$list@V?$basic_string@DU?$char_traits@D@std@@V?$allocator@D@2@@std@@V?$allocator@V?$basic_string@DU?$char_traits@D@std@@V?$allocator@D@2@@std@@@2@@std@@QAE?AV?$_Iterator@$00@12@V312@@Z 00439320 f i serverpublic:WordsFilter.obj
 0001:000383b0       ??0CTimer@@AAE@XZ          004393b0 f   serverpublic:Timer.obj
 0001:00038450       ??1CTimer@@AAE@XZ          00439450 f   serverpublic:Timer.obj
 0001:000384c0       ?getInstance@CTimer@@SAPAV1@XZ 004394c0 f   serverpublic:Timer.obj
 0001:00038540       ?Run@CTimer@@QAEXXZ        00439540 f   serverpublic:Timer.obj
 0001:00038730       ??1?$MulTiThMap@KUtagTimer@CTimer@@@@QAE@XZ 00439730 f i serverpublic:Timer.obj
 0001:00038750       ?erase@?$_Tree@V?$_Tmap_traits@KUtagTimeEvent@CTimer@@U?$less@K@std@@V?$allocator@U?$pair@$$CBKUtagTimeEvent@CTimer@@@std@@@4@$0A@@std@@@std@@QAE?AViterator@12@V312@@Z 00439750 f i serverpublic:Timer.obj
 0001:00038a10       ?_Lrotate@?$_Tree@V?$_Tmap_traits@KUtagTimeEvent@CTimer@@U?$less@K@std@@V?$allocator@U?$pair@$$CBKUtagTimeEvent@CTimer@@@std@@@4@$0A@@std@@@std@@IAEXPAU_Node@?$_Tree_nod@V?$_Tmap_traits@KUtagTimeEvent@CTimer@@U?$less@K@std@@V?$allocator@U?$pair@$$CBKUtagTimeEvent@CTimer@@@std@@@4@$0A@@std@@@2@@Z 00439a10 f i serverpublic:Timer.obj
 0001:00038a60       ?_Max@?$_Tree@V?$_Tmap_traits@KUtagTimeEvent@CTimer@@U?$less@K@std@@V?$allocator@U?$pair@$$CBKUtagTimeEvent@CTimer@@@std@@@4@$0A@@std@@@std@@KAPAU_Node@?$_Tree_nod@V?$_Tmap_traits@KUtagTimeEvent@CTimer@@U?$less@K@std@@V?$allocator@U?$pair@$$CBKUtagTimeEvent@CTimer@@@std@@@4@$0A@@std@@@2@PAU342@@Z 00439a60 f i serverpublic:Timer.obj
 0001:00038a80       ?_Rrotate@?$_Tree@V?$_Tmap_traits@KUtagTimeEvent@CTimer@@U?$less@K@std@@V?$allocator@U?$pair@$$CBKUtagTimeEvent@CTimer@@@std@@@4@$0A@@std@@@std@@IAEXPAU_Node@?$_Tree_nod@V?$_Tmap_traits@KUtagTimeEvent@CTimer@@U?$less@K@std@@V?$allocator@U?$pair@$$CBKUtagTimeEvent@CTimer@@@std@@@4@$0A@@std@@@2@@Z 00439a80 f i serverpublic:Timer.obj
 0001:00038ad0       ?_Tidy@?$_Tree@V?$_Tmap_traits@KUtagTimer@CTimer@@U?$less@K@std@@V?$allocator@U?$pair@$$CBKUtagTimer@CTimer@@@std@@@4@$0A@@std@@@std@@IAEXXZ 00439ad0 f i serverpublic:Timer.obj
 0001:00038b10       ?_Tidy@?$_Tree@V?$_Tmap_traits@KUtagTimeEvent@CTimer@@U?$less@K@std@@V?$allocator@U?$pair@$$CBKUtagTimeEvent@CTimer@@@std@@@4@$0A@@std@@@std@@IAEXXZ 00439b10 f i serverpublic:Timer.obj
 0001:00038b50       ?_Inc@const_iterator@?$_Tree@V?$_Tmap_traits@KUtagTimeEvent@CTimer@@U?$less@K@std@@V?$allocator@U?$pair@$$CBKUtagTimeEvent@CTimer@@@std@@@4@$0A@@std@@@std@@QAEXXZ 00439b50 f i serverpublic:Timer.obj
 0001:00038bc0       ?erase@?$_Tree@V?$_Tmap_traits@KUtagTimer@CTimer@@U?$less@K@std@@V?$allocator@U?$pair@$$CBKUtagTimer@CTimer@@@std@@@4@$0A@@std@@@std@@QAE?AViterator@12@V312@0@Z 00439bc0 f i serverpublic:Timer.obj
 0001:00038c90       ?erase@?$_Tree@V?$_Tmap_traits@KUtagTimeEvent@CTimer@@U?$less@K@std@@V?$allocator@U?$pair@$$CBKUtagTimeEvent@CTimer@@@std@@@4@$0A@@std@@@std@@QAE?AViterator@12@V312@0@Z 00439c90 f i serverpublic:Timer.obj
 0001:00038d60       ?_Inc@const_iterator@?$_Tree@V?$_Tmap_traits@KUtagTimer@CTimer@@U?$less@K@std@@V?$allocator@U?$pair@$$CBKUtagTimer@CTimer@@@std@@@4@$0A@@std@@@std@@QAEXXZ 00439d60 f i serverpublic:Timer.obj
 0001:00038d60       ?_Inc@const_iterator@?$_Tree@V?$_Tmap_traits@JUtagWorldInfo@CGame@@U?$less@J@std@@V?$allocator@U?$pair@$$CBJUtagWorldInfo@CGame@@@std@@@4@$0A@@std@@@std@@QAEXXZ 00439d60 f i Game.obj
 0001:00038dd0       ?erase@?$_Tree@V?$_Tmap_traits@KUtagTimer@CTimer@@U?$less@K@std@@V?$allocator@U?$pair@$$CBKUtagTimer@CTimer@@@std@@@4@$0A@@std@@@std@@QAE?AViterator@12@V312@@Z 00439dd0 f i serverpublic:Timer.obj
 0001:000390a0       ?_Buynode@?$_Tree@V?$_Tmap_traits@KUtagTimeEvent@CTimer@@U?$less@K@std@@V?$allocator@U?$pair@$$CBKUtagTimeEvent@CTimer@@@std@@@4@$0A@@std@@@std@@IAEPAU_Node@?$_Tree_nod@V?$_Tmap_traits@KUtagTimeEvent@CTimer@@U?$less@K@std@@V?$allocator@U?$pair@$$CBKUtagTimeEvent@CTimer@@@std@@@4@$0A@@std@@@2@XZ 0043a0a0 f i serverpublic:Timer.obj
 0001:000390e0       ?_Erase@?$_Tree@V?$_Tmap_traits@KUtagTimer@CTimer@@U?$less@K@std@@V?$allocator@U?$pair@$$CBKUtagTimer@CTimer@@@std@@@4@$0A@@std@@@std@@IAEXPAU_Node@?$_Tree_nod@V?$_Tmap_traits@KUtagTimer@CTimer@@U?$less@K@std@@V?$allocator@U?$pair@$$CBKUtagTimer@CTimer@@@std@@@4@$0A@@std@@@2@@Z 0043a0e0 f i serverpublic:Timer.obj
 0001:00039120       ?_Rrotate@?$_Tree@V?$_Tmap_traits@KUtagTimer@CTimer@@U?$less@K@std@@V?$allocator@U?$pair@$$CBKUtagTimer@CTimer@@@std@@@4@$0A@@std@@@std@@IAEXPAU_Node@?$_Tree_nod@V?$_Tmap_traits@KUtagTimer@CTimer@@U?$less@K@std@@V?$allocator@U?$pair@$$CBKUtagTimer@CTimer@@@std@@@4@$0A@@std@@@2@@Z 0043a120 f i serverpublic:Timer.obj
 0001:00039120       ?_Rrotate@?$_Tree@V?$_Tmap_traits@JUtagWorldInfo@CGame@@U?$less@J@std@@V?$allocator@U?$pair@$$CBJUtagWorldInfo@CGame@@@std@@@4@$0A@@std@@@std@@IAEXPAU_Node@?$_Tree_nod@V?$_Tmap_traits@JUtagWorldInfo@CGame@@U?$less@J@std@@V?$allocator@U?$pair@$$CBJUtagWorldInfo@CGame@@@std@@@4@$0A@@std@@@2@@Z 0043a120 f i Game.obj
 0001:00039170       ?_Erase@?$_Tree@V?$_Tmap_traits@KUtagTimeEvent@CTimer@@U?$less@K@std@@V?$allocator@U?$pair@$$CBKUtagTimeEvent@CTimer@@@std@@@4@$0A@@std@@@std@@IAEXPAU_Node@?$_Tree_nod@V?$_Tmap_traits@KUtagTimeEvent@CTimer@@U?$less@K@std@@V?$allocator@U?$pair@$$CBKUtagTimeEvent@CTimer@@@std@@@4@$0A@@std@@@2@@Z 0043a170 f i serverpublic:Timer.obj
 0001:000391b0       ??$_Allocate@U_Node@?$_Tree_nod@V?$_Tmap_traits@KUtagTimeEvent@CTimer@@U?$less@K@std@@V?$allocator@U?$pair@$$CBKUtagTimeEvent@CTimer@@@std@@@4@$0A@@std@@@std@@@std@@YAPAU_Node@?$_Tree_nod@V?$_Tmap_traits@KUtagTimeEvent@CTimer@@U?$less@K@std@@V?$allocator@U?$pair@$$CBKUtagTimeEvent@CTimer@@@std@@@4@$0A@@std@@@0@IPAU120@@Z 0043a1b0 f i serverpublic:Timer.obj
 0001:00039210       ??4CWrapDataObject@@QAEAAV0@AAV0@@Z 0043a210 f   serverpublic:EntityProperty.obj
 0001:00039280       ?SetStringValue@CWrapDataObject@@QAE_NPBDJ@Z 0043a280 f   serverpublic:EntityProperty.obj
 0001:00039320       ?SetGUIDValue@CWrapDataObject@@QAE_NABVCGUID@@@Z 0043a320 f   serverpublic:EntityProperty.obj
 0001:00039380       ??1CEntityProperty@@QAE@XZ 0043a380 f   serverpublic:EntityProperty.obj
 0001:000393c0       ??4CEntityProperty@@QAEAAV0@AAV0@@Z 0043a3c0 f   serverpublic:EntityProperty.obj
 0001:00039440       ?GetLongAttr@CEntityProperty@@QAEHXZ 0043a440 f   serverpublic:EntityProperty.obj
 0001:00039460       ?SetLongAttr@CEntityProperty@@QAEXH@Z 0043a460 f   serverpublic:EntityProperty.obj
 0001:000394c0       ?GetStringAttr@CEntityProperty@@QAEPBDXZ 0043a4c0 f   serverpublic:EntityProperty.obj
 0001:000394e0       ?SetStringAttr@CEntityProperty@@QAEXABV?$basic_string@DU?$char_traits@D@std@@V?$allocator@D@2@@std@@@Z 0043a4e0 f   serverpublic:EntityProperty.obj
 0001:00039540       ?GetBufSize@CEntityProperty@@QAEJXZ 0043a540 f   serverpublic:EntityProperty.obj
 0001:00039550       ?GetBufAttr@CEntityProperty@@QAEJPAXJ@Z 0043a550 f   serverpublic:EntityProperty.obj
 0001:000395b0       ?SetBufAttr@CEntityProperty@@QAEXPAXJ@Z 0043a5b0 f   serverpublic:EntityProperty.obj
 0001:00039630       ?GetGuidAttr@CEntityProperty@@QAE_NAAVCGUID@@@Z 0043a630 f   serverpublic:EntityProperty.obj
 0001:00039670       ?SetGuidAttr@CEntityProperty@@QAEXABVCGUID@@@Z 0043a670 f   serverpublic:EntityProperty.obj
 0001:000396b0       ??0CDataEntityManager@@QAE@XZ 0043a6b0 f   serverpublic:EntityProperty.obj
 0001:00039740       ??1?$map@JPAVCEntityProperty@@U?$less@J@std@@V?$allocator@U?$pair@$$CBJPAVCEntityProperty@@@std@@@3@@std@@QAE@XZ 0043a740 f i serverpublic:EntityProperty.obj
 0001:00039750       ??1CDataEntityManager@@QAE@XZ 0043a750 f   serverpublic:EntityProperty.obj
 0001:000397b0       ??4CDataEntityManager@@QAEAAV0@AAV0@@Z 0043a7b0 f   serverpublic:EntityProperty.obj
 0001:000398a0       ?CreateEntityProperty@CDataEntityManager@@QAEPAVCEntityProperty@@J@Z 0043a8a0 f   serverpublic:EntityProperty.obj
 0001:00039940       ?GetEntityProperty@CDataEntityManager@@QAEPAVCEntityProperty@@J@Z 0043a940 f   serverpublic:EntityProperty.obj
 0001:000399b0       ?GetLongAttr@CDataEntityManager@@QAEJJ@Z 0043a9b0 f   serverpublic:EntityProperty.obj
 0001:000399e0       ?GetStringAttr@CDataEntityManager@@QAEPBDJ@Z 0043a9e0 f   serverpublic:EntityProperty.obj
 0001:00039a10       ?GetGuidAttr@CDataEntityManager@@QAEJJAAVCGUID@@@Z 0043aa10 f   serverpublic:EntityProperty.obj
 0001:00039a70       ?SetStringAttr@CDataEntityManager@@QAE_NJPBD@Z 0043aa70 f   serverpublic:EntityProperty.obj
 0001:00039b40       ?Release@CDataEntityManager@@QAEXXZ 0043ab40 f   serverpublic:EntityProperty.obj
 0001:00039c30       ??0CTempEntityProperty@@QAE@ABV?$basic_string@DU?$char_traits@D@std@@V?$allocator@D@2@@std@@W4DATA_OBJECT_TYPE@@@Z 0043ac30 f   serverpublic:EntityProperty.obj
 0001:00039ca0       ??1CTempEntityProperty@@QAE@XZ 0043aca0 f   serverpublic:EntityProperty.obj
 0001:00039d00       ??4CTempEntityProperty@@QAEAAV0@AAV0@@Z 0043ad00 f   serverpublic:EntityProperty.obj
 0001:00039d30       ??A?$map@JPAVCEntityProperty@@U?$less@J@std@@V?$allocator@U?$pair@$$CBJPAVCEntityProperty@@@std@@@3@@std@@QAEAAPAVCEntityProperty@@ABJ@Z 0043ad30 f i serverpublic:EntityProperty.obj
 0001:00039db0       ?erase@?$_Tree@V?$_Tmap_traits@JPAVCEntityProperty@@U?$less@J@std@@V?$allocator@U?$pair@$$CBJPAVCEntityProperty@@@std@@@3@$0A@@std@@@std@@QAE?AViterator@12@V312@@Z 0043adb0 f i serverpublic:EntityProperty.obj
 0001:0003a070       ?find@?$_Tree@V?$_Tmap_traits@JPAVCEntityProperty@@U?$less@J@std@@V?$allocator@U?$pair@$$CBJPAVCEntityProperty@@@std@@@3@$0A@@std@@@std@@QAE?AViterator@12@ABJ@Z 0043b070 f i serverpublic:EntityProperty.obj
 0001:0003a0e0       ?insert@?$_Tree@V?$_Tmap_traits@JPAVCEntityProperty@@U?$less@J@std@@V?$allocator@U?$pair@$$CBJPAVCEntityProperty@@@std@@@3@$0A@@std@@@std@@QAE?AViterator@12@V312@ABU?$pair@$$CBJPAVCEntityProperty@@@2@@Z 0043b0e0 f i serverpublic:EntityProperty.obj
 0001:0003a2a0       ?_Erase@?$_Tree@V?$_Tmap_traits@HPAVCDataBlock@@U?$less@H@std@@V?$allocator@U?$pair@$$CBHPAVCDataBlock@@@std@@@3@$0A@@std@@@std@@IAEXPAU_Node@?$_Tree_nod@V?$_Tmap_traits@HPAVCDataBlock@@U?$less@H@std@@V?$allocator@U?$pair@$$CBHPAVCDataBlock@@@std@@@3@$0A@@std@@@2@@Z 0043b2a0 f i Net:ServerClient.obj
 0001:0003a2a0       ?_Erase@?$_Tree@V?$_Tmap_traits@JPAVCEntityProperty@@U?$less@J@std@@V?$allocator@U?$pair@$$CBJPAVCEntityProperty@@@std@@@3@$0A@@std@@@std@@IAEXPAU_Node@?$_Tree_nod@V?$_Tmap_traits@JPAVCEntityProperty@@U?$less@J@std@@V?$allocator@U?$pair@$$CBJPAVCEntityProperty@@@std@@@3@$0A@@std@@@2@@Z 0043b2a0 f i serverpublic:EntityProperty.obj
 0001:0003a2a0       ?_Erase@?$_Tree@V?$_Tmap_traits@JPAVCServerClient@@U?$less@J@std@@V?$allocator@U?$pair@$$CBJPAVCServerClient@@@std@@@3@$0A@@std@@@std@@IAEXPAU_Node@?$_Tree_nod@V?$_Tmap_traits@JPAVCServerClient@@U?$less@J@std@@V?$allocator@U?$pair@$$CBJPAVCServerClient@@@std@@@3@$0A@@std@@@2@@Z 0043b2a0 f i Net:Servers.obj
 0001:0003a2a0       ?_Erase@?$_Tree@V?$_Tmap_traits@KKU?$less@K@std@@V?$allocator@U?$pair@$$CBKK@std@@@2@$0A@@std@@@std@@IAEXPAU_Node@?$_Tree_nod@V?$_Tmap_traits@KKU?$less@K@std@@V?$allocator@U?$pair@$$CBKK@std@@@2@$0A@@std@@@2@@Z 0043b2a0 f i Net:Servers.obj
 0001:0003a2a0       ?_Erase@?$_Tree@V?$_Tmap_traits@JPAVCDataObject@@U?$less@J@std@@V?$allocator@U?$pair@$$CBJPAVCDataObject@@@std@@@3@$0A@@std@@@std@@IAEXPAU_Node@?$_Tree_nod@V?$_Tmap_traits@JPAVCDataObject@@U?$less@J@std@@V?$allocator@U?$pair@$$CBJPAVCDataObject@@@std@@@3@$0A@@std@@@2@@Z 0043b2a0 f i public:ColumnProperty.obj
 0001:0003a2a0       ?_Erase@?$_Tree@V?$_Tmap_traits@PAEJU?$less@PAE@std@@V?$allocator@U?$pair@QAEJ@std@@@2@$0A@@std@@@std@@IAEXPAU_Node@?$_Tree_nod@V?$_Tmap_traits@PAEJU?$less@PAE@std@@V?$allocator@U?$pair@QAEJ@std@@@2@$0A@@std@@@2@@Z 0043b2a0 f i public:DataBlockAllocator.obj
 0001:0003a2a0       ?_Erase@?$_Tree@V?$_Tmap_traits@JFU?$less@J@std@@V?$allocator@U?$pair@$$CBJF@std@@@2@$0A@@std@@@std@@IAEXPAU_Node@?$_Tree_nod@V?$_Tmap_traits@JFU?$less@J@std@@V?$allocator@U?$pair@$$CBJF@std@@@2@$0A@@std@@@2@@Z 0043b2a0 f i Net:BaseMessage.obj
 0001:0003a2a0       ?_Erase@?$_Tree@V?$_Tmap_traits@JJU?$less@J@std@@V?$allocator@U?$pair@$$CBJJ@std@@@2@$0A@@std@@@std@@IAEXPAU_Node@?$_Tree_nod@V?$_Tmap_traits@JJU?$less@J@std@@V?$allocator@U?$pair@$$CBJJ@std@@@2@$0A@@std@@@2@@Z 0043b2a0 f i Net:Servers.obj
 0001:0003a2a0       ?_Erase@?$_Tree@V?$_Tmap_traits@JPAEU?$less@J@std@@V?$allocator@U?$pair@$$CBJPAE@std@@@2@$00@std@@@std@@IAEXPAU_Node@?$_Tree_nod@V?$_Tmap_traits@JPAEU?$less@J@std@@V?$allocator@U?$pair@$$CBJPAE@std@@@2@$00@std@@@2@@Z 0043b2a0 f i public:DataBlockAllocator.obj
 0001:0003a2e0       ?_Min@?$_Tree@V?$_Tmap_traits@JPAVCEntityProperty@@U?$less@J@std@@V?$allocator@U?$pair@$$CBJPAVCEntityProperty@@@std@@@3@$0A@@std@@@std@@KAPAU_Node@?$_Tree_nod@V?$_Tmap_traits@JPAVCEntityProperty@@U?$less@J@std@@V?$allocator@U?$pair@$$CBJPAVCEntityProperty@@@std@@@3@$0A@@std@@@2@PAU342@@Z 0043b2e0 f i serverpublic:EntityProperty.obj
 0001:0003a300       ?_Tidy@?$_Tree@V?$_Tmap_traits@JPAVCEntityProperty@@U?$less@J@std@@V?$allocator@U?$pair@$$CBJPAVCEntityProperty@@@std@@@3@$0A@@std@@@std@@IAEXXZ 0043b300 f i serverpublic:EntityProperty.obj
 0001:0003a340       ?insert@?$_Tree@V?$_Tmap_traits@JPAVCDataObject@@U?$less@J@std@@V?$allocator@U?$pair@$$CBJPAVCDataObject@@@std@@@3@$0A@@std@@@std@@QAE?AU?$pair@Viterator@?$_Tree@V?$_Tmap_traits@JPAVCDataObject@@U?$less@J@std@@V?$allocator@U?$pair@$$CBJPAVCDataObject@@@std@@@3@$0A@@std@@@std@@_N@2@ABU?$pair@$$CBJPAVCDataObject@@@2@@Z 0043b340 f i public:ColumnProperty.obj
 0001:0003a340       ?insert@?$_Tree@V?$_Tmap_traits@HPAVCDataBlock@@U?$less@H@std@@V?$allocator@U?$pair@$$CBHPAVCDataBlock@@@std@@@3@$0A@@std@@@std@@QAE?AU?$pair@Viterator@?$_Tree@V?$_Tmap_traits@HPAVCDataBlock@@U?$less@H@std@@V?$allocator@U?$pair@$$CBHPAVCDataBlock@@@std@@@3@$0A@@std@@@std@@_N@2@ABU?$pair@$$CBHPAVCDataBlock@@@2@@Z 0043b340 f i Net:ServerClient.obj
 0001:0003a340       ?insert@?$_Tree@V?$_Tmap_traits@JJU?$less@J@std@@V?$allocator@U?$pair@$$CBJJ@std@@@2@$0A@@std@@@std@@QAE?AU?$pair@Viterator@?$_Tree@V?$_Tmap_traits@JJU?$less@J@std@@V?$allocator@U?$pair@$$CBJJ@std@@@2@$0A@@std@@@std@@_N@2@ABU?$pair@$$CBJJ@2@@Z 0043b340 f i Net:Servers.obj
 0001:0003a340       ?insert@?$_Tree@V?$_Tmap_traits@JPAVCEntityProperty@@U?$less@J@std@@V?$allocator@U?$pair@$$CBJPAVCEntityProperty@@@std@@@3@$0A@@std@@@std@@QAE?AU?$pair@Viterator@?$_Tree@V?$_Tmap_traits@JPAVCEntityProperty@@U?$less@J@std@@V?$allocator@U?$pair@$$CBJPAVCEntityProperty@@@std@@@3@$0A@@std@@@std@@_N@2@ABU?$pair@$$CBJPAVCEntityProperty@@@2@@Z 0043b340 f i serverpublic:EntityProperty.obj
 0001:0003a420       ?erase@?$_Tree@V?$_Tmap_traits@JPAVCEntityProperty@@U?$less@J@std@@V?$allocator@U?$pair@$$CBJPAVCEntityProperty@@@std@@@3@$0A@@std@@@std@@QAE?AViterator@12@V312@0@Z 0043b420 f i serverpublic:EntityProperty.obj
 0001:0003a500       ?_Buynode@?$_Tree@V?$_Tmap_traits@JPAVCDataObject@@U?$less@J@std@@V?$allocator@U?$pair@$$CBJPAVCDataObject@@@std@@@3@$0A@@std@@@std@@IAEPAU_Node@?$_Tree_nod@V?$_Tmap_traits@JPAVCDataObject@@U?$less@J@std@@V?$allocator@U?$pair@$$CBJPAVCDataObject@@@std@@@3@$0A@@std@@@2@XZ 0043b500 f i public:ColumnProperty.obj
 0001:0003a500       ?_Buynode@?$_Tree@V?$_Tmap_traits@JPAVCServerClient@@U?$less@J@std@@V?$allocator@U?$pair@$$CBJPAVCServerClient@@@std@@@3@$0A@@std@@@std@@IAEPAU_Node@?$_Tree_nod@V?$_Tmap_traits@JPAVCServerClient@@U?$less@J@std@@V?$allocator@U?$pair@$$CBJPAVCServerClient@@@std@@@3@$0A@@std@@@2@XZ 0043b500 f i Net:Servers.obj
 0001:0003a500       ?_Buynode@?$_Tree@V?$_Tmap_traits@JPAVCEntityProperty@@U?$less@J@std@@V?$allocator@U?$pair@$$CBJPAVCEntityProperty@@@std@@@3@$0A@@std@@@std@@IAEPAU_Node@?$_Tree_nod@V?$_Tmap_traits@JPAVCEntityProperty@@U?$less@J@std@@V?$allocator@U?$pair@$$CBJPAVCEntityProperty@@@std@@@3@$0A@@std@@@2@XZ 0043b500 f i serverpublic:EntityProperty.obj
 0001:0003a500       ?_Buynode@?$_Tree@V?$_Tmap_traits@KKU?$less@K@std@@V?$allocator@U?$pair@$$CBKK@std@@@2@$0A@@std@@@std@@IAEPAU_Node@?$_Tree_nod@V?$_Tmap_traits@KKU?$less@K@std@@V?$allocator@U?$pair@$$CBKK@std@@@2@$0A@@std@@@2@XZ 0043b500 f i Net:Servers.obj
 0001:0003a500       ?_Buynode@?$_Tree@V?$_Tmap_traits@JFU?$less@J@std@@V?$allocator@U?$pair@$$CBJF@std@@@2@$0A@@std@@@std@@IAEPAU_Node@?$_Tree_nod@V?$_Tmap_traits@JFU?$less@J@std@@V?$allocator@U?$pair@$$CBJF@std@@@2@$0A@@std@@@2@XZ 0043b500 f i Net:BaseMessage.obj
 0001:0003a500       ?_Buynode@?$_Tree@V?$_Tmap_traits@JJU?$less@J@std@@V?$allocator@U?$pair@$$CBJJ@std@@@2@$0A@@std@@@std@@IAEPAU_Node@?$_Tree_nod@V?$_Tmap_traits@JJU?$less@J@std@@V?$allocator@U?$pair@$$CBJJ@std@@@2@$0A@@std@@@2@XZ 0043b500 f i Net:Servers.obj
 0001:0003a500       ?_Buynode@?$_Tree@V?$_Tmap_traits@HPAVCDataBlock@@U?$less@H@std@@V?$allocator@U?$pair@$$CBHPAVCDataBlock@@@std@@@3@$0A@@std@@@std@@IAEPAU_Node@?$_Tree_nod@V?$_Tmap_traits@HPAVCDataBlock@@U?$less@H@std@@V?$allocator@U?$pair@$$CBHPAVCDataBlock@@@std@@@3@$0A@@std@@@2@XZ 0043b500 f i Net:ServerClient.obj
 0001:0003a500       ?_Buynode@?$_Tree@V?$_Tmap_traits@JPAEU?$less@J@std@@V?$allocator@U?$pair@$$CBJPAE@std@@@2@$00@std@@@std@@IAEPAU_Node@?$_Tree_nod@V?$_Tmap_traits@JPAEU?$less@J@std@@V?$allocator@U?$pair@$$CBJPAE@std@@@2@$00@std@@@2@XZ 0043b500 f i public:DataBlockAllocator.obj
 0001:0003a500       ?_Buynode@?$_Tree@V?$_Tmap_traits@PAEJU?$less@PAE@std@@V?$allocator@U?$pair@QAEJ@std@@@2@$0A@@std@@@std@@IAEPAU_Node@?$_Tree_nod@V?$_Tmap_traits@PAEJU?$less@PAE@std@@V?$allocator@U?$pair@QAEJ@std@@@2@$0A@@std@@@2@XZ 0043b500 f i public:DataBlockAllocator.obj
 0001:0003a540       ?_Buynode@?$_Tree@V?$_Tmap_traits@JPAVCDataObject@@U?$less@J@std@@V?$allocator@U?$pair@$$CBJPAVCDataObject@@@std@@@3@$0A@@std@@@std@@IAEPAU_Node@?$_Tree_nod@V?$_Tmap_traits@JPAVCDataObject@@U?$less@J@std@@V?$allocator@U?$pair@$$CBJPAVCDataObject@@@std@@@3@$0A@@std@@@2@PAU342@00ABU?$pair@$$CBJPAVCDataObject@@@2@D@Z 0043b540 f i public:ColumnProperty.obj
 0001:0003a540       ?_Buynode@?$_Tree@V?$_Tmap_traits@JJU?$less@J@std@@V?$allocator@U?$pair@$$CBJJ@std@@@2@$0A@@std@@@std@@IAEPAU_Node@?$_Tree_nod@V?$_Tmap_traits@JJU?$less@J@std@@V?$allocator@U?$pair@$$CBJJ@std@@@2@$0A@@std@@@2@PAU342@00ABU?$pair@$$CBJJ@2@D@Z 0043b540 f i Net:Servers.obj
 0001:0003a540       ?_Buynode@?$_Tree@V?$_Tmap_traits@KKU?$less@K@std@@V?$allocator@U?$pair@$$CBKK@std@@@2@$0A@@std@@@std@@IAEPAU_Node@?$_Tree_nod@V?$_Tmap_traits@KKU?$less@K@std@@V?$allocator@U?$pair@$$CBKK@std@@@2@$0A@@std@@@2@PAU342@00ABU?$pair@$$CBKK@2@D@Z 0043b540 f i Net:Servers.obj
 0001:0003a540       ?_Buynode@?$_Tree@V?$_Tmap_traits@HPAVCDataBlock@@U?$less@H@std@@V?$allocator@U?$pair@$$CBHPAVCDataBlock@@@std@@@3@$0A@@std@@@std@@IAEPAU_Node@?$_Tree_nod@V?$_Tmap_traits@HPAVCDataBlock@@U?$less@H@std@@V?$allocator@U?$pair@$$CBHPAVCDataBlock@@@std@@@3@$0A@@std@@@2@PAU342@00ABU?$pair@$$CBHPAVCDataBlock@@@2@D@Z 0043b540 f i Net:ServerClient.obj
 0001:0003a540       ?_Buynode@?$_Tree@V?$_Tmap_traits@JPAVCEntityProperty@@U?$less@J@std@@V?$allocator@U?$pair@$$CBJPAVCEntityProperty@@@std@@@3@$0A@@std@@@std@@IAEPAU_Node@?$_Tree_nod@V?$_Tmap_traits@JPAVCEntityProperty@@U?$less@J@std@@V?$allocator@U?$pair@$$CBJPAVCEntityProperty@@@std@@@3@$0A@@std@@@2@PAU342@00ABU?$pair@$$CBJPAVCEntityProperty@@@2@D@Z 0043b540 f i serverpublic:EntityProperty.obj
 0001:0003a580       ?_Inc@const_iterator@?$_Tree@V?$_Tmap_traits@JPAVCEntityProperty@@U?$less@J@std@@V?$allocator@U?$pair@$$CBJPAVCEntityProperty@@@std@@@3@$0A@@std@@@std@@QAEXXZ 0043b580 f i serverpublic:EntityProperty.obj
 0001:0003a5f0       ??$_Allocate@U_Node@?$_Tree_nod@V?$_Tmap_traits@JPAVCServerClient@@U?$less@J@std@@V?$allocator@U?$pair@$$CBJPAVCServerClient@@@std@@@3@$0A@@std@@@std@@@std@@YAPAU_Node@?$_Tree_nod@V?$_Tmap_traits@JPAVCServerClient@@U?$less@J@std@@V?$allocator@U?$pair@$$CBJPAVCServerClient@@@std@@@3@$0A@@std@@@0@IPAU120@@Z 0043b5f0 f i Net:Servers.obj
 0001:0003a5f0       ??$_Allocate@U_Node@?$_Tree_nod@V?$_Tmap_traits@JPAEU?$less@J@std@@V?$allocator@U?$pair@$$CBJPAE@std@@@2@$00@std@@@std@@@std@@YAPAU_Node@?$_Tree_nod@V?$_Tmap_traits@JPAEU?$less@J@std@@V?$allocator@U?$pair@$$CBJPAE@std@@@2@$00@std@@@0@IPAU120@@Z 0043b5f0 f i public:DataBlockAllocator.obj
 0001:0003a5f0       ??$_Allocate@U_Node@?$_Tree_nod@V?$_Tmap_traits@KKU?$less@K@std@@V?$allocator@U?$pair@$$CBKK@std@@@2@$0A@@std@@@std@@@std@@YAPAU_Node@?$_Tree_nod@V?$_Tmap_traits@KKU?$less@K@std@@V?$allocator@U?$pair@$$CBKK@std@@@2@$0A@@std@@@0@IPAU120@@Z 0043b5f0 f i Net:Servers.obj
 0001:0003a5f0       ??$_Allocate@U_Node@?$_Tree_nod@V?$_Tmap_traits@JPAVCDataObject@@U?$less@J@std@@V?$allocator@U?$pair@$$CBJPAVCDataObject@@@std@@@3@$0A@@std@@@std@@@std@@YAPAU_Node@?$_Tree_nod@V?$_Tmap_traits@JPAVCDataObject@@U?$less@J@std@@V?$allocator@U?$pair@$$CBJPAVCDataObject@@@std@@@3@$0A@@std@@@0@IPAU120@@Z 0043b5f0 f i public:ColumnProperty.obj
 0001:0003a5f0       ??$_Allocate@U_Node@?$_Tree_nod@V?$_Tmap_traits@JPAVCEntityProperty@@U?$less@J@std@@V?$allocator@U?$pair@$$CBJPAVCEntityProperty@@@std@@@3@$0A@@std@@@std@@@std@@YAPAU_Node@?$_Tree_nod@V?$_Tmap_traits@JPAVCEntityProperty@@U?$less@J@std@@V?$allocator@U?$pair@$$CBJPAVCEntityProperty@@@std@@@3@$0A@@std@@@0@IPAU120@@Z 0043b5f0 f i serverpublic:EntityProperty.obj
 0001:0003a5f0       ??$_Allocate@U_Node@?$_Tree_nod@V?$_Tmap_traits@HPAVCDataBlock@@U?$less@H@std@@V?$allocator@U?$pair@$$CBHPAVCDataBlock@@@std@@@3@$0A@@std@@@std@@@std@@YAPAU_Node@?$_Tree_nod@V?$_Tmap_traits@HPAVCDataBlock@@U?$less@H@std@@V?$allocator@U?$pair@$$CBHPAVCDataBlock@@@std@@@3@$0A@@std@@@0@IPAU120@@Z 0043b5f0 f i Net:ServerClient.obj
 0001:0003a5f0       ??$_Allocate@U_Node@?$_Tree_nod@V?$_Tmap_traits@JJU?$less@J@std@@V?$allocator@U?$pair@$$CBJJ@std@@@2@$0A@@std@@@std@@@std@@YAPAU_Node@?$_Tree_nod@V?$_Tmap_traits@JJU?$less@J@std@@V?$allocator@U?$pair@$$CBJJ@std@@@2@$0A@@std@@@0@IPAU120@@Z 0043b5f0 f i Net:Servers.obj
 0001:0003a5f0       ??$_Allocate@U_Node@?$_Tree_nod@V?$_Tmap_traits@JFU?$less@J@std@@V?$allocator@U?$pair@$$CBJF@std@@@2@$0A@@std@@@std@@@std@@YAPAU_Node@?$_Tree_nod@V?$_Tmap_traits@JFU?$less@J@std@@V?$allocator@U?$pair@$$CBJF@std@@@2@$0A@@std@@@0@IPAU120@@Z 0043b5f0 f i Net:BaseMessage.obj
 0001:0003a5f0       ??$_Allocate@U_Node@?$_Tree_nod@V?$_Tmap_traits@PAEJU?$less@PAE@std@@V?$allocator@U?$pair@QAEJ@std@@@2@$0A@@std@@@std@@@std@@YAPAU_Node@?$_Tree_nod@V?$_Tmap_traits@PAEJU?$less@PAE@std@@V?$allocator@U?$pair@QAEJ@std@@@2@$0A@@std@@@0@IPAU120@@Z 0043b5f0 f i public:DataBlockAllocator.obj
 0001:0003a650       ?SetLongValue@CDataObject@@QAE_NAAJ@Z 0043b650 f   public:ColumnProperty.obj
 0001:0003a6a0       ?SetStringValue@CDataObject@@QAE_NPBDJ@Z 0043b6a0 f   public:ColumnProperty.obj
 0001:0003a750       ?SetBufValue@CDataObject@@QAE_NPAXJ@Z 0043b750 f   public:ColumnProperty.obj
 0001:0003a7b0       ?SetGUIDValue@CDataObject@@QAE_NABVCGUID@@@Z 0043b7b0 f   public:ColumnProperty.obj
 0001:0003a820       ??0CTableManager@@QAE@XZ   0043b820 f   public:ColumnProperty.obj
 0001:0003a8b0       ??1?$map@JJU?$less@J@std@@V?$allocator@U?$pair@$$CBJJ@std@@@2@@std@@QAE@XZ 0043b8b0 f i Net:Servers.obj
 0001:0003a8b0       ??1?$map@JPAVCDataObject@@U?$less@J@std@@V?$allocator@U?$pair@$$CBJPAVCDataObject@@@std@@@3@@std@@QAE@XZ 0043b8b0 f i public:ColumnProperty.obj
 0001:0003a8b0       ??1?$map@PAEJU?$less@PAE@std@@V?$allocator@U?$pair@QAEJ@std@@@2@@std@@QAE@XZ 0043b8b0 f i public:DataBlockAllocator.obj
 0001:0003a8b0       ??1?$multimap@JPAEU?$less@J@std@@V?$allocator@U?$pair@$$CBJPAE@std@@@2@@std@@QAE@XZ 0043b8b0 f i public:DataBlockAllocator.obj
 0001:0003a8c0       ?CreateColumnData@CTableManager@@QAEPAVCDataObject@@J@Z 0043b8c0 f   public:ColumnProperty.obj
 0001:0003a960       ?GetColumnData@CTableManager@@QAEPAVCDataObject@@J@Z 0043b960 f   public:ColumnProperty.obj
 0001:0003a9c0       ?Release@CTableManager@@QAEXXZ 0043b9c0 f   public:ColumnProperty.obj
 0001:0003aaa0       ?erase@?$_Tree@V?$_Tmap_traits@HPAVCDataBlock@@U?$less@H@std@@V?$allocator@U?$pair@$$CBHPAVCDataBlock@@@std@@@3@$0A@@std@@@std@@QAE?AViterator@12@V312@@Z 0043baa0 f i Net:ServerClient.obj
 0001:0003aaa0       ?erase@?$_Tree@V?$_Tmap_traits@JPAVCDataObject@@U?$less@J@std@@V?$allocator@U?$pair@$$CBJPAVCDataObject@@@std@@@3@$0A@@std@@@std@@QAE?AViterator@12@V312@@Z 0043baa0 f i public:ColumnProperty.obj
 0001:0003aaa0       ?erase@?$_Tree@V?$_Tmap_traits@JJU?$less@J@std@@V?$allocator@U?$pair@$$CBJJ@std@@@2@$0A@@std@@@std@@QAE?AViterator@12@V312@@Z 0043baa0 f i Net:Servers.obj
 0001:0003aaa0       ?erase@?$_Tree@V?$_Tmap_traits@KKU?$less@K@std@@V?$allocator@U?$pair@$$CBKK@std@@@2@$0A@@std@@@std@@QAE?AViterator@12@V312@@Z 0043baa0 f i Net:Servers.obj
 0001:0003aaa0       ?erase@?$_Tree@V?$_Tmap_traits@PAEJU?$less@PAE@std@@V?$allocator@U?$pair@QAEJ@std@@@2@$0A@@std@@@std@@QAE?AViterator@12@V312@@Z 0043baa0 f i public:DataBlockAllocator.obj
 0001:0003aaa0       ?erase@?$_Tree@V?$_Tmap_traits@JPAEU?$less@J@std@@V?$allocator@U?$pair@$$CBJPAE@std@@@2@$00@std@@@std@@QAE?AViterator@12@V312@@Z 0043baa0 f i public:DataBlockAllocator.obj
 0001:0003ad60       ?find@?$_Tree@V?$_Tmap_traits@JPAVCDataObject@@U?$less@J@std@@V?$allocator@U?$pair@$$CBJPAVCDataObject@@@std@@@3@$0A@@std@@@std@@QAE?AViterator@12@ABJ@Z 0043bd60 f i public:ColumnProperty.obj
 0001:0003ad60       ?find@?$_Tree@V?$_Tmap_traits@HPAVCDataBlock@@U?$less@H@std@@V?$allocator@U?$pair@$$CBHPAVCDataBlock@@@std@@@3@$0A@@std@@@std@@QAE?AViterator@12@ABH@Z 0043bd60 f i Net:ServerClient.obj
 0001:0003add0       ?_Lrotate@?$_Tree@V?$_Tmap_traits@JJU?$less@J@std@@V?$allocator@U?$pair@$$CBJJ@std@@@2@$0A@@std@@@std@@IAEXPAU_Node@?$_Tree_nod@V?$_Tmap_traits@JJU?$less@J@std@@V?$allocator@U?$pair@$$CBJJ@std@@@2@$0A@@std@@@2@@Z 0043bdd0 f i Net:Servers.obj
 0001:0003add0       ?_Lrotate@?$_Tree@V?$_Tmap_traits@HPAVCDataBlock@@U?$less@H@std@@V?$allocator@U?$pair@$$CBHPAVCDataBlock@@@std@@@3@$0A@@std@@@std@@IAEXPAU_Node@?$_Tree_nod@V?$_Tmap_traits@HPAVCDataBlock@@U?$less@H@std@@V?$allocator@U?$pair@$$CBHPAVCDataBlock@@@std@@@3@$0A@@std@@@2@@Z 0043bdd0 f i Net:ServerClient.obj
 0001:0003add0       ?_Lrotate@?$_Tree@V?$_Tmap_traits@JPAVCServerClient@@U?$less@J@std@@V?$allocator@U?$pair@$$CBJPAVCServerClient@@@std@@@3@$0A@@std@@@std@@IAEXPAU_Node@?$_Tree_nod@V?$_Tmap_traits@JPAVCServerClient@@U?$less@J@std@@V?$allocator@U?$pair@$$CBJPAVCServerClient@@@std@@@3@$0A@@std@@@2@@Z 0043bdd0 f i Net:Servers.obj
 0001:0003add0       ?_Lrotate@?$_Tree@V?$_Tmap_traits@JPAVCEntityProperty@@U?$less@J@std@@V?$allocator@U?$pair@$$CBJPAVCEntityProperty@@@std@@@3@$0A@@std@@@std@@IAEXPAU_Node@?$_Tree_nod@V?$_Tmap_traits@JPAVCEntityProperty@@U?$less@J@std@@V?$allocator@U?$pair@$$CBJPAVCEntityProperty@@@std@@@3@$0A@@std@@@2@@Z 0043bdd0 f i serverpublic:EntityProperty.obj
 0001:0003add0       ?_Lrotate@?$_Tree@V?$_Tmap_traits@KKU?$less@K@std@@V?$allocator@U?$pair@$$CBKK@std@@@2@$0A@@std@@@std@@IAEXPAU_Node@?$_Tree_nod@V?$_Tmap_traits@KKU?$less@K@std@@V?$allocator@U?$pair@$$CBKK@std@@@2@$0A@@std@@@2@@Z 0043bdd0 f i Net:Servers.obj
 0001:0003add0       ?_Lrotate@?$_Tree@V?$_Tmap_traits@PAEJU?$less@PAE@std@@V?$allocator@U?$pair@QAEJ@std@@@2@$0A@@std@@@std@@IAEXPAU_Node@?$_Tree_nod@V?$_Tmap_traits@PAEJU?$less@PAE@std@@V?$allocator@U?$pair@QAEJ@std@@@2@$0A@@std@@@2@@Z 0043bdd0 f i public:DataBlockAllocator.obj
 0001:0003add0       ?_Lrotate@?$_Tree@V?$_Tmap_traits@JPAEU?$less@J@std@@V?$allocator@U?$pair@$$CBJPAE@std@@@2@$00@std@@@std@@IAEXPAU_Node@?$_Tree_nod@V?$_Tmap_traits@JPAEU?$less@J@std@@V?$allocator@U?$pair@$$CBJPAE@std@@@2@$00@std@@@2@@Z 0043bdd0 f i public:DataBlockAllocator.obj
 0001:0003add0       ?_Lrotate@?$_Tree@V?$_Tmap_traits@JPAVCDataObject@@U?$less@J@std@@V?$allocator@U?$pair@$$CBJPAVCDataObject@@@std@@@3@$0A@@std@@@std@@IAEXPAU_Node@?$_Tree_nod@V?$_Tmap_traits@JPAVCDataObject@@U?$less@J@std@@V?$allocator@U?$pair@$$CBJPAVCDataObject@@@std@@@3@$0A@@std@@@2@@Z 0043bdd0 f i public:ColumnProperty.obj
 0001:0003ae20       ?_Rrotate@?$_Tree@V?$_Tmap_traits@JJU?$less@J@std@@V?$allocator@U?$pair@$$CBJJ@std@@@2@$0A@@std@@@std@@IAEXPAU_Node@?$_Tree_nod@V?$_Tmap_traits@JJU?$less@J@std@@V?$allocator@U?$pair@$$CBJJ@std@@@2@$0A@@std@@@2@@Z 0043be20 f i Net:Servers.obj
 0001:0003ae20       ?_Rrotate@?$_Tree@V?$_Tmap_traits@HPAVCDataBlock@@U?$less@H@std@@V?$allocator@U?$pair@$$CBHPAVCDataBlock@@@std@@@3@$0A@@std@@@std@@IAEXPAU_Node@?$_Tree_nod@V?$_Tmap_traits@HPAVCDataBlock@@U?$less@H@std@@V?$allocator@U?$pair@$$CBHPAVCDataBlock@@@std@@@3@$0A@@std@@@2@@Z 0043be20 f i Net:ServerClient.obj
 0001:0003ae20       ?_Rrotate@?$_Tree@V?$_Tmap_traits@JPAVCDataObject@@U?$less@J@std@@V?$allocator@U?$pair@$$CBJPAVCDataObject@@@std@@@3@$0A@@std@@@std@@IAEXPAU_Node@?$_Tree_nod@V?$_Tmap_traits@JPAVCDataObject@@U?$less@J@std@@V?$allocator@U?$pair@$$CBJPAVCDataObject@@@std@@@3@$0A@@std@@@2@@Z 0043be20 f i public:ColumnProperty.obj
 0001:0003ae20       ?_Rrotate@?$_Tree@V?$_Tmap_traits@JPAVCEntityProperty@@U?$less@J@std@@V?$allocator@U?$pair@$$CBJPAVCEntityProperty@@@std@@@3@$0A@@std@@@std@@IAEXPAU_Node@?$_Tree_nod@V?$_Tmap_traits@JPAVCEntityProperty@@U?$less@J@std@@V?$allocator@U?$pair@$$CBJPAVCEntityProperty@@@std@@@3@$0A@@std@@@2@@Z 0043be20 f i serverpublic:EntityProperty.obj
 0001:0003ae20       ?_Rrotate@?$_Tree@V?$_Tmap_traits@JPAVCServerClient@@U?$less@J@std@@V?$allocator@U?$pair@$$CBJPAVCServerClient@@@std@@@3@$0A@@std@@@std@@IAEXPAU_Node@?$_Tree_nod@V?$_Tmap_traits@JPAVCServerClient@@U?$less@J@std@@V?$allocator@U?$pair@$$CBJPAVCServerClient@@@std@@@3@$0A@@std@@@2@@Z 0043be20 f i Net:Servers.obj
 0001:0003ae20       ?_Rrotate@?$_Tree@V?$_Tmap_traits@JPAEU?$less@J@std@@V?$allocator@U?$pair@$$CBJPAE@std@@@2@$00@std@@@std@@IAEXPAU_Node@?$_Tree_nod@V?$_Tmap_traits@JPAEU?$less@J@std@@V?$allocator@U?$pair@$$CBJPAE@std@@@2@$00@std@@@2@@Z 0043be20 f i public:DataBlockAllocator.obj
 0001:0003ae20       ?_Rrotate@?$_Tree@V?$_Tmap_traits@PAEJU?$less@PAE@std@@V?$allocator@U?$pair@QAEJ@std@@@2@$0A@@std@@@std@@IAEXPAU_Node@?$_Tree_nod@V?$_Tmap_traits@PAEJU?$less@PAE@std@@V?$allocator@U?$pair@QAEJ@std@@@2@$0A@@std@@@2@@Z 0043be20 f i public:DataBlockAllocator.obj
 0001:0003ae20       ?_Rrotate@?$_Tree@V?$_Tmap_traits@KKU?$less@K@std@@V?$allocator@U?$pair@$$CBKK@std@@@2@$0A@@std@@@std@@IAEXPAU_Node@?$_Tree_nod@V?$_Tmap_traits@KKU?$less@K@std@@V?$allocator@U?$pair@$$CBKK@std@@@2@$0A@@std@@@2@@Z 0043be20 f i Net:Servers.obj
 0001:0003ae70       ?_Tidy@?$_Tree@V?$_Tmap_traits@KKU?$less@K@std@@V?$allocator@U?$pair@$$CBKK@std@@@2@$0A@@std@@@std@@IAEXXZ 0043be70 f i Net:Servers.obj
 0001:0003ae70       ?_Tidy@?$_Tree@V?$_Tmap_traits@PAEJU?$less@PAE@std@@V?$allocator@U?$pair@QAEJ@std@@@2@$0A@@std@@@std@@IAEXXZ 0043be70 f i public:DataBlockAllocator.obj
 0001:0003ae70       ?_Tidy@?$_Tree@V?$_Tmap_traits@JJU?$less@J@std@@V?$allocator@U?$pair@$$CBJJ@std@@@2@$0A@@std@@@std@@IAEXXZ 0043be70 f i Net:Servers.obj
 0001:0003ae70       ?_Tidy@?$_Tree@V?$_Tmap_traits@JPAEU?$less@J@std@@V?$allocator@U?$pair@$$CBJPAE@std@@@2@$00@std@@@std@@IAEXXZ 0043be70 f i public:DataBlockAllocator.obj
 0001:0003ae70       ?_Tidy@?$_Tree@V?$_Tmap_traits@JPAVCDataObject@@U?$less@J@std@@V?$allocator@U?$pair@$$CBJPAVCDataObject@@@std@@@3@$0A@@std@@@std@@IAEXXZ 0043be70 f i public:ColumnProperty.obj
 0001:0003ae70       ?_Tidy@?$_Tree@V?$_Tmap_traits@HPAVCDataBlock@@U?$less@H@std@@V?$allocator@U?$pair@$$CBHPAVCDataBlock@@@std@@@3@$0A@@std@@@std@@IAEXXZ 0043be70 f i Net:ServerClient.obj
 0001:0003aeb0       ?erase@?$_Tree@V?$_Tmap_traits@JPAEU?$less@J@std@@V?$allocator@U?$pair@$$CBJPAE@std@@@2@$00@std@@@std@@QAE?AViterator@12@V312@0@Z 0043beb0 f i public:DataBlockAllocator.obj
 0001:0003aeb0       ?erase@?$_Tree@V?$_Tmap_traits@JPAVCDataObject@@U?$less@J@std@@V?$allocator@U?$pair@$$CBJPAVCDataObject@@@std@@@3@$0A@@std@@@std@@QAE?AViterator@12@V312@0@Z 0043beb0 f i public:ColumnProperty.obj
 0001:0003aeb0       ?erase@?$_Tree@V?$_Tmap_traits@PAEJU?$less@PAE@std@@V?$allocator@U?$pair@QAEJ@std@@@2@$0A@@std@@@std@@QAE?AViterator@12@V312@0@Z 0043beb0 f i public:DataBlockAllocator.obj
 0001:0003aeb0       ?erase@?$_Tree@V?$_Tmap_traits@HPAVCDataBlock@@U?$less@H@std@@V?$allocator@U?$pair@$$CBHPAVCDataBlock@@@std@@@3@$0A@@std@@@std@@QAE?AViterator@12@V312@0@Z 0043beb0 f i Net:ServerClient.obj
 0001:0003aeb0       ?erase@?$_Tree@V?$_Tmap_traits@KKU?$less@K@std@@V?$allocator@U?$pair@$$CBKK@std@@@2@$0A@@std@@@std@@QAE?AViterator@12@V312@0@Z 0043beb0 f i Net:Servers.obj
 0001:0003aeb0       ?erase@?$_Tree@V?$_Tmap_traits@JJU?$less@J@std@@V?$allocator@U?$pair@$$CBJJ@std@@@2@$0A@@std@@@std@@QAE?AViterator@12@V312@0@Z 0043beb0 f i Net:Servers.obj
 0001:0003af80       ?Clear@tagRankInfo@@QAEXXZ 0043bf80 f i public:RankDef.obj
 0001:0003b0c0       ?AddToByteArray@tagRankInfo@@QAE_NPAV?$vector@EV?$allocator@E@std@@@std@@@Z 0043c0c0 f   public:RankDef.obj
 0001:0003b100       ?AddToByteArray@tagRankInfo@@QAE_NPAV?$vector@EV?$allocator@E@std@@@std@@JJ@Z 0043c100 f   public:RankDef.obj
 0001:0003b890       ?push_back@?$vector@UtagColInfo@@V?$allocator@UtagColInfo@@@std@@@std@@QAEXABUtagColInfo@@@Z 0043c890 f i public:RankDef.obj
 0001:0003b920       ?insert@?$vector@UtagColInfo@@V?$allocator@UtagColInfo@@@std@@@std@@QAE?AV?$_Vector_iterator@UtagColInfo@@V?$allocator@UtagColInfo@@@std@@@2@V32@ABUtagColInfo@@@Z 0043c920 f i public:RankDef.obj
 0001:0003b9c0       ?erase@?$vector@UtagColInfo@@V?$allocator@UtagColInfo@@@std@@@std@@QAE?AV?$_Vector_iterator@UtagColInfo@@V?$allocator@UtagColInfo@@@std@@@2@V32@0@Z 0043c9c0 f i public:RankDef.obj
 0001:0003ba40       ?_Ufill@?$vector@UtagColInfo@@V?$allocator@UtagColInfo@@@std@@@std@@IAEPAUtagColInfo@@PAU3@IABU3@@Z 0043ca40 f i public:RankDef.obj
 0001:0003ba80       ?insert@?$vector@PAVCTableManager@@V?$allocator@PAVCTableManager@@@std@@@std@@QAE?AV?$_Vector_iterator@PAVCTableManager@@V?$allocator@PAVCTableManager@@@std@@@2@V32@ABQAVCTableManager@@@Z 0043ca80 f i public:RankDef.obj
 0001:0003ba80       ?insert@?$vector@PAXV?$allocator@PAX@std@@@std@@QAE?AV?$_Vector_iterator@PAXV?$allocator@PAX@std@@@2@V32@ABQAX@Z 0043ca80 f i Net:Servers.obj
 0001:0003bb10       ?erase@?$vector@PAVCTableManager@@V?$allocator@PAVCTableManager@@@std@@@std@@QAE?AV?$_Vector_iterator@PAVCTableManager@@V?$allocator@PAVCTableManager@@@std@@@2@V32@0@Z 0043cb10 f i public:RankDef.obj
 0001:0003bb10       ?erase@?$vector@PAVCDataBlock@@V?$allocator@PAVCDataBlock@@@std@@@std@@QAE?AV?$_Vector_iterator@PAVCDataBlock@@V?$allocator@PAVCDataBlock@@@std@@@2@V32@0@Z 0043cb10 f i Net:BaseMessage.obj
 0001:0003bb70       ?_Ufill@?$vector@PAXV?$allocator@PAX@std@@@std@@IAEPAPAXPAPAXIABQAX@Z 0043cb70 f i Net:Servers.obj
 0001:0003bb70       ?_Ufill@?$vector@PAVCTableManager@@V?$allocator@PAVCTableManager@@@std@@@std@@IAEPAPAVCTableManager@@PAPAV3@IABQAV3@@Z 0043cb70 f i public:RankDef.obj
 0001:0003bba0       ?_Destroy@?$vector@UtagColInfo@@V?$allocator@UtagColInfo@@@std@@@std@@IAEXPAUtagColInfo@@0@Z 0043cba0 f i public:RankDef.obj
 0001:0003bbc0       ?_Insert_n@?$vector@UtagColInfo@@V?$allocator@UtagColInfo@@@std@@@std@@IAEXV?$_Vector_iterator@UtagColInfo@@V?$allocator@UtagColInfo@@@std@@@2@IABUtagColInfo@@@Z 0043cbc0 f i public:RankDef.obj
 0001:0003be70       ?_Insert_n@?$vector@PAXV?$allocator@PAX@std@@@std@@IAEXV?$_Vector_iterator@PAXV?$allocator@PAX@std@@@2@IABQAX@Z 0043ce70 f i Net:Servers.obj
 0001:0003be70       ?_Insert_n@?$vector@PAVCTableManager@@V?$allocator@PAVCTableManager@@@std@@@std@@IAEXV?$_Vector_iterator@PAVCTableManager@@V?$allocator@PAVCTableManager@@@std@@@2@IABQAVCTableManager@@@Z 0043ce70 f i public:RankDef.obj
 0001:0003c050       ??$_Umove@PAUtagColInfo@@@?$vector@UtagColInfo@@V?$allocator@UtagColInfo@@@std@@@std@@IAEPAUtagColInfo@@PAU2@00@Z 0043d050 f i public:RankDef.obj
 0001:0003c080       ??$fill@PAUtagColInfo@@U1@@std@@YAXPAUtagColInfo@@0ABU1@@Z 0043d080 f i public:RankDef.obj
 0001:0003c0b0       ??$_Unchecked_move_backward@PAUtagColInfo@@PAU1@@stdext@@YAPAUtagColInfo@@PAU1@00@Z 0043d0b0 f i public:RankDef.obj
 0001:0003c100       ??$_Allocate@UtagColInfo@@@std@@YAPAUtagColInfo@@IPAU1@@Z 0043d100 f i public:RankDef.obj
 0001:0003c160       ??$_Umove@PAPAX@?$vector@PAXV?$allocator@PAX@std@@@std@@IAEPAPAXPAPAX00@Z 0043d160 f i Net:Servers.obj
 0001:0003c160       ??$_Umove@PAPAVCTableManager@@@?$vector@PAVCTableManager@@V?$allocator@PAVCTableManager@@@std@@@std@@IAEPAPAVCTableManager@@PAPAV2@00@Z 0043d160 f i public:RankDef.obj
 0001:0003c160       ??$_Ucopy@PAPAVCDataBlock@@@?$vector@PAVCDataBlock@@V?$allocator@PAVCDataBlock@@@std@@@std@@IAEPAPAVCDataBlock@@PAPAV2@00@Z 0043d160 f i Net:BaseMessage.obj
 0001:0003c190       ??$_Allocate@PAVCTableManager@@@std@@YAPAPAVCTableManager@@IPAPAV1@@Z 0043d190 f i public:RankDef.obj
 0001:0003c190       ??$_Allocate@PAVCDataBlock@@@std@@YAPAPAVCDataBlock@@IPAPAV1@@Z 0043d190 f i Net:BaseMessage.obj
 0001:0003c190       ??$_Allocate@PAX@std@@YAPAPAXIPAPAX@Z 0043d190 f i Game.obj
 0001:0003c1f0       ??$_Uninit_fill_n@PAUtagColInfo@@IU1@V?$allocator@UtagColInfo@@@std@@@std@@YAXPAUtagColInfo@@IABU1@AAV?$allocator@UtagColInfo@@@0@U_Nonscalar_ptr_iterator_tag@0@U_Range_checked_iterator_tag@0@@Z 0043d1f0 f i public:RankDef.obj
 0001:0003c2b0       ??$_Destroy_range@UtagColInfo@@V?$allocator@UtagColInfo@@@std@@@std@@YAXPAUtagColInfo@@0AAV?$allocator@UtagColInfo@@@0@U_Nonscalar_ptr_iterator_tag@0@@Z 0043d2b0 f i public:RankDef.obj
 0001:0003c2f0       ?destroy@?$allocator@UtagColInfo@@@std@@QAEXPAUtagColInfo@@@Z 0043d2f0 f i public:RankDef.obj
 0001:0003c320       ??$_Copy_opt@PAUtagColInfo@@PAU1@Uforward_iterator_tag@std@@@std@@YAPAUtagColInfo@@PAU1@00Uforward_iterator_tag@0@U_Nonscalar_ptr_iterator_tag@0@U_Range_checked_iterator_tag@0@@Z 0043d320 f i public:RankDef.obj
 0001:0003c360       ??$_Copy_backward_opt@PAUtagColInfo@@PAU1@Uforward_iterator_tag@std@@@std@@YAPAUtagColInfo@@PAU1@00Uforward_iterator_tag@0@U_Nonscalar_ptr_iterator_tag@0@U_Range_checked_iterator_tag@0@@Z 0043d360 f i public:RankDef.obj
 0001:0003c3a0       ??$_Uninit_copy@PAUtagColInfo@@PAU1@V?$allocator@UtagColInfo@@@std@@@std@@YAPAUtagColInfo@@PAU1@00AAV?$allocator@UtagColInfo@@@0@U_Nonscalar_ptr_iterator_tag@0@U_Range_checked_iterator_tag@0@@Z 0043d3a0 f i public:RankDef.obj
 0001:0003c5f0       __lzo_config_check         0043d5f0 f   public:lzo_init.obj
 0001:0003c710       ___lzo_init2               0043d710 f   public:lzo_init.obj
 0001:0003c7b0       _lzo1x_decompress          0043d7b0 f   public:lzo1x_d1.obj
 0001:0003ca00       _uncompress                0043da00 f   public:uncompr.obj
 0001:0003cab0       ___lzo_align_gap           0043dab0 f   public:lzo_ptr.obj
 0001:0003d8a0       _inflateReset              0043e8a0 f   public:inflate.obj
 0001:0003d900       _inflateInit2_             0043e900 f   public:inflate.obj
 0001:0003d9d0       _inflateInit_              0043e9d0 f   public:inflate.obj
 0001:0003dae0       _inflate                   0043eae0 f   public:inflate.obj
 0001:0003f0e0       _inflateEnd                004400e0 f   public:inflate.obj
 0001:0003f130       _adler32                   00440130 f   public:adler32.obj
 0001:000408c0       __tr_stored_block          004418c0 f   public:trees.obj
 0001:00040960       __tr_flush_block           00441960 f   public:trees.obj
 0001:00040e10       _crc32                     00441e10 f   public:crc32.obj
 0001:00040e30       _zcalloc                   00441e30 f   public:zutil.obj
 0001:00040e50       _zcfree                    00441e50 f   public:zutil.obj
 0001:00040e60       _inflate_fast              00441e60 f   public:inffast.obj
 0001:00041320       _inflate_table             00442320 f   public:inftrees.obj
 0001:00041810       ??0CMessage@@QAE@J@Z       00442810 f   net:Message.obj
 0001:00041880       ??1CMessage@@UAE@XZ        00442880 f   net:Message.obj
 0001:000418e0       ?Reset@CMessage@@UAEXXZ    004428e0 f   net:Message.obj
 0001:000418f0       ?Release@CMessage@@SA_NXZ  004428f0 f   net:Message.obj
 0001:00041900       ?NewMessage@CMessage@@SAPAVCBaseMessage@@XZ 00442900 f   net:Message.obj
 0001:00041980       ??$_Allocate@U_List_position@?$_Hash@V?$_Hmap_traits@JJV?$hash_compare@JU?$less@J@std@@@stdext@@V?$allocator@U?$pair@$$CBJJ@std@@@std@@$0A@@stdext@@@stdext@@@std@@YAPAU_List_position@?$_Hash@V?$_Hmap_traits@JJV?$hash_compare@JU?$less@J@std@@@stdext@@V?$allocator@U?$pair@$$CBJJ@std@@@std@@$0A@@stdext@@@stdext@@IPAU123@@Z 00442980 f i net:Message.obj
 0001:000419e0       ?SetSocketID@CMessage@@UAEXJ@Z 004429e0 f i net:Message.obj
 0001:000419f0       ?GetSocketID@CMessage@@UAEJXZ 004429f0 f i net:Message.obj
 0001:00041a00       ?SetIP@CMessage@@UAEXK@Z   00442a00 f i net:Message.obj
 0001:00041a10       ?GetIP@CMessage@@UAEKXZ    00442a10 f i net:Message.obj
 0001:00041a20       ??_GCMessage@@UAEPAXI@Z    00442a20 f i net:Message.obj
 0001:00041a20       ??_ECMessage@@UAEPAXI@Z    00442a20 f i net:Message.obj
 0001:00041a40       ??$_Distance2@V?$_Iterator@$00@?$list@U?$pair@$$CBJJ@std@@V?$allocator@U?$pair@$$CBJJ@std@@@2@@std@@I@std@@YAXV?$_Iterator@$00@?$list@U?$pair@$$CBJJ@std@@V?$allocator@U?$pair@$$CBJJ@std@@@2@@0@0AAIUbidirectional_iterator_tag@0@@Z 00442a40 f i net:Message.obj
 0001:00041a90       ??$_Uninit_copy@PAU_List_position@?$_Hash@V?$_Hmap_traits@JJV?$hash_compare@JU?$less@J@std@@@stdext@@V?$allocator@U?$pair@$$CBJJ@std@@@std@@$0A@@stdext@@@stdext@@PAU123@V?$allocator@U_List_position@?$_Hash@V?$_Hmap_traits@JJV?$hash_compare@JU?$less@J@std@@@stdext@@V?$allocator@U?$pair@$$CBJJ@std@@@std@@$0A@@stdext@@@stdext@@@std@@@std@@YAPAU_List_position@?$_Hash@V?$_Hmap_traits@JJV?$hash_compare@JU?$less@J@std@@@stdext@@V?$allocator@U?$pair@$$CBJJ@std@@@std@@$0A@@stdext@@@stdext@@PAU123@00AAV?$allocator@U_List_position@?$_Hash@V?$_Hmap_traits@JJV?$hash_compare@JU?$less@J@std@@@stdext@@V?$allocator@U?$pair@$$CBJJ@std@@@std@@$0A@@stdext@@@stdext@@@0@U_Nonscalar_ptr_iterator_tag@0@U_Range_checked_iterator_tag@0@@Z 00442a90 f i net:Message.obj
 0001:00041ac0       ?AsyClearFile@CMessage@@SAXPBD@Z 00442ac0 f   net:Message.obj
 0001:00041b40       ?AsyWriteFile@CMessage@@SAXPBD0@Z 00442b40 f   net:Message.obj
 0001:00041bd0       ?Run@CMessage@@UAEJXZ      00442bd0 f   net:Message.obj
 0001:00041c40       ?_Buynode@?$list@U?$pair@$$CBJJ@std@@V?$allocator@U?$pair@$$CBJJ@std@@@2@@std@@IAEPAU_Node@?$_List_nod@U?$pair@$$CBJJ@std@@V?$allocator@U?$pair@$$CBJJ@std@@@2@@2@XZ 00442c40 f i net:Message.obj
 0001:00041c60       ?_Buynode@?$list@U?$pair@$$CBJJ@std@@V?$allocator@U?$pair@$$CBJJ@std@@@2@@std@@IAEPAU_Node@?$_List_nod@U?$pair@$$CBJJ@std@@V?$allocator@U?$pair@$$CBJJ@std@@@2@@2@PAU342@0ABU?$pair@$$CBJJ@2@@Z 00442c60 f i net:Message.obj
 0001:00041ca0       ??$fill@PAU_List_position@?$_Hash@V?$_Hmap_traits@JJV?$hash_compare@JU?$less@J@std@@@stdext@@V?$allocator@U?$pair@$$CBJJ@std@@@std@@$0A@@stdext@@@stdext@@U123@@std@@YAXPAU_List_position@?$_Hash@V?$_Hmap_traits@JJV?$hash_compare@JU?$less@J@std@@@stdext@@V?$allocator@U?$pair@$$CBJJ@std@@@std@@$0A@@stdext@@@stdext@@0ABU123@@Z 00442ca0 f i net:Message.obj
 0001:00041cd0       ??$_Uninit_fill_n@PAU_List_position@?$_Hash@V?$_Hmap_traits@JJV?$hash_compare@JU?$less@J@std@@@stdext@@V?$allocator@U?$pair@$$CBJJ@std@@@std@@$0A@@stdext@@@stdext@@IU123@V?$allocator@U_List_position@?$_Hash@V?$_Hmap_traits@JJV?$hash_compare@JU?$less@J@std@@@stdext@@V?$allocator@U?$pair@$$CBJJ@std@@@std@@$0A@@stdext@@@stdext@@@std@@@std@@YAXPAU_List_position@?$_Hash@V?$_Hmap_traits@JJV?$hash_compare@JU?$less@J@std@@@stdext@@V?$allocator@U?$pair@$$CBJJ@std@@@std@@$0A@@stdext@@@stdext@@IABU123@AAV?$allocator@U_List_position@?$_Hash@V?$_Hmap_traits@JJV?$hash_compare@JU?$less@J@std@@@stdext@@V?$allocator@U?$pair@$$CBJJ@std@@@std@@$0A@@stdext@@@stdext@@@0@U_Nonscalar_ptr_iterator_tag@0@U_Range_checked_iterator_tag@0@@Z 00442cd0 f i net:Message.obj
 0001:00041d00       ??$_Unchecked_move_backward@PAU_List_position@?$_Hash@V?$_Hmap_traits@JJV?$hash_compare@JU?$less@J@std@@@stdext@@V?$allocator@U?$pair@$$CBJJ@std@@@std@@$0A@@stdext@@@stdext@@PAU123@@stdext@@YAPAU_List_position@?$_Hash@V?$_Hmap_traits@JJV?$hash_compare@JU?$less@J@std@@@stdext@@V?$allocator@U?$pair@$$CBJJ@std@@@std@@$0A@@stdext@@@0@PAU120@00@Z 00442d00 f i net:Message.obj
 0001:00041d40       ?_Ufill@?$vector@U_List_position@?$_Hash@V?$_Hmap_traits@JJV?$hash_compare@JU?$less@J@std@@@stdext@@V?$allocator@U?$pair@$$CBJJ@std@@@std@@$0A@@stdext@@@stdext@@V?$allocator@U_List_position@?$_Hash@V?$_Hmap_traits@JJV?$hash_compare@JU?$less@J@std@@@stdext@@V?$allocator@U?$pair@$$CBJJ@std@@@std@@$0A@@stdext@@@stdext@@@std@@@std@@IAEPAU_List_position@?$_Hash@V?$_Hmap_traits@JJV?$hash_compare@JU?$less@J@std@@@stdext@@V?$allocator@U?$pair@$$CBJJ@std@@@std@@$0A@@stdext@@@stdext@@PAU345@IABU345@@Z 00442d40 f i net:Message.obj
 0001:00041d80       ?erase@?$_Hash@V?$_Hmap_traits@JJV?$hash_compare@JU?$less@J@std@@@stdext@@V?$allocator@U?$pair@$$CBJJ@std@@@std@@$0A@@stdext@@@stdext@@QAE?AV?$_Iterator@$00@?$list@U?$pair@$$CBJJ@std@@V?$allocator@U?$pair@$$CBJJ@std@@@2@@std@@V345@@Z 00442d80 f i net:Message.obj
 0001:00041ec0       ?lower_bound@?$_Hash@V?$_Hmap_traits@JJV?$hash_compare@JU?$less@J@std@@@stdext@@V?$allocator@U?$pair@$$CBJJ@std@@@std@@$0A@@stdext@@@stdext@@QAE?AV?$_Iterator@$00@?$list@U?$pair@$$CBJJ@std@@V?$allocator@U?$pair@$$CBJJ@std@@@2@@std@@ABJ@Z 00442ec0 f i net:Message.obj
 0001:00042010       ?equal_range@?$_Hash@V?$_Hmap_traits@JJV?$hash_compare@JU?$less@J@std@@@stdext@@V?$allocator@U?$pair@$$CBJJ@std@@@std@@$0A@@stdext@@@stdext@@QAE?AU?$pair@V?$_Iterator@$00@?$list@U?$pair@$$CBJJ@std@@V?$allocator@U?$pair@$$CBJJ@std@@@2@@std@@V123@@std@@ABJ@Z 00443010 f i net:Message.obj
 0001:00042180       ?erase@?$vector@U_List_position@?$_Hash@V?$_Hmap_traits@JJV?$hash_compare@JU?$less@J@std@@@stdext@@V?$allocator@U?$pair@$$CBJJ@std@@@std@@$0A@@stdext@@@stdext@@V?$allocator@U_List_position@?$_Hash@V?$_Hmap_traits@JJV?$hash_compare@JU?$less@J@std@@@stdext@@V?$allocator@U?$pair@$$CBJJ@std@@@std@@$0A@@stdext@@@stdext@@@std@@@std@@QAE?AV?$_Vector_iterator@U_List_position@?$_Hash@V?$_Hmap_traits@JJV?$hash_compare@JU?$less@J@std@@@stdext@@V?$allocator@U?$pair@$$CBJJ@std@@@std@@$0A@@stdext@@@stdext@@V?$allocator@U_List_position@?$_Hash@V?$_Hmap_traits@JJV?$hash_compare@JU?$less@J@std@@@stdext@@V?$allocator@U?$pair@$$CBJJ@std@@@std@@$0A@@stdext@@@stdext@@@std@@@2@V32@0@Z 00443180 f i net:Message.obj
 0001:000421f0       ??$_Umove@PAU_List_position@?$_Hash@V?$_Hmap_traits@JJV?$hash_compare@JU?$less@J@std@@@stdext@@V?$allocator@U?$pair@$$CBJJ@std@@@std@@$0A@@stdext@@@stdext@@@?$vector@U_List_position@?$_Hash@V?$_Hmap_traits@JJV?$hash_compare@JU?$less@J@std@@@stdext@@V?$allocator@U?$pair@$$CBJJ@std@@@std@@$0A@@stdext@@@stdext@@V?$allocator@U_List_position@?$_Hash@V?$_Hmap_traits@JJV?$hash_compare@JU?$less@J@std@@@stdext@@V?$allocator@U?$pair@$$CBJJ@std@@@std@@$0A@@stdext@@@stdext@@@std@@@std@@IAEPAU_List_position@?$_Hash@V?$_Hmap_traits@JJV?$hash_compare@JU?$less@J@std@@@stdext@@V?$allocator@U?$pair@$$CBJJ@std@@@std@@$0A@@stdext@@@stdext@@PAU234@00@Z 004431f0 f i net:Message.obj
 0001:00042220       ?GetSocketByWSID@CMessage@@SAJJ@Z 00443220 f   net:Message.obj
 0001:00042290       ?GetWSIDBySocket@CMessage@@SAJJ@Z 00443290 f   net:Message.obj
 0001:00042300       ?_Incsize@?$list@U?$pair@$$CBJJ@std@@V?$allocator@U?$pair@$$CBJJ@std@@@2@@std@@IAEXI@Z 00443300 f i net:Message.obj
 0001:000423a0       ?_Insert_n@?$vector@U_List_position@?$_Hash@V?$_Hmap_traits@JJV?$hash_compare@JU?$less@J@std@@@stdext@@V?$allocator@U?$pair@$$CBJJ@std@@@std@@$0A@@stdext@@@stdext@@V?$allocator@U_List_position@?$_Hash@V?$_Hmap_traits@JJV?$hash_compare@JU?$less@J@std@@@stdext@@V?$allocator@U?$pair@$$CBJJ@std@@@std@@$0A@@stdext@@@stdext@@@std@@@std@@IAEXV?$_Vector_iterator@U_List_position@?$_Hash@V?$_Hmap_traits@JJV?$hash_compare@JU?$less@J@std@@@stdext@@V?$allocator@U?$pair@$$CBJJ@std@@@std@@$0A@@stdext@@@stdext@@V?$allocator@U_List_position@?$_Hash@V?$_Hmap_traits@JJV?$hash_compare@JU?$less@J@std@@@stdext@@V?$allocator@U?$pair@$$CBJJ@std@@@std@@$0A@@stdext@@@stdext@@@std@@@2@IABU_List_position@?$_Hash@V?$_Hmap_traits@JJV?$hash_compare@JU?$less@J@std@@@stdext@@V?$allocator@U?$pair@$$CBJJ@std@@@std@@$0A@@stdext@@@stdext@@@Z 004433a0 f i net:Message.obj
 0001:00042600       ?resize@?$vector@U_List_position@?$_Hash@V?$_Hmap_traits@JJV?$hash_compare@JU?$less@J@std@@@stdext@@V?$allocator@U?$pair@$$CBJJ@std@@@std@@$0A@@stdext@@@stdext@@V?$allocator@U_List_position@?$_Hash@V?$_Hmap_traits@JJV?$hash_compare@JU?$less@J@std@@@stdext@@V?$allocator@U?$pair@$$CBJJ@std@@@std@@$0A@@stdext@@@stdext@@@std@@@std@@QAEXIU_List_position@?$_Hash@V?$_Hmap_traits@JJV?$hash_compare@JU?$less@J@std@@@stdext@@V?$allocator@U?$pair@$$CBJJ@std@@@std@@$0A@@stdext@@@stdext@@@Z 00443600 f i net:Message.obj
 0001:000426b0       ?_Construct_n@?$vector@U_List_position@?$_Hash@V?$_Hmap_traits@JJV?$hash_compare@JU?$less@J@std@@@stdext@@V?$allocator@U?$pair@$$CBJJ@std@@@std@@$0A@@stdext@@@stdext@@V?$allocator@U_List_position@?$_Hash@V?$_Hmap_traits@JJV?$hash_compare@JU?$less@J@std@@@stdext@@V?$allocator@U?$pair@$$CBJJ@std@@@std@@$0A@@stdext@@@stdext@@@std@@@std@@QAEXIABU_List_position@?$_Hash@V?$_Hmap_traits@JJV?$hash_compare@JU?$less@J@std@@@stdext@@V?$allocator@U?$pair@$$CBJJ@std@@@std@@$0A@@stdext@@@stdext@@@Z 004436b0 f i net:Message.obj
 0001:00042770       ?SendToSocket@CMessage@@QAEJJ@Z 00443770 f   net:Message.obj
 0001:00042820       ?SendWSID@CMessage@@QAEJJ@Z 00443820 f   net:Message.obj
 0001:00042850       ?_Assign_n@?$vector@U_List_position@?$_Hash@V?$_Hmap_traits@JJV?$hash_compare@JU?$less@J@std@@@stdext@@V?$allocator@U?$pair@$$CBJJ@std@@@std@@$0A@@stdext@@@stdext@@V?$allocator@U_List_position@?$_Hash@V?$_Hmap_traits@JJV?$hash_compare@JU?$less@J@std@@@stdext@@V?$allocator@U?$pair@$$CBJJ@std@@@std@@$0A@@stdext@@@stdext@@@std@@@std@@IAEXIABU_List_position@?$_Hash@V?$_Hmap_traits@JJV?$hash_compare@JU?$less@J@std@@@stdext@@V?$allocator@U?$pair@$$CBJJ@std@@@std@@$0A@@stdext@@@stdext@@@Z 00443850 f i net:Message.obj
 0001:000428c0       ??0?$_Hash@V?$_Hmap_traits@JJV?$hash_compare@JU?$less@J@std@@@stdext@@V?$allocator@U?$pair@$$CBJJ@std@@@std@@$0A@@stdext@@@stdext@@QAE@ABV?$hash_compare@JU?$less@J@std@@@1@ABV?$allocator@U?$pair@$$CBJJ@std@@@std@@@Z 004438c0 f i net:Message.obj
 0001:00042950       ?insert@?$_Hash@V?$_Hmap_traits@JJV?$hash_compare@JU?$less@J@std@@@stdext@@V?$allocator@U?$pair@$$CBJJ@std@@@std@@$0A@@stdext@@@stdext@@QAE?AU?$pair@V?$_Iterator@$00@?$list@U?$pair@$$CBJJ@std@@V?$allocator@U?$pair@$$CBJJ@std@@@2@@std@@_N@std@@ABU?$pair@$$CBJJ@4@@Z 00443950 f i net:Message.obj
 0001:00042e30       ??A?$hash_map@JJV?$hash_compare@JU?$less@J@std@@@stdext@@V?$allocator@U?$pair@$$CBJJ@std@@@std@@@stdext@@QAEAAJABJ@Z 00443e30 f i net:Message.obj
 0001:00042ec0       ?clear@?$_Hash@V?$_Hmap_traits@JJV?$hash_compare@JU?$less@J@std@@@stdext@@V?$allocator@U?$pair@$$CBJJ@std@@@std@@$0A@@stdext@@@stdext@@QAEXXZ 00443ec0 f i net:Message.obj
 0001:00042f30       ?erase@?$_Hash@V?$_Hmap_traits@JJV?$hash_compare@JU?$less@J@std@@@stdext@@V?$allocator@U?$pair@$$CBJJ@std@@@std@@$0A@@stdext@@@stdext@@QAE?AV?$_Iterator@$00@?$list@U?$pair@$$CBJJ@std@@V?$allocator@U?$pair@$$CBJJ@std@@@2@@std@@V345@0@Z 00443f30 f i net:Message.obj
 0001:00042ff0       ?Initial@CMessage@@SA_NPAVCDataBlockAllocator@@J@Z 00443ff0 f   net:Message.obj
 0001:00043020       ?MapWSIDSocket@CMessage@@SAXJJ@Z 00444020 f   net:Message.obj
 0001:00043050       ?erase@?$_Hash@V?$_Hmap_traits@JJV?$hash_compare@JU?$less@J@std@@@stdext@@V?$allocator@U?$pair@$$CBJJ@std@@@std@@$0A@@stdext@@@stdext@@QAEIABJ@Z 00444050 f i net:Message.obj
 0001:000430c0       ?UnMapWSIDSocket@CMessage@@SAXJ@Z 004440c0 f   net:Message.obj
 0001:00043140       ?DefaultRun@CMessage@@UAEJXZ 00444140 f   net:Message.obj
 0001:00043190       ??9CGUID@@QBE_NABV0@@Z     00444190 f i app:EntityManager.obj
 0001:000431e0       ?AddMailThreadQuitEventHandle@CEntityManager@@QAE_NAAPAX@Z 004441e0 f   app:EntityManager.obj
 0001:00043200       ?ReLoadRanks@CEntityManager@@QAEXXZ 00444200 f   app:EntityManager.obj
 0001:00043210       ?size@?$vector@PAVCTempEntityProperty@@V?$allocator@PAVCTempEntityProperty@@@std@@@std@@QBEIXZ 00444210 f i app:EntityManager.obj
 0001:00043230       ??A?$vector@PAVCTempEntityProperty@@V?$allocator@PAVCTempEntityProperty@@@std@@@std@@QAEAAPAVCTempEntityProperty@@I@Z 00444230 f i app:EntityManager.obj
 0001:00043260       ?size@?$vector@UtagDbIdxInfo@@V?$allocator@UtagDbIdxInfo@@@std@@@std@@QBEIXZ 00444260 f i app:EntityManager.obj
 0001:00043280       ??C?$_com_ptr_t@V?$_com_IIID@U_Command@@$1?_GUID_b08400bd_f9d1_4d02_b856_71d5dba123e9@@3U__s_GUID@@B@@@@QBEPAU_Command@@XZ 00444280 f i app:EntityManager.obj
 0001:000432a0       ?size@?$vector@V?$basic_string@DU?$char_traits@D@std@@V?$allocator@D@2@@std@@V?$allocator@V?$basic_string@DU?$char_traits@D@std@@V?$allocator@D@2@@std@@@2@@std@@QBEIXZ 004442a0 f i app:EntityManager.obj
 0001:000432d0       ??E?$_Const_iterator@$00@?$list@PAUThreadData@@V?$allocator@PAUThreadData@@@std@@@std@@QAEAAV012@XZ 004442d0 f i app:EntityManager.obj
 0001:000432d0       ??E?$_Iterator@$00@?$list@PAUThreadData@@V?$allocator@PAUThreadData@@@std@@@std@@QAEAAV012@XZ 004442d0 f i app:EntityManager.obj
 0001:000432d0       ??E?$_Const_iterator@$00@?$list@VCGUID@@V?$allocator@VCGUID@@@std@@@std@@QAEAAV012@XZ 004442d0 f i app:EntityManager.obj
 0001:00043300       ??8const_iterator@?$_Tree@V?$_Tmap_traits@V?$basic_string@DU?$char_traits@D@std@@V?$allocator@D@2@@std@@VCGUID@@U?$less@V?$basic_string@DU?$char_traits@D@std@@V?$allocator@D@2@@std@@@2@V?$allocator@U?$pair@$$CBV?$basic_string@DU?$char_traits@D@std@@V?$allocator@D@2@@std@@VCGUID@@@std@@@2@$0A@@std@@@std@@QBE_NABV012@@Z 00444300 f i app:EntityManager.obj
 0001:00043300       ??8const_iterator@?$_Tree@V?$_Tmap_traits@V?$basic_string@DU?$char_traits@D@std@@V?$allocator@D@2@@std@@V?$map@W4DB_OPERATION_TYPE@@V?$basic_string@DU?$char_traits@D@std@@V?$allocator@D@2@@std@@U?$less@W4DB_OPERATION_TYPE@@@3@V?$allocator@U?$pair@$$CBW4DB_OPERATION_TYPE@@V?$basic_string@DU?$char_traits@D@std@@V?$allocator@D@2@@std@@@std@@@3@@2@U?$less@V?$basic_string@DU?$char_traits@D@std@@V?$allocator@D@2@@std@@@2@V?$allocator@U?$pair@$$CBV?$basic_string@DU?$char_traits@D@std@@V?$allocator@D@2@@std@@V?$map@W4DB_OPERATION_TYPE@@V?$basic_string@DU?$char_traits@D@std@@V?$allocator@D@2@@std@@U?$less@W4DB_OPERATION_TYPE@@@3@V?$allocator@U?$pair@$$CBW4DB_OPERATION_TYPE@@V?$basic_string@DU?$char_traits@D@std@@V?$allocator@D@2@@std@@@std@@@3@@2@@std@@@2@$0A@@std@@@std@@QBE_NABV012@@Z 00444300 f i app:EntityManager.obj
 0001:00043300       ??8const_iterator@?$_Tree@V?$_Tmap_traits@JPAUtagRankInfo@@U?$less@J@std@@V?$allocator@U?$pair@$$CBJPAUtagRankInfo@@@std@@@3@$0A@@std@@@std@@QBE_NABV012@@Z 00444300 f i app:EntityManager.obj
 0001:00043300       ??8const_iterator@?$_Tree@V?$_Tmap_traits@W4DB_OPERATION_TYPE@@V?$basic_string@DU?$char_traits@D@std@@V?$allocator@D@2@@std@@U?$less@W4DB_OPERATION_TYPE@@@3@V?$allocator@U?$pair@$$CBW4DB_OPERATION_TYPE@@V?$basic_string@DU?$char_traits@D@std@@V?$allocator@D@2@@std@@@std@@@3@$0A@@std@@@std@@QBE_NABV012@@Z 00444300 f i app:EntityManager.obj
 0001:00043300       ??8const_iterator@?$_Tree@V?$_Tmap_traits@JPAVDBThread@@U?$less@J@std@@V?$allocator@U?$pair@$$CBJPAVDBThread@@@std@@@3@$0A@@std@@@std@@QBE_NABV012@@Z 00444300 f i app:EntityManager.obj
 0001:00043300       ??8const_iterator@?$_Tree@V?$_Tmap_traits@JUtagRankConfig@@U?$less@J@std@@V?$allocator@U?$pair@$$CBJUtagRankConfig@@@std@@@3@$0A@@std@@@std@@QBE_NABV012@@Z 00444300 f i app:EntityManager.obj
 0001:00043300       ??8const_iterator@?$_Tree@V?$_Tmap_traits@JV?$basic_string@DU?$char_traits@D@std@@V?$allocator@D@2@@std@@U?$less@J@2@V?$allocator@U?$pair@$$CBJV?$basic_string@DU?$char_traits@D@std@@V?$allocator@D@2@@std@@@std@@@2@$0A@@std@@@std@@QBE_NABV012@@Z 00444300 f i app:EntityManager.obj
 0001:00043330       ?_Max@?$_Tree@V?$_Tmap_traits@JV?$basic_string@DU?$char_traits@D@std@@V?$allocator@D@2@@std@@U?$less@J@2@V?$allocator@U?$pair@$$CBJV?$basic_string@DU?$char_traits@D@std@@V?$allocator@D@2@@std@@@std@@@2@$0A@@std@@@std@@KAPAU_Node@?$_Tree_nod@V?$_Tmap_traits@JV?$basic_string@DU?$char_traits@D@std@@V?$allocator@D@2@@std@@U?$less@J@2@V?$allocator@U?$pair@$$CBJV?$basic_string@DU?$char_traits@D@std@@V?$allocator@D@2@@std@@@std@@@2@$0A@@std@@@2@PAU342@@Z 00444330 f i app:EntityManager.obj
 0001:00043330       ?_Max@?$_Tree@V?$_Tmap_traits@V?$basic_string@DU?$char_traits@D@std@@V?$allocator@D@2@@std@@PAUtagBuildFileInfo@@U?$less@V?$basic_string@DU?$char_traits@D@std@@V?$allocator@D@2@@std@@@2@V?$allocator@U?$pair@$$CBV?$basic_string@DU?$char_traits@D@std@@V?$allocator@D@2@@std@@PAUtagBuildFileInfo@@@std@@@2@$0A@@std@@@std@@KAPAU_Node@?$_Tree_nod@V?$_Tmap_traits@V?$basic_string@DU?$char_traits@D@std@@V?$allocator@D@2@@std@@PAUtagBuildFileInfo@@U?$less@V?$basic_string@DU?$char_traits@D@std@@V?$allocator@D@2@@std@@@2@V?$allocator@U?$pair@$$CBV?$basic_string@DU?$char_traits@D@std@@V?$allocator@D@2@@std@@PAUtagBuildFileInfo@@@std@@@2@$0A@@std@@@2@PAU342@@Z 00444330 f i app:EntityManager.obj
 0001:00043330       ?_Max@?$_Tree@V?$_Tmap_traits@W4DB_OPERATION_TYPE@@V?$basic_string@DU?$char_traits@D@std@@V?$allocator@D@2@@std@@U?$less@W4DB_OPERATION_TYPE@@@3@V?$allocator@U?$pair@$$CBW4DB_OPERATION_TYPE@@V?$basic_string@DU?$char_traits@D@std@@V?$allocator@D@2@@std@@@std@@@3@$0A@@std@@@std@@KAPAU_Node@?$_Tree_nod@V?$_Tmap_traits@W4DB_OPERATION_TYPE@@V?$basic_string@DU?$char_traits@D@std@@V?$allocator@D@2@@std@@U?$less@W4DB_OPERATION_TYPE@@@3@V?$allocator@U?$pair@$$CBW4DB_OPERATION_TYPE@@V?$basic_string@DU?$char_traits@D@std@@V?$allocator@D@2@@std@@@std@@@3@$0A@@std@@@2@PAU342@@Z 00444330 f i app:EntityManager.obj
 0001:00043330       ?_Max@?$_Tree@V?$_Tmap_traits@V?$basic_string@DU?$char_traits@D@std@@V?$allocator@D@2@@std@@PAUtagEntityBuildInfo@@U?$less@V?$basic_string@DU?$char_traits@D@std@@V?$allocator@D@2@@std@@@2@V?$allocator@U?$pair@$$CBV?$basic_string@DU?$char_traits@D@std@@V?$allocator@D@2@@std@@PAUtagEntityBuildInfo@@@std@@@2@$0A@@std@@@std@@KAPAU_Node@?$_Tree_nod@V?$_Tmap_traits@V?$basic_string@DU?$char_traits@D@std@@V?$allocator@D@2@@std@@PAUtagEntityBuildInfo@@U?$less@V?$basic_string@DU?$char_traits@D@std@@V?$allocator@D@2@@std@@@2@V?$allocator@U?$pair@$$CBV?$basic_string@DU?$char_traits@D@std@@V?$allocator@D@2@@std@@PAUtagEntityBuildInfo@@@std@@@2@$0A@@std@@@2@PAU342@@Z 00444330 f i app:EntityManager.obj
 0001:00043350       ?_Min@?$_Tree@V?$_Tmap_traits@JV?$basic_string@DU?$char_traits@D@std@@V?$allocator@D@2@@std@@U?$less@J@2@V?$allocator@U?$pair@$$CBJV?$basic_string@DU?$char_traits@D@std@@V?$allocator@D@2@@std@@@std@@@2@$0A@@std@@@std@@KAPAU_Node@?$_Tree_nod@V?$_Tmap_traits@JV?$basic_string@DU?$char_traits@D@std@@V?$allocator@D@2@@std@@U?$less@J@2@V?$allocator@U?$pair@$$CBJV?$basic_string@DU?$char_traits@D@std@@V?$allocator@D@2@@std@@@std@@@2@$0A@@std@@@2@PAU342@@Z 00444350 f i app:EntityManager.obj
 0001:00043350       ?_Min@?$_Tree@V?$_Tmap_traits@W4DB_OPERATION_TYPE@@V?$basic_string@DU?$char_traits@D@std@@V?$allocator@D@2@@std@@U?$less@W4DB_OPERATION_TYPE@@@3@V?$allocator@U?$pair@$$CBW4DB_OPERATION_TYPE@@V?$basic_string@DU?$char_traits@D@std@@V?$allocator@D@2@@std@@@std@@@3@$0A@@std@@@std@@KAPAU_Node@?$_Tree_nod@V?$_Tmap_traits@W4DB_OPERATION_TYPE@@V?$basic_string@DU?$char_traits@D@std@@V?$allocator@D@2@@std@@U?$less@W4DB_OPERATION_TYPE@@@3@V?$allocator@U?$pair@$$CBW4DB_OPERATION_TYPE@@V?$basic_string@DU?$char_traits@D@std@@V?$allocator@D@2@@std@@@std@@@3@$0A@@std@@@2@PAU342@@Z 00444350 f i app:EntityManager.obj
 0001:00043370       ?_Min@?$_Tree@V?$_Tmap_traits@JPAVDBThread@@U?$less@J@std@@V?$allocator@U?$pair@$$CBJPAVDBThread@@@std@@@3@$0A@@std@@@std@@KAPAU_Node@?$_Tree_nod@V?$_Tmap_traits@JPAVDBThread@@U?$less@J@std@@V?$allocator@U?$pair@$$CBJPAVDBThread@@@std@@@3@$0A@@std@@@2@PAU342@@Z 00444370 f i app:EntityManager.obj
 0001:00043370       ?_Min@?$_Tree@V?$_Tmap_traits@JPAUtagRankInfo@@U?$less@J@std@@V?$allocator@U?$pair@$$CBJPAUtagRankInfo@@@std@@@3@$0A@@std@@@std@@KAPAU_Node@?$_Tree_nod@V?$_Tmap_traits@JPAUtagRankInfo@@U?$less@J@std@@V?$allocator@U?$pair@$$CBJPAUtagRankInfo@@@std@@@3@$0A@@std@@@2@PAU342@@Z 00444370 f i app:EntityManager.obj
 0001:00043390       ?_Rrotate@?$_Tree@V?$_Tmap_traits@V?$basic_string@DU?$char_traits@D@std@@V?$allocator@D@2@@std@@V?$map@W4DB_OPERATION_TYPE@@V?$basic_string@DU?$char_traits@D@std@@V?$allocator@D@2@@std@@U?$less@W4DB_OPERATION_TYPE@@@3@V?$allocator@U?$pair@$$CBW4DB_OPERATION_TYPE@@V?$basic_string@DU?$char_traits@D@std@@V?$allocator@D@2@@std@@@std@@@3@@2@U?$less@V?$basic_string@DU?$char_traits@D@std@@V?$allocator@D@2@@std@@@2@V?$allocator@U?$pair@$$CBV?$basic_string@DU?$char_traits@D@std@@V?$allocator@D@2@@std@@V?$map@W4DB_OPERATION_TYPE@@V?$basic_string@DU?$char_traits@D@std@@V?$allocator@D@2@@std@@U?$less@W4DB_OPERATION_TYPE@@@3@V?$allocator@U?$pair@$$CBW4DB_OPERATION_TYPE@@V?$basic_string@DU?$char_traits@D@std@@V?$allocator@D@2@@std@@@std@@@3@@2@@std@@@2@$0A@@std@@@std@@IAEXPAU_Node@?$_Tree_nod@V?$_Tmap_traits@V?$basic_string@DU?$char_traits@D@std@@V?$allocator@D@2@@std@@V?$map@W4DB_OPERATION_TYPE@@V?$basic_string@DU?$char_traits@D@std@@V?$allocator@D@2@@std@@U?$less@W4DB_OPERATION_TYPE@@@3@V?$allocator@U?$pair@$$CBW4DB_OPERATION_TYPE@@V?$basic_string@DU?$char_traits@D@std@@V?$allocator@D@2@@std@@@std@@@3@@2@U?$less@V?$basic_string@DU?$char_traits@D@std@@V?$allocator@D@2@@std@@@2@V?$allocator@U?$pair@$$CBV?$basic_string@DU?$char_traits@D@std@@V?$allocator@D@2@@std@@V?$map@W4DB_OPERATION_TYPE@@V?$basic_string@DU?$char_traits@D@std@@V?$allocator@D@2@@std@@U?$less@W4DB_OPERATION_TYPE@@@3@V?$allocator@U?$pair@$$CBW4DB_OPERATION_TYPE@@V?$basic_string@DU?$char_traits@D@std@@V?$allocator@D@2@@std@@@std@@@3@@2@@std@@@2@$0A@@std@@@2@@Z 00444390 f i app:EntityManager.obj
 0001:000433f0       ?_Max@?$_Tree@V?$_Tmap_traits@JPAVDBThread@@U?$less@J@std@@V?$allocator@U?$pair@$$CBJPAVDBThread@@@std@@@3@$0A@@std@@@std@@KAPAU_Node@?$_Tree_nod@V?$_Tmap_traits@JPAVDBThread@@U?$less@J@std@@V?$allocator@U?$pair@$$CBJPAVDBThread@@@std@@@3@$0A@@std@@@2@PAU342@@Z 004443f0 f i app:EntityManager.obj
 0001:000433f0       ?_Max@?$_Tree@V?$_Tmap_traits@JPAUtagRankInfo@@U?$less@J@std@@V?$allocator@U?$pair@$$CBJPAUtagRankInfo@@@std@@@3@$0A@@std@@@std@@KAPAU_Node@?$_Tree_nod@V?$_Tmap_traits@JPAUtagRankInfo@@U?$less@J@std@@V?$allocator@U?$pair@$$CBJPAUtagRankInfo@@@std@@@3@$0A@@std@@@2@PAU342@@Z 004443f0 f i app:EntityManager.obj
 0001:00043410       ?_Max@?$_Tree@V?$_Tmap_traits@V?$basic_string@DU?$char_traits@D@std@@V?$allocator@D@2@@std@@V?$map@W4DB_OPERATION_TYPE@@V?$basic_string@DU?$char_traits@D@std@@V?$allocator@D@2@@std@@U?$less@W4DB_OPERATION_TYPE@@@3@V?$allocator@U?$pair@$$CBW4DB_OPERATION_TYPE@@V?$basic_string@DU?$char_traits@D@std@@V?$allocator@D@2@@std@@@std@@@3@@2@U?$less@V?$basic_string@DU?$char_traits@D@std@@V?$allocator@D@2@@std@@@2@V?$allocator@U?$pair@$$CBV?$basic_string@DU?$char_traits@D@std@@V?$allocator@D@2@@std@@V?$map@W4DB_OPERATION_TYPE@@V?$basic_string@DU?$char_traits@D@std@@V?$allocator@D@2@@std@@U?$less@W4DB_OPERATION_TYPE@@@3@V?$allocator@U?$pair@$$CBW4DB_OPERATION_TYPE@@V?$basic_string@DU?$char_traits@D@std@@V?$allocator@D@2@@std@@@std@@@3@@2@@std@@@2@$0A@@std@@@std@@KAPAU_Node@?$_Tree_nod@V?$_Tmap_traits@V?$basic_string@DU?$char_traits@D@std@@V?$allocator@D@2@@std@@V?$map@W4DB_OPERATION_TYPE@@V?$basic_string@DU?$char_traits@D@std@@V?$allocator@D@2@@std@@U?$less@W4DB_OPERATION_TYPE@@@3@V?$allocator@U?$pair@$$CBW4DB_OPERATION_TYPE@@V?$basic_string@DU?$char_traits@D@std@@V?$allocator@D@2@@std@@@std@@@3@@2@U?$less@V?$basic_string@DU?$char_traits@D@std@@V?$allocator@D@2@@std@@@2@V?$allocator@U?$pair@$$CBV?$basic_string@DU?$char_traits@D@std@@V?$allocator@D@2@@std@@V?$map@W4DB_OPERATION_TYPE@@V?$basic_string@DU?$char_traits@D@std@@V?$allocator@D@2@@std@@U?$less@W4DB_OPERATION_TYPE@@@3@V?$allocator@U?$pair@$$CBW4DB_OPERATION_TYPE@@V?$basic_string@DU?$char_traits@D@std@@V?$allocator@D@2@@std@@@std@@@3@@2@@std@@@2@$0A@@std@@@2@PAU342@@Z 00444410 f i app:EntityManager.obj
 0001:00043430       ?_Min@?$_Tree@V?$_Tmap_traits@V?$basic_string@DU?$char_traits@D@std@@V?$allocator@D@2@@std@@V?$map@W4DB_OPERATION_TYPE@@V?$basic_string@DU?$char_traits@D@std@@V?$allocator@D@2@@std@@U?$less@W4DB_OPERATION_TYPE@@@3@V?$allocator@U?$pair@$$CBW4DB_OPERATION_TYPE@@V?$basic_string@DU?$char_traits@D@std@@V?$allocator@D@2@@std@@@std@@@3@@2@U?$less@V?$basic_string@DU?$char_traits@D@std@@V?$allocator@D@2@@std@@@2@V?$allocator@U?$pair@$$CBV?$basic_string@DU?$char_traits@D@std@@V?$allocator@D@2@@std@@V?$map@W4DB_OPERATION_TYPE@@V?$basic_string@DU?$char_traits@D@std@@V?$allocator@D@2@@std@@U?$less@W4DB_OPERATION_TYPE@@@3@V?$allocator@U?$pair@$$CBW4DB_OPERATION_TYPE@@V?$basic_string@DU?$char_traits@D@std@@V?$allocator@D@2@@std@@@std@@@3@@2@@std@@@2@$0A@@std@@@std@@KAPAU_Node@?$_Tree_nod@V?$_Tmap_traits@V?$basic_string@DU?$char_traits@D@std@@V?$allocator@D@2@@std@@V?$map@W4DB_OPERATION_TYPE@@V?$basic_string@DU?$char_traits@D@std@@V?$allocator@D@2@@std@@U?$less@W4DB_OPERATION_TYPE@@@3@V?$allocator@U?$pair@$$CBW4DB_OPERATION_TYPE@@V?$basic_string@DU?$char_traits@D@std@@V?$allocator@D@2@@std@@@std@@@3@@2@U?$less@V?$basic_string@DU?$char_traits@D@std@@V?$allocator@D@2@@std@@@2@V?$allocator@U?$pair@$$CBV?$basic_string@DU?$char_traits@D@std@@V?$allocator@D@2@@std@@V?$map@W4DB_OPERATION_TYPE@@V?$basic_string@DU?$char_traits@D@std@@V?$allocator@D@2@@std@@U?$less@W4DB_OPERATION_TYPE@@@3@V?$allocator@U?$pair@$$CBW4DB_OPERATION_TYPE@@V?$basic_string@DU?$char_traits@D@std@@V?$allocator@D@2@@std@@@std@@@3@@2@@std@@@2@$0A@@std@@@2@PAU342@@Z 00444430 f i app:EntityManager.obj
 0001:00043450       ?_Max@?$_Tree@V?$_Tmap_traits@JUtagRankConfig@@U?$less@J@std@@V?$allocator@U?$pair@$$CBJUtagRankConfig@@@std@@@3@$0A@@std@@@std@@KAPAU_Node@?$_Tree_nod@V?$_Tmap_traits@JUtagRankConfig@@U?$less@J@std@@V?$allocator@U?$pair@$$CBJUtagRankConfig@@@std@@@3@$0A@@std@@@2@PAU342@@Z 00444450 f i app:EntityManager.obj
 0001:00043470       ?_Min@?$_Tree@V?$_Tmap_traits@JUtagRankConfig@@U?$less@J@std@@V?$allocator@U?$pair@$$CBJUtagRankConfig@@@std@@@3@$0A@@std@@@std@@KAPAU_Node@?$_Tree_nod@V?$_Tmap_traits@JUtagRankConfig@@U?$less@J@std@@V?$allocator@U?$pair@$$CBJUtagRankConfig@@@std@@@3@$0A@@std@@@2@PAU342@@Z 00444470 f i app:EntityManager.obj
 0001:00043490       ?_Dec@const_iterator@?$_Tree@V?$_Tmap_traits@V?$basic_string@DU?$char_traits@D@std@@V?$allocator@D@2@@std@@V?$map@VCGUID@@PAVCEntityGroup@@U?$less@VCGUID@@@std@@V?$allocator@U?$pair@$$CBVCGUID@@PAVCEntityGroup@@@std@@@4@@2@U?$less@V?$basic_string@DU?$char_traits@D@std@@V?$allocator@D@2@@std@@@2@V?$allocator@U?$pair@$$CBV?$basic_string@DU?$char_traits@D@std@@V?$allocator@D@2@@std@@V?$map@VCGUID@@PAVCEntityGroup@@U?$less@VCGUID@@@std@@V?$allocator@U?$pair@$$CBVCGUID@@PAVCEntityGroup@@@std@@@4@@2@@std@@@2@$0A@@std@@@std@@QAEXXZ 00444490 f i app:EntityManager.obj
 0001:00043490       ?_Dec@const_iterator@?$_Tree@V?$_Tmap_traits@V?$basic_string@DU?$char_traits@D@std@@V?$allocator@D@2@@std@@V?$map@W4DB_OPERATION_TYPE@@V?$basic_string@DU?$char_traits@D@std@@V?$allocator@D@2@@std@@U?$less@W4DB_OPERATION_TYPE@@@3@V?$allocator@U?$pair@$$CBW4DB_OPERATION_TYPE@@V?$basic_string@DU?$char_traits@D@std@@V?$allocator@D@2@@std@@@std@@@3@@2@U?$less@V?$basic_string@DU?$char_traits@D@std@@V?$allocator@D@2@@std@@@2@V?$allocator@U?$pair@$$CBV?$basic_string@DU?$char_traits@D@std@@V?$allocator@D@2@@std@@V?$map@W4DB_OPERATION_TYPE@@V?$basic_string@DU?$char_traits@D@std@@V?$allocator@D@2@@std@@U?$less@W4DB_OPERATION_TYPE@@@3@V?$allocator@U?$pair@$$CBW4DB_OPERATION_TYPE@@V?$basic_string@DU?$char_traits@D@std@@V?$allocator@D@2@@std@@@std@@@3@@2@@std@@@2@$0A@@std@@@std@@QAEXXZ 00444490 f i app:EntityManager.obj
 0001:00043520       ?_Inc@const_iterator@?$_Tree@V?$_Tmap_traits@V?$basic_string@DU?$char_traits@D@std@@V?$allocator@D@2@@std@@V?$map@W4DB_OPERATION_TYPE@@V?$basic_string@DU?$char_traits@D@std@@V?$allocator@D@2@@std@@U?$less@W4DB_OPERATION_TYPE@@@3@V?$allocator@U?$pair@$$CBW4DB_OPERATION_TYPE@@V?$basic_string@DU?$char_traits@D@std@@V?$allocator@D@2@@std@@@std@@@3@@2@U?$less@V?$basic_string@DU?$char_traits@D@std@@V?$allocator@D@2@@std@@@2@V?$allocator@U?$pair@$$CBV?$basic_string@DU?$char_traits@D@std@@V?$allocator@D@2@@std@@V?$map@W4DB_OPERATION_TYPE@@V?$basic_string@DU?$char_traits@D@std@@V?$allocator@D@2@@std@@U?$less@W4DB_OPERATION_TYPE@@@3@V?$allocator@U?$pair@$$CBW4DB_OPERATION_TYPE@@V?$basic_string@DU?$char_traits@D@std@@V?$allocator@D@2@@std@@@std@@@3@@2@@std@@@2@$0A@@std@@@std@@QAEXXZ 00444520 f i app:EntityManager.obj
 0001:00043590       ?_Inc@const_iterator@?$_Tree@V?$_Tmap_traits@W4DB_OPERATION_TYPE@@V?$basic_string@DU?$char_traits@D@std@@V?$allocator@D@2@@std@@U?$less@W4DB_OPERATION_TYPE@@@3@V?$allocator@U?$pair@$$CBW4DB_OPERATION_TYPE@@V?$basic_string@DU?$char_traits@D@std@@V?$allocator@D@2@@std@@@std@@@3@$0A@@std@@@std@@QAEXXZ 00444590 f i app:EntityManager.obj
 0001:00043590       ?_Inc@const_iterator@?$_Tree@V?$_Tmap_traits@JV?$basic_string@DU?$char_traits@D@std@@V?$allocator@D@2@@std@@U?$less@J@2@V?$allocator@U?$pair@$$CBJV?$basic_string@DU?$char_traits@D@std@@V?$allocator@D@2@@std@@@std@@@2@$0A@@std@@@std@@QAEXXZ 00444590 f i app:EntityManager.obj
 0001:00043600       ?_Dec@const_iterator@?$_Tree@V?$_Tmap_traits@W4DB_OPERATION_TYPE@@V?$basic_string@DU?$char_traits@D@std@@V?$allocator@D@2@@std@@U?$less@W4DB_OPERATION_TYPE@@@3@V?$allocator@U?$pair@$$CBW4DB_OPERATION_TYPE@@V?$basic_string@DU?$char_traits@D@std@@V?$allocator@D@2@@std@@@std@@@3@$0A@@std@@@std@@QAEXXZ 00444600 f i app:EntityManager.obj
 0001:00043600       ?_Dec@const_iterator@?$_Tree@V?$_Tmap_traits@V?$basic_string@DU?$char_traits@D@std@@V?$allocator@D@2@@std@@PAVAccount@@U?$less@V?$basic_string@DU?$char_traits@D@std@@V?$allocator@D@2@@std@@@2@V?$allocator@U?$pair@$$CBV?$basic_string@DU?$char_traits@D@std@@V?$allocator@D@2@@std@@PAVAccount@@@std@@@2@$0A@@std@@@std@@QAEXXZ 00444600 f i app:EntityManager.obj
 0001:00043600       ?_Dec@const_iterator@?$_Tree@V?$_Tmap_traits@JV?$basic_string@DU?$char_traits@D@std@@V?$allocator@D@2@@std@@U?$less@J@2@V?$allocator@U?$pair@$$CBJV?$basic_string@DU?$char_traits@D@std@@V?$allocator@D@2@@std@@@std@@@2@$0A@@std@@@std@@QAEXXZ 00444600 f i app:EntityManager.obj
 0001:00043600       ?_Dec@const_iterator@?$_Tree@V?$_Tmap_traits@V?$basic_string@DU?$char_traits@D@std@@V?$allocator@D@2@@std@@PAUtagEntityBuildInfo@@U?$less@V?$basic_string@DU?$char_traits@D@std@@V?$allocator@D@2@@std@@@2@V?$allocator@U?$pair@$$CBV?$basic_string@DU?$char_traits@D@std@@V?$allocator@D@2@@std@@PAUtagEntityBuildInfo@@@std@@@2@$0A@@std@@@std@@QAEXXZ 00444600 f i app:EntityManager.obj
 0001:00043600       ?_Dec@const_iterator@?$_Tree@V?$_Tmap_traits@V?$basic_string@DU?$char_traits@D@std@@V?$allocator@D@2@@std@@PAUtagBuildFileInfo@@U?$less@V?$basic_string@DU?$char_traits@D@std@@V?$allocator@D@2@@std@@@2@V?$allocator@U?$pair@$$CBV?$basic_string@DU?$char_traits@D@std@@V?$allocator@D@2@@std@@PAUtagBuildFileInfo@@@std@@@2@$0A@@std@@@std@@QAEXXZ 00444600 f i app:EntityManager.obj
 0001:00043690       ?_Dec@const_iterator@?$_Tree@V?$_Tmap_traits@JPAVDBThread@@U?$less@J@std@@V?$allocator@U?$pair@$$CBJPAVDBThread@@@std@@@3@$0A@@std@@@std@@QAEXXZ 00444690 f i app:EntityManager.obj
 0001:00043690       ?_Dec@const_iterator@?$_Tree@V?$_Tmap_traits@JPAUtagRankInfo@@U?$less@J@std@@V?$allocator@U?$pair@$$CBJPAUtagRankInfo@@@std@@@3@$0A@@std@@@std@@QAEXXZ 00444690 f i app:EntityManager.obj
 0001:00043720       ?_Dec@const_iterator@?$_Tree@V?$_Tmap_traits@JUtagRankConfig@@U?$less@J@std@@V?$allocator@U?$pair@$$CBJUtagRankConfig@@@std@@@3@$0A@@std@@@std@@QAEXXZ 00444720 f i app:EntityManager.obj
 0001:000437b0       ?_Inc@const_iterator@?$_Tree@V?$_Tmap_traits@JUtagRankConfig@@U?$less@J@std@@V?$allocator@U?$pair@$$CBJUtagRankConfig@@@std@@@3@$0A@@std@@@std@@QAEXXZ 004447b0 f i app:EntityManager.obj
 0001:00043820       ??$_Allocate@V?$basic_string@DU?$char_traits@D@std@@V?$allocator@D@2@@std@@@std@@YAPAV?$basic_string@DU?$char_traits@D@std@@V?$allocator@D@2@@0@IPAV10@@Z 00444820 f i app:EntityManager.obj
 0001:00043890       ??$_Allocate@UtagDbIdxInfo@@@std@@YAPAUtagDbIdxInfo@@IPAU1@@Z 00444890 f i app:EntityManager.obj
 0001:000438f0       ??$_Allocate@J@std@@YAPAJIPAJ@Z 004448f0 f i app:EntityManager.obj
 0001:000438f0       ??$_Allocate@PBD@std@@YAPAPBDIPAPBD@Z 004448f0 f i app:EntityManager.obj
 0001:000438f0       ??$_Allocate@PAVCTempEntityProperty@@@std@@YAPAPAVCTempEntityProperty@@IPAPAV1@@Z 004448f0 f i app:EntityManager.obj
 0001:00043950       ?SetGUID@CBaseEntity@@QAEXABVCGUID@@@Z 00444950 f i app:EntityManager.obj
 0001:00043980       ?GetSessionID@CEntityGroup@@QAE?AVCGUID@@XZ 00444980 f i app:EntityManager.obj
 0001:000439b0       ?SetSessionID@CEntityGroup@@QAEXABVCGUID@@@Z 004449b0 f i app:EntityManager.obj
 0001:000439e0       ?SetDelLeafGuid@CEntityGroup@@QAEXABVCGUID@@@Z 004449e0 f i app:EntityManager.obj
 0001:00043a10       ??D?$_Vector_iterator@PAVCTempEntityProperty@@V?$allocator@PAVCTempEntityProperty@@@std@@@std@@QBEAAPAVCTempEntityProperty@@XZ 00444a10 f i app:EntityManager.obj
 0001:00043a40       ??1?$_com_ptr_t@V?$_com_IIID@U_Command@@$1?_GUID_b08400bd_f9d1_4d02_b856_71d5dba123e9@@3U__s_GUID@@B@@@@QAE@XZ 00444a40 f i app:EntityManager.obj
 0001:00043a40       ??1?$_com_ptr_t@V?$_com_IIID@U_Parameter@@$1?_GUID_0000050c_0000_0010_8000_00aa006d2ea4@@3U__s_GUID@@B@@@@QAE@XZ 00444a40 f i app:EntityManager.obj
 0001:00043a40       ??1?$_com_ptr_t@V?$_com_IIID@UParameters@@$1?_GUID_0000050d_0000_0010_8000_00aa006d2ea4@@3U__s_GUID@@B@@@@QAE@XZ 00444a40 f i app:EntityManager.obj
 0001:00043a50       ??9?$_Const_iterator@$00@?$list@VCGUID@@V?$allocator@VCGUID@@@std@@@std@@QBE_NABV012@@Z 00444a50 f i app:EntityManager.obj
 0001:00043a50       ??9?$_Const_iterator@$00@?$list@PAUThreadData@@V?$allocator@PAUThreadData@@@std@@@std@@QBE_NABV012@@Z 00444a50 f i app:EntityManager.obj
 0001:00043a50       ??9const_iterator@?$_Tree@V?$_Tmap_traits@JPAUtagRankInfo@@U?$less@J@std@@V?$allocator@U?$pair@$$CBJPAUtagRankInfo@@@std@@@3@$0A@@std@@@std@@QBE_NABV012@@Z 00444a50 f i app:EntityManager.obj
 0001:00043a80       ?_Lbound@?$_Tree@V?$_Tmap_traits@VCGUID@@PAVCEntityGroup@@U?$less@VCGUID@@@std@@V?$allocator@U?$pair@$$CBVCGUID@@PAVCEntityGroup@@@std@@@4@$0A@@std@@@std@@IBEPAU_Node@?$_Tree_nod@V?$_Tmap_traits@VCGUID@@PAVCEntityGroup@@U?$less@VCGUID@@@std@@V?$allocator@U?$pair@$$CBVCGUID@@PAVCEntityGroup@@@std@@@4@$0A@@std@@@2@ABVCGUID@@@Z 00444a80 f i app:EntityManager.obj
 0001:00043a80       ?_Lbound@?$_Tree@V?$_Tmap_traits@VCGUID@@PAVCBaseEntity@@U?$less@VCGUID@@@std@@V?$allocator@U?$pair@$$CBVCGUID@@PAVCBaseEntity@@@std@@@4@$0A@@std@@@std@@IBEPAU_Node@?$_Tree_nod@V?$_Tmap_traits@VCGUID@@PAVCBaseEntity@@U?$less@VCGUID@@@std@@V?$allocator@U?$pair@$$CBVCGUID@@PAVCBaseEntity@@@std@@@4@$0A@@std@@@2@ABVCGUID@@@Z 00444a80 f i app:EntityManager.obj
 0001:00043ae0       ?_Inc@const_iterator@?$_Tree@V?$_Tmap_traits@JPAVDBThread@@U?$less@J@std@@V?$allocator@U?$pair@$$CBJPAVDBThread@@@std@@@3@$0A@@std@@@std@@QAEXXZ 00444ae0 f i app:EntityManager.obj
 0001:00043ae0       ?_Inc@const_iterator@?$_Tree@V?$_Tmap_traits@JPAUtagRankInfo@@U?$less@J@std@@V?$allocator@U?$pair@$$CBJPAUtagRankInfo@@@std@@@3@$0A@@std@@@std@@QAEXXZ 00444ae0 f i app:EntityManager.obj
 0001:00043b50       ?_Lrotate@?$_Tree@V?$_Tmap_traits@V?$basic_string@DU?$char_traits@D@std@@V?$allocator@D@2@@std@@VCGUID@@U?$less@V?$basic_string@DU?$char_traits@D@std@@V?$allocator@D@2@@std@@@2@V?$allocator@U?$pair@$$CBV?$basic_string@DU?$char_traits@D@std@@V?$allocator@D@2@@std@@VCGUID@@@std@@@2@$0A@@std@@@std@@IAEXPAU_Node@?$_Tree_nod@V?$_Tmap_traits@V?$basic_string@DU?$char_traits@D@std@@V?$allocator@D@2@@std@@VCGUID@@U?$less@V?$basic_string@DU?$char_traits@D@std@@V?$allocator@D@2@@std@@@2@V?$allocator@U?$pair@$$CBV?$basic_string@DU?$char_traits@D@std@@V?$allocator@D@2@@std@@VCGUID@@@std@@@2@$0A@@std@@@2@@Z 00444b50 f i app:EntityGroup.obj
 0001:00043b50       ?_Lrotate@?$_Tree@V?$_Tmap_traits@V?$basic_string@DU?$char_traits@D@std@@V?$allocator@D@2@@std@@UtagEntityAttrInfo@@U?$less@V?$basic_string@DU?$char_traits@D@std@@V?$allocator@D@2@@std@@@2@V?$allocator@U?$pair@$$CBV?$basic_string@DU?$char_traits@D@std@@V?$allocator@D@2@@std@@UtagEntityAttrInfo@@@std@@@2@$0A@@std@@@std@@IAEXPAU_Node@?$_Tree_nod@V?$_Tmap_traits@V?$basic_string@DU?$char_traits@D@std@@V?$allocator@D@2@@std@@UtagEntityAttrInfo@@U?$less@V?$basic_string@DU?$char_traits@D@std@@V?$allocator@D@2@@std@@@2@V?$allocator@U?$pair@$$CBV?$basic_string@DU?$char_traits@D@std@@V?$allocator@D@2@@std@@UtagEntityAttrInfo@@@std@@@2@$0A@@std@@@2@@Z 00444b50 f i app:EntityManager.obj
 0001:00043ba0       ?_Rrotate@?$_Tree@V?$_Tmap_traits@V?$basic_string@DU?$char_traits@D@std@@V?$allocator@D@2@@std@@PAUtagBuildFileInfo@@U?$less@V?$basic_string@DU?$char_traits@D@std@@V?$allocator@D@2@@std@@@2@V?$allocator@U?$pair@$$CBV?$basic_string@DU?$char_traits@D@std@@V?$allocator@D@2@@std@@PAUtagBuildFileInfo@@@std@@@2@$0A@@std@@@std@@IAEXPAU_Node@?$_Tree_nod@V?$_Tmap_traits@V?$basic_string@DU?$char_traits@D@std@@V?$allocator@D@2@@std@@PAUtagBuildFileInfo@@U?$less@V?$basic_string@DU?$char_traits@D@std@@V?$allocator@D@2@@std@@@2@V?$allocator@U?$pair@$$CBV?$basic_string@DU?$char_traits@D@std@@V?$allocator@D@2@@std@@PAUtagBuildFileInfo@@@std@@@2@$0A@@std@@@2@@Z 00444ba0 f i app:EntityManager.obj
 0001:00043ba0       ?_Rrotate@?$_Tree@V?$_Tmap_traits@W4DB_OPERATION_TYPE@@V?$basic_string@DU?$char_traits@D@std@@V?$allocator@D@2@@std@@U?$less@W4DB_OPERATION_TYPE@@@3@V?$allocator@U?$pair@$$CBW4DB_OPERATION_TYPE@@V?$basic_string@DU?$char_traits@D@std@@V?$allocator@D@2@@std@@@std@@@3@$0A@@std@@@std@@IAEXPAU_Node@?$_Tree_nod@V?$_Tmap_traits@W4DB_OPERATION_TYPE@@V?$basic_string@DU?$char_traits@D@std@@V?$allocator@D@2@@std@@U?$less@W4DB_OPERATION_TYPE@@@3@V?$allocator@U?$pair@$$CBW4DB_OPERATION_TYPE@@V?$basic_string@DU?$char_traits@D@std@@V?$allocator@D@2@@std@@@std@@@3@$0A@@std@@@2@@Z 00444ba0 f i app:EntityManager.obj
 0001:00043ba0       ?_Rrotate@?$_Tree@V?$_Tmap_traits@V?$basic_string@DU?$char_traits@D@std@@V?$allocator@D@2@@std@@PAUtagEntityBuildInfo@@U?$less@V?$basic_string@DU?$char_traits@D@std@@V?$allocator@D@2@@std@@@2@V?$allocator@U?$pair@$$CBV?$basic_string@DU?$char_traits@D@std@@V?$allocator@D@2@@std@@PAUtagEntityBuildInfo@@@std@@@2@$0A@@std@@@std@@IAEXPAU_Node@?$_Tree_nod@V?$_Tmap_traits@V?$basic_string@DU?$char_traits@D@std@@V?$allocator@D@2@@std@@PAUtagEntityBuildInfo@@U?$less@V?$basic_string@DU?$char_traits@D@std@@V?$allocator@D@2@@std@@@2@V?$allocator@U?$pair@$$CBV?$basic_string@DU?$char_traits@D@std@@V?$allocator@D@2@@std@@PAUtagEntityBuildInfo@@@std@@@2@$0A@@std@@@2@@Z 00444ba0 f i app:EntityManager.obj
 0001:00043ba0       ?_Rrotate@?$_Tree@V?$_Tmap_traits@JV?$basic_string@DU?$char_traits@D@std@@V?$allocator@D@2@@std@@U?$less@J@2@V?$allocator@U?$pair@$$CBJV?$basic_string@DU?$char_traits@D@std@@V?$allocator@D@2@@std@@@std@@@2@$0A@@std@@@std@@IAEXPAU_Node@?$_Tree_nod@V?$_Tmap_traits@JV?$basic_string@DU?$char_traits@D@std@@V?$allocator@D@2@@std@@U?$less@J@2@V?$allocator@U?$pair@$$CBJV?$basic_string@DU?$char_traits@D@std@@V?$allocator@D@2@@std@@@std@@@2@$0A@@std@@@2@@Z 00444ba0 f i app:EntityManager.obj
 0001:00043c00       ?_Rrotate@?$_Tree@V?$_Tmap_traits@JPAUtagRankInfo@@U?$less@J@std@@V?$allocator@U?$pair@$$CBJPAUtagRankInfo@@@std@@@3@$0A@@std@@@std@@IAEXPAU_Node@?$_Tree_nod@V?$_Tmap_traits@JPAUtagRankInfo@@U?$less@J@std@@V?$allocator@U?$pair@$$CBJPAUtagRankInfo@@@std@@@3@$0A@@std@@@2@@Z 00444c00 f i app:EntityManager.obj
 0001:00043c00       ?_Rrotate@?$_Tree@V?$_Tmap_traits@JPAVDBThread@@U?$less@J@std@@V?$allocator@U?$pair@$$CBJPAVDBThread@@@std@@@3@$0A@@std@@@std@@IAEXPAU_Node@?$_Tree_nod@V?$_Tmap_traits@JPAVDBThread@@U?$less@J@std@@V?$allocator@U?$pair@$$CBJPAVDBThread@@@std@@@3@$0A@@std@@@2@@Z 00444c00 f i app:EntityManager.obj
 0001:00043c60       ?_Lrotate@?$_Tree@V?$_Tmap_traits@V?$basic_string@DU?$char_traits@D@std@@V?$allocator@D@2@@std@@PAUtagEntityBuildInfo@@U?$less@V?$basic_string@DU?$char_traits@D@std@@V?$allocator@D@2@@std@@@2@V?$allocator@U?$pair@$$CBV?$basic_string@DU?$char_traits@D@std@@V?$allocator@D@2@@std@@PAUtagEntityBuildInfo@@@std@@@2@$0A@@std@@@std@@IAEXPAU_Node@?$_Tree_nod@V?$_Tmap_traits@V?$basic_string@DU?$char_traits@D@std@@V?$allocator@D@2@@std@@PAUtagEntityBuildInfo@@U?$less@V?$basic_string@DU?$char_traits@D@std@@V?$allocator@D@2@@std@@@2@V?$allocator@U?$pair@$$CBV?$basic_string@DU?$char_traits@D@std@@V?$allocator@D@2@@std@@PAUtagEntityBuildInfo@@@std@@@2@$0A@@std@@@2@@Z 00444c60 f i app:EntityManager.obj
 0001:00043c60       ?_Lrotate@?$_Tree@V?$_Tmap_traits@JV?$basic_string@DU?$char_traits@D@std@@V?$allocator@D@2@@std@@U?$less@J@2@V?$allocator@U?$pair@$$CBJV?$basic_string@DU?$char_traits@D@std@@V?$allocator@D@2@@std@@@std@@@2@$0A@@std@@@std@@IAEXPAU_Node@?$_Tree_nod@V?$_Tmap_traits@JV?$basic_string@DU?$char_traits@D@std@@V?$allocator@D@2@@std@@U?$less@J@2@V?$allocator@U?$pair@$$CBJV?$basic_string@DU?$char_traits@D@std@@V?$allocator@D@2@@std@@@std@@@2@$0A@@std@@@2@@Z 00444c60 f i app:EntityManager.obj
 0001:00043c60       ?_Lrotate@?$_Tree@V?$_Tmap_traits@W4DB_OPERATION_TYPE@@V?$basic_string@DU?$char_traits@D@std@@V?$allocator@D@2@@std@@U?$less@W4DB_OPERATION_TYPE@@@3@V?$allocator@U?$pair@$$CBW4DB_OPERATION_TYPE@@V?$basic_string@DU?$char_traits@D@std@@V?$allocator@D@2@@std@@@std@@@3@$0A@@std@@@std@@IAEXPAU_Node@?$_Tree_nod@V?$_Tmap_traits@W4DB_OPERATION_TYPE@@V?$basic_string@DU?$char_traits@D@std@@V?$allocator@D@2@@std@@U?$less@W4DB_OPERATION_TYPE@@@3@V?$allocator@U?$pair@$$CBW4DB_OPERATION_TYPE@@V?$basic_string@DU?$char_traits@D@std@@V?$allocator@D@2@@std@@@std@@@3@$0A@@std@@@2@@Z 00444c60 f i app:EntityManager.obj
 0001:00043c60       ?_Lrotate@?$_Tree@V?$_Tmap_traits@V?$basic_string@DU?$char_traits@D@std@@V?$allocator@D@2@@std@@PAUtagBuildFileInfo@@U?$less@V?$basic_string@DU?$char_traits@D@std@@V?$allocator@D@2@@std@@@2@V?$allocator@U?$pair@$$CBV?$basic_string@DU?$char_traits@D@std@@V?$allocator@D@2@@std@@PAUtagBuildFileInfo@@@std@@@2@$0A@@std@@@std@@IAEXPAU_Node@?$_Tree_nod@V?$_Tmap_traits@V?$basic_string@DU?$char_traits@D@std@@V?$allocator@D@2@@std@@PAUtagBuildFileInfo@@U?$less@V?$basic_string@DU?$char_traits@D@std@@V?$allocator@D@2@@std@@@2@V?$allocator@U?$pair@$$CBV?$basic_string@DU?$char_traits@D@std@@V?$allocator@D@2@@std@@PAUtagBuildFileInfo@@@std@@@2@$0A@@std@@@2@@Z 00444c60 f i app:EntityManager.obj
 0001:00043cb0       ?_Lrotate@?$_Tree@V?$_Tmap_traits@V?$basic_string@DU?$char_traits@D@std@@V?$allocator@D@2@@std@@V?$map@W4DB_OPERATION_TYPE@@V?$basic_string@DU?$char_traits@D@std@@V?$allocator@D@2@@std@@U?$less@W4DB_OPERATION_TYPE@@@3@V?$allocator@U?$pair@$$CBW4DB_OPERATION_TYPE@@V?$basic_string@DU?$char_traits@D@std@@V?$allocator@D@2@@std@@@std@@@3@@2@U?$less@V?$basic_string@DU?$char_traits@D@std@@V?$allocator@D@2@@std@@@2@V?$allocator@U?$pair@$$CBV?$basic_string@DU?$char_traits@D@std@@V?$allocator@D@2@@std@@V?$map@W4DB_OPERATION_TYPE@@V?$basic_string@DU?$char_traits@D@std@@V?$allocator@D@2@@std@@U?$less@W4DB_OPERATION_TYPE@@@3@V?$allocator@U?$pair@$$CBW4DB_OPERATION_TYPE@@V?$basic_string@DU?$char_traits@D@std@@V?$allocator@D@2@@std@@@std@@@3@@2@@std@@@2@$0A@@std@@@std@@IAEXPAU_Node@?$_Tree_nod@V?$_Tmap_traits@V?$basic_string@DU?$char_traits@D@std@@V?$allocator@D@2@@std@@V?$map@W4DB_OPERATION_TYPE@@V?$basic_string@DU?$char_traits@D@std@@V?$allocator@D@2@@std@@U?$less@W4DB_OPERATION_TYPE@@@3@V?$allocator@U?$pair@$$CBW4DB_OPERATION_TYPE@@V?$basic_string@DU?$char_traits@D@std@@V?$allocator@D@2@@std@@@std@@@3@@2@U?$less@V?$basic_string@DU?$char_traits@D@std@@V?$allocator@D@2@@std@@@2@V?$allocator@U?$pair@$$CBV?$basic_string@DU?$char_traits@D@std@@V?$allocator@D@2@@std@@V?$map@W4DB_OPERATION_TYPE@@V?$basic_string@DU?$char_traits@D@std@@V?$allocator@D@2@@std@@U?$less@W4DB_OPERATION_TYPE@@@3@V?$allocator@U?$pair@$$CBW4DB_OPERATION_TYPE@@V?$basic_string@DU?$char_traits@D@std@@V?$allocator@D@2@@std@@@std@@@3@@2@@std@@@2@$0A@@std@@@2@@Z 00444cb0 f i app:EntityManager.obj
 0001:00043d00       ?_Lrotate@?$_Tree@V?$_Tmap_traits@JUtagRankConfig@@U?$less@J@std@@V?$allocator@U?$pair@$$CBJUtagRankConfig@@@std@@@3@$0A@@std@@@std@@IAEXPAU_Node@?$_Tree_nod@V?$_Tmap_traits@JUtagRankConfig@@U?$less@J@std@@V?$allocator@U?$pair@$$CBJUtagRankConfig@@@std@@@3@$0A@@std@@@2@@Z 00444d00 f i app:EntityManager.obj
 0001:00043d50       ?_Rrotate@?$_Tree@V?$_Tmap_traits@JUtagRankConfig@@U?$less@J@std@@V?$allocator@U?$pair@$$CBJUtagRankConfig@@@std@@@3@$0A@@std@@@std@@IAEXPAU_Node@?$_Tree_nod@V?$_Tmap_traits@JUtagRankConfig@@U?$less@J@std@@V?$allocator@U?$pair@$$CBJUtagRankConfig@@@std@@@3@$0A@@std@@@2@@Z 00444d50 f i app:EntityManager.obj
 0001:00043db0       ?_Lrotate@?$_Tree@V?$_Tmap_traits@JPAVDBThread@@U?$less@J@std@@V?$allocator@U?$pair@$$CBJPAVDBThread@@@std@@@3@$0A@@std@@@std@@IAEXPAU_Node@?$_Tree_nod@V?$_Tmap_traits@JPAVDBThread@@U?$less@J@std@@V?$allocator@U?$pair@$$CBJPAVDBThread@@@std@@@3@$0A@@std@@@2@@Z 00444db0 f i app:EntityManager.obj
 0001:00043db0       ?_Lrotate@?$_Tree@V?$_Tmap_traits@JPAUtagRankInfo@@U?$less@J@std@@V?$allocator@U?$pair@$$CBJPAUtagRankInfo@@@std@@@3@$0A@@std@@@std@@IAEXPAU_Node@?$_Tree_nod@V?$_Tmap_traits@JPAUtagRankInfo@@U?$less@J@std@@V?$allocator@U?$pair@$$CBJPAUtagRankInfo@@@std@@@3@$0A@@std@@@2@@Z 00444db0 f i app:EntityManager.obj
 0001:00043e00       ??F?$_Iterator@$00@?$list@VCGUID@@V?$allocator@VCGUID@@@std@@@std@@QAEAAV012@XZ 00444e00 f i app:EntityManager.obj
 0001:00043e00       ??F?$_Iterator@$00@?$list@PAVCEntityGroup@@V?$allocator@PAVCEntityGroup@@@std@@@std@@QAEAAV012@XZ 00444e00 f i app:EntityManager.obj
 0001:00043e00       ??F?$_Iterator@$00@?$list@PAUThreadData@@V?$allocator@PAUThreadData@@@std@@@std@@QAEAAV012@XZ 00444e00 f i app:EntityManager.obj
 0001:00043e30       ?Execute@Command15@@QAE?AV?$_com_ptr_t@V?$_com_IIID@U_Recordset@@$1?_GUID_00000556_0000_0010_8000_00aa006d2ea4@@3U__s_GUID@@B@@@@PAUtagVARIANT@@0J@Z 00444e30 f i app:EntityManager.obj
 0001:00043e90       ?GetParameters@Command15@@QAE?AV?$_com_ptr_t@V?$_com_IIID@UParameters@@$1?_GUID_0000050d_0000_0010_8000_00aa006d2ea4@@3U__s_GUID@@B@@@@XZ 00444e90 f i app:EntityManager.obj
 0001:00043ee0       ??4?$_com_ptr_t@V?$_com_IIID@U_Parameter@@$1?_GUID_0000050c_0000_0010_8000_00aa006d2ea4@@3U__s_GUID@@B@@@@QAEAAV0@ABV0@@Z 00444ee0 f i app:EntityManager.obj
 0001:00043f20       ??D?$_Iterator@$00@?$list@PAUThreadData@@V?$allocator@PAUThreadData@@@std@@@std@@QBEAAPAUThreadData@@XZ 00444f20 f i app:EntityManager.obj
 0001:00043f50       ?CreateInstance@?$_com_ptr_t@V?$_com_IIID@U_Command@@$1?_GUID_b08400bd_f9d1_4d02_b856_71d5dba123e9@@3U__s_GUID@@B@@@@QAEJABU_GUID@@PAUIUnknown@@K@Z 00444f50 f i app:EntityManager.obj
 0001:00043ff0       ??Citerator@?$_Tree@V?$_Tmap_traits@JPAUtagRankInfo@@U?$less@J@std@@V?$allocator@U?$pair@$$CBJPAUtagRankInfo@@@std@@@3@$0A@@std@@@std@@QBEPAU?$pair@$$CBJPAUtagRankInfo@@@2@XZ 00444ff0 f i app:EntityManager.obj
 0001:00044020       ?_Buynode@?$list@VCGUID@@V?$allocator@VCGUID@@@std@@@std@@IAEPAU_Node@?$_List_nod@VCGUID@@V?$allocator@VCGUID@@@std@@@2@XZ 00445020 f i app:EntityManager.obj
 0001:00044040       ?_Buynode@?$list@PAVCEntityGroup@@V?$allocator@PAVCEntityGroup@@@std@@@std@@IAEPAU_Node@?$_List_nod@PAVCEntityGroup@@V?$allocator@PAVCEntityGroup@@@std@@@2@XZ 00445040 f i app:EntityManager.obj
 0001:00044040       ?_Buynode@?$list@PAUThreadData@@V?$allocator@PAUThreadData@@@std@@@std@@IAEPAU_Node@?$_List_nod@PAUThreadData@@V?$allocator@PAUThreadData@@@std@@@2@XZ 00445040 f i app:EntityManager.obj
 0001:00044060       ?_Tidy@?$list@U?$pair@$$CBJJ@std@@V?$allocator@U?$pair@$$CBJJ@std@@@2@@std@@IAEXXZ 00445060 f i net:Message.obj
 0001:00044060       ?_Tidy@?$list@PAUThreadData@@V?$allocator@PAUThreadData@@@std@@@std@@IAEXXZ 00445060 f i app:EntityManager.obj
 0001:00044060       ?_Tidy@?$list@VCGUID@@V?$allocator@VCGUID@@@std@@@std@@IAEXXZ 00445060 f i app:EntityManager.obj
 0001:00044060       ?_Tidy@?$list@PAVCEntityGroup@@V?$allocator@PAVCEntityGroup@@@std@@@std@@IAEXXZ 00445060 f i app:EntityManager.obj
 0001:000440b0       ?_Erase@?$_Tree@V?$_Tmap_traits@JPAUtagRankInfo@@U?$less@J@std@@V?$allocator@U?$pair@$$CBJPAUtagRankInfo@@@std@@@3@$0A@@std@@@std@@IAEXPAU_Node@?$_Tree_nod@V?$_Tmap_traits@JPAUtagRankInfo@@U?$less@J@std@@V?$allocator@U?$pair@$$CBJPAUtagRankInfo@@@std@@@3@$0A@@std@@@2@@Z 004450b0 f i app:EntityManager.obj
 0001:000440b0       ?_Erase@?$_Tree@V?$_Tmap_traits@JPAVDBThread@@U?$less@J@std@@V?$allocator@U?$pair@$$CBJPAVDBThread@@@std@@@3@$0A@@std@@@std@@IAEXPAU_Node@?$_Tree_nod@V?$_Tmap_traits@JPAVDBThread@@U?$less@J@std@@V?$allocator@U?$pair@$$CBJPAVDBThread@@@std@@@3@$0A@@std@@@2@@Z 004450b0 f i app:EntityManager.obj
 0001:000440f0       ?_Buynode@?$list@VCGUID@@V?$allocator@VCGUID@@@std@@@std@@IAEPAU_Node@?$_List_nod@VCGUID@@V?$allocator@VCGUID@@@std@@@2@PAU342@0ABVCGUID@@@Z 004450f0 f i app:EntityManager.obj
 0001:00044140       ?_Buynode@?$list@PAUThreadData@@V?$allocator@PAUThreadData@@@std@@@std@@IAEPAU_Node@?$_List_nod@PAUThreadData@@V?$allocator@PAUThreadData@@@std@@@2@PAU342@0ABQAUThreadData@@@Z 00445140 f i app:EntityManager.obj
 0001:00044140       ?_Buynode@?$list@PAVCEntityGroup@@V?$allocator@PAVCEntityGroup@@@std@@@std@@IAEPAU_Node@?$_List_nod@PAVCEntityGroup@@V?$allocator@PAVCEntityGroup@@@std@@@2@PAU342@0ABQAVCEntityGroup@@@Z 00445140 f i app:EntityManager.obj
 0001:00044180       ?_Buynode@?$_Tree@V?$_Tmap_traits@V?$basic_string@DU?$char_traits@D@std@@V?$allocator@D@2@@std@@UtagEntityAttrInfo@@U?$less@V?$basic_string@DU?$char_traits@D@std@@V?$allocator@D@2@@std@@@2@V?$allocator@U?$pair@$$CBV?$basic_string@DU?$char_traits@D@std@@V?$allocator@D@2@@std@@UtagEntityAttrInfo@@@std@@@2@$0A@@std@@@std@@IAEPAU_Node@?$_Tree_nod@V?$_Tmap_traits@V?$basic_string@DU?$char_traits@D@std@@V?$allocator@D@2@@std@@UtagEntityAttrInfo@@U?$less@V?$basic_string@DU?$char_traits@D@std@@V?$allocator@D@2@@std@@@2@V?$allocator@U?$pair@$$CBV?$basic_string@DU?$char_traits@D@std@@V?$allocator@D@2@@std@@UtagEntityAttrInfo@@@std@@@2@$0A@@std@@@2@XZ 00445180 f i app:EntityManager.obj
 0001:00044180       ?_Buynode@?$_Tree@V?$_Tmap_traits@V?$basic_string@DU?$char_traits@D@std@@V?$allocator@D@2@@std@@VCGUID@@U?$less@V?$basic_string@DU?$char_traits@D@std@@V?$allocator@D@2@@std@@@2@V?$allocator@U?$pair@$$CBV?$basic_string@DU?$char_traits@D@std@@V?$allocator@D@2@@std@@VCGUID@@@std@@@2@$0A@@std@@@std@@IAEPAU_Node@?$_Tree_nod@V?$_Tmap_traits@V?$basic_string@DU?$char_traits@D@std@@V?$allocator@D@2@@std@@VCGUID@@U?$less@V?$basic_string@DU?$char_traits@D@std@@V?$allocator@D@2@@std@@@2@V?$allocator@U?$pair@$$CBV?$basic_string@DU?$char_traits@D@std@@V?$allocator@D@2@@std@@VCGUID@@@std@@@2@$0A@@std@@@2@XZ 00445180 f i app:EntityGroup.obj
 0001:000441c0       ?_Buynode@?$_Tree@V?$_Tmap_traits@JPAVDBThread@@U?$less@J@std@@V?$allocator@U?$pair@$$CBJPAVDBThread@@@std@@@3@$0A@@std@@@std@@IAEPAU_Node@?$_Tree_nod@V?$_Tmap_traits@JPAVDBThread@@U?$less@J@std@@V?$allocator@U?$pair@$$CBJPAVDBThread@@@std@@@3@$0A@@std@@@2@PAU342@00ABU?$pair@$$CBJPAVDBThread@@@2@D@Z 004451c0 f i app:EntityManager.obj
 0001:000441c0       ?_Buynode@?$_Tree@V?$_Tmap_traits@JPAUtagRankInfo@@U?$less@J@std@@V?$allocator@U?$pair@$$CBJPAUtagRankInfo@@@std@@@3@$0A@@std@@@std@@IAEPAU_Node@?$_Tree_nod@V?$_Tmap_traits@JPAUtagRankInfo@@U?$less@J@std@@V?$allocator@U?$pair@$$CBJPAUtagRankInfo@@@std@@@3@$0A@@std@@@2@PAU342@00ABU?$pair@$$CBJPAUtagRankInfo@@@2@D@Z 004451c0 f i app:EntityManager.obj
 0001:00044200       ?_Buynode@?$_Tree@V?$_Tmap_traits@W4DB_OPERATION_TYPE@@V?$basic_string@DU?$char_traits@D@std@@V?$allocator@D@2@@std@@U?$less@W4DB_OPERATION_TYPE@@@3@V?$allocator@U?$pair@$$CBW4DB_OPERATION_TYPE@@V?$basic_string@DU?$char_traits@D@std@@V?$allocator@D@2@@std@@@std@@@3@$0A@@std@@@std@@IAEPAU_Node@?$_Tree_nod@V?$_Tmap_traits@W4DB_OPERATION_TYPE@@V?$basic_string@DU?$char_traits@D@std@@V?$allocator@D@2@@std@@U?$less@W4DB_OPERATION_TYPE@@@3@V?$allocator@U?$pair@$$CBW4DB_OPERATION_TYPE@@V?$basic_string@DU?$char_traits@D@std@@V?$allocator@D@2@@std@@@std@@@3@$0A@@std@@@2@XZ 00445200 f i app:EntityManager.obj
 0001:00044200       ?_Buynode@?$_Tree@V?$_Tmap_traits@JV?$basic_string@DU?$char_traits@D@std@@V?$allocator@D@2@@std@@U?$less@J@2@V?$allocator@U?$pair@$$CBJV?$basic_string@DU?$char_traits@D@std@@V?$allocator@D@2@@std@@@std@@@2@$0A@@std@@@std@@IAEPAU_Node@?$_Tree_nod@V?$_Tmap_traits@JV?$basic_string@DU?$char_traits@D@std@@V?$allocator@D@2@@std@@U?$less@J@2@V?$allocator@U?$pair@$$CBJV?$basic_string@DU?$char_traits@D@std@@V?$allocator@D@2@@std@@@std@@@2@$0A@@std@@@2@XZ 00445200 f i app:EntityManager.obj
 0001:00044200       ?_Buynode@?$_Tree@V?$_Tmap_traits@V?$basic_string@DU?$char_traits@D@std@@V?$allocator@D@2@@std@@PAUtagBuildFileInfo@@U?$less@V?$basic_string@DU?$char_traits@D@std@@V?$allocator@D@2@@std@@@2@V?$allocator@U?$pair@$$CBV?$basic_string@DU?$char_traits@D@std@@V?$allocator@D@2@@std@@PAUtagBuildFileInfo@@@std@@@2@$0A@@std@@@std@@IAEPAU_Node@?$_Tree_nod@V?$_Tmap_traits@V?$basic_string@DU?$char_traits@D@std@@V?$allocator@D@2@@std@@PAUtagBuildFileInfo@@U?$less@V?$basic_string@DU?$char_traits@D@std@@V?$allocator@D@2@@std@@@2@V?$allocator@U?$pair@$$CBV?$basic_string@DU?$char_traits@D@std@@V?$allocator@D@2@@std@@PAUtagBuildFileInfo@@@std@@@2@$0A@@std@@@2@XZ 00445200 f i app:EntityManager.obj
 0001:00044200       ?_Buynode@?$_Tree@V?$_Tmap_traits@V?$basic_string@DU?$char_traits@D@std@@V?$allocator@D@2@@std@@PAUtagEntityBuildInfo@@U?$less@V?$basic_string@DU?$char_traits@D@std@@V?$allocator@D@2@@std@@@2@V?$allocator@U?$pair@$$CBV?$basic_string@DU?$char_traits@D@std@@V?$allocator@D@2@@std@@PAUtagEntityBuildInfo@@@std@@@2@$0A@@std@@@std@@IAEPAU_Node@?$_Tree_nod@V?$_Tmap_traits@V?$basic_string@DU?$char_traits@D@std@@V?$allocator@D@2@@std@@PAUtagEntityBuildInfo@@U?$less@V?$basic_string@DU?$char_traits@D@std@@V?$allocator@D@2@@std@@@2@V?$allocator@U?$pair@$$CBV?$basic_string@DU?$char_traits@D@std@@V?$allocator@D@2@@std@@PAUtagEntityBuildInfo@@@std@@@2@$0A@@std@@@2@XZ 00445200 f i app:EntityManager.obj
 0001:00044200       ?_Buynode@?$_Tree@V?$_Tmap_traits@V?$basic_string@DU?$char_traits@D@std@@V?$allocator@D@2@@std@@PAVAccount@@U?$less@V?$basic_string@DU?$char_traits@D@std@@V?$allocator@D@2@@std@@@2@V?$allocator@U?$pair@$$CBV?$basic_string@DU?$char_traits@D@std@@V?$allocator@D@2@@std@@PAVAccount@@@std@@@2@$0A@@std@@@std@@IAEPAU_Node@?$_Tree_nod@V?$_Tmap_traits@V?$basic_string@DU?$char_traits@D@std@@V?$allocator@D@2@@std@@PAVAccount@@U?$less@V?$basic_string@DU?$char_traits@D@std@@V?$allocator@D@2@@std@@@2@V?$allocator@U?$pair@$$CBV?$basic_string@DU?$char_traits@D@std@@V?$allocator@D@2@@std@@PAVAccount@@@std@@@2@$0A@@std@@@2@XZ 00445200 f i app:EntityManager.obj
 0001:00044240       ?_Buynode@?$_Tree@V?$_Tmap_traits@V?$basic_string@DU?$char_traits@D@std@@V?$allocator@D@2@@std@@V?$map@W4DB_OPERATION_TYPE@@V?$basic_string@DU?$char_traits@D@std@@V?$allocator@D@2@@std@@U?$less@W4DB_OPERATION_TYPE@@@3@V?$allocator@U?$pair@$$CBW4DB_OPERATION_TYPE@@V?$basic_string@DU?$char_traits@D@std@@V?$allocator@D@2@@std@@@std@@@3@@2@U?$less@V?$basic_string@DU?$char_traits@D@std@@V?$allocator@D@2@@std@@@2@V?$allocator@U?$pair@$$CBV?$basic_string@DU?$char_traits@D@std@@V?$allocator@D@2@@std@@V?$map@W4DB_OPERATION_TYPE@@V?$basic_string@DU?$char_traits@D@std@@V?$allocator@D@2@@std@@U?$less@W4DB_OPERATION_TYPE@@@3@V?$allocator@U?$pair@$$CBW4DB_OPERATION_TYPE@@V?$basic_string@DU?$char_traits@D@std@@V?$allocator@D@2@@std@@@std@@@3@@2@@std@@@2@$0A@@std@@@std@@IAEPAU_Node@?$_Tree_nod@V?$_Tmap_traits@V?$basic_string@DU?$char_traits@D@std@@V?$allocator@D@2@@std@@V?$map@W4DB_OPERATION_TYPE@@V?$basic_string@DU?$char_traits@D@std@@V?$allocator@D@2@@std@@U?$less@W4DB_OPERATION_TYPE@@@3@V?$allocator@U?$pair@$$CBW4DB_OPERATION_TYPE@@V?$basic_string@DU?$char_traits@D@std@@V?$allocator@D@2@@std@@@std@@@3@@2@U?$less@V?$basic_string@DU?$char_traits@D@std@@V?$allocator@D@2@@std@@@2@V?$allocator@U?$pair@$$CBV?$basic_string@DU?$char_traits@D@std@@V?$allocator@D@2@@std@@V?$map@W4DB_OPERATION_TYPE@@V?$basic_string@DU?$char_traits@D@std@@V?$allocator@D@2@@std@@U?$less@W4DB_OPERATION_TYPE@@@3@V?$allocator@U?$pair@$$CBW4DB_OPERATION_TYPE@@V?$basic_string@DU?$char_traits@D@std@@V?$allocator@D@2@@std@@@std@@@3@@2@@std@@@2@$0A@@std@@@2@XZ 00445240 f i app:EntityManager.obj
 0001:00044240       ?_Buynode@?$_Tree@V?$_Tmap_traits@V?$basic_string@DU?$char_traits@D@std@@V?$allocator@D@2@@std@@V?$map@VCGUID@@PAVCEntityGroup@@U?$less@VCGUID@@@std@@V?$allocator@U?$pair@$$CBVCGUID@@PAVCEntityGroup@@@std@@@4@@2@U?$less@V?$basic_string@DU?$char_traits@D@std@@V?$allocator@D@2@@std@@@2@V?$allocator@U?$pair@$$CBV?$basic_string@DU?$char_traits@D@std@@V?$allocator@D@2@@std@@V?$map@VCGUID@@PAVCEntityGroup@@U?$less@VCGUID@@@std@@V?$allocator@U?$pair@$$CBVCGUID@@PAVCEntityGroup@@@std@@@4@@2@@std@@@2@$0A@@std@@@std@@IAEPAU_Node@?$_Tree_nod@V?$_Tmap_traits@V?$basic_string@DU?$char_traits@D@std@@V?$allocator@D@2@@std@@V?$map@VCGUID@@PAVCEntityGroup@@U?$less@VCGUID@@@std@@V?$allocator@U?$pair@$$CBVCGUID@@PAVCEntityGroup@@@std@@@4@@2@U?$less@V?$basic_string@DU?$char_traits@D@std@@V?$allocator@D@2@@std@@@2@V?$allocator@U?$pair@$$CBV?$basic_string@DU?$char_traits@D@std@@V?$allocator@D@2@@std@@V?$map@VCGUID@@PAVCEntityGroup@@U?$less@VCGUID@@@std@@V?$allocator@U?$pair@$$CBVCGUID@@PAVCEntityGroup@@@std@@@4@@2@@std@@@2@$0A@@std@@@2@XZ 00445240 f i app:EntityManager.obj
 0001:00044280       ?_Buynode@?$_Tree@V?$_Tmap_traits@JUtagRankConfig@@U?$less@J@std@@V?$allocator@U?$pair@$$CBJUtagRankConfig@@@std@@@3@$0A@@std@@@std@@IAEPAU_Node@?$_Tree_nod@V?$_Tmap_traits@JUtagRankConfig@@U?$less@J@std@@V?$allocator@U?$pair@$$CBJUtagRankConfig@@@std@@@3@$0A@@std@@@2@XZ 00445280 f i app:EntityManager.obj
 0001:000442c0       ?_Buynode@?$_Tree@V?$_Tmap_traits@JPAUtagRankInfo@@U?$less@J@std@@V?$allocator@U?$pair@$$CBJPAUtagRankInfo@@@std@@@3@$0A@@std@@@std@@IAEPAU_Node@?$_Tree_nod@V?$_Tmap_traits@JPAUtagRankInfo@@U?$less@J@std@@V?$allocator@U?$pair@$$CBJPAUtagRankInfo@@@std@@@3@$0A@@std@@@2@XZ 004452c0 f i app:EntityManager.obj
 0001:000442c0       ?_Buynode@?$_Tree@V?$_Tmap_traits@JPAVDBThread@@U?$less@J@std@@V?$allocator@U?$pair@$$CBJPAVDBThread@@@std@@@3@$0A@@std@@@std@@IAEPAU_Node@?$_Tree_nod@V?$_Tmap_traits@JPAVDBThread@@U?$less@J@std@@V?$allocator@U?$pair@$$CBJPAVDBThread@@@std@@@3@$0A@@std@@@2@XZ 004452c0 f i app:EntityManager.obj
 0001:00044300       ?_Buynode@?$_Tree@V?$_Tmap_traits@VCGUID@@PAVCEntityGroup@@U?$less@VCGUID@@@std@@V?$allocator@U?$pair@$$CBVCGUID@@PAVCEntityGroup@@@std@@@4@$0A@@std@@@std@@IAEPAU_Node@?$_Tree_nod@V?$_Tmap_traits@VCGUID@@PAVCEntityGroup@@U?$less@VCGUID@@@std@@V?$allocator@U?$pair@$$CBVCGUID@@PAVCEntityGroup@@@std@@@4@$0A@@std@@@2@PAU342@00ABU?$pair@$$CBVCGUID@@PAVCEntityGroup@@@2@D@Z 00445300 f i app:EntityManager.obj
 0001:00044300       ?_Buynode@?$_Tree@V?$_Tmap_traits@VCGUID@@PAVCBaseEntity@@U?$less@VCGUID@@@std@@V?$allocator@U?$pair@$$CBVCGUID@@PAVCBaseEntity@@@std@@@4@$0A@@std@@@std@@IAEPAU_Node@?$_Tree_nod@V?$_Tmap_traits@VCGUID@@PAVCBaseEntity@@U?$less@VCGUID@@@std@@V?$allocator@U?$pair@$$CBVCGUID@@PAVCBaseEntity@@@std@@@4@$0A@@std@@@2@PAU342@00ABU?$pair@$$CBVCGUID@@PAVCBaseEntity@@@2@D@Z 00445300 f i app:EntityGroup.obj
 0001:00044360       ??$_Unchecked_move_backward@PAPAVCTempEntityProperty@@PAPAV1@@stdext@@YAPAPAVCTempEntityProperty@@PAPAV1@00@Z 00445360 f i app:EntityManager.obj
 0001:00044360       ??$_Unchecked_move_backward@PAPBDPAPBD@stdext@@YAPAPBDPAPBD00@Z 00445360 f i app:EntityManager.obj
 0001:00044360       ??$_Unchecked_move_backward@PAJPAJ@stdext@@YAPAJPAJ00@Z 00445360 f i app:EntityManager.obj
 0001:00044390       ??$fill@PAJJ@std@@YAXPAJ0ABJ@Z 00445390 f i app:EntityManager.obj
 0001:00044390       ??$fill@PAPBDPBD@std@@YAXPAPBD0ABQBD@Z 00445390 f i app:EntityManager.obj
 0001:00044390       ??$fill@PAPAVCTempEntityProperty@@PAV1@@std@@YAXPAPAVCTempEntityProperty@@0ABQAV1@@Z 00445390 f i app:EntityManager.obj
 0001:000443b0       ??$_Find@V?$_Iterator@$0A@@?$list@VCGUID@@V?$allocator@VCGUID@@@std@@@std@@VCGUID@@@std@@YA?AV?$_Iterator@$0A@@?$list@VCGUID@@V?$allocator@VCGUID@@@std@@@0@V120@0ABVCGUID@@@Z 004453b0 f i app:EntityManager.obj
 0001:00044400       ??$_Find@V?$_Iterator@$0A@@?$list@V?$basic_string@DU?$char_traits@D@std@@V?$allocator@D@2@@std@@V?$allocator@V?$basic_string@DU?$char_traits@D@std@@V?$allocator@D@2@@std@@@2@@std@@V?$basic_string@DU?$char_traits@D@std@@V?$allocator@D@2@@3@@std@@YA?AV?$_Iterator@$0A@@?$list@V?$basic_string@DU?$char_traits@D@std@@V?$allocator@D@2@@std@@V?$allocator@V?$basic_string@DU?$char_traits@D@std@@V?$allocator@D@2@@std@@@2@@0@V120@0ABV?$basic_string@DU?$char_traits@D@std@@V?$allocator@D@2@@0@@Z 00445400 f i app:EntityManager.obj
 0001:00044480       ??1?$list@PAUThreadData@@V?$allocator@PAUThreadData@@@std@@@std@@QAE@XZ 00445480 f i app:EntityManager.obj
 0001:00044480       ??1?$list@U?$pair@$$CBJJ@std@@V?$allocator@U?$pair@$$CBJJ@std@@@2@@std@@QAE@XZ 00445480 f i net:Message.obj
 0001:00044480       ??1?$list@PAVCEntityGroup@@V?$allocator@PAVCEntityGroup@@@std@@@std@@QAE@XZ 00445480 f i app:EntityManager.obj
 0001:00044480       ??1?$list@VCGUID@@V?$allocator@VCGUID@@@std@@@std@@QAE@XZ 00445480 f i app:EntityManager.obj
 0001:00044490       ??1tagDbIdxInfo@@QAE@XZ    00445490 f i app:EntityManager.obj
 0001:00044490       ??1?$pair@$$CBV?$basic_string@DU?$char_traits@D@std@@V?$allocator@D@2@@std@@UtagEntityAttrInfo@@@std@@QAE@XZ 00445490 f i app:EntityManager.obj
 0001:00044490       ??1?$pair@$$CBV?$basic_string@DU?$char_traits@D@std@@V?$allocator@D@2@@std@@VCGUID@@@std@@QAE@XZ 00445490 f i app:EntityGroup.obj
 0001:00044490       ??1?$pair@$$CBV?$basic_string@DU?$char_traits@D@std@@V?$allocator@D@2@@std@@PAUtagEntityBuildInfo@@@std@@QAE@XZ 00445490 f i app:EntityManager.obj
 0001:00044490       ??1?$pair@$$CBV?$basic_string@DU?$char_traits@D@std@@V?$allocator@D@2@@std@@PAUtagBuildFileInfo@@@std@@QAE@XZ 00445490 f i app:EntityManager.obj
 0001:000444c0       ??1?$pair@$$CBJV?$basic_string@DU?$char_traits@D@std@@V?$allocator@D@2@@std@@@std@@QAE@XZ 004454c0 f i app:EntityManager.obj
 0001:000444c0       ??1?$pair@$$CBW4DB_OPERATION_TYPE@@V?$basic_string@DU?$char_traits@D@std@@V?$allocator@D@2@@std@@@std@@QAE@XZ 004454c0 f i app:EntityManager.obj
 0001:000444f0       ?erase@?$vector@PBDV?$allocator@PBD@std@@@std@@QAE?AV?$_Vector_iterator@PBDV?$allocator@PBD@std@@@2@V32@0@Z 004454f0 f i app:EntityManager.obj
 0001:00044550       ?_Lbound@?$_Tree@V?$_Tmap_traits@V?$basic_string@DU?$char_traits@D@std@@V?$allocator@D@2@@std@@VCGUID@@U?$less@V?$basic_string@DU?$char_traits@D@std@@V?$allocator@D@2@@std@@@2@V?$allocator@U?$pair@$$CBV?$basic_string@DU?$char_traits@D@std@@V?$allocator@D@2@@std@@VCGUID@@@std@@@2@$0A@@std@@@std@@IBEPAU_Node@?$_Tree_nod@V?$_Tmap_traits@V?$basic_string@DU?$char_traits@D@std@@V?$allocator@D@2@@std@@VCGUID@@U?$less@V?$basic_string@DU?$char_traits@D@std@@V?$allocator@D@2@@std@@@2@V?$allocator@U?$pair@$$CBV?$basic_string@DU?$char_traits@D@std@@V?$allocator@D@2@@std@@VCGUID@@@std@@@2@$0A@@std@@@2@ABV?$basic_string@DU?$char_traits@D@std@@V?$allocator@D@2@@2@@Z 00445550 f i app:EntityManager.obj
 0001:00044550       ?_Lbound@?$_Tree@V?$_Tmap_traits@V?$basic_string@DU?$char_traits@D@std@@V?$allocator@D@2@@std@@UtagEntityAttrInfo@@U?$less@V?$basic_string@DU?$char_traits@D@std@@V?$allocator@D@2@@std@@@2@V?$allocator@U?$pair@$$CBV?$basic_string@DU?$char_traits@D@std@@V?$allocator@D@2@@std@@UtagEntityAttrInfo@@@std@@@2@$0A@@std@@@std@@IBEPAU_Node@?$_Tree_nod@V?$_Tmap_traits@V?$basic_string@DU?$char_traits@D@std@@V?$allocator@D@2@@std@@UtagEntityAttrInfo@@U?$less@V?$basic_string@DU?$char_traits@D@std@@V?$allocator@D@2@@std@@@2@V?$allocator@U?$pair@$$CBV?$basic_string@DU?$char_traits@D@std@@V?$allocator@D@2@@std@@UtagEntityAttrInfo@@@std@@@2@$0A@@std@@@2@ABV?$basic_string@DU?$char_traits@D@std@@V?$allocator@D@2@@2@@Z 00445550 f i app:EntityManager.obj
 0001:000445e0       ?_Lbound@?$_Tree@V?$_Tmap_traits@V?$basic_string@DU?$char_traits@D@std@@V?$allocator@D@2@@std@@PAVAccount@@U?$less@V?$basic_string@DU?$char_traits@D@std@@V?$allocator@D@2@@std@@@2@V?$allocator@U?$pair@$$CBV?$basic_string@DU?$char_traits@D@std@@V?$allocator@D@2@@std@@PAVAccount@@@std@@@2@$0A@@std@@@std@@IBEPAU_Node@?$_Tree_nod@V?$_Tmap_traits@V?$basic_string@DU?$char_traits@D@std@@V?$allocator@D@2@@std@@PAVAccount@@U?$less@V?$basic_string@DU?$char_traits@D@std@@V?$allocator@D@2@@std@@@2@V?$allocator@U?$pair@$$CBV?$basic_string@DU?$char_traits@D@std@@V?$allocator@D@2@@std@@PAVAccount@@@std@@@2@$0A@@std@@@2@ABV?$basic_string@DU?$char_traits@D@std@@V?$allocator@D@2@@2@@Z 004455e0 f i app:EntityManager.obj
 0001:000445e0       ?_Lbound@?$_Tree@V?$_Tmap_traits@V?$basic_string@DU?$char_traits@D@std@@V?$allocator@D@2@@std@@PAUtagBuildFileInfo@@U?$less@V?$basic_string@DU?$char_traits@D@std@@V?$allocator@D@2@@std@@@2@V?$allocator@U?$pair@$$CBV?$basic_string@DU?$char_traits@D@std@@V?$allocator@D@2@@std@@PAUtagBuildFileInfo@@@std@@@2@$0A@@std@@@std@@IBEPAU_Node@?$_Tree_nod@V?$_Tmap_traits@V?$basic_string@DU?$char_traits@D@std@@V?$allocator@D@2@@std@@PAUtagBuildFileInfo@@U?$less@V?$basic_string@DU?$char_traits@D@std@@V?$allocator@D@2@@std@@@2@V?$allocator@U?$pair@$$CBV?$basic_string@DU?$char_traits@D@std@@V?$allocator@D@2@@std@@PAUtagBuildFileInfo@@@std@@@2@$0A@@std@@@2@ABV?$basic_string@DU?$char_traits@D@std@@V?$allocator@D@2@@2@@Z 004455e0 f i app:EntityManager.obj
 0001:000445e0       ?_Lbound@?$_Tree@V?$_Tmap_traits@V?$basic_string@DU?$char_traits@D@std@@V?$allocator@D@2@@std@@PAUtagEntityBuildInfo@@U?$less@V?$basic_string@DU?$char_traits@D@std@@V?$allocator@D@2@@std@@@2@V?$allocator@U?$pair@$$CBV?$basic_string@DU?$char_traits@D@std@@V?$allocator@D@2@@std@@PAUtagEntityBuildInfo@@@std@@@2@$0A@@std@@@std@@IBEPAU_Node@?$_Tree_nod@V?$_Tmap_traits@V?$basic_string@DU?$char_traits@D@std@@V?$allocator@D@2@@std@@PAUtagEntityBuildInfo@@U?$less@V?$basic_string@DU?$char_traits@D@std@@V?$allocator@D@2@@std@@@2@V?$allocator@U?$pair@$$CBV?$basic_string@DU?$char_traits@D@std@@V?$allocator@D@2@@std@@PAUtagEntityBuildInfo@@@std@@@2@$0A@@std@@@2@ABV?$basic_string@DU?$char_traits@D@std@@V?$allocator@D@2@@2@@Z 004455e0 f i app:EntityManager.obj
 0001:00044670       ?_Lbound@?$_Tree@V?$_Tmap_traits@V?$basic_string@DU?$char_traits@D@std@@V?$allocator@D@2@@std@@V?$map@W4DB_OPERATION_TYPE@@V?$basic_string@DU?$char_traits@D@std@@V?$allocator@D@2@@std@@U?$less@W4DB_OPERATION_TYPE@@@3@V?$allocator@U?$pair@$$CBW4DB_OPERATION_TYPE@@V?$basic_string@DU?$char_traits@D@std@@V?$allocator@D@2@@std@@@std@@@3@@2@U?$less@V?$basic_string@DU?$char_traits@D@std@@V?$allocator@D@2@@std@@@2@V?$allocator@U?$pair@$$CBV?$basic_string@DU?$char_traits@D@std@@V?$allocator@D@2@@std@@V?$map@W4DB_OPERATION_TYPE@@V?$basic_string@DU?$char_traits@D@std@@V?$allocator@D@2@@std@@U?$less@W4DB_OPERATION_TYPE@@@3@V?$allocator@U?$pair@$$CBW4DB_OPERATION_TYPE@@V?$basic_string@DU?$char_traits@D@std@@V?$allocator@D@2@@std@@@std@@@3@@2@@std@@@2@$0A@@std@@@std@@IBEPAU_Node@?$_Tree_nod@V?$_Tmap_traits@V?$basic_string@DU?$char_traits@D@std@@V?$allocator@D@2@@std@@V?$map@W4DB_OPERATION_TYPE@@V?$basic_string@DU?$char_traits@D@std@@V?$allocator@D@2@@std@@U?$less@W4DB_OPERATION_TYPE@@@3@V?$allocator@U?$pair@$$CBW4DB_OPERATION_TYPE@@V?$basic_string@DU?$char_traits@D@std@@V?$allocator@D@2@@std@@@std@@@3@@2@U?$less@V?$basic_string@DU?$char_traits@D@std@@V?$allocator@D@2@@std@@@2@V?$allocator@U?$pair@$$CBV?$basic_string@DU?$char_traits@D@std@@V?$allocator@D@2@@std@@V?$map@W4DB_OPERATION_TYPE@@V?$basic_string@DU?$char_traits@D@std@@V?$allocator@D@2@@std@@U?$less@W4DB_OPERATION_TYPE@@@3@V?$allocator@U?$pair@$$CBW4DB_OPERATION_TYPE@@V?$basic_string@DU?$char_traits@D@std@@V?$allocator@D@2@@std@@@std@@@3@@2@@std@@@2@$0A@@std@@@2@ABV?$basic_string@DU?$char_traits@D@std@@V?$allocator@D@2@@2@@Z 00445670 f i app:EntityManager.obj
 0001:00044700       ?PutCommandText@Command15@@QAEXV_bstr_t@@@Z 00445700 f i app:EntityManager.obj
 0001:000447a0       ?CreateParameter@Command15@@QAE?AV?$_com_ptr_t@V?$_com_IIID@U_Parameter@@$1?_GUID_0000050c_0000_0010_8000_00aa006d2ea4@@3U__s_GUID@@B@@@@V_bstr_t@@W4DataTypeEnum@@W4ParameterDirectionEnum@@JABV_variant_t@@@Z 004457a0 f i app:EntityManager.obj
 0001:00044890       ?GetThreadData@CEntityManager@@QAE_NPAPAUThreadData@@JW4eThreadType@@@Z 00445890 f   app:EntityManager.obj
 0001:000449f0       ??1tagRankConfig@@QAE@XZ   004459f0 f i app:EntityManager.obj
 0001:00044a60       ?ExecSqlString@CEntityManager@@QAEXABV?$basic_string@DU?$char_traits@D@std@@V?$allocator@D@2@@std@@@Z 00445a60 f   app:EntityManager.obj
 0001:00044b40       ?RunDeleteTimeoutMailProc@CEntityManager@@QAEXXZ 00445b40 f   app:EntityManager.obj
 0001:00045060       ?find@?$_Tree@V?$_Tmap_traits@VCGUID@@PAVCEntityGroup@@U?$less@VCGUID@@@std@@V?$allocator@U?$pair@$$CBVCGUID@@PAVCEntityGroup@@@std@@@4@$0A@@std@@@std@@QAE?AViterator@12@ABVCGUID@@@Z 00446060 f i app:EntityManager.obj
 0001:00045060       ?find@?$_Tree@V?$_Tmap_traits@VCGUID@@PAVCBaseEntity@@U?$less@VCGUID@@@std@@V?$allocator@U?$pair@$$CBVCGUID@@PAVCBaseEntity@@@std@@@4@$0A@@std@@@std@@QAE?AViterator@12@ABVCGUID@@@Z 00446060 f i app:EntityManager.obj
 0001:000450e0       ?erase@?$list@VCGUID@@V?$allocator@VCGUID@@@std@@@std@@QAE?AV?$_Iterator@$00@12@V312@@Z 004460e0 f i app:EntityManager.obj
 0001:000450e0       ?erase@?$list@PAUThreadData@@V?$allocator@PAUThreadData@@@std@@@std@@QAE?AV?$_Iterator@$00@12@V312@@Z 004460e0 f i app:EntityManager.obj
 0001:00045140       ?find@?$_Tree@V?$_Tmap_traits@W4DB_OPERATION_TYPE@@V?$basic_string@DU?$char_traits@D@std@@V?$allocator@D@2@@std@@U?$less@W4DB_OPERATION_TYPE@@@3@V?$allocator@U?$pair@$$CBW4DB_OPERATION_TYPE@@V?$basic_string@DU?$char_traits@D@std@@V?$allocator@D@2@@std@@@std@@@3@$0A@@std@@@std@@QAE?AViterator@12@ABW4DB_OPERATION_TYPE@@@Z 00446140 f i app:EntityManager.obj
 0001:00045140       ?find@?$_Tree@V?$_Tmap_traits@JV?$basic_string@DU?$char_traits@D@std@@V?$allocator@D@2@@std@@U?$less@J@2@V?$allocator@U?$pair@$$CBJV?$basic_string@DU?$char_traits@D@std@@V?$allocator@D@2@@std@@@std@@@2@$0A@@std@@@std@@QAE?AViterator@12@ABJ@Z 00446140 f i app:EntityManager.obj
 0001:000451b0       ?find@?$_Tree@V?$_Tmap_traits@JPAUtagRankInfo@@U?$less@J@std@@V?$allocator@U?$pair@$$CBJPAUtagRankInfo@@@std@@@3@$0A@@std@@@std@@QAE?AViterator@12@ABJ@Z 004461b0 f i app:EntityManager.obj
 0001:00045220       ??1?$vector@PAVCTempEntityProperty@@V?$allocator@PAVCTempEntityProperty@@@std@@@std@@QAE@XZ 00446220 f i app:EntityGroup.obj
 0001:00045220       ??1?$vector@PAVCTableManager@@V?$allocator@PAVCTableManager@@@std@@@std@@QAE@XZ 00446220 f i app:EntityManager.obj
 0001:00045220       ??1?$vector@JV?$allocator@J@std@@@std@@QAE@XZ 00446220 f i app:EntityManager.obj
 0001:00045220       ??1?$vector@PBDV?$allocator@PBD@std@@@std@@QAE@XZ 00446220 f i app:EntityManager.obj
 0001:00045220       ?_Tidy@?$vector@U_List_position@?$_Hash@V?$_Hmap_traits@JJV?$hash_compare@JU?$less@J@std@@@stdext@@V?$allocator@U?$pair@$$CBJJ@std@@@std@@$0A@@stdext@@@stdext@@V?$allocator@U_List_position@?$_Hash@V?$_Hmap_traits@JJV?$hash_compare@JU?$less@J@std@@@stdext@@V?$allocator@U?$pair@$$CBJJ@std@@@std@@$0A@@stdext@@@stdext@@@std@@@std@@IAEXXZ 00446220 f i net:Message.obj
 0001:00045250       ??0?$list@PAVCEntityGroup@@V?$allocator@PAVCEntityGroup@@@std@@@std@@QAE@XZ 00446250 f i app:EntityManager.obj
 0001:00045270       ??1?$pair@$$CBJUtagRankConfig@@@std@@QAE@XZ 00446270 f i app:EntityManager.obj
 0001:00045280       ?_Copy@?$_Tree@V?$_Tmap_traits@VCGUID@@PAVCEntityGroup@@U?$less@VCGUID@@@std@@V?$allocator@U?$pair@$$CBVCGUID@@PAVCEntityGroup@@@std@@@4@$0A@@std@@@std@@IAEPAU_Node@?$_Tree_nod@V?$_Tmap_traits@VCGUID@@PAVCEntityGroup@@U?$less@VCGUID@@@std@@V?$allocator@U?$pair@$$CBVCGUID@@PAVCEntityGroup@@@std@@@4@$0A@@std@@@2@PAU342@0@Z 00446280 f i app:EntityManager.obj
 0001:00045340       ??$_Umove@PAPAVCTempEntityProperty@@@?$vector@PAVCTempEntityProperty@@V?$allocator@PAVCTempEntityProperty@@@std@@@std@@IAEPAPAVCTempEntityProperty@@PAPAV2@00@Z 00446340 f i app:EntityManager.obj
 0001:00045340       ??$_Umove@PAJ@?$vector@JV?$allocator@J@std@@@std@@IAEPAJPAJ00@Z 00446340 f i app:EntityManager.obj
 0001:00045340       ??$_Umove@PAPBD@?$vector@PBDV?$allocator@PBD@std@@@std@@IAEPAPBDPAPBD00@Z 00446340 f i app:EntityManager.obj
 0001:00045370       ?QueryDataRelease@CEntityGroup@@QAEXXZ 00446370 f i app:EntityManager.obj
 0001:00045420       ?RetQueryDataRelease@CEntityGroup@@QAEXXZ 00446420 f i app:EntityManager.obj
 0001:000454d0       ?FindLeafFatherByComFlag@CEntityManager@@QAEPAVCEntityGroup@@PAV2@ABV?$basic_string@DU?$char_traits@D@std@@V?$allocator@D@2@@std@@@Z 004464d0 f   app:EntityManager.obj
 0001:00045610       ?FindLeafGroupByComFlag@CEntityManager@@QAEPAVCEntityGroup@@PAV2@ABV?$basic_string@DU?$char_traits@D@std@@V?$allocator@D@2@@std@@@Z 00446610 f   app:EntityManager.obj
 0001:00045710       ?ResetEntityAllDbOperFlag@CEntityManager@@QAEXPAVCBaseEntity@@_N@Z 00446710 f   app:EntityManager.obj
 0001:000457a0       ?SetEntityAllDbOperType@CEntityManager@@QAEXPAVCBaseEntity@@W4DB_OPERATION_TYPE@@@Z 004467a0 f   app:EntityManager.obj
 0001:00045830       ?GetAttrStrByEnum@CEntityManager@@QAEABV?$basic_string@DU?$char_traits@D@std@@V?$allocator@D@2@@std@@J@Z 00446830 f   app:EntityManager.obj
 0001:000458a0       ?find@?$_Tree@V?$_Tmap_traits@V?$basic_string@DU?$char_traits@D@std@@V?$allocator@D@2@@std@@UtagEntityAttrInfo@@U?$less@V?$basic_string@DU?$char_traits@D@std@@V?$allocator@D@2@@std@@@2@V?$allocator@U?$pair@$$CBV?$basic_string@DU?$char_traits@D@std@@V?$allocator@D@2@@std@@UtagEntityAttrInfo@@@std@@@2@$0A@@std@@@std@@QAE?AViterator@12@ABV?$basic_string@DU?$char_traits@D@std@@V?$allocator@D@2@@2@@Z 004468a0 f i app:EntityManager.obj
 0001:000458a0       ?find@?$_Tree@V?$_Tmap_traits@V?$basic_string@DU?$char_traits@D@std@@V?$allocator@D@2@@std@@VCGUID@@U?$less@V?$basic_string@DU?$char_traits@D@std@@V?$allocator@D@2@@std@@@2@V?$allocator@U?$pair@$$CBV?$basic_string@DU?$char_traits@D@std@@V?$allocator@D@2@@std@@VCGUID@@@std@@@2@$0A@@std@@@std@@QAE?AViterator@12@ABV?$basic_string@DU?$char_traits@D@std@@V?$allocator@D@2@@2@@Z 004468a0 f i app:EntityManager.obj
 0001:00045920       ?find@?$_Tree@V?$_Tmap_traits@V?$basic_string@DU?$char_traits@D@std@@V?$allocator@D@2@@std@@PAUtagEntityBuildInfo@@U?$less@V?$basic_string@DU?$char_traits@D@std@@V?$allocator@D@2@@std@@@2@V?$allocator@U?$pair@$$CBV?$basic_string@DU?$char_traits@D@std@@V?$allocator@D@2@@std@@PAUtagEntityBuildInfo@@@std@@@2@$0A@@std@@@std@@QAE?AViterator@12@ABV?$basic_string@DU?$char_traits@D@std@@V?$allocator@D@2@@2@@Z 00446920 f i app:EntityManager.obj
 0001:00045920       ?find@?$_Tree@V?$_Tmap_traits@V?$basic_string@DU?$char_traits@D@std@@V?$allocator@D@2@@std@@PAVAccount@@U?$less@V?$basic_string@DU?$char_traits@D@std@@V?$allocator@D@2@@std@@@2@V?$allocator@U?$pair@$$CBV?$basic_string@DU?$char_traits@D@std@@V?$allocator@D@2@@std@@PAVAccount@@@std@@@2@$0A@@std@@@std@@QAE?AViterator@12@ABV?$basic_string@DU?$char_traits@D@std@@V?$allocator@D@2@@2@@Z 00446920 f i app:EntityManager.obj
 0001:000459a0       ?find@?$_Tree@V?$_Tmap_traits@V?$basic_string@DU?$char_traits@D@std@@V?$allocator@D@2@@std@@V?$map@W4DB_OPERATION_TYPE@@V?$basic_string@DU?$char_traits@D@std@@V?$allocator@D@2@@std@@U?$less@W4DB_OPERATION_TYPE@@@3@V?$allocator@U?$pair@$$CBW4DB_OPERATION_TYPE@@V?$basic_string@DU?$char_traits@D@std@@V?$allocator@D@2@@std@@@std@@@3@@2@U?$less@V?$basic_string@DU?$char_traits@D@std@@V?$allocator@D@2@@std@@@2@V?$allocator@U?$pair@$$CBV?$basic_string@DU?$char_traits@D@std@@V?$allocator@D@2@@std@@V?$map@W4DB_OPERATION_TYPE@@V?$basic_string@DU?$char_traits@D@std@@V?$allocator@D@2@@std@@U?$less@W4DB_OPERATION_TYPE@@@3@V?$allocator@U?$pair@$$CBW4DB_OPERATION_TYPE@@V?$basic_string@DU?$char_traits@D@std@@V?$allocator@D@2@@std@@@std@@@3@@2@@std@@@2@$0A@@std@@@std@@QAE?AViterator@12@ABV?$basic_string@DU?$char_traits@D@std@@V?$allocator@D@2@@2@@Z 004469a0 f i app:EntityManager.obj
 0001:00045a20       ?_Copy@?$_Tree@V?$_Tmap_traits@VCGUID@@PAVCEntityGroup@@U?$less@VCGUID@@@std@@V?$allocator@U?$pair@$$CBVCGUID@@PAVCEntityGroup@@@std@@@4@$0A@@std@@@std@@IAEXABV12@@Z 00446a20 f i app:EntityManager.obj
 0001:00045aa0       ?_Ufill@?$vector@JV?$allocator@J@std@@@std@@IAEPAJPAJIABJ@Z 00446aa0 f i app:EntityManager.obj
 0001:00045aa0       ?_Ufill@?$vector@PBDV?$allocator@PBD@std@@@std@@IAEPAPBDPAPBDIABQBD@Z 00446aa0 f i app:EntityManager.obj
 0001:00045aa0       ?_Ufill@?$vector@PAVCTempEntityProperty@@V?$allocator@PAVCTempEntityProperty@@@std@@@std@@IAEPAPAVCTempEntityProperty@@PAPAV3@IABQAV3@@Z 00446aa0 f i app:EntityManager.obj
 0001:00045ad0       ??0tagRankConfig@@QAE@ABU0@@Z 00446ad0 f i app:EntityManager.obj
 0001:00045b90       ??$find@V?$_Iterator@$00@?$list@VCGUID@@V?$allocator@VCGUID@@@std@@@std@@VCGUID@@@std@@YA?AV?$_Iterator@$00@?$list@VCGUID@@V?$allocator@VCGUID@@@std@@@0@V120@0ABVCGUID@@@Z 00446b90 f i app:EntityManager.obj
 0001:00045be0       ??$_Construct@UtagDbIdxInfo@@U1@@std@@YAXPAUtagDbIdxInfo@@ABU1@@Z 00446be0 f i app:EntityManager.obj
 0001:00045c50       ?FindRootEntity@CEntityManager@@QAEPAVCEntityGroup@@ABV?$basic_string@DU?$char_traits@D@std@@V?$allocator@D@2@@std@@ABVCGUID@@@Z 00446c50 f   app:EntityManager.obj
 0001:00045d10       ?PopBeginEntityGuid@CEntityManager@@QAE_NABVCGUID@@W4eThreadType@@@Z 00446d10 f   app:EntityManager.obj
 0001:00045e50       ?FindTblProcedure@CEntityManager@@QAEABV?$basic_string@DU?$char_traits@D@std@@V?$allocator@D@2@@std@@PAVCBaseEntity@@@Z 00446e50 f   app:EntityManager.obj
 0001:00045f20       ?FindAccount@CEntityManager@@QAEPAVAccount@@ABV?$basic_string@DU?$char_traits@D@std@@V?$allocator@D@2@@std@@@Z 00446f20 f   app:EntityManager.obj
 0001:00045f90       ?GetAttrEnumByStr@CEntityManager@@QAEJABV?$basic_string@DU?$char_traits@D@std@@V?$allocator@D@2@@std@@0@Z 00446f90 f   app:EntityManager.obj
 0001:00046050       ?GetEntityBuildInfo@CEntityManager@@QAEPAUtagEntityBuildInfo@@ABV?$basic_string@DU?$char_traits@D@std@@V?$allocator@D@2@@std@@@Z 00447050 f   app:EntityManager.obj
 0001:000460c0       ?GetDataObjectType@CEntityManager@@QAEJABV?$basic_string@DU?$char_traits@D@std@@V?$allocator@D@2@@std@@0@Z 004470c0 f   app:EntityManager.obj
 0001:00046180       ?GetDataObjectType@CEntityManager@@QAEJABV?$basic_string@DU?$char_traits@D@std@@V?$allocator@D@2@@std@@J@Z 00447180 f   app:EntityManager.obj
 0001:000461a0       ?GetDbUseageFlag@CEntityManager@@QAEEABV?$basic_string@DU?$char_traits@D@std@@V?$allocator@D@2@@std@@0@Z 004471a0 f   app:EntityManager.obj
 0001:00046260       ?GetDbUseageFlag@CEntityManager@@QAEEABV?$basic_string@DU?$char_traits@D@std@@V?$allocator@D@2@@std@@J@Z 00447260 f   app:EntityManager.obj
 0001:00046280       ?GetBufMaxSize@CEntityManager@@QAEJABV?$basic_string@DU?$char_traits@D@std@@V?$allocator@D@2@@std@@0@Z 00447280 f   app:EntityManager.obj
 0001:00046340       ?NewBaseEntity@CEntityManager@@QAEPAVCBaseEntity@@ABV?$basic_string@DU?$char_traits@D@std@@V?$allocator@D@2@@std@@ABVCGUID@@@Z 00447340 f   app:EntityManager.obj
 0001:00046420       ?FindAccountIsInOperQueue@CEntityManager@@QAE_NABV?$basic_string@DU?$char_traits@D@std@@V?$allocator@D@2@@std@@@Z 00447420 f   app:EntityManager.obj
 0001:00046480       ?FindEntityIsInOperQueue@CEntityManager@@QAE_NABVCGUID@@@Z 00447480 f   app:EntityManager.obj
 0001:00046540       ?_Xlen@?$vector@U_List_position@?$_Hash@V?$_Hmap_traits@JJV?$hash_compare@JU?$less@J@std@@@stdext@@V?$allocator@U?$pair@$$CBJJ@std@@@std@@$0A@@stdext@@@stdext@@V?$allocator@U_List_position@?$_Hash@V?$_Hmap_traits@JJV?$hash_compare@JU?$less@J@std@@@stdext@@V?$allocator@U?$pair@$$CBJJ@std@@@std@@$0A@@stdext@@@stdext@@@std@@@std@@KAXXZ 00447540 f i net:Message.obj
 0001:00046540       ?_Xlen@?$vector@UtagDbIdxInfo@@V?$allocator@UtagDbIdxInfo@@@std@@@std@@KAXXZ 00447540 f i app:EntityManager.obj
 0001:00046540       ?_Xlen@?$vector@JV?$allocator@J@std@@@std@@KAXXZ 00447540 f i app:EntityManager.obj
 0001:00046540       ?_Xlen@?$vector@V?$basic_string@DU?$char_traits@D@std@@V?$allocator@D@2@@std@@V?$allocator@V?$basic_string@DU?$char_traits@D@std@@V?$allocator@D@2@@std@@@2@@std@@KAXXZ 00447540 f i app:EntityManager.obj
 0001:00046540       ?_Xlen@?$vector@PAVCTempEntityProperty@@V?$allocator@PAVCTempEntityProperty@@@std@@@std@@KAXXZ 00447540 f i app:EntityManager.obj
 0001:00046540       ?_Xlen@?$vector@PBDV?$allocator@PBD@std@@@std@@KAXXZ 00447540 f i app:EntityManager.obj
 0001:000465c0       ?_Incsize@?$list@VCGUID@@V?$allocator@VCGUID@@@std@@@std@@IAEXI@Z 004475c0 f i app:EntityManager.obj
 0001:00046660       ?_Insert@?$_Tree@V?$_Tmap_traits@JPAVDBThread@@U?$less@J@std@@V?$allocator@U?$pair@$$CBJPAVDBThread@@@std@@@3@$0A@@std@@@std@@IAE?AViterator@12@_NPAU_Node@?$_Tree_nod@V?$_Tmap_traits@JPAVDBThread@@U?$less@J@std@@V?$allocator@U?$pair@$$CBJPAVDBThread@@@std@@@3@$0A@@std@@@2@ABU?$pair@$$CBJPAVDBThread@@@2@@Z 00447660 f i app:EntityManager.obj
 0001:00046660       ?_Insert@?$_Tree@V?$_Tmap_traits@JPAUtagRankInfo@@U?$less@J@std@@V?$allocator@U?$pair@$$CBJPAUtagRankInfo@@@std@@@3@$0A@@std@@@std@@IAE?AViterator@12@_NPAU_Node@?$_Tree_nod@V?$_Tmap_traits@JPAUtagRankInfo@@U?$less@J@std@@V?$allocator@U?$pair@$$CBJPAUtagRankInfo@@@std@@@3@$0A@@std@@@2@ABU?$pair@$$CBJPAUtagRankInfo@@@2@@Z 00447660 f i app:EntityManager.obj
 0001:00046860       ??0?$_Tree@V?$_Tmap_traits@VCGUID@@PAVCEntityGroup@@U?$less@VCGUID@@@std@@V?$allocator@U?$pair@$$CBVCGUID@@PAVCEntityGroup@@@std@@@4@$0A@@std@@@std@@QAE@ABV01@@Z 00447860 f i app:EntityManager.obj
 0001:000468f0       ?_Insert@?$_Tree@V?$_Tmap_traits@VCGUID@@PAVCEntityGroup@@U?$less@VCGUID@@@std@@V?$allocator@U?$pair@$$CBVCGUID@@PAVCEntityGroup@@@std@@@4@$0A@@std@@@std@@IAE?AViterator@12@_NPAU_Node@?$_Tree_nod@V?$_Tmap_traits@VCGUID@@PAVCEntityGroup@@U?$less@VCGUID@@@std@@V?$allocator@U?$pair@$$CBVCGUID@@PAVCEntityGroup@@@std@@@4@$0A@@std@@@2@ABU?$pair@$$CBVCGUID@@PAVCEntityGroup@@@2@@Z 004478f0 f i app:EntityManager.obj
 0001:00046af0       ?_Incsize@?$list@PAVCEntityGroup@@V?$allocator@PAVCEntityGroup@@@std@@@std@@IAEXI@Z 00447af0 f i app:EntityManager.obj
 0001:00046af0       ?_Incsize@?$list@PAUThreadData@@V?$allocator@PAUThreadData@@@std@@@std@@IAEXI@Z 00447af0 f i app:EntityManager.obj
 0001:00046b90       ?erase@?$_Tree@V?$_Tmap_traits@V?$basic_string@DU?$char_traits@D@std@@V?$allocator@D@2@@std@@UtagEntityAttrInfo@@U?$less@V?$basic_string@DU?$char_traits@D@std@@V?$allocator@D@2@@std@@@2@V?$allocator@U?$pair@$$CBV?$basic_string@DU?$char_traits@D@std@@V?$allocator@D@2@@std@@UtagEntityAttrInfo@@@std@@@2@$0A@@std@@@std@@QAE?AViterator@12@V312@@Z 00447b90 f i app:EntityManager.obj
 0001:00046e80       ?erase@?$_Tree@V?$_Tmap_traits@JPAUtagRankInfo@@U?$less@J@std@@V?$allocator@U?$pair@$$CBJPAUtagRankInfo@@@std@@@3@$0A@@std@@@std@@QAE?AViterator@12@V312@@Z 00447e80 f i app:EntityManager.obj
 0001:00046e80       ?erase@?$_Tree@V?$_Tmap_traits@JPAVDBThread@@U?$less@J@std@@V?$allocator@U?$pair@$$CBJPAVDBThread@@@std@@@3@$0A@@std@@@std@@QAE?AViterator@12@V312@@Z 00447e80 f i app:EntityManager.obj
 0001:00047140       ??0_Node@?$_Tree_nod@V?$_Tmap_traits@V?$basic_string@DU?$char_traits@D@std@@V?$allocator@D@2@@std@@PAVAccount@@U?$less@V?$basic_string@DU?$char_traits@D@std@@V?$allocator@D@2@@std@@@2@V?$allocator@U?$pair@$$CBV?$basic_string@DU?$char_traits@D@std@@V?$allocator@D@2@@std@@PAVAccount@@@std@@@2@$0A@@std@@@std@@QAE@PAU012@00ABU?$pair@$$CBV?$basic_string@DU?$char_traits@D@std@@V?$allocator@D@2@@std@@PAVAccount@@@2@D@Z 00448140 f i app:EntityManager.obj
 0001:00047140       ??0_Node@?$_Tree_nod@V?$_Tmap_traits@V?$basic_string@DU?$char_traits@D@std@@V?$allocator@D@2@@std@@PAUtagBuildFileInfo@@U?$less@V?$basic_string@DU?$char_traits@D@std@@V?$allocator@D@2@@std@@@2@V?$allocator@U?$pair@$$CBV?$basic_string@DU?$char_traits@D@std@@V?$allocator@D@2@@std@@PAUtagBuildFileInfo@@@std@@@2@$0A@@std@@@std@@QAE@PAU012@00ABU?$pair@$$CBV?$basic_string@DU?$char_traits@D@std@@V?$allocator@D@2@@std@@PAUtagBuildFileInfo@@@2@D@Z 00448140 f i app:EntityManager.obj
 0001:00047140       ??0_Node@?$_Tree_nod@V?$_Tmap_traits@V?$basic_string@DU?$char_traits@D@std@@V?$allocator@D@2@@std@@PAUtagEntityBuildInfo@@U?$less@V?$basic_string@DU?$char_traits@D@std@@V?$allocator@D@2@@std@@@2@V?$allocator@U?$pair@$$CBV?$basic_string@DU?$char_traits@D@std@@V?$allocator@D@2@@std@@PAUtagEntityBuildInfo@@@std@@@2@$0A@@std@@@std@@QAE@PAU012@00ABU?$pair@$$CBV?$basic_string@DU?$char_traits@D@std@@V?$allocator@D@2@@std@@PAUtagEntityBuildInfo@@@2@D@Z 00448140 f i app:EntityManager.obj
 0001:000471a0       ??0_Node@?$_Tree_nod@V?$_Tmap_traits@V?$basic_string@DU?$char_traits@D@std@@V?$allocator@D@2@@std@@VCGUID@@U?$less@V?$basic_string@DU?$char_traits@D@std@@V?$allocator@D@2@@std@@@2@V?$allocator@U?$pair@$$CBV?$basic_string@DU?$char_traits@D@std@@V?$allocator@D@2@@std@@VCGUID@@@std@@@2@$0A@@std@@@std@@QAE@PAU012@00ABU?$pair@$$CBV?$basic_string@DU?$char_traits@D@std@@V?$allocator@D@2@@std@@VCGUID@@@2@D@Z 004481a0 f i app:EntityGroup.obj
 0001:000471a0       ??0_Node@?$_Tree_nod@V?$_Tmap_traits@V?$basic_string@DU?$char_traits@D@std@@V?$allocator@D@2@@std@@UtagEntityAttrInfo@@U?$less@V?$basic_string@DU?$char_traits@D@std@@V?$allocator@D@2@@std@@@2@V?$allocator@U?$pair@$$CBV?$basic_string@DU?$char_traits@D@std@@V?$allocator@D@2@@std@@UtagEntityAttrInfo@@@std@@@2@$0A@@std@@@std@@QAE@PAU012@00ABU?$pair@$$CBV?$basic_string@DU?$char_traits@D@std@@V?$allocator@D@2@@std@@UtagEntityAttrInfo@@@2@D@Z 004481a0 f i app:EntityManager.obj
 0001:00047210       ??0_Node@?$_Tree_nod@V?$_Tmap_traits@W4DB_OPERATION_TYPE@@V?$basic_string@DU?$char_traits@D@std@@V?$allocator@D@2@@std@@U?$less@W4DB_OPERATION_TYPE@@@3@V?$allocator@U?$pair@$$CBW4DB_OPERATION_TYPE@@V?$basic_string@DU?$char_traits@D@std@@V?$allocator@D@2@@std@@@std@@@3@$0A@@std@@@std@@QAE@PAU012@00ABU?$pair@$$CBW4DB_OPERATION_TYPE@@V?$basic_string@DU?$char_traits@D@std@@V?$allocator@D@2@@std@@@2@D@Z 00448210 f i app:EntityManager.obj
 0001:00047210       ??0_Node@?$_Tree_nod@V?$_Tmap_traits@JV?$basic_string@DU?$char_traits@D@std@@V?$allocator@D@2@@std@@U?$less@J@2@V?$allocator@U?$pair@$$CBJV?$basic_string@DU?$char_traits@D@std@@V?$allocator@D@2@@std@@@std@@@2@$0A@@std@@@std@@QAE@PAU012@00ABU?$pair@$$CBJV?$basic_string@DU?$char_traits@D@std@@V?$allocator@D@2@@std@@@2@D@Z 00448210 f i app:EntityManager.obj
 0001:00047270       ??$_Uninit_fill_n@PAV?$basic_string@DU?$char_traits@D@std@@V?$allocator@D@2@@std@@IV12@V?$allocator@V?$basic_string@DU?$char_traits@D@std@@V?$allocator@D@2@@std@@@2@@std@@YAXPAV?$basic_string@DU?$char_traits@D@std@@V?$allocator@D@2@@0@IABV10@AAV?$allocator@V?$basic_string@DU?$char_traits@D@std@@V?$allocator@D@2@@std@@@0@U_Nonscalar_ptr_iterator_tag@0@U_Range_checked_iterator_tag@0@@Z 00448270 f i app:EntityManager.obj
 0001:00047330       ??$_Destroy_range@V?$basic_string@DU?$char_traits@D@std@@V?$allocator@D@2@@std@@V?$allocator@V?$basic_string@DU?$char_traits@D@std@@V?$allocator@D@2@@std@@@2@@std@@YAXPAV?$basic_string@DU?$char_traits@D@std@@V?$allocator@D@2@@0@0AAV?$allocator@V?$basic_string@DU?$char_traits@D@std@@V?$allocator@D@2@@std@@@0@U_Nonscalar_ptr_iterator_tag@0@@Z 00448330 f i app:EntityManager.obj
 0001:00047370       ?destroy@?$allocator@UtagDbIdxInfo@@@std@@QAEXPAUtagDbIdxInfo@@@Z 00448370 f i app:EntityManager.obj
 0001:00047370       ?destroy@?$allocator@V?$basic_string@DU?$char_traits@D@std@@V?$allocator@D@2@@std@@@std@@QAEXPAV?$basic_string@DU?$char_traits@D@std@@V?$allocator@D@2@@2@@Z 00448370 f i app:EntityManager.obj
 0001:000473a0       ??$_Copy_backward_opt@PAUtagDbIdxInfo@@PAU1@Uforward_iterator_tag@std@@@std@@YAPAUtagDbIdxInfo@@PAU1@00Uforward_iterator_tag@0@U_Nonscalar_ptr_iterator_tag@0@U_Range_checked_iterator_tag@0@@Z 004483a0 f i app:EntityManager.obj
 0001:000473e0       ??$_Uninit_copy@PAUtagDbIdxInfo@@PAU1@V?$allocator@UtagDbIdxInfo@@@std@@@std@@YAPAUtagDbIdxInfo@@PAU1@00AAV?$allocator@UtagDbIdxInfo@@@0@U_Nonscalar_ptr_iterator_tag@0@U_Range_checked_iterator_tag@0@@Z 004483e0 f i app:EntityManager.obj
 0001:00047480       ?SetDelLeafFlag@CEntityGroup@@QAEXABV?$basic_string@DU?$char_traits@D@std@@V?$allocator@D@2@@std@@@Z 00448480 f i app:EntityManager.obj
 0001:000474a0       ??0tagBuildFileInfo@@QAE@XZ 004484a0 f i app:EntityManager.obj
 0001:00047570       ??4tagRankConfig@@QAEAAU0@ABU0@@Z 00448570 f i app:EntityManager.obj
 0001:000475c0       ?CreateOtherTableComIndexInDb@CEntityManager@@QAEXABV?$basic_string@DU?$char_traits@D@std@@V?$allocator@D@2@@std@@AAV?$vector@UtagDbIdxInfo@@V?$allocator@UtagDbIdxInfo@@@std@@@3@@Z 004485c0 f   app:EntityManager.obj
 0001:000478e0       ?CreateOtherTableIndexInDb@CEntityManager@@QAEXABV?$basic_string@DU?$char_traits@D@std@@V?$allocator@D@2@@std@@AAV?$vector@UtagDbIdxInfo@@V?$allocator@UtagDbIdxInfo@@@std@@@3@_N@Z 004488e0 f   app:EntityManager.obj
 0001:00047ca0       ?CreateOtherTableInDb@CEntityManager@@QAEXABV?$basic_string@DU?$char_traits@D@std@@V?$allocator@D@2@@std@@0@Z 00448ca0 f   app:EntityManager.obj
 0001:000490d0       ?CreateProcedure@CEntityManager@@QAEXABV?$basic_string@DU?$char_traits@D@std@@V?$allocator@D@2@@std@@0@Z 0044a0d0 f   app:EntityManager.obj
 0001:00049280       ?DelOneRootEntity@CEntityManager@@QAEXABV?$basic_string@DU?$char_traits@D@std@@V?$allocator@D@2@@std@@ABVCGUID@@@Z 0044a280 f   app:EntityManager.obj
 0001:00049360       ?ReleaseEntityPtr@CEntityManager@@QAEPAVCEntityGroup@@ABV?$basic_string@DU?$char_traits@D@std@@V?$allocator@D@2@@std@@ABVCGUID@@@Z 0044a360 f   app:EntityManager.obj
 0001:00049450       ?insert@?$_Tree@V?$_Tmap_traits@JPAVDBThread@@U?$less@J@std@@V?$allocator@U?$pair@$$CBJPAVDBThread@@@std@@@3@$0A@@std@@@std@@QAE?AU?$pair@Viterator@?$_Tree@V?$_Tmap_traits@JPAVDBThread@@U?$less@J@std@@V?$allocator@U?$pair@$$CBJPAVDBThread@@@std@@@3@$0A@@std@@@std@@_N@2@ABU?$pair@$$CBJPAVDBThread@@@2@@Z 0044a450 f i app:EntityManager.obj
 0001:00049450       ?insert@?$_Tree@V?$_Tmap_traits@JPAUtagRankInfo@@U?$less@J@std@@V?$allocator@U?$pair@$$CBJPAUtagRankInfo@@@std@@@3@$0A@@std@@@std@@QAE?AU?$pair@Viterator@?$_Tree@V?$_Tmap_traits@JPAUtagRankInfo@@U?$less@J@std@@V?$allocator@U?$pair@$$CBJPAUtagRankInfo@@@std@@@3@$0A@@std@@@std@@_N@2@ABU?$pair@$$CBJPAUtagRankInfo@@@2@@Z 0044a450 f i app:EntityManager.obj
 0001:00049510       ?erase@?$_Tree@V?$_Tmap_traits@JPAVDBThread@@U?$less@J@std@@V?$allocator@U?$pair@$$CBJPAVDBThread@@@std@@@3@$0A@@std@@@std@@QAE?AViterator@12@V312@0@Z 0044a510 f i app:EntityManager.obj
 0001:00049510       ?erase@?$_Tree@V?$_Tmap_traits@JPAUtagRankInfo@@U?$less@J@std@@V?$allocator@U?$pair@$$CBJPAUtagRankInfo@@@std@@@3@$0A@@std@@@std@@QAE?AViterator@12@V312@0@Z 0044a510 f i app:EntityManager.obj
 0001:000495e0       ?insert@?$_Tree@V?$_Tmap_traits@VCGUID@@PAVCEntityGroup@@U?$less@VCGUID@@@std@@V?$allocator@U?$pair@$$CBVCGUID@@PAVCEntityGroup@@@std@@@4@$0A@@std@@@std@@QAE?AU?$pair@Viterator@?$_Tree@V?$_Tmap_traits@VCGUID@@PAVCEntityGroup@@U?$less@VCGUID@@@std@@V?$allocator@U?$pair@$$CBVCGUID@@PAVCEntityGroup@@@std@@@4@$0A@@std@@@std@@_N@2@ABU?$pair@$$CBVCGUID@@PAVCEntityGroup@@@2@@Z 0044a5e0 f i app:EntityManager.obj
 0001:00049700       ?_Insert_n@?$vector@JV?$allocator@J@std@@@std@@IAEXV?$_Vector_iterator@JV?$allocator@J@std@@@2@IABJ@Z 0044a700 f i app:EntityManager.obj
 0001:00049700       ?_Insert_n@?$vector@PBDV?$allocator@PBD@std@@@std@@IAEXV?$_Vector_iterator@PBDV?$allocator@PBD@std@@@2@IABQBD@Z 0044a700 f i app:EntityManager.obj
 0001:00049700       ?_Insert_n@?$vector@PAVCTempEntityProperty@@V?$allocator@PAVCTempEntityProperty@@@std@@@std@@IAEXV?$_Vector_iterator@PAVCTempEntityProperty@@V?$allocator@PAVCTempEntityProperty@@@std@@@2@IABQAVCTempEntityProperty@@@Z 0044a700 f i app:EntityManager.obj
 0001:000498c0       ?erase@?$_Tree@V?$_Tmap_traits@JV?$basic_string@DU?$char_traits@D@std@@V?$allocator@D@2@@std@@U?$less@J@2@V?$allocator@U?$pair@$$CBJV?$basic_string@DU?$char_traits@D@std@@V?$allocator@D@2@@std@@@std@@@2@$0A@@std@@@std@@QAE?AViterator@12@V312@@Z 0044a8c0 f i app:EntityManager.obj
 0001:000498c0       ?erase@?$_Tree@V?$_Tmap_traits@W4DB_OPERATION_TYPE@@V?$basic_string@DU?$char_traits@D@std@@V?$allocator@D@2@@std@@U?$less@W4DB_OPERATION_TYPE@@@3@V?$allocator@U?$pair@$$CBW4DB_OPERATION_TYPE@@V?$basic_string@DU?$char_traits@D@std@@V?$allocator@D@2@@std@@@std@@@3@$0A@@std@@@std@@QAE?AViterator@12@V312@@Z 0044a8c0 f i app:EntityManager.obj
 0001:00049bb0       ?erase@?$_Tree@V?$_Tmap_traits@V?$basic_string@DU?$char_traits@D@std@@V?$allocator@D@2@@std@@PAUtagBuildFileInfo@@U?$less@V?$basic_string@DU?$char_traits@D@std@@V?$allocator@D@2@@std@@@2@V?$allocator@U?$pair@$$CBV?$basic_string@DU?$char_traits@D@std@@V?$allocator@D@2@@std@@PAUtagBuildFileInfo@@@std@@@2@$0A@@std@@@std@@QAE?AViterator@12@V312@@Z 0044abb0 f i app:EntityManager.obj
 0001:00049bb0       ?erase@?$_Tree@V?$_Tmap_traits@V?$basic_string@DU?$char_traits@D@std@@V?$allocator@D@2@@std@@PAUtagEntityBuildInfo@@U?$less@V?$basic_string@DU?$char_traits@D@std@@V?$allocator@D@2@@std@@@2@V?$allocator@U?$pair@$$CBV?$basic_string@DU?$char_traits@D@std@@V?$allocator@D@2@@std@@PAUtagEntityBuildInfo@@@std@@@2@$0A@@std@@@std@@QAE?AViterator@12@V312@@Z 0044abb0 f i app:EntityManager.obj
 0001:00049ea0       ?_Buynode@?$_Tree@V?$_Tmap_traits@V?$basic_string@DU?$char_traits@D@std@@V?$allocator@D@2@@std@@PAUtagEntityBuildInfo@@U?$less@V?$basic_string@DU?$char_traits@D@std@@V?$allocator@D@2@@std@@@2@V?$allocator@U?$pair@$$CBV?$basic_string@DU?$char_traits@D@std@@V?$allocator@D@2@@std@@PAUtagEntityBuildInfo@@@std@@@2@$0A@@std@@@std@@IAEPAU_Node@?$_Tree_nod@V?$_Tmap_traits@V?$basic_string@DU?$char_traits@D@std@@V?$allocator@D@2@@std@@PAUtagEntityBuildInfo@@U?$less@V?$basic_string@DU?$char_traits@D@std@@V?$allocator@D@2@@std@@@2@V?$allocator@U?$pair@$$CBV?$basic_string@DU?$char_traits@D@std@@V?$allocator@D@2@@std@@PAUtagEntityBuildInfo@@@std@@@2@$0A@@std@@@2@PAU342@00ABU?$pair@$$CBV?$basic_string@DU?$char_traits@D@std@@V?$allocator@D@2@@std@@PAUtagEntityBuildInfo@@@2@D@Z 0044aea0 f i app:EntityManager.obj
 0001:00049ea0       ?_Buynode@?$_Tree@V?$_Tmap_traits@V?$basic_string@DU?$char_traits@D@std@@V?$allocator@D@2@@std@@PAVAccount@@U?$less@V?$basic_string@DU?$char_traits@D@std@@V?$allocator@D@2@@std@@@2@V?$allocator@U?$pair@$$CBV?$basic_string@DU?$char_traits@D@std@@V?$allocator@D@2@@std@@PAVAccount@@@std@@@2@$0A@@std@@@std@@IAEPAU_Node@?$_Tree_nod@V?$_Tmap_traits@V?$basic_string@DU?$char_traits@D@std@@V?$allocator@D@2@@std@@PAVAccount@@U?$less@V?$basic_string@DU?$char_traits@D@std@@V?$allocator@D@2@@std@@@2@V?$allocator@U?$pair@$$CBV?$basic_string@DU?$char_traits@D@std@@V?$allocator@D@2@@std@@PAVAccount@@@std@@@2@$0A@@std@@@2@PAU342@00ABU?$pair@$$CBV?$basic_string@DU?$char_traits@D@std@@V?$allocator@D@2@@std@@PAVAccount@@@2@D@Z 0044aea0 f i app:EntityManager.obj
 0001:00049ea0       ?_Buynode@?$_Tree@V?$_Tmap_traits@V?$basic_string@DU?$char_traits@D@std@@V?$allocator@D@2@@std@@PAUtagBuildFileInfo@@U?$less@V?$basic_string@DU?$char_traits@D@std@@V?$allocator@D@2@@std@@@2@V?$allocator@U?$pair@$$CBV?$basic_string@DU?$char_traits@D@std@@V?$allocator@D@2@@std@@PAUtagBuildFileInfo@@@std@@@2@$0A@@std@@@std@@IAEPAU_Node@?$_Tree_nod@V?$_Tmap_traits@V?$basic_string@DU?$char_traits@D@std@@V?$allocator@D@2@@std@@PAUtagBuildFileInfo@@U?$less@V?$basic_string@DU?$char_traits@D@std@@V?$allocator@D@2@@std@@@2@V?$allocator@U?$pair@$$CBV?$basic_string@DU?$char_traits@D@std@@V?$allocator@D@2@@std@@PAUtagBuildFileInfo@@@std@@@2@$0A@@std@@@2@PAU342@00ABU?$pair@$$CBV?$basic_string@DU?$char_traits@D@std@@V?$allocator@D@2@@std@@PAUtagBuildFileInfo@@@2@D@Z 0044aea0 f i app:EntityManager.obj
 0001:00049f40       ?_Buynode@?$_Tree@V?$_Tmap_traits@JV?$basic_string@DU?$char_traits@D@std@@V?$allocator@D@2@@std@@U?$less@J@2@V?$allocator@U?$pair@$$CBJV?$basic_string@DU?$char_traits@D@std@@V?$allocator@D@2@@std@@@std@@@2@$0A@@std@@@std@@IAEPAU_Node@?$_Tree_nod@V?$_Tmap_traits@JV?$basic_string@DU?$char_traits@D@std@@V?$allocator@D@2@@std@@U?$less@J@2@V?$allocator@U?$pair@$$CBJV?$basic_string@DU?$char_traits@D@std@@V?$allocator@D@2@@std@@@std@@@2@$0A@@std@@@2@PAU342@00ABU?$pair@$$CBJV?$basic_string@DU?$char_traits@D@std@@V?$allocator@D@2@@std@@@2@D@Z 0044af40 f i app:EntityManager.obj
 0001:00049f40       ?_Buynode@?$_Tree@V?$_Tmap_traits@W4DB_OPERATION_TYPE@@V?$basic_string@DU?$char_traits@D@std@@V?$allocator@D@2@@std@@U?$less@W4DB_OPERATION_TYPE@@@3@V?$allocator@U?$pair@$$CBW4DB_OPERATION_TYPE@@V?$basic_string@DU?$char_traits@D@std@@V?$allocator@D@2@@std@@@std@@@3@$0A@@std@@@std@@IAEPAU_Node@?$_Tree_nod@V?$_Tmap_traits@W4DB_OPERATION_TYPE@@V?$basic_string@DU?$char_traits@D@std@@V?$allocator@D@2@@std@@U?$less@W4DB_OPERATION_TYPE@@@3@V?$allocator@U?$pair@$$CBW4DB_OPERATION_TYPE@@V?$basic_string@DU?$char_traits@D@std@@V?$allocator@D@2@@std@@@std@@@3@$0A@@std@@@2@PAU342@00ABU?$pair@$$CBW4DB_OPERATION_TYPE@@V?$basic_string@DU?$char_traits@D@std@@V?$allocator@D@2@@std@@@2@D@Z 0044af40 f i app:EntityManager.obj
 0001:00049fe0       ?erase@?$_Tree@V?$_Tmap_traits@JUtagRankConfig@@U?$less@J@std@@V?$allocator@U?$pair@$$CBJUtagRankConfig@@@std@@@3@$0A@@std@@@std@@QAE?AViterator@12@V312@@Z 0044afe0 f i app:EntityManager.obj
 0001:0004a2b0       ?_Buynode@?$_Tree@V?$_Tmap_traits@JUtagRankConfig@@U?$less@J@std@@V?$allocator@U?$pair@$$CBJUtagRankConfig@@@std@@@3@$0A@@std@@@std@@IAEPAU_Node@?$_Tree_nod@V?$_Tmap_traits@JUtagRankConfig@@U?$less@J@std@@V?$allocator@U?$pair@$$CBJUtagRankConfig@@@std@@@3@$0A@@std@@@2@PAU342@00ABU?$pair@$$CBJUtagRankConfig@@@2@D@Z 0044b2b0 f i app:EntityManager.obj
 0001:0004a360       ?_Erase@?$_Tree@V?$_Tmap_traits@JV?$basic_string@DU?$char_traits@D@std@@V?$allocator@D@2@@std@@U?$less@J@2@V?$allocator@U?$pair@$$CBJV?$basic_string@DU?$char_traits@D@std@@V?$allocator@D@2@@std@@@std@@@2@$0A@@std@@@std@@IAEXPAU_Node@?$_Tree_nod@V?$_Tmap_traits@JV?$basic_string@DU?$char_traits@D@std@@V?$allocator@D@2@@std@@U?$less@J@2@V?$allocator@U?$pair@$$CBJV?$basic_string@DU?$char_traits@D@std@@V?$allocator@D@2@@std@@@std@@@2@$0A@@std@@@2@@Z 0044b360 f i app:EntityManager.obj
 0001:0004a360       ?_Erase@?$_Tree@V?$_Tmap_traits@W4DB_OPERATION_TYPE@@V?$basic_string@DU?$char_traits@D@std@@V?$allocator@D@2@@std@@U?$less@W4DB_OPERATION_TYPE@@@3@V?$allocator@U?$pair@$$CBW4DB_OPERATION_TYPE@@V?$basic_string@DU?$char_traits@D@std@@V?$allocator@D@2@@std@@@std@@@3@$0A@@std@@@std@@IAEXPAU_Node@?$_Tree_nod@V?$_Tmap_traits@W4DB_OPERATION_TYPE@@V?$basic_string@DU?$char_traits@D@std@@V?$allocator@D@2@@std@@U?$less@W4DB_OPERATION_TYPE@@@3@V?$allocator@U?$pair@$$CBW4DB_OPERATION_TYPE@@V?$basic_string@DU?$char_traits@D@std@@V?$allocator@D@2@@std@@@std@@@3@$0A@@std@@@2@@Z 0044b360 f i app:EntityManager.obj
 0001:0004a3c0       ?_Erase@?$_Tree@V?$_Tmap_traits@V?$basic_string@DU?$char_traits@D@std@@V?$allocator@D@2@@std@@PAUtagEntityBuildInfo@@U?$less@V?$basic_string@DU?$char_traits@D@std@@V?$allocator@D@2@@std@@@2@V?$allocator@U?$pair@$$CBV?$basic_string@DU?$char_traits@D@std@@V?$allocator@D@2@@std@@PAUtagEntityBuildInfo@@@std@@@2@$0A@@std@@@std@@IAEXPAU_Node@?$_Tree_nod@V?$_Tmap_traits@V?$basic_string@DU?$char_traits@D@std@@V?$allocator@D@2@@std@@PAUtagEntityBuildInfo@@U?$less@V?$basic_string@DU?$char_traits@D@std@@V?$allocator@D@2@@std@@@2@V?$allocator@U?$pair@$$CBV?$basic_string@DU?$char_traits@D@std@@V?$allocator@D@2@@std@@PAUtagEntityBuildInfo@@@std@@@2@$0A@@std@@@2@@Z 0044b3c0 f i app:EntityManager.obj
 0001:0004a3c0       ?_Erase@?$_Tree@V?$_Tmap_traits@V?$basic_string@DU?$char_traits@D@std@@V?$allocator@D@2@@std@@PAVAccount@@U?$less@V?$basic_string@DU?$char_traits@D@std@@V?$allocator@D@2@@std@@@2@V?$allocator@U?$pair@$$CBV?$basic_string@DU?$char_traits@D@std@@V?$allocator@D@2@@std@@PAVAccount@@@std@@@2@$0A@@std@@@std@@IAEXPAU_Node@?$_Tree_nod@V?$_Tmap_traits@V?$basic_string@DU?$char_traits@D@std@@V?$allocator@D@2@@std@@PAVAccount@@U?$less@V?$basic_string@DU?$char_traits@D@std@@V?$allocator@D@2@@std@@@2@V?$allocator@U?$pair@$$CBV?$basic_string@DU?$char_traits@D@std@@V?$allocator@D@2@@std@@PAVAccount@@@std@@@2@$0A@@std@@@2@@Z 0044b3c0 f i app:EntityManager.obj
 0001:0004a3c0       ?_Erase@?$_Tree@V?$_Tmap_traits@V?$basic_string@DU?$char_traits@D@std@@V?$allocator@D@2@@std@@PAUtagBuildFileInfo@@U?$less@V?$basic_string@DU?$char_traits@D@std@@V?$allocator@D@2@@std@@@2@V?$allocator@U?$pair@$$CBV?$basic_string@DU?$char_traits@D@std@@V?$allocator@D@2@@std@@PAUtagBuildFileInfo@@@std@@@2@$0A@@std@@@std@@IAEXPAU_Node@?$_Tree_nod@V?$_Tmap_traits@V?$basic_string@DU?$char_traits@D@std@@V?$allocator@D@2@@std@@PAUtagBuildFileInfo@@U?$less@V?$basic_string@DU?$char_traits@D@std@@V?$allocator@D@2@@std@@@2@V?$allocator@U?$pair@$$CBV?$basic_string@DU?$char_traits@D@std@@V?$allocator@D@2@@std@@PAUtagBuildFileInfo@@@std@@@2@$0A@@std@@@2@@Z 0044b3c0 f i app:EntityManager.obj
 0001:0004a420       ??$fill@PAV?$basic_string@DU?$char_traits@D@std@@V?$allocator@D@2@@std@@V12@@std@@YAXPAV?$basic_string@DU?$char_traits@D@std@@V?$allocator@D@2@@0@0ABV10@@Z 0044b420 f i app:EntityManager.obj
 0001:0004a450       ??$_Uninit_fill_n@PAUtagDbIdxInfo@@IU1@V?$allocator@UtagDbIdxInfo@@@std@@@std@@YAXPAUtagDbIdxInfo@@IABU1@AAV?$allocator@UtagDbIdxInfo@@@0@U_Nonscalar_ptr_iterator_tag@0@U_Range_checked_iterator_tag@0@@Z 0044b450 f i app:EntityManager.obj
 0001:0004a4e0       ??$_Destroy_range@UtagDbIdxInfo@@V?$allocator@UtagDbIdxInfo@@@std@@@std@@YAXPAUtagDbIdxInfo@@0AAV?$allocator@UtagDbIdxInfo@@@0@U_Nonscalar_ptr_iterator_tag@0@@Z 0044b4e0 f i app:EntityManager.obj
 0001:0004a520       ??$_Fill@PAUtagDbIdxInfo@@U1@@std@@YAXPAUtagDbIdxInfo@@0ABU1@@Z 0044b520 f i app:EntityManager.obj
 0001:0004a550       ??$_Insert@V?$_Const_iterator@$00@?$list@VCGUID@@V?$allocator@VCGUID@@@std@@@std@@@?$list@VCGUID@@V?$allocator@VCGUID@@@std@@@std@@QAEXV?$_Iterator@$00@01@V?$_Const_iterator@$00@01@1Uforward_iterator_tag@1@@Z 0044b550 f i app:EntityManager.obj
 0001:0004a670       ??$_Insert@V?$_Const_iterator@$00@?$list@PAUThreadData@@V?$allocator@PAUThreadData@@@std@@@std@@@?$list@PAUThreadData@@V?$allocator@PAUThreadData@@@std@@@std@@QAEXV?$_Iterator@$00@01@V?$_Const_iterator@$00@01@1Uforward_iterator_tag@1@@Z 0044b670 f i app:EntityManager.obj
 0001:0004a670       ??$_Insert@V?$_Iterator@$00@?$list@PAUThreadData@@V?$allocator@PAUThreadData@@@std@@@std@@@?$list@PAUThreadData@@V?$allocator@PAUThreadData@@@std@@@std@@QAEXV?$_Iterator@$00@01@00Uforward_iterator_tag@1@@Z 0044b670 f i app:EntityManager.obj
 0001:0004a790       ?CheckTableInDb@CEntityManager@@QAEXABV?$basic_string@DU?$char_traits@D@std@@V?$allocator@D@2@@std@@0@Z 0044b790 f   app:EntityManager.obj
 0001:0004a890       ?ReleaseAccountPtr@CEntityManager@@QAEPAVCEntityGroup@@ABV?$basic_string@DU?$char_traits@D@std@@V?$allocator@D@2@@std@@@Z 0044b890 f   app:EntityManager.obj
 0001:0004a910       ?push_back@?$list@VCGUID@@V?$allocator@VCGUID@@@std@@@std@@QAEXABVCGUID@@@Z 0044b910 f i app:EntityManager.obj
 0001:0004a950       ?push_front@?$list@PAUThreadData@@V?$allocator@PAUThreadData@@@std@@@std@@QAEXABQAUThreadData@@@Z 0044b950 f i app:EntityManager.obj
 0001:0004a990       ?push_back@?$list@PAUThreadData@@V?$allocator@PAUThreadData@@@std@@@std@@QAEXABQAUThreadData@@@Z 0044b990 f i app:EntityManager.obj
 0001:0004a990       ?push_back@?$list@PAVCEntityGroup@@V?$allocator@PAVCEntityGroup@@@std@@@std@@QAEXABQAVCEntityGroup@@@Z 0044b990 f i app:EntityManager.obj
 0001:0004a9d0       ?_Ufill@?$vector@V?$basic_string@DU?$char_traits@D@std@@V?$allocator@D@2@@std@@V?$allocator@V?$basic_string@DU?$char_traits@D@std@@V?$allocator@D@2@@std@@@2@@std@@IAEPAV?$basic_string@DU?$char_traits@D@std@@V?$allocator@D@2@@2@PAV32@IABV32@@Z 0044b9d0 f i app:EntityManager.obj
 0001:0004aa10       ?_Erase@?$_Tree@V?$_Tmap_traits@JUtagRankConfig@@U?$less@J@std@@V?$allocator@U?$pair@$$CBJUtagRankConfig@@@std@@@3@$0A@@std@@@std@@IAEXPAU_Node@?$_Tree_nod@V?$_Tmap_traits@JUtagRankConfig@@U?$less@J@std@@V?$allocator@U?$pair@$$CBJUtagRankConfig@@@std@@@3@$0A@@std@@@2@@Z 0044ba10 f i app:EntityManager.obj
 0001:0004aab0       ?insert@?$_Tree@V?$_Tmap_traits@JPAUtagRankInfo@@U?$less@J@std@@V?$allocator@U?$pair@$$CBJPAUtagRankInfo@@@std@@@3@$0A@@std@@@std@@QAE?AViterator@12@V312@ABU?$pair@$$CBJPAUtagRankInfo@@@2@@Z 0044bab0 f i app:EntityManager.obj
 0001:0004aab0       ?insert@?$_Tree@V?$_Tmap_traits@JPAVDBThread@@U?$less@J@std@@V?$allocator@U?$pair@$$CBJPAVDBThread@@@std@@@3@$0A@@std@@@std@@QAE?AViterator@12@V312@ABU?$pair@$$CBJPAVDBThread@@@2@@Z 0044bab0 f i app:EntityManager.obj
 0001:0004ac70       ?insert@?$_Tree@V?$_Tmap_traits@VCGUID@@PAVCEntityGroup@@U?$less@VCGUID@@@std@@V?$allocator@U?$pair@$$CBVCGUID@@PAVCEntityGroup@@@std@@@4@$0A@@std@@@std@@QAE?AViterator@12@V312@ABU?$pair@$$CBVCGUID@@PAVCEntityGroup@@@2@@Z 0044bc70 f i app:EntityManager.obj
 0001:0004ae70       ??0?$pair@$$CBV?$basic_string@DU?$char_traits@D@std@@V?$allocator@D@2@@std@@V?$map@VCGUID@@PAVCEntityGroup@@U?$less@VCGUID@@@std@@V?$allocator@U?$pair@$$CBVCGUID@@PAVCEntityGroup@@@std@@@4@@2@@std@@QAE@ABV?$basic_string@DU?$char_traits@D@std@@V?$allocator@D@2@@1@ABV?$map@VCGUID@@PAVCEntityGroup@@U?$less@VCGUID@@@std@@V?$allocator@U?$pair@$$CBVCGUID@@PAVCEntityGroup@@@std@@@4@@1@@Z 0044be70 f i app:EntityManager.obj
 0001:0004aef0       ?insert@?$vector@JV?$allocator@J@std@@@std@@QAE?AV?$_Vector_iterator@JV?$allocator@J@std@@@2@V32@ABJ@Z 0044bef0 f i app:EntityManager.obj
 0001:0004aef0       ?insert@?$vector@PAVCTempEntityProperty@@V?$allocator@PAVCTempEntityProperty@@@std@@@std@@QAE?AV?$_Vector_iterator@PAVCTempEntityProperty@@V?$allocator@PAVCTempEntityProperty@@@std@@@2@V32@ABQAVCTempEntityProperty@@@Z 0044bef0 f i app:EntityManager.obj
 0001:0004aef0       ?insert@?$vector@PBDV?$allocator@PBD@std@@@std@@QAE?AV?$_Vector_iterator@PBDV?$allocator@PBD@std@@@2@V32@ABQBD@Z 0044bef0 f i app:EntityManager.obj
 0001:0004af80       ?erase@?$_Tree@V?$_Tmap_traits@V?$basic_string@DU?$char_traits@D@std@@V?$allocator@D@2@@std@@UtagEntityAttrInfo@@U?$less@V?$basic_string@DU?$char_traits@D@std@@V?$allocator@D@2@@std@@@2@V?$allocator@U?$pair@$$CBV?$basic_string@DU?$char_traits@D@std@@V?$allocator@D@2@@std@@UtagEntityAttrInfo@@@std@@@2@$0A@@std@@@std@@QAE?AViterator@12@V312@0@Z 0044bf80 f i app:EntityManager.obj
 0001:0004b050       ?erase@?$_Tree@V?$_Tmap_traits@V?$basic_string@DU?$char_traits@D@std@@V?$allocator@D@2@@std@@PAVAccount@@U?$less@V?$basic_string@DU?$char_traits@D@std@@V?$allocator@D@2@@std@@@2@V?$allocator@U?$pair@$$CBV?$basic_string@DU?$char_traits@D@std@@V?$allocator@D@2@@std@@PAVAccount@@@std@@@2@$0A@@std@@@std@@QAE?AViterator@12@V312@0@Z 0044c050 f i app:EntityManager.obj
 0001:0004b120       ?_Insert@?$_Tree@V?$_Tmap_traits@V?$basic_string@DU?$char_traits@D@std@@V?$allocator@D@2@@std@@PAVAccount@@U?$less@V?$basic_string@DU?$char_traits@D@std@@V?$allocator@D@2@@std@@@2@V?$allocator@U?$pair@$$CBV?$basic_string@DU?$char_traits@D@std@@V?$allocator@D@2@@std@@PAVAccount@@@std@@@2@$0A@@std@@@std@@IAE?AViterator@12@_NPAU_Node@?$_Tree_nod@V?$_Tmap_traits@V?$basic_string@DU?$char_traits@D@std@@V?$allocator@D@2@@std@@PAVAccount@@U?$less@V?$basic_string@DU?$char_traits@D@std@@V?$allocator@D@2@@std@@@2@V?$allocator@U?$pair@$$CBV?$basic_string@DU?$char_traits@D@std@@V?$allocator@D@2@@std@@PAVAccount@@@std@@@2@$0A@@std@@@2@ABU?$pair@$$CBV?$basic_string@DU?$char_traits@D@std@@V?$allocator@D@2@@std@@PAVAccount@@@2@@Z 0044c120 f i app:EntityManager.obj
 0001:0004b320       ?_Insert@?$_Tree@V?$_Tmap_traits@V?$basic_string@DU?$char_traits@D@std@@V?$allocator@D@2@@std@@PAUtagBuildFileInfo@@U?$less@V?$basic_string@DU?$char_traits@D@std@@V?$allocator@D@2@@std@@@2@V?$allocator@U?$pair@$$CBV?$basic_string@DU?$char_traits@D@std@@V?$allocator@D@2@@std@@PAUtagBuildFileInfo@@@std@@@2@$0A@@std@@@std@@IAE?AViterator@12@_NPAU_Node@?$_Tree_nod@V?$_Tmap_traits@V?$basic_string@DU?$char_traits@D@std@@V?$allocator@D@2@@std@@PAUtagBuildFileInfo@@U?$less@V?$basic_string@DU?$char_traits@D@std@@V?$allocator@D@2@@std@@@2@V?$allocator@U?$pair@$$CBV?$basic_string@DU?$char_traits@D@std@@V?$allocator@D@2@@std@@PAUtagBuildFileInfo@@@std@@@2@$0A@@std@@@2@ABU?$pair@$$CBV?$basic_string@DU?$char_traits@D@std@@V?$allocator@D@2@@std@@PAUtagBuildFileInfo@@@2@@Z 0044c320 f i app:EntityManager.obj
 0001:0004b320       ?_Insert@?$_Tree@V?$_Tmap_traits@V?$basic_string@DU?$char_traits@D@std@@V?$allocator@D@2@@std@@PAUtagEntityBuildInfo@@U?$less@V?$basic_string@DU?$char_traits@D@std@@V?$allocator@D@2@@std@@@2@V?$allocator@U?$pair@$$CBV?$basic_string@DU?$char_traits@D@std@@V?$allocator@D@2@@std@@PAUtagEntityBuildInfo@@@std@@@2@$0A@@std@@@std@@IAE?AViterator@12@_NPAU_Node@?$_Tree_nod@V?$_Tmap_traits@V?$basic_string@DU?$char_traits@D@std@@V?$allocator@D@2@@std@@PAUtagEntityBuildInfo@@U?$less@V?$basic_string@DU?$char_traits@D@std@@V?$allocator@D@2@@std@@@2@V?$allocator@U?$pair@$$CBV?$basic_string@DU?$char_traits@D@std@@V?$allocator@D@2@@std@@PAUtagEntityBuildInfo@@@std@@@2@$0A@@std@@@2@ABU?$pair@$$CBV?$basic_string@DU?$char_traits@D@std@@V?$allocator@D@2@@std@@PAUtagEntityBuildInfo@@@2@@Z 0044c320 f i app:EntityManager.obj
 0001:0004b520       ?_Destroy@?$vector@V?$basic_string@DU?$char_traits@D@std@@V?$allocator@D@2@@std@@V?$allocator@V?$basic_string@DU?$char_traits@D@std@@V?$allocator@D@2@@std@@@2@@std@@IAEXPAV?$basic_string@DU?$char_traits@D@std@@V?$allocator@D@2@@2@0@Z 0044c520 f i app:EntityManager.obj
 0001:0004b540       ?_Insert@?$_Tree@V?$_Tmap_traits@W4DB_OPERATION_TYPE@@V?$basic_string@DU?$char_traits@D@std@@V?$allocator@D@2@@std@@U?$less@W4DB_OPERATION_TYPE@@@3@V?$allocator@U?$pair@$$CBW4DB_OPERATION_TYPE@@V?$basic_string@DU?$char_traits@D@std@@V?$allocator@D@2@@std@@@std@@@3@$0A@@std@@@std@@IAE?AViterator@12@_NPAU_Node@?$_Tree_nod@V?$_Tmap_traits@W4DB_OPERATION_TYPE@@V?$basic_string@DU?$char_traits@D@std@@V?$allocator@D@2@@std@@U?$less@W4DB_OPERATION_TYPE@@@3@V?$allocator@U?$pair@$$CBW4DB_OPERATION_TYPE@@V?$basic_string@DU?$char_traits@D@std@@V?$allocator@D@2@@std@@@std@@@3@$0A@@std@@@2@ABU?$pair@$$CBW4DB_OPERATION_TYPE@@V?$basic_string@DU?$char_traits@D@std@@V?$allocator@D@2@@std@@@2@@Z 0044c540 f i app:EntityManager.obj
 0001:0004b540       ?_Insert@?$_Tree@V?$_Tmap_traits@JV?$basic_string@DU?$char_traits@D@std@@V?$allocator@D@2@@std@@U?$less@J@2@V?$allocator@U?$pair@$$CBJV?$basic_string@DU?$char_traits@D@std@@V?$allocator@D@2@@std@@@std@@@2@$0A@@std@@@std@@IAE?AViterator@12@_NPAU_Node@?$_Tree_nod@V?$_Tmap_traits@JV?$basic_string@DU?$char_traits@D@std@@V?$allocator@D@2@@std@@U?$less@J@2@V?$allocator@U?$pair@$$CBJV?$basic_string@DU?$char_traits@D@std@@V?$allocator@D@2@@std@@@std@@@2@$0A@@std@@@2@ABU?$pair@$$CBJV?$basic_string@DU?$char_traits@D@std@@V?$allocator@D@2@@std@@@2@@Z 0044c540 f i app:EntityManager.obj
 0001:0004b740       ?_Insert@?$_Tree@V?$_Tmap_traits@JUtagRankConfig@@U?$less@J@std@@V?$allocator@U?$pair@$$CBJUtagRankConfig@@@std@@@3@$0A@@std@@@std@@IAE?AViterator@12@_NPAU_Node@?$_Tree_nod@V?$_Tmap_traits@JUtagRankConfig@@U?$less@J@std@@V?$allocator@U?$pair@$$CBJUtagRankConfig@@@std@@@3@$0A@@std@@@2@ABU?$pair@$$CBJUtagRankConfig@@@2@@Z 0044c740 f i app:EntityManager.obj
 0001:0004b940       ?_Copy@?$_Tree@V?$_Tmap_traits@W4DB_OPERATION_TYPE@@V?$basic_string@DU?$char_traits@D@std@@V?$allocator@D@2@@std@@U?$less@W4DB_OPERATION_TYPE@@@3@V?$allocator@U?$pair@$$CBW4DB_OPERATION_TYPE@@V?$basic_string@DU?$char_traits@D@std@@V?$allocator@D@2@@std@@@std@@@3@$0A@@std@@@std@@IAEPAU_Node@?$_Tree_nod@V?$_Tmap_traits@W4DB_OPERATION_TYPE@@V?$basic_string@DU?$char_traits@D@std@@V?$allocator@D@2@@std@@U?$less@W4DB_OPERATION_TYPE@@@3@V?$allocator@U?$pair@$$CBW4DB_OPERATION_TYPE@@V?$basic_string@DU?$char_traits@D@std@@V?$allocator@D@2@@std@@@std@@@3@$0A@@std@@@2@PAU342@0@Z 0044c940 f i app:EntityManager.obj
 0001:0004ba00       ??0?$pair@$$CBV?$basic_string@DU?$char_traits@D@std@@V?$allocator@D@2@@std@@V?$map@VCGUID@@PAVCEntityGroup@@U?$less@VCGUID@@@std@@V?$allocator@U?$pair@$$CBVCGUID@@PAVCEntityGroup@@@std@@@4@@2@@std@@QAE@ABU01@@Z 0044ca00 f i app:EntityManager.obj
 0001:0004ba80       ??$_Uninit_move@PAV?$basic_string@DU?$char_traits@D@std@@V?$allocator@D@2@@std@@PAV12@V?$allocator@V?$basic_string@DU?$char_traits@D@std@@V?$allocator@D@2@@std@@@2@@std@@YAPAV?$basic_string@DU?$char_traits@D@std@@V?$allocator@D@2@@0@PAV10@00AAV?$allocator@V?$basic_string@DU?$char_traits@D@std@@V?$allocator@D@2@@std@@@0@U_Swap_move_tag@0@U_Range_checked_iterator_tag@0@@Z 0044ca80 f i app:EntityManager.obj
 0001:0004bbc0       ??$_Move_backward_opt@PAV?$basic_string@DU?$char_traits@D@std@@V?$allocator@D@2@@std@@PAV12@Uforward_iterator_tag@2@@std@@YAPAV?$basic_string@DU?$char_traits@D@std@@V?$allocator@D@2@@0@PAV10@00Uforward_iterator_tag@0@U_Swap_move_tag@0@U_Range_checked_iterator_tag@0@@Z 0044cbc0 f i app:EntityManager.obj
 0001:0004bc50       ?PushMailThreadData@CEntityManager@@QAE_NPAUThreadData@@@Z 0044cc50 f   app:EntityManager.obj
 0001:0004bcd0       ?PushMailThreadData@CEntityManager@@QAE_NAAV?$list@PAUThreadData@@V?$allocator@PAUThreadData@@@std@@@std@@@Z 0044ccd0 f   app:EntityManager.obj
 0001:0004bd40       ?PushLoadThreadData@CEntityManager@@QAE_NPAUThreadData@@@Z 0044cd40 f   app:EntityManager.obj
 0001:0004be20       ?PushSaveThreadData@CEntityManager@@QAE_NPAUThreadData@@@Z 0044ce20 f   app:EntityManager.obj
 0001:0004bf00       ?PushLoadThreadData@CEntityManager@@QAE_NAAV?$list@PAUThreadData@@V?$allocator@PAUThreadData@@@std@@@std@@@Z 0044cf00 f   app:EntityManager.obj
 0001:0004c000       ?PushSaveThreadData@CEntityManager@@QAE_NAAV?$list@PAUThreadData@@V?$allocator@PAUThreadData@@@std@@@std@@@Z 0044d000 f   app:EntityManager.obj
 0001:0004c100       ?PushRetThreadData@CEntityManager@@QAE_NPAUThreadData@@@Z 0044d100 f   app:EntityManager.obj
 0001:0004c170       ?AddDirtyEntityGuid@CEntityManager@@QAEXABVCGUID@@@Z 0044d170 f   app:EntityManager.obj
 0001:0004c1f0       ??A?$map@JPAVDBThread@@U?$less@J@std@@V?$allocator@U?$pair@$$CBJPAVDBThread@@@std@@@3@@std@@QAEAAPAVDBThread@@ABJ@Z 0044d1f0 f i app:EntityManager.obj
 0001:0004c1f0       ??A?$map@JPAUtagRankInfo@@U?$less@J@std@@V?$allocator@U?$pair@$$CBJPAUtagRankInfo@@@std@@@3@@std@@QAEAAPAUtagRankInfo@@ABJ@Z 0044d1f0 f i app:EntityManager.obj
 0001:0004c270       ??A?$map@VCGUID@@PAVCEntityGroup@@U?$less@VCGUID@@@std@@V?$allocator@U?$pair@$$CBVCGUID@@PAVCEntityGroup@@@std@@@4@@std@@QAEAAPAVCEntityGroup@@ABVCGUID@@@Z 0044d270 f i app:EntityManager.obj
 0001:0004c320       ?push_back@?$vector@PBDV?$allocator@PBD@std@@@std@@QAEXABQBD@Z 0044d320 f i app:EntityManager.obj
 0001:0004c320       ?push_back@?$vector@PAVCTempEntityProperty@@V?$allocator@PAVCTempEntityProperty@@@std@@@std@@QAEXABQAVCTempEntityProperty@@@Z 0044d320 f i app:EntityManager.obj
 0001:0004c320       ?push_back@?$vector@JV?$allocator@J@std@@@std@@QAEXABJ@Z 0044d320 f i app:EntityManager.obj
 0001:0004c390       ?_Ufill@?$vector@UtagDbIdxInfo@@V?$allocator@UtagDbIdxInfo@@@std@@@std@@IAEPAUtagDbIdxInfo@@PAU3@IABU3@@Z 0044d390 f i app:EntityManager.obj
 0001:0004c3d0       ?erase@?$_Tree@V?$_Tmap_traits@W4DB_OPERATION_TYPE@@V?$basic_string@DU?$char_traits@D@std@@V?$allocator@D@2@@std@@U?$less@W4DB_OPERATION_TYPE@@@3@V?$allocator@U?$pair@$$CBW4DB_OPERATION_TYPE@@V?$basic_string@DU?$char_traits@D@std@@V?$allocator@D@2@@std@@@std@@@3@$0A@@std@@@std@@QAE?AViterator@12@V312@0@Z 0044d3d0 f i app:EntityManager.obj
 0001:0004c3d0       ?erase@?$_Tree@V?$_Tmap_traits@JV?$basic_string@DU?$char_traits@D@std@@V?$allocator@D@2@@std@@U?$less@J@2@V?$allocator@U?$pair@$$CBJV?$basic_string@DU?$char_traits@D@std@@V?$allocator@D@2@@std@@@std@@@2@$0A@@std@@@std@@QAE?AViterator@12@V312@0@Z 0044d3d0 f i app:EntityManager.obj
 0001:0004c4a0       ?_Copy@?$_Tree@V?$_Tmap_traits@W4DB_OPERATION_TYPE@@V?$basic_string@DU?$char_traits@D@std@@V?$allocator@D@2@@std@@U?$less@W4DB_OPERATION_TYPE@@@3@V?$allocator@U?$pair@$$CBW4DB_OPERATION_TYPE@@V?$basic_string@DU?$char_traits@D@std@@V?$allocator@D@2@@std@@@std@@@3@$0A@@std@@@std@@IAEXABV12@@Z 0044d4a0 f i app:EntityManager.obj
 0001:0004c520       ?_Destroy@?$vector@UtagDbIdxInfo@@V?$allocator@UtagDbIdxInfo@@@std@@@std@@IAEXPAUtagDbIdxInfo@@0@Z 0044d520 f i app:EntityManager.obj
 0001:0004c540       ?erase@?$_Tree@V?$_Tmap_traits@V?$basic_string@DU?$char_traits@D@std@@V?$allocator@D@2@@std@@PAUtagEntityBuildInfo@@U?$less@V?$basic_string@DU?$char_traits@D@std@@V?$allocator@D@2@@std@@@2@V?$allocator@U?$pair@$$CBV?$basic_string@DU?$char_traits@D@std@@V?$allocator@D@2@@std@@PAUtagEntityBuildInfo@@@std@@@2@$0A@@std@@@std@@QAE?AViterator@12@V312@0@Z 0044d540 f i app:EntityManager.obj
 0001:0004c540       ?erase@?$_Tree@V?$_Tmap_traits@V?$basic_string@DU?$char_traits@D@std@@V?$allocator@D@2@@std@@PAUtagBuildFileInfo@@U?$less@V?$basic_string@DU?$char_traits@D@std@@V?$allocator@D@2@@std@@@2@V?$allocator@U?$pair@$$CBV?$basic_string@DU?$char_traits@D@std@@V?$allocator@D@2@@std@@PAUtagBuildFileInfo@@@std@@@2@$0A@@std@@@std@@QAE?AViterator@12@V312@0@Z 0044d540 f i app:EntityManager.obj
 0001:0004c610       ?insert@?$_Tree@V?$_Tmap_traits@V?$basic_string@DU?$char_traits@D@std@@V?$allocator@D@2@@std@@PAVAccount@@U?$less@V?$basic_string@DU?$char_traits@D@std@@V?$allocator@D@2@@std@@@2@V?$allocator@U?$pair@$$CBV?$basic_string@DU?$char_traits@D@std@@V?$allocator@D@2@@std@@PAVAccount@@@std@@@2@$0A@@std@@@std@@QAE?AU?$pair@Viterator@?$_Tree@V?$_Tmap_traits@V?$basic_string@DU?$char_traits@D@std@@V?$allocator@D@2@@std@@PAVAccount@@U?$less@V?$basic_string@DU?$char_traits@D@std@@V?$allocator@D@2@@std@@@2@V?$allocator@U?$pair@$$CBV?$basic_string@DU?$char_traits@D@std@@V?$allocator@D@2@@std@@PAVAccount@@@std@@@2@$0A@@std@@@std@@_N@2@ABU?$pair@$$CBV?$basic_string@DU?$char_traits@D@std@@V?$allocator@D@2@@std@@PAVAccount@@@2@@Z 0044d610 f i app:EntityManager.obj
 0001:0004c740       ?insert@?$_Tree@V?$_Tmap_traits@V?$basic_string@DU?$char_traits@D@std@@V?$allocator@D@2@@std@@PAUtagBuildFileInfo@@U?$less@V?$basic_string@DU?$char_traits@D@std@@V?$allocator@D@2@@std@@@2@V?$allocator@U?$pair@$$CBV?$basic_string@DU?$char_traits@D@std@@V?$allocator@D@2@@std@@PAUtagBuildFileInfo@@@std@@@2@$0A@@std@@@std@@QAE?AU?$pair@Viterator@?$_Tree@V?$_Tmap_traits@V?$basic_string@DU?$char_traits@D@std@@V?$allocator@D@2@@std@@PAUtagBuildFileInfo@@U?$less@V?$basic_string@DU?$char_traits@D@std@@V?$allocator@D@2@@std@@@2@V?$allocator@U?$pair@$$CBV?$basic_string@DU?$char_traits@D@std@@V?$allocator@D@2@@std@@PAUtagBuildFileInfo@@@std@@@2@$0A@@std@@@std@@_N@2@ABU?$pair@$$CBV?$basic_string@DU?$char_traits@D@std@@V?$allocator@D@2@@std@@PAUtagBuildFileInfo@@@2@@Z 0044d740 f i app:EntityManager.obj
 0001:0004c740       ?insert@?$_Tree@V?$_Tmap_traits@V?$basic_string@DU?$char_traits@D@std@@V?$allocator@D@2@@std@@PAUtagEntityBuildInfo@@U?$less@V?$basic_string@DU?$char_traits@D@std@@V?$allocator@D@2@@std@@@2@V?$allocator@U?$pair@$$CBV?$basic_string@DU?$char_traits@D@std@@V?$allocator@D@2@@std@@PAUtagEntityBuildInfo@@@std@@@2@$0A@@std@@@std@@QAE?AU?$pair@Viterator@?$_Tree@V?$_Tmap_traits@V?$basic_string@DU?$char_traits@D@std@@V?$allocator@D@2@@std@@PAUtagEntityBuildInfo@@U?$less@V?$basic_string@DU?$char_traits@D@std@@V?$allocator@D@2@@std@@@2@V?$allocator@U?$pair@$$CBV?$basic_string@DU?$char_traits@D@std@@V?$allocator@D@2@@std@@PAUtagEntityBuildInfo@@@std@@@2@$0A@@std@@@std@@_N@2@ABU?$pair@$$CBV?$basic_string@DU?$char_traits@D@std@@V?$allocator@D@2@@std@@PAUtagEntityBuildInfo@@@2@@Z 0044d740 f i app:EntityManager.obj
 0001:0004c870       ?insert@?$_Tree@V?$_Tmap_traits@W4DB_OPERATION_TYPE@@V?$basic_string@DU?$char_traits@D@std@@V?$allocator@D@2@@std@@U?$less@W4DB_OPERATION_TYPE@@@3@V?$allocator@U?$pair@$$CBW4DB_OPERATION_TYPE@@V?$basic_string@DU?$char_traits@D@std@@V?$allocator@D@2@@std@@@std@@@3@$0A@@std@@@std@@QAE?AU?$pair@Viterator@?$_Tree@V?$_Tmap_traits@W4DB_OPERATION_TYPE@@V?$basic_string@DU?$char_traits@D@std@@V?$allocator@D@2@@std@@U?$less@W4DB_OPERATION_TYPE@@@3@V?$allocator@U?$pair@$$CBW4DB_OPERATION_TYPE@@V?$basic_string@DU?$char_traits@D@std@@V?$allocator@D@2@@std@@@std@@@3@$0A@@std@@@std@@_N@2@ABU?$pair@$$CBW4DB_OPERATION_TYPE@@V?$basic_string@DU?$char_traits@D@std@@V?$allocator@D@2@@std@@@2@@Z 0044d870 f i app:EntityManager.obj
 0001:0004c870       ?insert@?$_Tree@V?$_Tmap_traits@JV?$basic_string@DU?$char_traits@D@std@@V?$allocator@D@2@@std@@U?$less@J@2@V?$allocator@U?$pair@$$CBJV?$basic_string@DU?$char_traits@D@std@@V?$allocator@D@2@@std@@@std@@@2@$0A@@std@@@std@@QAE?AU?$pair@Viterator@?$_Tree@V?$_Tmap_traits@JV?$basic_string@DU?$char_traits@D@std@@V?$allocator@D@2@@std@@U?$less@J@2@V?$allocator@U?$pair@$$CBJV?$basic_string@DU?$char_traits@D@std@@V?$allocator@D@2@@std@@@std@@@2@$0A@@std@@@std@@_N@2@ABU?$pair@$$CBJV?$basic_string@DU?$char_traits@D@std@@V?$allocator@D@2@@std@@@2@@Z 0044d870 f i app:EntityManager.obj
 0001:0004c930       ?insert@?$_Tree@V?$_Tmap_traits@JUtagRankConfig@@U?$less@J@std@@V?$allocator@U?$pair@$$CBJUtagRankConfig@@@std@@@3@$0A@@std@@@std@@QAE?AU?$pair@Viterator@?$_Tree@V?$_Tmap_traits@JUtagRankConfig@@U?$less@J@std@@V?$allocator@U?$pair@$$CBJUtagRankConfig@@@std@@@3@$0A@@std@@@std@@_N@2@ABU?$pair@$$CBJUtagRankConfig@@@2@@Z 0044d930 f i app:EntityManager.obj
 0001:0004c9f0       ?erase@?$_Tree@V?$_Tmap_traits@JUtagRankConfig@@U?$less@J@std@@V?$allocator@U?$pair@$$CBJUtagRankConfig@@@std@@@3@$0A@@std@@@std@@QAE?AViterator@12@V312@0@Z 0044d9f0 f i app:EntityManager.obj
 0001:0004cac0       ??0?$_Tree@V?$_Tmap_traits@W4DB_OPERATION_TYPE@@V?$basic_string@DU?$char_traits@D@std@@V?$allocator@D@2@@std@@U?$less@W4DB_OPERATION_TYPE@@@3@V?$allocator@U?$pair@$$CBW4DB_OPERATION_TYPE@@V?$basic_string@DU?$char_traits@D@std@@V?$allocator@D@2@@std@@@std@@@3@$0A@@std@@@std@@QAE@ABV01@@Z 0044dac0 f i app:EntityManager.obj
 0001:0004cb50       ??$_Unchecked_move_backward@PAUtagDbIdxInfo@@PAU1@@stdext@@YAPAUtagDbIdxInfo@@PAU1@00@Z 0044db50 f i app:EntityManager.obj
 0001:0004cba0       ??$_Assign@V?$_Const_iterator@$00@?$list@VCGUID@@V?$allocator@VCGUID@@@std@@@std@@@?$list@VCGUID@@V?$allocator@VCGUID@@@std@@@std@@QAEXV?$_Const_iterator@$00@01@0Uinput_iterator_tag@1@@Z 0044dba0 f i app:EntityManager.obj
 0001:0004cc00       ??$_Assign@V?$_Const_iterator@$00@?$list@PAUThreadData@@V?$allocator@PAUThreadData@@@std@@@std@@@?$list@PAUThreadData@@V?$allocator@PAUThreadData@@@std@@@std@@QAEXV?$_Const_iterator@$00@01@0Uinput_iterator_tag@1@@Z 0044dc00 f i app:EntityManager.obj
 0001:0004cc60       ??$_Move_backward_opt@PAV?$basic_string@DU?$char_traits@D@std@@V?$allocator@D@2@@std@@PAV12@@std@@YAPAV?$basic_string@DU?$char_traits@D@std@@V?$allocator@D@2@@0@PAV10@00Urandom_access_iterator_tag@0@U_Swap_move_tag@0@U_Range_checked_iterator_tag@0@@Z 0044dc60 f i app:EntityManager.obj
 0001:0004ccc0       ??1?$map@JPAUtagRankInfo@@U?$less@J@std@@V?$allocator@U?$pair@$$CBJPAUtagRankInfo@@@std@@@3@@std@@QAE@XZ 0044dcc0 f i app:EntityManager.obj
 0001:0004ccc0       ??1?$map@JPAVDBThread@@U?$less@J@std@@V?$allocator@U?$pair@$$CBJPAVDBThread@@@std@@@3@@std@@QAE@XZ 0044dcc0 f i app:EntityManager.obj
 0001:0004cd00       ?PushThreadQuitEventHandle@CEntityManager@@QAE_NAAPAX@Z 0044dd00 f   app:EntityManager.obj
 0001:0004cd30       ?GenerateQuerySavePlayerInfo@CEntityManager@@QAE_NPAVCEntityGroup@@@Z 0044dd30 f   app:EntityManager.obj
 0001:0004d550       ?AddDirtyEntityName@CEntityManager@@QAEXPBD@Z 0044e550 f   app:EntityManager.obj
 0001:0004d670       ?SaveAllEntity@CEntityManager@@QAEXXZ 0044e670 f   app:EntityManager.obj
 0001:0004e730       ??1?$vector@V?$basic_string@DU?$char_traits@D@std@@V?$allocator@D@2@@std@@V?$allocator@V?$basic_string@DU?$char_traits@D@std@@V?$allocator@D@2@@std@@@2@@std@@QAE@XZ 0044f730 f i app:EntityManager.obj
 0001:0004e770       ?getline@?$basic_istream@DU?$char_traits@D@std@@@std@@QAEAAV12@PADHD@Z 0044f770 f i app:EntityManager.obj
 0001:0004e920       ?insert@?$_Tree@V?$_Tmap_traits@V?$basic_string@DU?$char_traits@D@std@@V?$allocator@D@2@@std@@UtagEntityAttrInfo@@U?$less@V?$basic_string@DU?$char_traits@D@std@@V?$allocator@D@2@@std@@@2@V?$allocator@U?$pair@$$CBV?$basic_string@DU?$char_traits@D@std@@V?$allocator@D@2@@std@@UtagEntityAttrInfo@@@std@@@2@$0A@@std@@@std@@QAE?AViterator@12@V312@ABU?$pair@$$CBV?$basic_string@DU?$char_traits@D@std@@V?$allocator@D@2@@std@@UtagEntityAttrInfo@@@2@@Z 0044f920 f i app:EntityManager.obj
 0001:0004eb20       ?insert@?$_Tree@V?$_Tmap_traits@V?$basic_string@DU?$char_traits@D@std@@V?$allocator@D@2@@std@@PAUtagEntityBuildInfo@@U?$less@V?$basic_string@DU?$char_traits@D@std@@V?$allocator@D@2@@std@@@2@V?$allocator@U?$pair@$$CBV?$basic_string@DU?$char_traits@D@std@@V?$allocator@D@2@@std@@PAUtagEntityBuildInfo@@@std@@@2@$0A@@std@@@std@@QAE?AViterator@12@V312@ABU?$pair@$$CBV?$basic_string@DU?$char_traits@D@std@@V?$allocator@D@2@@std@@PAUtagEntityBuildInfo@@@2@@Z 0044fb20 f i app:EntityManager.obj
 0001:0004eb20       ?insert@?$_Tree@V?$_Tmap_traits@V?$basic_string@DU?$char_traits@D@std@@V?$allocator@D@2@@std@@PAUtagBuildFileInfo@@U?$less@V?$basic_string@DU?$char_traits@D@std@@V?$allocator@D@2@@std@@@2@V?$allocator@U?$pair@$$CBV?$basic_string@DU?$char_traits@D@std@@V?$allocator@D@2@@std@@PAUtagBuildFileInfo@@@std@@@2@$0A@@std@@@std@@QAE?AViterator@12@V312@ABU?$pair@$$CBV?$basic_string@DU?$char_traits@D@std@@V?$allocator@D@2@@std@@PAUtagBuildFileInfo@@@2@@Z 0044fb20 f i app:EntityManager.obj
 0001:0004ed20       ?insert@?$_Tree@V?$_Tmap_traits@V?$basic_string@DU?$char_traits@D@std@@V?$allocator@D@2@@std@@PAVAccount@@U?$less@V?$basic_string@DU?$char_traits@D@std@@V?$allocator@D@2@@std@@@2@V?$allocator@U?$pair@$$CBV?$basic_string@DU?$char_traits@D@std@@V?$allocator@D@2@@std@@PAVAccount@@@std@@@2@$0A@@std@@@std@@QAE?AViterator@12@V312@ABU?$pair@$$CBV?$basic_string@DU?$char_traits@D@std@@V?$allocator@D@2@@std@@PAVAccount@@@2@@Z 0044fd20 f i app:EntityManager.obj
 0001:0004ef20       ?insert@?$_Tree@V?$_Tmap_traits@JUtagRankConfig@@U?$less@J@std@@V?$allocator@U?$pair@$$CBJUtagRankConfig@@@std@@@3@$0A@@std@@@std@@QAE?AViterator@12@V312@ABU?$pair@$$CBJUtagRankConfig@@@2@@Z 0044ff20 f i app:EntityManager.obj
 0001:0004f0e0       ?insert@?$_Tree@V?$_Tmap_traits@JV?$basic_string@DU?$char_traits@D@std@@V?$allocator@D@2@@std@@U?$less@J@2@V?$allocator@U?$pair@$$CBJV?$basic_string@DU?$char_traits@D@std@@V?$allocator@D@2@@std@@@std@@@2@$0A@@std@@@std@@QAE?AViterator@12@V312@ABU?$pair@$$CBJV?$basic_string@DU?$char_traits@D@std@@V?$allocator@D@2@@std@@@2@@Z 004500e0 f i app:EntityManager.obj
 0001:0004f0e0       ?insert@?$_Tree@V?$_Tmap_traits@W4DB_OPERATION_TYPE@@V?$basic_string@DU?$char_traits@D@std@@V?$allocator@D@2@@std@@U?$less@W4DB_OPERATION_TYPE@@@3@V?$allocator@U?$pair@$$CBW4DB_OPERATION_TYPE@@V?$basic_string@DU?$char_traits@D@std@@V?$allocator@D@2@@std@@@std@@@3@$0A@@std@@@std@@QAE?AViterator@12@V312@ABU?$pair@$$CBW4DB_OPERATION_TYPE@@V?$basic_string@DU?$char_traits@D@std@@V?$allocator@D@2@@std@@@2@@Z 004500e0 f i app:EntityManager.obj
 0001:0004f2a0       ?_Buynode@?$_Tree@V?$_Tmap_traits@V?$basic_string@DU?$char_traits@D@std@@V?$allocator@D@2@@std@@V?$map@VCGUID@@PAVCEntityGroup@@U?$less@VCGUID@@@std@@V?$allocator@U?$pair@$$CBVCGUID@@PAVCEntityGroup@@@std@@@4@@2@U?$less@V?$basic_string@DU?$char_traits@D@std@@V?$allocator@D@2@@std@@@2@V?$allocator@U?$pair@$$CBV?$basic_string@DU?$char_traits@D@std@@V?$allocator@D@2@@std@@V?$map@VCGUID@@PAVCEntityGroup@@U?$less@VCGUID@@@std@@V?$allocator@U?$pair@$$CBVCGUID@@PAVCEntityGroup@@@std@@@4@@2@@std@@@2@$0A@@std@@@std@@IAEPAU_Node@?$_Tree_nod@V?$_Tmap_traits@V?$basic_string@DU?$char_traits@D@std@@V?$allocator@D@2@@std@@V?$map@VCGUID@@PAVCEntityGroup@@U?$less@VCGUID@@@std@@V?$allocator@U?$pair@$$CBVCGUID@@PAVCEntityGroup@@@std@@@4@@2@U?$less@V?$basic_string@DU?$char_traits@D@std@@V?$allocator@D@2@@std@@@2@V?$allocator@U?$pair@$$CBV?$basic_string@DU?$char_traits@D@std@@V?$allocator@D@2@@std@@V?$map@VCGUID@@PAVCEntityGroup@@U?$less@VCGUID@@@std@@V?$allocator@U?$pair@$$CBVCGUID@@PAVCEntityGroup@@@std@@@4@@2@@std@@@2@$0A@@std@@@2@PAU342@00ABU?$pair@$$CBV?$basic_string@DU?$char_traits@D@std@@V?$allocator@D@2@@std@@V?$map@VCGUID@@PAVCEntityGroup@@U?$less@VCGUID@@@std@@V?$allocator@U?$pair@$$CBVCGUID@@PAVCEntityGroup@@@std@@@4@@2@@2@D@Z 004502a0 f i app:EntityManager.obj
 0001:0004f340       ??$_Umove@PAUtagDbIdxInfo@@@?$vector@UtagDbIdxInfo@@V?$allocator@UtagDbIdxInfo@@@std@@@std@@IAEPAUtagDbIdxInfo@@PAU2@00@Z 00450340 f i app:EntityManager.obj
 0001:0004f370       ??$_Umove@PAV?$basic_string@DU?$char_traits@D@std@@V?$allocator@D@2@@std@@@?$vector@V?$basic_string@DU?$char_traits@D@std@@V?$allocator@D@2@@std@@V?$allocator@V?$basic_string@DU?$char_traits@D@std@@V?$allocator@D@2@@std@@@2@@std@@IAEPAV?$basic_string@DU?$char_traits@D@std@@V?$allocator@D@2@@1@PAV21@00@Z 00450370 f i app:EntityManager.obj
 0001:0004f3a0       ??$_Unchecked_move_backward@PAV?$basic_string@DU?$char_traits@D@std@@V?$allocator@D@2@@std@@PAV12@@stdext@@YAPAV?$basic_string@DU?$char_traits@D@std@@V?$allocator@D@2@@std@@PAV12@00@Z 004503a0 f i app:EntityManager.obj
 0001:0004f3d0       ??1?$map@V?$basic_string@DU?$char_traits@D@std@@V?$allocator@D@2@@std@@PAVAccount@@U?$less@V?$basic_string@DU?$char_traits@D@std@@V?$allocator@D@2@@std@@@2@V?$allocator@U?$pair@$$CBV?$basic_string@DU?$char_traits@D@std@@V?$allocator@D@2@@std@@PAVAccount@@@std@@@2@@std@@QAE@XZ 004503d0 f i app:EntityManager.obj
 0001:0004f410       ??1?$map@V?$basic_string@DU?$char_traits@D@std@@V?$allocator@D@2@@std@@UtagEntityAttrInfo@@U?$less@V?$basic_string@DU?$char_traits@D@std@@V?$allocator@D@2@@std@@@2@V?$allocator@U?$pair@$$CBV?$basic_string@DU?$char_traits@D@std@@V?$allocator@D@2@@std@@UtagEntityAttrInfo@@@std@@@2@@std@@QAE@XZ 00450410 f i app:EntityManager.obj
 0001:0004f450       ??1?$map@W4DB_OPERATION_TYPE@@V?$basic_string@DU?$char_traits@D@std@@V?$allocator@D@2@@std@@U?$less@W4DB_OPERATION_TYPE@@@3@V?$allocator@U?$pair@$$CBW4DB_OPERATION_TYPE@@V?$basic_string@DU?$char_traits@D@std@@V?$allocator@D@2@@std@@@std@@@3@@std@@QAE@XZ 00450450 f i app:EntityManager.obj
 0001:0004f450       ?_Tidy@?$_Tree@V?$_Tmap_traits@W4DB_OPERATION_TYPE@@V?$basic_string@DU?$char_traits@D@std@@V?$allocator@D@2@@std@@U?$less@W4DB_OPERATION_TYPE@@@3@V?$allocator@U?$pair@$$CBW4DB_OPERATION_TYPE@@V?$basic_string@DU?$char_traits@D@std@@V?$allocator@D@2@@std@@@std@@@3@$0A@@std@@@std@@IAEXXZ 00450450 f i app:EntityManager.obj
 0001:0004f450       ??1?$map@JV?$basic_string@DU?$char_traits@D@std@@V?$allocator@D@2@@std@@U?$less@J@2@V?$allocator@U?$pair@$$CBJV?$basic_string@DU?$char_traits@D@std@@V?$allocator@D@2@@std@@@std@@@2@@std@@QAE@XZ 00450450 f i app:EntityManager.obj
 0001:0004f490       ??1?$vector@UtagColInfo@@V?$allocator@UtagColInfo@@@std@@@std@@QAE@XZ 00450490 f i app:EntityManager.obj
 0001:0004f4d0       ??1?$vector@UtagDbIdxInfo@@V?$allocator@UtagDbIdxInfo@@@std@@@std@@QAE@XZ 004504d0 f i app:EntityManager.obj
 0001:0004f510       ??A?$map@V?$basic_string@DU?$char_traits@D@std@@V?$allocator@D@2@@std@@UtagEntityAttrInfo@@U?$less@V?$basic_string@DU?$char_traits@D@std@@V?$allocator@D@2@@std@@@2@V?$allocator@U?$pair@$$CBV?$basic_string@DU?$char_traits@D@std@@V?$allocator@D@2@@std@@UtagEntityAttrInfo@@@std@@@2@@std@@QAEAAUtagEntityAttrInfo@@ABV?$basic_string@DU?$char_traits@D@std@@V?$allocator@D@2@@1@@Z 00450510 f i app:EntityManager.obj
 0001:0004f620       ??A?$map@V?$basic_string@DU?$char_traits@D@std@@V?$allocator@D@2@@std@@PAUtagEntityBuildInfo@@U?$less@V?$basic_string@DU?$char_traits@D@std@@V?$allocator@D@2@@std@@@2@V?$allocator@U?$pair@$$CBV?$basic_string@DU?$char_traits@D@std@@V?$allocator@D@2@@std@@PAUtagEntityBuildInfo@@@std@@@2@@std@@QAEAAPAUtagEntityBuildInfo@@ABV?$basic_string@DU?$char_traits@D@std@@V?$allocator@D@2@@1@@Z 00450620 f i app:EntityManager.obj
 0001:0004f620       ??A?$map@V?$basic_string@DU?$char_traits@D@std@@V?$allocator@D@2@@std@@PAUtagBuildFileInfo@@U?$less@V?$basic_string@DU?$char_traits@D@std@@V?$allocator@D@2@@std@@@2@V?$allocator@U?$pair@$$CBV?$basic_string@DU?$char_traits@D@std@@V?$allocator@D@2@@std@@PAUtagBuildFileInfo@@@std@@@2@@std@@QAEAAPAUtagBuildFileInfo@@ABV?$basic_string@DU?$char_traits@D@std@@V?$allocator@D@2@@1@@Z 00450620 f i app:EntityManager.obj
 0001:0004f720       ??A?$map@V?$basic_string@DU?$char_traits@D@std@@V?$allocator@D@2@@std@@PAVAccount@@U?$less@V?$basic_string@DU?$char_traits@D@std@@V?$allocator@D@2@@std@@@2@V?$allocator@U?$pair@$$CBV?$basic_string@DU?$char_traits@D@std@@V?$allocator@D@2@@std@@PAVAccount@@@std@@@2@@std@@QAEAAPAVAccount@@ABV?$basic_string@DU?$char_traits@D@std@@V?$allocator@D@2@@1@@Z 00450720 f i app:EntityManager.obj
 0001:0004f820       ??A?$map@JUtagRankConfig@@U?$less@J@std@@V?$allocator@U?$pair@$$CBJUtagRankConfig@@@std@@@3@@std@@QAEAAUtagRankConfig@@ABJ@Z 00450820 f i app:EntityManager.obj
 0001:0004f930       ??A?$map@JV?$basic_string@DU?$char_traits@D@std@@V?$allocator@D@2@@std@@U?$less@J@2@V?$allocator@U?$pair@$$CBJV?$basic_string@DU?$char_traits@D@std@@V?$allocator@D@2@@std@@@std@@@2@@std@@QAEAAV?$basic_string@DU?$char_traits@D@std@@V?$allocator@D@2@@1@ABJ@Z 00450930 f i app:EntityManager.obj
 0001:0004f930       ??A?$map@W4DB_OPERATION_TYPE@@V?$basic_string@DU?$char_traits@D@std@@V?$allocator@D@2@@std@@U?$less@W4DB_OPERATION_TYPE@@@3@V?$allocator@U?$pair@$$CBW4DB_OPERATION_TYPE@@V?$basic_string@DU?$char_traits@D@std@@V?$allocator@D@2@@std@@@std@@@3@@std@@QAEAAV?$basic_string@DU?$char_traits@D@std@@V?$allocator@D@2@@1@ABW4DB_OPERATION_TYPE@@@Z 00450930 f i app:EntityManager.obj
 0001:0004fa60       ??1?$pair@$$CBV?$basic_string@DU?$char_traits@D@std@@V?$allocator@D@2@@std@@V?$map@W4DB_OPERATION_TYPE@@V?$basic_string@DU?$char_traits@D@std@@V?$allocator@D@2@@std@@U?$less@W4DB_OPERATION_TYPE@@@3@V?$allocator@U?$pair@$$CBW4DB_OPERATION_TYPE@@V?$basic_string@DU?$char_traits@D@std@@V?$allocator@D@2@@std@@@std@@@3@@2@@std@@QAE@XZ 00450a60 f i app:EntityManager.obj
 0001:0004faf0       ??0?$pair@$$CBV?$basic_string@DU?$char_traits@D@std@@V?$allocator@D@2@@std@@V?$map@W4DB_OPERATION_TYPE@@V?$basic_string@DU?$char_traits@D@std@@V?$allocator@D@2@@std@@U?$less@W4DB_OPERATION_TYPE@@@3@V?$allocator@U?$pair@$$CBW4DB_OPERATION_TYPE@@V?$basic_string@DU?$char_traits@D@std@@V?$allocator@D@2@@std@@@std@@@3@@2@@std@@QAE@ABV?$basic_string@DU?$char_traits@D@std@@V?$allocator@D@2@@1@ABV?$map@W4DB_OPERATION_TYPE@@V?$basic_string@DU?$char_traits@D@std@@V?$allocator@D@2@@std@@U?$less@W4DB_OPERATION_TYPE@@@3@V?$allocator@U?$pair@$$CBW4DB_OPERATION_TYPE@@V?$basic_string@DU?$char_traits@D@std@@V?$allocator@D@2@@std@@@std@@@3@@1@@Z 00450af0 f i app:EntityManager.obj
 0001:0004fb70       ?_Insert_n@?$vector@UtagDbIdxInfo@@V?$allocator@UtagDbIdxInfo@@@std@@@std@@IAEXV?$_Vector_iterator@UtagDbIdxInfo@@V?$allocator@UtagDbIdxInfo@@@std@@@2@IABUtagDbIdxInfo@@@Z 00450b70 f i app:EntityManager.obj
 0001:0004fe20       ?_Insert@?$_Tree@V?$_Tmap_traits@V?$basic_string@DU?$char_traits@D@std@@V?$allocator@D@2@@std@@V?$map@VCGUID@@PAVCEntityGroup@@U?$less@VCGUID@@@std@@V?$allocator@U?$pair@$$CBVCGUID@@PAVCEntityGroup@@@std@@@4@@2@U?$less@V?$basic_string@DU?$char_traits@D@std@@V?$allocator@D@2@@std@@@2@V?$allocator@U?$pair@$$CBV?$basic_string@DU?$char_traits@D@std@@V?$allocator@D@2@@std@@V?$map@VCGUID@@PAVCEntityGroup@@U?$less@VCGUID@@@std@@V?$allocator@U?$pair@$$CBVCGUID@@PAVCEntityGroup@@@std@@@4@@2@@std@@@2@$0A@@std@@@std@@IAE?AViterator@12@_NPAU_Node@?$_Tree_nod@V?$_Tmap_traits@V?$basic_string@DU?$char_traits@D@std@@V?$allocator@D@2@@std@@V?$map@VCGUID@@PAVCEntityGroup@@U?$less@VCGUID@@@std@@V?$allocator@U?$pair@$$CBVCGUID@@PAVCEntityGroup@@@std@@@4@@2@U?$less@V?$basic_string@DU?$char_traits@D@std@@V?$allocator@D@2@@std@@@2@V?$allocator@U?$pair@$$CBV?$basic_string@DU?$char_traits@D@std@@V?$allocator@D@2@@std@@V?$map@VCGUID@@PAVCEntityGroup@@U?$less@VCGUID@@@std@@V?$allocator@U?$pair@$$CBVCGUID@@PAVCEntityGroup@@@std@@@4@@2@@std@@@2@$0A@@std@@@2@ABU?$pair@$$CBV?$basic_string@DU?$char_traits@D@std@@V?$allocator@D@2@@std@@V?$map@VCGUID@@PAVCEntityGroup@@U?$less@VCGUID@@@std@@V?$allocator@U?$pair@$$CBVCGUID@@PAVCEntityGroup@@@std@@@4@@2@@2@@Z 00450e20 f i app:EntityManager.obj
 0001:00050020       ?_Insert_n@?$vector@V?$basic_string@DU?$char_traits@D@std@@V?$allocator@D@2@@std@@V?$allocator@V?$basic_string@DU?$char_traits@D@std@@V?$allocator@D@2@@std@@@2@@std@@IAEXV?$_Vector_iterator@V?$basic_string@DU?$char_traits@D@std@@V?$allocator@D@2@@std@@V?$allocator@V?$basic_string@DU?$char_traits@D@std@@V?$allocator@D@2@@std@@@2@@2@IABV?$basic_string@DU?$char_traits@D@std@@V?$allocator@D@2@@2@@Z 00451020 f i app:EntityManager.obj
 0001:00050380       ??0?$pair@$$CBV?$basic_string@DU?$char_traits@D@std@@V?$allocator@D@2@@std@@V?$map@W4DB_OPERATION_TYPE@@V?$basic_string@DU?$char_traits@D@std@@V?$allocator@D@2@@std@@U?$less@W4DB_OPERATION_TYPE@@@3@V?$allocator@U?$pair@$$CBW4DB_OPERATION_TYPE@@V?$basic_string@DU?$char_traits@D@std@@V?$allocator@D@2@@std@@@std@@@3@@2@@std@@QAE@ABU01@@Z 00451380 f i app:EntityManager.obj
 0001:00050400       ??0tagRankInfo@@QAE@J@Z    00451400 f i app:EntityManager.obj
 0001:000504e0       ??1?$map@JUtagRankConfig@@U?$less@J@std@@V?$allocator@U?$pair@$$CBJUtagRankConfig@@@std@@@3@@std@@QAE@XZ 004514e0 f i app:EntityManager.obj
 0001:00050520       ?GetMailThreadData@CEntityManager@@QAE_NAAV?$list@PAUThreadData@@V?$allocator@PAUThreadData@@@std@@@std@@J@Z 00451520 f   app:EntityManager.obj
 0001:000505e0       ?GetSaveThreadOperDataSize@CEntityManager@@QAEJAAV?$list@VCGUID@@V?$allocator@VCGUID@@@std@@@std@@@Z 004515e0 f   app:EntityManager.obj
 0001:00050630       ?GetRetThreadData@CEntityManager@@QAE_NAAV?$list@PAUThreadData@@V?$allocator@PAUThreadData@@@std@@@std@@@Z 00451630 f   app:EntityManager.obj
 0001:000506b0       ?LoadRanksFile@CEntityManager@@QAEXPBD@Z 004516b0 f   app:EntityManager.obj
 0001:00050be0       ??1?$map@V?$basic_string@DU?$char_traits@D@std@@V?$allocator@D@2@@std@@PAUtagEntityBuildInfo@@U?$less@V?$basic_string@DU?$char_traits@D@std@@V?$allocator@D@2@@std@@@2@V?$allocator@U?$pair@$$CBV?$basic_string@DU?$char_traits@D@std@@V?$allocator@D@2@@std@@PAUtagEntityBuildInfo@@@std@@@2@@std@@QAE@XZ 00451be0 f i app:EntityManager.obj
 0001:00050be0       ??1?$map@V?$basic_string@DU?$char_traits@D@std@@V?$allocator@D@2@@std@@PAUtagBuildFileInfo@@U?$less@V?$basic_string@DU?$char_traits@D@std@@V?$allocator@D@2@@std@@@2@V?$allocator@U?$pair@$$CBV?$basic_string@DU?$char_traits@D@std@@V?$allocator@D@2@@std@@PAUtagBuildFileInfo@@@std@@@2@@std@@QAE@XZ 00451be0 f i app:EntityManager.obj
 0001:00050c20       ??1tagEntityBuildInfo@@QAE@XZ 00451c20 f   app:EntityManager.obj
 0001:00050f60       ?LoadObjStructInfo@CEntityManager@@QAEXPBD@Z 00451f60 f   app:EntityManager.obj
 0001:000514c0       ?AddAccount@CEntityManager@@QAE_NPAVAccount@@@Z 004524c0 f   app:EntityManager.obj
 0001:00051660       ?TravelForGenerateThreadData@CEntityManager@@QAEXXZ 00452660 f   app:EntityManager.obj
 0001:00051e50       ?insert@?$vector@UtagDbIdxInfo@@V?$allocator@UtagDbIdxInfo@@@std@@@std@@QAE?AV?$_Vector_iterator@UtagDbIdxInfo@@V?$allocator@UtagDbIdxInfo@@@std@@@2@V32@ABUtagDbIdxInfo@@@Z 00452e50 f i app:EntityManager.obj
 0001:00051ee0       ?_Erase@?$_Tree@V?$_Tmap_traits@V?$basic_string@DU?$char_traits@D@std@@V?$allocator@D@2@@std@@V?$map@VCGUID@@PAVCEntityGroup@@U?$less@VCGUID@@@std@@V?$allocator@U?$pair@$$CBVCGUID@@PAVCEntityGroup@@@std@@@4@@2@U?$less@V?$basic_string@DU?$char_traits@D@std@@V?$allocator@D@2@@std@@@2@V?$allocator@U?$pair@$$CBV?$basic_string@DU?$char_traits@D@std@@V?$allocator@D@2@@std@@V?$map@VCGUID@@PAVCEntityGroup@@U?$less@VCGUID@@@std@@V?$allocator@U?$pair@$$CBVCGUID@@PAVCEntityGroup@@@std@@@4@@2@@std@@@2@$0A@@std@@@std@@IAEXPAU_Node@?$_Tree_nod@V?$_Tmap_traits@V?$basic_string@DU?$char_traits@D@std@@V?$allocator@D@2@@std@@V?$map@VCGUID@@PAVCEntityGroup@@U?$less@VCGUID@@@std@@V?$allocator@U?$pair@$$CBVCGUID@@PAVCEntityGroup@@@std@@@4@@2@U?$less@V?$basic_string@DU?$char_traits@D@std@@V?$allocator@D@2@@std@@@2@V?$allocator@U?$pair@$$CBV?$basic_string@DU?$char_traits@D@std@@V?$allocator@D@2@@std@@V?$map@VCGUID@@PAVCEntityGroup@@U?$less@VCGUID@@@std@@V?$allocator@U?$pair@$$CBVCGUID@@PAVCEntityGroup@@@std@@@4@@2@@std@@@2@$0A@@std@@@2@@Z 00452ee0 f i app:EntityManager.obj
 0001:00051f20       ?insert@?$vector@V?$basic_string@DU?$char_traits@D@std@@V?$allocator@D@2@@std@@V?$allocator@V?$basic_string@DU?$char_traits@D@std@@V?$allocator@D@2@@std@@@2@@std@@QAE?AV?$_Vector_iterator@V?$basic_string@DU?$char_traits@D@std@@V?$allocator@D@2@@std@@V?$allocator@V?$basic_string@DU?$char_traits@D@std@@V?$allocator@D@2@@std@@@2@@2@V32@ABV?$basic_string@DU?$char_traits@D@std@@V?$allocator@D@2@@2@@Z 00452f20 f i app:EntityManager.obj
 0001:00051fe0       ?insert@?$_Tree@V?$_Tmap_traits@V?$basic_string@DU?$char_traits@D@std@@V?$allocator@D@2@@std@@V?$map@VCGUID@@PAVCEntityGroup@@U?$less@VCGUID@@@std@@V?$allocator@U?$pair@$$CBVCGUID@@PAVCEntityGroup@@@std@@@4@@2@U?$less@V?$basic_string@DU?$char_traits@D@std@@V?$allocator@D@2@@std@@@2@V?$allocator@U?$pair@$$CBV?$basic_string@DU?$char_traits@D@std@@V?$allocator@D@2@@std@@V?$map@VCGUID@@PAVCEntityGroup@@U?$less@VCGUID@@@std@@V?$allocator@U?$pair@$$CBVCGUID@@PAVCEntityGroup@@@std@@@4@@2@@std@@@2@$0A@@std@@@std@@QAE?AU?$pair@Viterator@?$_Tree@V?$_Tmap_traits@V?$basic_string@DU?$char_traits@D@std@@V?$allocator@D@2@@std@@V?$map@VCGUID@@PAVCEntityGroup@@U?$less@VCGUID@@@std@@V?$allocator@U?$pair@$$CBVCGUID@@PAVCEntityGroup@@@std@@@4@@2@U?$less@V?$basic_string@DU?$char_traits@D@std@@V?$allocator@D@2@@std@@@2@V?$allocator@U?$pair@$$CBV?$basic_string@DU?$char_traits@D@std@@V?$allocator@D@2@@std@@V?$map@VCGUID@@PAVCEntityGroup@@U?$less@VCGUID@@@std@@V?$allocator@U?$pair@$$CBVCGUID@@PAVCEntityGroup@@@std@@@4@@2@@std@@@2@$0A@@std@@@std@@_N@2@ABU?$pair@$$CBV?$basic_string@DU?$char_traits@D@std@@V?$allocator@D@2@@std@@V?$map@VCGUID@@PAVCEntityGroup@@U?$less@VCGUID@@@std@@V?$allocator@U?$pair@$$CBVCGUID@@PAVCEntityGroup@@@std@@@4@@2@@2@@Z 00452fe0 f i app:EntityManager.obj
 0001:00052110       ??1tagRankInfo@@QAE@XZ     00453110 f i app:EntityManager.obj
 0001:000521c0       ??0tagEntityBuildInfo@@QAE@XZ 004531c0 f   app:EntityManager.obj
 0001:000523d0       ?push_back@?$vector@UtagDbIdxInfo@@V?$allocator@UtagDbIdxInfo@@@std@@@std@@QAEXABUtagDbIdxInfo@@@Z 004533d0 f i app:EntityManager.obj
 0001:00052460       ?push_back@?$vector@V?$basic_string@DU?$char_traits@D@std@@V?$allocator@D@2@@std@@V?$allocator@V?$basic_string@DU?$char_traits@D@std@@V?$allocator@D@2@@std@@@2@@std@@QAEXABV?$basic_string@DU?$char_traits@D@std@@V?$allocator@D@2@@2@@Z 00453460 f i app:EntityManager.obj
 0001:00052510       ?insert@?$_Tree@V?$_Tmap_traits@V?$basic_string@DU?$char_traits@D@std@@V?$allocator@D@2@@std@@V?$map@VCGUID@@PAVCEntityGroup@@U?$less@VCGUID@@@std@@V?$allocator@U?$pair@$$CBVCGUID@@PAVCEntityGroup@@@std@@@4@@2@U?$less@V?$basic_string@DU?$char_traits@D@std@@V?$allocator@D@2@@std@@@2@V?$allocator@U?$pair@$$CBV?$basic_string@DU?$char_traits@D@std@@V?$allocator@D@2@@std@@V?$map@VCGUID@@PAVCEntityGroup@@U?$less@VCGUID@@@std@@V?$allocator@U?$pair@$$CBVCGUID@@PAVCEntityGroup@@@std@@@4@@2@@std@@@2@$0A@@std@@@std@@QAE?AViterator@12@V312@ABU?$pair@$$CBV?$basic_string@DU?$char_traits@D@std@@V?$allocator@D@2@@std@@V?$map@VCGUID@@PAVCEntityGroup@@U?$less@VCGUID@@@std@@V?$allocator@U?$pair@$$CBVCGUID@@PAVCEntityGroup@@@std@@@4@@2@@2@@Z 00453510 f i app:EntityManager.obj
 0001:00052710       ?erase@?$_Tree@V?$_Tmap_traits@V?$basic_string@DU?$char_traits@D@std@@V?$allocator@D@2@@std@@V?$map@VCGUID@@PAVCEntityGroup@@U?$less@VCGUID@@@std@@V?$allocator@U?$pair@$$CBVCGUID@@PAVCEntityGroup@@@std@@@4@@2@U?$less@V?$basic_string@DU?$char_traits@D@std@@V?$allocator@D@2@@std@@@2@V?$allocator@U?$pair@$$CBV?$basic_string@DU?$char_traits@D@std@@V?$allocator@D@2@@std@@V?$map@VCGUID@@PAVCEntityGroup@@U?$less@VCGUID@@@std@@V?$allocator@U?$pair@$$CBVCGUID@@PAVCEntityGroup@@@std@@@4@@2@@std@@@2@$0A@@std@@@std@@QAE?AViterator@12@V312@0@Z 00453710 f i app:EntityManager.obj
 0001:000527e0       ?_Buynode@?$_Tree@V?$_Tmap_traits@V?$basic_string@DU?$char_traits@D@std@@V?$allocator@D@2@@std@@V?$map@W4DB_OPERATION_TYPE@@V?$basic_string@DU?$char_traits@D@std@@V?$allocator@D@2@@std@@U?$less@W4DB_OPERATION_TYPE@@@3@V?$allocator@U?$pair@$$CBW4DB_OPERATION_TYPE@@V?$basic_string@DU?$char_traits@D@std@@V?$allocator@D@2@@std@@@std@@@3@@2@U?$less@V?$basic_string@DU?$char_traits@D@std@@V?$allocator@D@2@@std@@@2@V?$allocator@U?$pair@$$CBV?$basic_string@DU?$char_traits@D@std@@V?$allocator@D@2@@std@@V?$map@W4DB_OPERATION_TYPE@@V?$basic_string@DU?$char_traits@D@std@@V?$allocator@D@2@@std@@U?$less@W4DB_OPERATION_TYPE@@@3@V?$allocator@U?$pair@$$CBW4DB_OPERATION_TYPE@@V?$basic_string@DU?$char_traits@D@std@@V?$allocator@D@2@@std@@@std@@@3@@2@@std@@@2@$0A@@std@@@std@@IAEPAU_Node@?$_Tree_nod@V?$_Tmap_traits@V?$basic_string@DU?$char_traits@D@std@@V?$allocator@D@2@@std@@V?$map@W4DB_OPERATION_TYPE@@V?$basic_string@DU?$char_traits@D@std@@V?$allocator@D@2@@std@@U?$less@W4DB_OPERATION_TYPE@@@3@V?$allocator@U?$pair@$$CBW4DB_OPERATION_TYPE@@V?$basic_string@DU?$char_traits@D@std@@V?$allocator@D@2@@std@@@std@@@3@@2@U?$less@V?$basic_string@DU?$char_traits@D@std@@V?$allocator@D@2@@std@@@2@V?$allocator@U?$pair@$$CBV?$basic_string@DU?$char_traits@D@std@@V?$allocator@D@2@@std@@V?$map@W4DB_OPERATION_TYPE@@V?$basic_string@DU?$char_traits@D@std@@V?$allocator@D@2@@std@@U?$less@W4DB_OPERATION_TYPE@@@3@V?$allocator@U?$pair@$$CBW4DB_OPERATION_TYPE@@V?$basic_string@DU?$char_traits@D@std@@V?$allocator@D@2@@std@@@std@@@3@@2@@std@@@2@$0A@@std@@@2@PAU342@00ABU?$pair@$$CBV?$basic_string@DU?$char_traits@D@std@@V?$allocator@D@2@@std@@V?$map@W4DB_OPERATION_TYPE@@V?$basic_string@DU?$char_traits@D@std@@V?$allocator@D@2@@std@@U?$less@W4DB_OPERATION_TYPE@@@3@V?$allocator@U?$pair@$$CBW4DB_OPERATION_TYPE@@V?$basic_string@DU?$char_traits@D@std@@V?$allocator@D@2@@std@@@std@@@3@@2@@2@D@Z 004537e0 f i app:EntityManager.obj
 0001:00052880       ?LoadObjAttrInfo@CEntityManager@@QAEPBDPBD_N@Z 00453880 f   app:EntityManager.obj
 0001:00053600       ?LoadProcedureInfo@CEntityManager@@QAEXPBD@Z 00454600 f   app:EntityManager.obj
 0001:000537c0       ?ClearEntitys@CEntityManager@@QAE_NXZ 004547c0 f   app:EntityManager.obj
 0001:00053970       ?ReleaseRankInfo@CEntityManager@@QAEXXZ 00454970 f   app:EntityManager.obj
 0001:00053a40       ??A?$map@V?$basic_string@DU?$char_traits@D@std@@V?$allocator@D@2@@std@@V?$map@VCGUID@@PAVCEntityGroup@@U?$less@VCGUID@@@std@@V?$allocator@U?$pair@$$CBVCGUID@@PAVCEntityGroup@@@std@@@4@@2@U?$less@V?$basic_string@DU?$char_traits@D@std@@V?$allocator@D@2@@std@@@2@V?$allocator@U?$pair@$$CBV?$basic_string@DU?$char_traits@D@std@@V?$allocator@D@2@@std@@V?$map@VCGUID@@PAVCEntityGroup@@U?$less@VCGUID@@@std@@V?$allocator@U?$pair@$$CBVCGUID@@PAVCEntityGroup@@@std@@@4@@2@@std@@@2@@std@@QAEAAV?$map@VCGUID@@PAVCEntityGroup@@U?$less@VCGUID@@@std@@V?$allocator@U?$pair@$$CBVCGUID@@PAVCEntityGroup@@@std@@@4@@1@ABV?$basic_string@DU?$char_traits@D@std@@V?$allocator@D@2@@1@@Z 00454a40 f i app:EntityManager.obj
 0001:00053b80       ?_Insert@?$_Tree@V?$_Tmap_traits@V?$basic_string@DU?$char_traits@D@std@@V?$allocator@D@2@@std@@V?$map@W4DB_OPERATION_TYPE@@V?$basic_string@DU?$char_traits@D@std@@V?$allocator@D@2@@std@@U?$less@W4DB_OPERATION_TYPE@@@3@V?$allocator@U?$pair@$$CBW4DB_OPERATION_TYPE@@V?$basic_string@DU?$char_traits@D@std@@V?$allocator@D@2@@std@@@std@@@3@@2@U?$less@V?$basic_string@DU?$char_traits@D@std@@V?$allocator@D@2@@std@@@2@V?$allocator@U?$pair@$$CBV?$basic_string@DU?$char_traits@D@std@@V?$allocator@D@2@@std@@V?$map@W4DB_OPERATION_TYPE@@V?$basic_string@DU?$char_traits@D@std@@V?$allocator@D@2@@std@@U?$less@W4DB_OPERATION_TYPE@@@3@V?$allocator@U?$pair@$$CBW4DB_OPERATION_TYPE@@V?$basic_string@DU?$char_traits@D@std@@V?$allocator@D@2@@std@@@std@@@3@@2@@std@@@2@$0A@@std@@@std@@IAE?AViterator@12@_NPAU_Node@?$_Tree_nod@V?$_Tmap_traits@V?$basic_string@DU?$char_traits@D@std@@V?$allocator@D@2@@std@@V?$map@W4DB_OPERATION_TYPE@@V?$basic_string@DU?$char_traits@D@std@@V?$allocator@D@2@@std@@U?$less@W4DB_OPERATION_TYPE@@@3@V?$allocator@U?$pair@$$CBW4DB_OPERATION_TYPE@@V?$basic_string@DU?$char_traits@D@std@@V?$allocator@D@2@@std@@@std@@@3@@2@U?$less@V?$basic_string@DU?$char_traits@D@std@@V?$allocator@D@2@@std@@@2@V?$allocator@U?$pair@$$CBV?$basic_string@DU?$char_traits@D@std@@V?$allocator@D@2@@std@@V?$map@W4DB_OPERATION_TYPE@@V?$basic_string@DU?$char_traits@D@std@@V?$allocator@D@2@@std@@U?$less@W4DB_OPERATION_TYPE@@@3@V?$allocator@U?$pair@$$CBW4DB_OPERATION_TYPE@@V?$basic_string@DU?$char_traits@D@std@@V?$allocator@D@2@@std@@@std@@@3@@2@@std@@@2@$0A@@std@@@2@ABU?$pair@$$CBV?$basic_string@DU?$char_traits@D@std@@V?$allocator@D@2@@std@@V?$map@W4DB_OPERATION_TYPE@@V?$basic_string@DU?$char_traits@D@std@@V?$allocator@D@2@@std@@U?$less@W4DB_OPERATION_TYPE@@@3@V?$allocator@U?$pair@$$CBW4DB_OPERATION_TYPE@@V?$basic_string@DU?$char_traits@D@std@@V?$allocator@D@2@@std@@@std@@@3@@2@@2@@Z 00454b80 f i app:EntityManager.obj
 0001:00053d80       ?Release@CEntityManager@@QAEXXZ 00454d80 f   app:EntityManager.obj
 0001:000547c0       ?LoadObjInfo@CEntityManager@@AAEXAAV?$vector@PBDV?$allocator@PBD@std@@@std@@PBD1@Z 004557c0 f   app:EntityManager.obj
 0001:00054980       ?InitRanksData@CEntityManager@@QAEXXZ 00455980 f   app:EntityManager.obj
 0001:00054c80       ?AddOneRootEntity@CEntityManager@@QAEXPAVCEntityGroup@@@Z 00455c80 f   app:EntityManager.obj
 0001:00054f00       ?ProcessRetThreadData@CEntityManager@@QAEXXZ 00455f00 f   app:EntityManager.obj
 0001:00055f60       ?insert@?$_Tree@V?$_Tmap_traits@V?$basic_string@DU?$char_traits@D@std@@V?$allocator@D@2@@std@@V?$map@W4DB_OPERATION_TYPE@@V?$basic_string@DU?$char_traits@D@std@@V?$allocator@D@2@@std@@U?$less@W4DB_OPERATION_TYPE@@@3@V?$allocator@U?$pair@$$CBW4DB_OPERATION_TYPE@@V?$basic_string@DU?$char_traits@D@std@@V?$allocator@D@2@@std@@@std@@@3@@2@U?$less@V?$basic_string@DU?$char_traits@D@std@@V?$allocator@D@2@@std@@@2@V?$allocator@U?$pair@$$CBV?$basic_string@DU?$char_traits@D@std@@V?$allocator@D@2@@std@@V?$map@W4DB_OPERATION_TYPE@@V?$basic_string@DU?$char_traits@D@std@@V?$allocator@D@2@@std@@U?$less@W4DB_OPERATION_TYPE@@@3@V?$allocator@U?$pair@$$CBW4DB_OPERATION_TYPE@@V?$basic_string@DU?$char_traits@D@std@@V?$allocator@D@2@@std@@@std@@@3@@2@@std@@@2@$0A@@std@@@std@@QAE?AU?$pair@Viterator@?$_Tree@V?$_Tmap_traits@V?$basic_string@DU?$char_traits@D@std@@V?$allocator@D@2@@std@@V?$map@W4DB_OPERATION_TYPE@@V?$basic_string@DU?$char_traits@D@std@@V?$allocator@D@2@@std@@U?$less@W4DB_OPERATION_TYPE@@@3@V?$allocator@U?$pair@$$CBW4DB_OPERATION_TYPE@@V?$basic_string@DU?$char_traits@D@std@@V?$allocator@D@2@@std@@@std@@@3@@2@U?$less@V?$basic_string@DU?$char_traits@D@std@@V?$allocator@D@2@@std@@@2@V?$allocator@U?$pair@$$CBV?$basic_string@DU?$char_traits@D@std@@V?$allocator@D@2@@std@@V?$map@W4DB_OPERATION_TYPE@@V?$basic_string@DU?$char_traits@D@std@@V?$allocator@D@2@@std@@U?$less@W4DB_OPERATION_TYPE@@@3@V?$allocator@U?$pair@$$CBW4DB_OPERATION_TYPE@@V?$basic_string@DU?$char_traits@D@std@@V?$allocator@D@2@@std@@@std@@@3@@2@@std@@@2@$0A@@std@@@std@@_N@2@ABU?$pair@$$CBV?$basic_string@DU?$char_traits@D@std@@V?$allocator@D@2@@std@@V?$map@W4DB_OPERATION_TYPE@@V?$basic_string@DU?$char_traits@D@std@@V?$allocator@D@2@@std@@U?$less@W4DB_OPERATION_TYPE@@@3@V?$allocator@U?$pair@$$CBW4DB_OPERATION_TYPE@@V?$basic_string@DU?$char_traits@D@std@@V?$allocator@D@2@@std@@@std@@@3@@2@@2@@Z 00456f60 f i app:EntityManager.obj
 0001:00056090       ?erase@?$_Tree@V?$_Tmap_traits@V?$basic_string@DU?$char_traits@D@std@@V?$allocator@D@2@@std@@V?$map@W4DB_OPERATION_TYPE@@V?$basic_string@DU?$char_traits@D@std@@V?$allocator@D@2@@std@@U?$less@W4DB_OPERATION_TYPE@@@3@V?$allocator@U?$pair@$$CBW4DB_OPERATION_TYPE@@V?$basic_string@DU?$char_traits@D@std@@V?$allocator@D@2@@std@@@std@@@3@@2@U?$less@V?$basic_string@DU?$char_traits@D@std@@V?$allocator@D@2@@std@@@2@V?$allocator@U?$pair@$$CBV?$basic_string@DU?$char_traits@D@std@@V?$allocator@D@2@@std@@V?$map@W4DB_OPERATION_TYPE@@V?$basic_string@DU?$char_traits@D@std@@V?$allocator@D@2@@std@@U?$less@W4DB_OPERATION_TYPE@@@3@V?$allocator@U?$pair@$$CBW4DB_OPERATION_TYPE@@V?$basic_string@DU?$char_traits@D@std@@V?$allocator@D@2@@std@@@std@@@3@@2@@std@@@2@$0A@@std@@@std@@QAE?AViterator@12@V312@@Z 00457090 f i app:EntityManager.obj
 0001:00056360       ?_Erase@?$_Tree@V?$_Tmap_traits@V?$basic_string@DU?$char_traits@D@std@@V?$allocator@D@2@@std@@V?$map@W4DB_OPERATION_TYPE@@V?$basic_string@DU?$char_traits@D@std@@V?$allocator@D@2@@std@@U?$less@W4DB_OPERATION_TYPE@@@3@V?$allocator@U?$pair@$$CBW4DB_OPERATION_TYPE@@V?$basic_string@DU?$char_traits@D@std@@V?$allocator@D@2@@std@@@std@@@3@@2@U?$less@V?$basic_string@DU?$char_traits@D@std@@V?$allocator@D@2@@std@@@2@V?$allocator@U?$pair@$$CBV?$basic_string@DU?$char_traits@D@std@@V?$allocator@D@2@@std@@V?$map@W4DB_OPERATION_TYPE@@V?$basic_string@DU?$char_traits@D@std@@V?$allocator@D@2@@std@@U?$less@W4DB_OPERATION_TYPE@@@3@V?$allocator@U?$pair@$$CBW4DB_OPERATION_TYPE@@V?$basic_string@DU?$char_traits@D@std@@V?$allocator@D@2@@std@@@std@@@3@@2@@std@@@2@$0A@@std@@@std@@IAEXPAU_Node@?$_Tree_nod@V?$_Tmap_traits@V?$basic_string@DU?$char_traits@D@std@@V?$allocator@D@2@@std@@V?$map@W4DB_OPERATION_TYPE@@V?$basic_string@DU?$char_traits@D@std@@V?$allocator@D@2@@std@@U?$less@W4DB_OPERATION_TYPE@@@3@V?$allocator@U?$pair@$$CBW4DB_OPERATION_TYPE@@V?$basic_string@DU?$char_traits@D@std@@V?$allocator@D@2@@std@@@std@@@3@@2@U?$less@V?$basic_string@DU?$char_traits@D@std@@V?$allocator@D@2@@std@@@2@V?$allocator@U?$pair@$$CBV?$basic_string@DU?$char_traits@D@std@@V?$allocator@D@2@@std@@V?$map@W4DB_OPERATION_TYPE@@V?$basic_string@DU?$char_traits@D@std@@V?$allocator@D@2@@std@@U?$less@W4DB_OPERATION_TYPE@@@3@V?$allocator@U?$pair@$$CBW4DB_OPERATION_TYPE@@V?$basic_string@DU?$char_traits@D@std@@V?$allocator@D@2@@std@@@std@@@3@@2@@std@@@2@$0A@@std@@@2@@Z 00457360 f i app:EntityManager.obj
 0001:000563a0       ??1?$map@V?$basic_string@DU?$char_traits@D@std@@V?$allocator@D@2@@std@@V?$map@VCGUID@@PAVCEntityGroup@@U?$less@VCGUID@@@std@@V?$allocator@U?$pair@$$CBVCGUID@@PAVCEntityGroup@@@std@@@4@@2@U?$less@V?$basic_string@DU?$char_traits@D@std@@V?$allocator@D@2@@std@@@2@V?$allocator@U?$pair@$$CBV?$basic_string@DU?$char_traits@D@std@@V?$allocator@D@2@@std@@V?$map@VCGUID@@PAVCEntityGroup@@U?$less@VCGUID@@@std@@V?$allocator@U?$pair@$$CBVCGUID@@PAVCEntityGroup@@@std@@@4@@2@@std@@@2@@std@@QAE@XZ 004573a0 f i app:EntityManager.obj
 0001:000563e0       ?CreateRootEntity@CEntityManager@@QAEPAVCEntityGroup@@ABV?$basic_string@DU?$char_traits@D@std@@V?$allocator@D@2@@std@@ABVCGUID@@@Z 004573e0 f   app:EntityManager.obj
 0001:00056470       ?insert@?$_Tree@V?$_Tmap_traits@V?$basic_string@DU?$char_traits@D@std@@V?$allocator@D@2@@std@@V?$map@W4DB_OPERATION_TYPE@@V?$basic_string@DU?$char_traits@D@std@@V?$allocator@D@2@@std@@U?$less@W4DB_OPERATION_TYPE@@@3@V?$allocator@U?$pair@$$CBW4DB_OPERATION_TYPE@@V?$basic_string@DU?$char_traits@D@std@@V?$allocator@D@2@@std@@@std@@@3@@2@U?$less@V?$basic_string@DU?$char_traits@D@std@@V?$allocator@D@2@@std@@@2@V?$allocator@U?$pair@$$CBV?$basic_string@DU?$char_traits@D@std@@V?$allocator@D@2@@std@@V?$map@W4DB_OPERATION_TYPE@@V?$basic_string@DU?$char_traits@D@std@@V?$allocator@D@2@@std@@U?$less@W4DB_OPERATION_TYPE@@@3@V?$allocator@U?$pair@$$CBW4DB_OPERATION_TYPE@@V?$basic_string@DU?$char_traits@D@std@@V?$allocator@D@2@@std@@@std@@@3@@2@@std@@@2@$0A@@std@@@std@@QAE?AViterator@12@V312@ABU?$pair@$$CBV?$basic_string@DU?$char_traits@D@std@@V?$allocator@D@2@@std@@V?$map@W4DB_OPERATION_TYPE@@V?$basic_string@DU?$char_traits@D@std@@V?$allocator@D@2@@std@@U?$less@W4DB_OPERATION_TYPE@@@3@V?$allocator@U?$pair@$$CBW4DB_OPERATION_TYPE@@V?$basic_string@DU?$char_traits@D@std@@V?$allocator@D@2@@std@@@std@@@3@@2@@2@@Z 00457470 f i app:EntityManager.obj
 0001:00056670       ?ProcessMsg@CEntityManager@@QAEXPAVCMessage@@@Z 00457670 f   app:EntityManager.obj
 0001:00057ed0       ??A?$map@V?$basic_string@DU?$char_traits@D@std@@V?$allocator@D@2@@std@@V?$map@W4DB_OPERATION_TYPE@@V?$basic_string@DU?$char_traits@D@std@@V?$allocator@D@2@@std@@U?$less@W4DB_OPERATION_TYPE@@@3@V?$allocator@U?$pair@$$CBW4DB_OPERATION_TYPE@@V?$basic_string@DU?$char_traits@D@std@@V?$allocator@D@2@@std@@@std@@@3@@2@U?$less@V?$basic_string@DU?$char_traits@D@std@@V?$allocator@D@2@@std@@@2@V?$allocator@U?$pair@$$CBV?$basic_string@DU?$char_traits@D@std@@V?$allocator@D@2@@std@@V?$map@W4DB_OPERATION_TYPE@@V?$basic_string@DU?$char_traits@D@std@@V?$allocator@D@2@@std@@U?$less@W4DB_OPERATION_TYPE@@@3@V?$allocator@U?$pair@$$CBW4DB_OPERATION_TYPE@@V?$basic_string@DU?$char_traits@D@std@@V?$allocator@D@2@@std@@@std@@@3@@2@@std@@@2@@std@@QAEAAV?$map@W4DB_OPERATION_TYPE@@V?$basic_string@DU?$char_traits@D@std@@V?$allocator@D@2@@std@@U?$less@W4DB_OPERATION_TYPE@@@3@V?$allocator@U?$pair@$$CBW4DB_OPERATION_TYPE@@V?$basic_string@DU?$char_traits@D@std@@V?$allocator@D@2@@std@@@std@@@3@@1@ABV?$basic_string@DU?$char_traits@D@std@@V?$allocator@D@2@@1@@Z 00458ed0 f i app:EntityManager.obj
 0001:00058010       ?erase@?$_Tree@V?$_Tmap_traits@V?$basic_string@DU?$char_traits@D@std@@V?$allocator@D@2@@std@@V?$map@W4DB_OPERATION_TYPE@@V?$basic_string@DU?$char_traits@D@std@@V?$allocator@D@2@@std@@U?$less@W4DB_OPERATION_TYPE@@@3@V?$allocator@U?$pair@$$CBW4DB_OPERATION_TYPE@@V?$basic_string@DU?$char_traits@D@std@@V?$allocator@D@2@@std@@@std@@@3@@2@U?$less@V?$basic_string@DU?$char_traits@D@std@@V?$allocator@D@2@@std@@@2@V?$allocator@U?$pair@$$CBV?$basic_string@DU?$char_traits@D@std@@V?$allocator@D@2@@std@@V?$map@W4DB_OPERATION_TYPE@@V?$basic_string@DU?$char_traits@D@std@@V?$allocator@D@2@@std@@U?$less@W4DB_OPERATION_TYPE@@@3@V?$allocator@U?$pair@$$CBW4DB_OPERATION_TYPE@@V?$basic_string@DU?$char_traits@D@std@@V?$allocator@D@2@@std@@@std@@@3@@2@@std@@@2@$0A@@std@@@std@@QAE?AViterator@12@V312@0@Z 00459010 f i app:EntityManager.obj
 0001:000580e0       ?AddTblProcedure@CEntityManager@@QAEXPAVCBaseEntity@@W4DB_OPERATION_TYPE@@ABV?$basic_string@DU?$char_traits@D@std@@V?$allocator@D@2@@std@@@Z 004590e0 f   app:EntityManager.obj
 0001:00058250       ?CreateTblProcedure@CEntityManager@@QAEXPAVCBaseEntity@@@Z 00459250 f   app:EntityManager.obj
 0001:0005a420       ?InitPropertyIniData@CEntityManager@@QAEXXZ 0045b420 f   app:EntityManager.obj
 0001:0005bcf0       ??1?$map@V?$basic_string@DU?$char_traits@D@std@@V?$allocator@D@2@@std@@V?$map@W4DB_OPERATION_TYPE@@V?$basic_string@DU?$char_traits@D@std@@V?$allocator@D@2@@std@@U?$less@W4DB_OPERATION_TYPE@@@3@V?$allocator@U?$pair@$$CBW4DB_OPERATION_TYPE@@V?$basic_string@DU?$char_traits@D@std@@V?$allocator@D@2@@std@@@std@@@3@@2@U?$less@V?$basic_string@DU?$char_traits@D@std@@V?$allocator@D@2@@std@@@2@V?$allocator@U?$pair@$$CBV?$basic_string@DU?$char_traits@D@std@@V?$allocator@D@2@@std@@V?$map@W4DB_OPERATION_TYPE@@V?$basic_string@DU?$char_traits@D@std@@V?$allocator@D@2@@std@@U?$less@W4DB_OPERATION_TYPE@@@3@V?$allocator@U?$pair@$$CBW4DB_OPERATION_TYPE@@V?$basic_string@DU?$char_traits@D@std@@V?$allocator@D@2@@std@@@std@@@3@@2@@std@@@2@@std@@QAE@XZ 0045ccf0 f i app:EntityManager.obj
 0001:0005bd30       ??1CEntityManager@@QAE@XZ  0045cd30 f   app:EntityManager.obj
 0001:0005c020       ?InitDBThread@CEntityManager@@QAEXV?$basic_string@DU?$char_traits@D@std@@V?$allocator@D@2@@std@@0000@Z 0045d020 f   app:EntityManager.obj
 0001:0005c740       ??0CEntityManager@@QAE@XZ  0045d740 f   app:EntityManager.obj
 0001:0005ca70       ?GetAdoBasePtr@DBAccessThread@@QAEPAVDBAdoBase@@XZ 0045da70 f   app:DBAccessThread.obj
 0001:0005ca80       ?GetConnPtr@DBAccessThread@@QAE?AV?$_com_ptr_t@V?$_com_IIID@U_Connection@@$1?_GUID_00000550_0000_0010_8000_00aa006d2ea4@@3U__s_GUID@@B@@@@XZ 0045da80 f   app:DBAccessThread.obj
 0001:0005cab0       ??1DBAccessThread@@QAE@XZ  0045dab0 f   app:DBAccessThread.obj
 0001:0005cb30       ??0DBAccessThread@@QAE@V?$basic_string@DU?$char_traits@D@std@@V?$allocator@D@2@@std@@0000@Z 0045db30 f   app:DBAccessThread.obj
 0001:0005d070       ?ReleaseRs@DBAdoBase@@QAEJAAV?$_com_ptr_t@V?$_com_IIID@U_Recordset@@$1?_GUID_00000556_0000_0010_8000_00aa006d2ea4@@3U__s_GUID@@B@@@@@Z 0045e070 f   app:DBAdoBase.obj
 0001:0005d0d0       ?CreateRs@DBAdoBase@@QAEJAAV?$_com_ptr_t@V?$_com_IIID@U_Recordset@@$1?_GUID_00000556_0000_0010_8000_00aa006d2ea4@@3U__s_GUID@@B@@@@@Z 0045e0d0 f   app:DBAdoBase.obj
 0001:0005d150       ?OpenRs@DBAdoBase@@QAEJPBDAAV?$_com_ptr_t@V?$_com_IIID@U_Recordset@@$1?_GUID_00000556_0000_0010_8000_00aa006d2ea4@@3U__s_GUID@@B@@@@W4CursorTypeEnum@@W4LockTypeEnum@@J@Z 0045e150 f   app:DBAdoBase.obj
 0001:0005d2a0       ?ExecuteRs@DBAdoBase@@QAE_NPBDAAV?$_com_ptr_t@V?$_com_IIID@U_Recordset@@$1?_GUID_00000556_0000_0010_8000_00aa006d2ea4@@3U__s_GUID@@B@@@@@Z 0045e2a0 f   app:DBAdoBase.obj
 0001:0005d2d0       ?PrintErr@DBAdoBase@@QAEXPBDAAV_com_error@@@Z 0045e2d0 f   app:DBAdoBase.obj
 0001:0005d420       ??_EDBAdoBase@@UAEPAXI@Z   0045e420 f i app:DBAdoBase.obj
 0001:0005d420       ??_GDBAdoBase@@UAEPAXI@Z   0045e420 f i app:DBAdoBase.obj
 0001:0005d480       ?OpenCn@DBAdoBase@@QAE_NXZ 0045e480 f   app:DBAdoBase.obj
 0001:0005d620       ?CloseCn@DBAdoBase@@QAE_NXZ 0045e620 f   app:DBAdoBase.obj
 0001:0005d730       ?ExecuteCn@DBAdoBase@@QAE_NPBD@Z 0045e730 f   app:DBAdoBase.obj
 0001:0005d860       ??0DBAdoBase@@QAE@V?$basic_string@DU?$char_traits@D@std@@V?$allocator@D@2@@std@@@Z 0045e860 f   app:DBAdoBase.obj
 0001:0005d900       ?OnDBOPMessage@@YAXPAVCMessage@@@Z 0045e900 f   app:DBOPMessage.obj
 0001:0005d920       ?OnServerMessage@@YAXPAVCMessage@@@Z 0045e920 f   app:ServerMessage.obj
 0001:0005dd30       ??1DBMailThread@@QAE@XZ    0045ed30 f   app:DBMailThread.obj
 0001:0005dd40       ??0DBMailThread@@QAE@V?$basic_string@DU?$char_traits@D@std@@V?$allocator@D@2@@std@@0000@Z 0045ed40 f   app:DBMailThread.obj
 0001:0005e2b0       ?ProcessData@DBMailThread@@UAE_NXZ 0045f2b0 f   app:DBMailThread.obj
 0001:0005e670       ?GetAdoBasePtr@DBThread@@IAEPAVDBAdoBase@@XZ 0045f670 f   app:DBThread.obj
 0001:0005e680       ?RunThread@DBThread@@KGIPAX@Z 0045f680 f   app:DBThread.obj
 0001:0005e750       ?_Lrotate@?$_Tree@V?$_Tmap_traits@VCGUID@@PAUThreadData@@U?$less@VCGUID@@@std@@V?$allocator@U?$pair@$$CBVCGUID@@PAUThreadData@@@std@@@4@$0A@@std@@@std@@IAEXPAU_Node@?$_Tree_nod@V?$_Tmap_traits@VCGUID@@PAUThreadData@@U?$less@VCGUID@@@std@@V?$allocator@U?$pair@$$CBVCGUID@@PAUThreadData@@@std@@@4@$0A@@std@@@2@@Z 0045f750 f i app:DBThread.obj
 0001:0005e750       ?_Lrotate@?$_Tree@V?$_Tmap_traits@VCGUID@@PAVCBaseEntity@@U?$less@VCGUID@@@std@@V?$allocator@U?$pair@$$CBVCGUID@@PAVCBaseEntity@@@std@@@4@$0A@@std@@@std@@IAEXPAU_Node@?$_Tree_nod@V?$_Tmap_traits@VCGUID@@PAVCBaseEntity@@U?$less@VCGUID@@@std@@V?$allocator@U?$pair@$$CBVCGUID@@PAVCBaseEntity@@@std@@@4@$0A@@std@@@2@@Z 0045f750 f i app:EntityGroup.obj
 0001:0005e7a0       ?_Max@?$_Tree@V?$_Tmap_traits@VCGUID@@PAUThreadData@@U?$less@VCGUID@@@std@@V?$allocator@U?$pair@$$CBVCGUID@@PAUThreadData@@@std@@@4@$0A@@std@@@std@@KAPAU_Node@?$_Tree_nod@V?$_Tmap_traits@VCGUID@@PAUThreadData@@U?$less@VCGUID@@@std@@V?$allocator@U?$pair@$$CBVCGUID@@PAUThreadData@@@std@@@4@$0A@@std@@@2@PAU342@@Z 0045f7a0 f i app:DBThread.obj
 0001:0005e7a0       ?_Max@?$_Tree@V?$_Tmap_traits@VCGUID@@PAVCBaseEntity@@U?$less@VCGUID@@@std@@V?$allocator@U?$pair@$$CBVCGUID@@PAVCBaseEntity@@@std@@@4@$0A@@std@@@std@@KAPAU_Node@?$_Tree_nod@V?$_Tmap_traits@VCGUID@@PAVCBaseEntity@@U?$less@VCGUID@@@std@@V?$allocator@U?$pair@$$CBVCGUID@@PAVCBaseEntity@@@std@@@4@$0A@@std@@@2@PAU342@@Z 0045f7a0 f i app:EntityGroup.obj
 0001:0005e7c0       ?_Min@?$_Tree@V?$_Tmap_traits@VCGUID@@PAUThreadData@@U?$less@VCGUID@@@std@@V?$allocator@U?$pair@$$CBVCGUID@@PAUThreadData@@@std@@@4@$0A@@std@@@std@@KAPAU_Node@?$_Tree_nod@V?$_Tmap_traits@VCGUID@@PAUThreadData@@U?$less@VCGUID@@@std@@V?$allocator@U?$pair@$$CBVCGUID@@PAUThreadData@@@std@@@4@$0A@@std@@@2@PAU342@@Z 0045f7c0 f i app:DBThread.obj
 0001:0005e7e0       ?_Rrotate@?$_Tree@V?$_Tmap_traits@VCGUID@@PAVCBaseEntity@@U?$less@VCGUID@@@std@@V?$allocator@U?$pair@$$CBVCGUID@@PAVCBaseEntity@@@std@@@4@$0A@@std@@@std@@IAEXPAU_Node@?$_Tree_nod@V?$_Tmap_traits@VCGUID@@PAVCBaseEntity@@U?$less@VCGUID@@@std@@V?$allocator@U?$pair@$$CBVCGUID@@PAVCBaseEntity@@@std@@@4@$0A@@std@@@2@@Z 0045f7e0 f i app:EntityGroup.obj
 0001:0005e7e0       ?_Rrotate@?$_Tree@V?$_Tmap_traits@VCGUID@@PAUThreadData@@U?$less@VCGUID@@@std@@V?$allocator@U?$pair@$$CBVCGUID@@PAUThreadData@@@std@@@4@$0A@@std@@@std@@IAEXPAU_Node@?$_Tree_nod@V?$_Tmap_traits@VCGUID@@PAUThreadData@@U?$less@VCGUID@@@std@@V?$allocator@U?$pair@$$CBVCGUID@@PAUThreadData@@@std@@@4@$0A@@std@@@2@@Z 0045f7e0 f i app:DBThread.obj
 0001:0005e840       ?_Inc@const_iterator@?$_Tree@V?$_Tmap_traits@VCGUID@@PAUThreadData@@U?$less@VCGUID@@@std@@V?$allocator@U?$pair@$$CBVCGUID@@PAUThreadData@@@std@@@4@$0A@@std@@@std@@QAEXXZ 0045f840 f i app:DBThread.obj
 0001:0005e8b0       ?Begin@DBThread@@QAE_NXZ   0045f8b0 f   app:DBThread.obj
 0001:0005e8d0       ?Exit@DBThread@@QAEXXZ     0045f8d0 f   app:DBThread.obj
 0001:0005e8e0       ?DbOperEntityAttrs@DBThread@@IAEJPAVCEntityGroup@@AAV?$_com_ptr_t@V?$_com_IIID@U_Connection@@$1?_GUID_00000550_0000_0010_8000_00aa006d2ea4@@3U__s_GUID@@B@@@@@Z 0045f8e0 f   app:DBThread.obj
 0001:0005e9c0       ?DbOperAllEntityGroup@DBThread@@IAEJPAVCEntityGroup@@AAV?$_com_ptr_t@V?$_com_IIID@U_Connection@@$1?_GUID_00000550_0000_0010_8000_00aa006d2ea4@@3U__s_GUID@@B@@@@@Z 0045f9c0 f   app:DBThread.obj
 0001:0005ea80       ?DbOperLeaves@DBThread@@IAEJW4DB_OPERATION_TYPE@@PBD1ABV?$basic_string@DU?$char_traits@D@std@@V?$allocator@D@2@@std@@AAV?$map@VCGUID@@PAVCBaseEntity@@U?$less@VCGUID@@@std@@V?$allocator@U?$pair@$$CBVCGUID@@PAVCBaseEntity@@@std@@@4@@4@PAVCEntityGroup@@AAV?$_com_ptr_t@V?$_com_IIID@U_Connection@@$1?_GUID_00000550_0000_0010_8000_00aa006d2ea4@@3U__s_GUID@@B@@@@@Z 0045fa80 f   app:DBThread.obj
 0001:0005ebd0       ?_Erase@?$_Tree@V?$_Tmap_traits@VCGUID@@PAUThreadData@@U?$less@VCGUID@@@std@@V?$allocator@U?$pair@$$CBVCGUID@@PAUThreadData@@@std@@@4@$0A@@std@@@std@@IAEXPAU_Node@?$_Tree_nod@V?$_Tmap_traits@VCGUID@@PAUThreadData@@U?$less@VCGUID@@@std@@V?$allocator@U?$pair@$$CBVCGUID@@PAUThreadData@@@std@@@4@$0A@@std@@@2@@Z 0045fbd0 f i app:DBThread.obj
 0001:0005ebd0       ?_Erase@?$_Tree@V?$_Tmap_traits@VCGUID@@PAVCBaseEntity@@U?$less@VCGUID@@@std@@V?$allocator@U?$pair@$$CBVCGUID@@PAVCBaseEntity@@@std@@@4@$0A@@std@@@std@@IAEXPAU_Node@?$_Tree_nod@V?$_Tmap_traits@VCGUID@@PAVCBaseEntity@@U?$less@VCGUID@@@std@@V?$allocator@U?$pair@$$CBVCGUID@@PAVCBaseEntity@@@std@@@4@$0A@@std@@@2@@Z 0045fbd0 f i app:EntityGroup.obj
 0001:0005ec10       ?TravelRootDbOper@DBThread@@IAEJPAVCEntityGroup@@AAV?$_com_ptr_t@V?$_com_IIID@U_Connection@@$1?_GUID_00000550_0000_0010_8000_00aa006d2ea4@@3U__s_GUID@@B@@@@@Z 0045fc10 f   app:DBThread.obj
 0001:0005ef40       ?erase@?$_Tree@V?$_Tmap_traits@VCGUID@@PAUThreadData@@U?$less@VCGUID@@@std@@V?$allocator@U?$pair@$$CBVCGUID@@PAUThreadData@@@std@@@4@$0A@@std@@@std@@QAE?AViterator@12@V312@@Z 0045ff40 f i app:DBThread.obj
 0001:0005f200       ?ProcessData@DBThread@@MAE_NXZ 00460200 f   app:DBThread.obj
 0001:0005f400       ?erase@?$_Tree@V?$_Tmap_traits@VCGUID@@PAUThreadData@@U?$less@VCGUID@@@std@@V?$allocator@U?$pair@$$CBVCGUID@@PAUThreadData@@@std@@@4@$0A@@std@@@std@@QAE?AViterator@12@V312@0@Z 00460400 f i app:DBThread.obj
 0001:0005f4d0       ??1?$map@VCGUID@@PAUThreadData@@U?$less@VCGUID@@@std@@V?$allocator@U?$pair@$$CBVCGUID@@PAUThreadData@@@std@@@4@@std@@QAE@XZ 004604d0 f i app:DBThread.obj
 0001:0005f510       ??1DBThread@@QAE@XZ        00460510 f   app:DBThread.obj
 0001:0005f5d0       ??0DBThread@@IAE@XZ        004605d0 f   app:DBThread.obj
 0001:0005f660       ??0DBThread@@QAE@V?$basic_string@DU?$char_traits@D@std@@V?$allocator@D@2@@std@@0000W4eThreadType@@@Z 00460660 f   app:DBThread.obj
 0001:0005fc50       ??0ThreadData@@QAE@XZ      00460c50 f   app:ThreadDataDef.obj
 0001:0005fc60       ??1ThreadData@@QAE@XZ      00460c60 f   app:ThreadDataDef.obj
 0001:0005fc80       ??4CEntity@@QAEAAV0@AAV0@@Z 00460c80 f   app:Entity.obj
 0001:0005fca0       ??_ECEntity@@UAEPAXI@Z     00460ca0 f i app:Entity.obj
 0001:0005fca0       ??_GCEntity@@UAEPAXI@Z     00460ca0 f i app:Entity.obj
 0001:0005fcd0       ?AddToByteArray@CEntity@@UAEXAAV?$vector@EV?$allocator@E@std@@@std@@_N@Z 00460cd0 f   app:Entity.obj
 0001:0005ff90       ?InitProperty@CEntity@@UAEXXZ 00460f90 f   app:Entity.obj
 0001:000600b0       ?GetFromByteArray@CEntity@@UAEXPAEAAJJ@Z 004610b0 f   app:Entity.obj
 0001:000603f0       ??0CEntity@@QAE@ABV?$basic_string@DU?$char_traits@D@std@@V?$allocator@D@2@@std@@ABVCGUID@@@Z 004613f0 f   app:Entity.obj
 0001:00060470       ?SetName@CEntityGroup@@QAEXPBD@Z 00461470 f   app:EntityGroup.obj
 0001:000604d0       ?_Max@?$_Tree@V?$_Tmap_traits@V?$basic_string@DU?$char_traits@D@std@@V?$allocator@D@2@@std@@UtagEntityAttrInfo@@U?$less@V?$basic_string@DU?$char_traits@D@std@@V?$allocator@D@2@@std@@@2@V?$allocator@U?$pair@$$CBV?$basic_string@DU?$char_traits@D@std@@V?$allocator@D@2@@std@@UtagEntityAttrInfo@@@std@@@2@$0A@@std@@@std@@KAPAU_Node@?$_Tree_nod@V?$_Tmap_traits@V?$basic_string@DU?$char_traits@D@std@@V?$allocator@D@2@@std@@UtagEntityAttrInfo@@U?$less@V?$basic_string@DU?$char_traits@D@std@@V?$allocator@D@2@@std@@@2@V?$allocator@U?$pair@$$CBV?$basic_string@DU?$char_traits@D@std@@V?$allocator@D@2@@std@@UtagEntityAttrInfo@@@std@@@2@$0A@@std@@@2@PAU342@@Z 004614d0 f i app:EntityManager.obj
 0001:000604d0       ?_Max@?$_Tree@V?$_Tmap_traits@V?$basic_string@DU?$char_traits@D@std@@V?$allocator@D@2@@std@@VCGUID@@U?$less@V?$basic_string@DU?$char_traits@D@std@@V?$allocator@D@2@@std@@@2@V?$allocator@U?$pair@$$CBV?$basic_string@DU?$char_traits@D@std@@V?$allocator@D@2@@std@@VCGUID@@@std@@@2@$0A@@std@@@std@@KAPAU_Node@?$_Tree_nod@V?$_Tmap_traits@V?$basic_string@DU?$char_traits@D@std@@V?$allocator@D@2@@std@@VCGUID@@U?$less@V?$basic_string@DU?$char_traits@D@std@@V?$allocator@D@2@@std@@@2@V?$allocator@U?$pair@$$CBV?$basic_string@DU?$char_traits@D@std@@V?$allocator@D@2@@std@@VCGUID@@@std@@@2@$0A@@std@@@2@PAU342@@Z 004614d0 f i app:EntityGroup.obj
 0001:000604f0       ?_Min@?$_Tree@V?$_Tmap_traits@V?$basic_string@DU?$char_traits@D@std@@V?$allocator@D@2@@std@@VCGUID@@U?$less@V?$basic_string@DU?$char_traits@D@std@@V?$allocator@D@2@@std@@@2@V?$allocator@U?$pair@$$CBV?$basic_string@DU?$char_traits@D@std@@V?$allocator@D@2@@std@@VCGUID@@@std@@@2@$0A@@std@@@std@@KAPAU_Node@?$_Tree_nod@V?$_Tmap_traits@V?$basic_string@DU?$char_traits@D@std@@V?$allocator@D@2@@std@@VCGUID@@U?$less@V?$basic_string@DU?$char_traits@D@std@@V?$allocator@D@2@@std@@@2@V?$allocator@U?$pair@$$CBV?$basic_string@DU?$char_traits@D@std@@V?$allocator@D@2@@std@@VCGUID@@@std@@@2@$0A@@std@@@2@PAU342@@Z 004614f0 f i app:EntityGroup.obj
 0001:00060510       ?_Rrotate@?$_Tree@V?$_Tmap_traits@V?$basic_string@DU?$char_traits@D@std@@V?$allocator@D@2@@std@@UtagEntityAttrInfo@@U?$less@V?$basic_string@DU?$char_traits@D@std@@V?$allocator@D@2@@std@@@2@V?$allocator@U?$pair@$$CBV?$basic_string@DU?$char_traits@D@std@@V?$allocator@D@2@@std@@UtagEntityAttrInfo@@@std@@@2@$0A@@std@@@std@@IAEXPAU_Node@?$_Tree_nod@V?$_Tmap_traits@V?$basic_string@DU?$char_traits@D@std@@V?$allocator@D@2@@std@@UtagEntityAttrInfo@@U?$less@V?$basic_string@DU?$char_traits@D@std@@V?$allocator@D@2@@std@@@2@V?$allocator@U?$pair@$$CBV?$basic_string@DU?$char_traits@D@std@@V?$allocator@D@2@@std@@UtagEntityAttrInfo@@@std@@@2@$0A@@std@@@2@@Z 00461510 f i app:EntityManager.obj
 0001:00060510       ?_Rrotate@?$_Tree@V?$_Tmap_traits@V?$basic_string@DU?$char_traits@D@std@@V?$allocator@D@2@@std@@VCGUID@@U?$less@V?$basic_string@DU?$char_traits@D@std@@V?$allocator@D@2@@std@@@2@V?$allocator@U?$pair@$$CBV?$basic_string@DU?$char_traits@D@std@@V?$allocator@D@2@@std@@VCGUID@@@std@@@2@$0A@@std@@@std@@IAEXPAU_Node@?$_Tree_nod@V?$_Tmap_traits@V?$basic_string@DU?$char_traits@D@std@@V?$allocator@D@2@@std@@VCGUID@@U?$less@V?$basic_string@DU?$char_traits@D@std@@V?$allocator@D@2@@std@@@2@V?$allocator@U?$pair@$$CBV?$basic_string@DU?$char_traits@D@std@@V?$allocator@D@2@@std@@VCGUID@@@std@@@2@$0A@@std@@@2@@Z 00461510 f i app:EntityGroup.obj
 0001:00060570       ?_Dec@const_iterator@?$_Tree@V?$_Tmap_traits@VCGUID@@PAVCEntityGroup@@U?$less@VCGUID@@@std@@V?$allocator@U?$pair@$$CBVCGUID@@PAVCEntityGroup@@@std@@@4@$0A@@std@@@std@@QAEXXZ 00461570 f i app:EntityManager.obj
 0001:00060570       ?_Dec@const_iterator@?$_Tree@V?$_Tmap_traits@VCGUID@@PAVCBaseEntity@@U?$less@VCGUID@@@std@@V?$allocator@U?$pair@$$CBVCGUID@@PAVCBaseEntity@@@std@@@4@$0A@@std@@@std@@QAEXXZ 00461570 f i app:EntityGroup.obj
 0001:00060600       ?_Dec@const_iterator@?$_Tree@V?$_Tmap_traits@V?$basic_string@DU?$char_traits@D@std@@V?$allocator@D@2@@std@@UtagEntityAttrInfo@@U?$less@V?$basic_string@DU?$char_traits@D@std@@V?$allocator@D@2@@std@@@2@V?$allocator@U?$pair@$$CBV?$basic_string@DU?$char_traits@D@std@@V?$allocator@D@2@@std@@UtagEntityAttrInfo@@@std@@@2@$0A@@std@@@std@@QAEXXZ 00461600 f i app:EntityManager.obj
 0001:00060600       ?_Dec@const_iterator@?$_Tree@V?$_Tmap_traits@V?$basic_string@DU?$char_traits@D@std@@V?$allocator@D@2@@std@@VCGUID@@U?$less@V?$basic_string@DU?$char_traits@D@std@@V?$allocator@D@2@@std@@@2@V?$allocator@U?$pair@$$CBV?$basic_string@DU?$char_traits@D@std@@V?$allocator@D@2@@std@@VCGUID@@@std@@@2@$0A@@std@@@std@@QAEXXZ 00461600 f i app:EntityGroup.obj
 0001:00060690       ?_Inc@const_iterator@?$_Tree@V?$_Tmap_traits@V?$basic_string@DU?$char_traits@D@std@@V?$allocator@D@2@@std@@VCGUID@@U?$less@V?$basic_string@DU?$char_traits@D@std@@V?$allocator@D@2@@std@@@2@V?$allocator@U?$pair@$$CBV?$basic_string@DU?$char_traits@D@std@@V?$allocator@D@2@@std@@VCGUID@@@std@@@2@$0A@@std@@@std@@QAEXXZ 00461690 f i app:EntityGroup.obj
 0001:00060700       ?_Buynode@?$_Tree@V?$_Tmap_traits@VCGUID@@PAUThreadData@@U?$less@VCGUID@@@std@@V?$allocator@U?$pair@$$CBVCGUID@@PAUThreadData@@@std@@@4@$0A@@std@@@std@@IAEPAU_Node@?$_Tree_nod@V?$_Tmap_traits@VCGUID@@PAUThreadData@@U?$less@VCGUID@@@std@@V?$allocator@U?$pair@$$CBVCGUID@@PAUThreadData@@@std@@@4@$0A@@std@@@2@XZ 00461700 f i app:DBThread.obj
 0001:00060700       ?_Buynode@?$_Tree@V?$_Tmap_traits@VCGUID@@PAVCEntityGroup@@U?$less@VCGUID@@@std@@V?$allocator@U?$pair@$$CBVCGUID@@PAVCEntityGroup@@@std@@@4@$0A@@std@@@std@@IAEPAU_Node@?$_Tree_nod@V?$_Tmap_traits@VCGUID@@PAVCEntityGroup@@U?$less@VCGUID@@@std@@V?$allocator@U?$pair@$$CBVCGUID@@PAVCEntityGroup@@@std@@@4@$0A@@std@@@2@XZ 00461700 f i app:EntityManager.obj
 0001:00060700       ?_Buynode@?$_Tree@V?$_Tmap_traits@VCGUID@@PAVCBaseEntity@@U?$less@VCGUID@@@std@@V?$allocator@U?$pair@$$CBVCGUID@@PAVCBaseEntity@@@std@@@4@$0A@@std@@@std@@IAEPAU_Node@?$_Tree_nod@V?$_Tmap_traits@VCGUID@@PAVCBaseEntity@@U?$less@VCGUID@@@std@@V?$allocator@U?$pair@$$CBVCGUID@@PAVCBaseEntity@@@std@@@4@$0A@@std@@@2@XZ 00461700 f i app:EntityGroup.obj
 0001:00060740       ?AddToByteArray@CEntityGroup@@UAEXAAV?$vector@EV?$allocator@E@std@@@std@@_N@Z 00461740 f   app:EntityGroup.obj
 0001:00060bf0       ?GetChild@CEntityGroup@@UAEPAVCBaseEntity@@ABVCGUID@@@Z 00461bf0 f   app:EntityGroup.obj
 0001:00060c60       ?_Insert@?$_Tree@V?$_Tmap_traits@VCGUID@@PAVCBaseEntity@@U?$less@VCGUID@@@std@@V?$allocator@U?$pair@$$CBVCGUID@@PAVCBaseEntity@@@std@@@4@$0A@@std@@@std@@IAE?AViterator@12@_NPAU_Node@?$_Tree_nod@V?$_Tmap_traits@VCGUID@@PAVCBaseEntity@@U?$less@VCGUID@@@std@@V?$allocator@U?$pair@$$CBVCGUID@@PAVCBaseEntity@@@std@@@4@$0A@@std@@@2@ABU?$pair@$$CBVCGUID@@PAVCBaseEntity@@@2@@Z 00461c60 f i app:EntityGroup.obj
 0001:00060e60       ?erase@?$_Tree@V?$_Tmap_traits@VCGUID@@PAVCBaseEntity@@U?$less@VCGUID@@@std@@V?$allocator@U?$pair@$$CBVCGUID@@PAVCBaseEntity@@@std@@@4@$0A@@std@@@std@@QAE?AViterator@12@V312@@Z 00461e60 f i app:EntityGroup.obj
 0001:00061120       ?insert@?$_Tree@V?$_Tmap_traits@VCGUID@@PAVCBaseEntity@@U?$less@VCGUID@@@std@@V?$allocator@U?$pair@$$CBVCGUID@@PAVCBaseEntity@@@std@@@4@$0A@@std@@@std@@QAE?AU?$pair@Viterator@?$_Tree@V?$_Tmap_traits@VCGUID@@PAVCBaseEntity@@U?$less@VCGUID@@@std@@V?$allocator@U?$pair@$$CBVCGUID@@PAVCBaseEntity@@@std@@@4@$0A@@std@@@std@@_N@2@ABU?$pair@$$CBVCGUID@@PAVCBaseEntity@@@2@@Z 00462120 f i app:EntityGroup.obj
 0001:00061240       ?erase@?$_Tree@V?$_Tmap_traits@VCGUID@@PAVCBaseEntity@@U?$less@VCGUID@@@std@@V?$allocator@U?$pair@$$CBVCGUID@@PAVCBaseEntity@@@std@@@4@$0A@@std@@@std@@QAE?AViterator@12@V312@0@Z 00462240 f i app:EntityGroup.obj
 0001:00061310       ?_Buynode@?$_Tree@V?$_Tmap_traits@V?$basic_string@DU?$char_traits@D@std@@V?$allocator@D@2@@std@@UtagEntityAttrInfo@@U?$less@V?$basic_string@DU?$char_traits@D@std@@V?$allocator@D@2@@std@@@2@V?$allocator@U?$pair@$$CBV?$basic_string@DU?$char_traits@D@std@@V?$allocator@D@2@@std@@UtagEntityAttrInfo@@@std@@@2@$0A@@std@@@std@@IAEPAU_Node@?$_Tree_nod@V?$_Tmap_traits@V?$basic_string@DU?$char_traits@D@std@@V?$allocator@D@2@@std@@UtagEntityAttrInfo@@U?$less@V?$basic_string@DU?$char_traits@D@std@@V?$allocator@D@2@@std@@@2@V?$allocator@U?$pair@$$CBV?$basic_string@DU?$char_traits@D@std@@V?$allocator@D@2@@std@@UtagEntityAttrInfo@@@std@@@2@$0A@@std@@@2@PAU342@00ABU?$pair@$$CBV?$basic_string@DU?$char_traits@D@std@@V?$allocator@D@2@@std@@UtagEntityAttrInfo@@@2@D@Z 00462310 f i app:EntityManager.obj
 0001:00061310       ?_Buynode@?$_Tree@V?$_Tmap_traits@V?$basic_string@DU?$char_traits@D@std@@V?$allocator@D@2@@std@@VCGUID@@U?$less@V?$basic_string@DU?$char_traits@D@std@@V?$allocator@D@2@@std@@@2@V?$allocator@U?$pair@$$CBV?$basic_string@DU?$char_traits@D@std@@V?$allocator@D@2@@std@@VCGUID@@@std@@@2@$0A@@std@@@std@@IAEPAU_Node@?$_Tree_nod@V?$_Tmap_traits@V?$basic_string@DU?$char_traits@D@std@@V?$allocator@D@2@@std@@VCGUID@@U?$less@V?$basic_string@DU?$char_traits@D@std@@V?$allocator@D@2@@std@@@2@V?$allocator@U?$pair@$$CBV?$basic_string@DU?$char_traits@D@std@@V?$allocator@D@2@@std@@VCGUID@@@std@@@2@$0A@@std@@@2@PAU342@00ABU?$pair@$$CBV?$basic_string@DU?$char_traits@D@std@@V?$allocator@D@2@@std@@VCGUID@@@2@D@Z 00462310 f i app:EntityGroup.obj
 0001:000613b0       ?ReleaseChildPtr@CEntityGroup@@QAEPAVCBaseEntity@@ABVCGUID@@@Z 004623b0 f   app:EntityGroup.obj
 0001:00061430       ?ReleaseChilds@CEntityGroup@@QAEXXZ 00462430 f   app:EntityGroup.obj
 0001:000614c0       ?ReleaseLeaf@CEntityGroup@@QAEXABVCGUID@@@Z 004624c0 f   app:EntityGroup.obj
 0001:000614c0       ?RemoveChild@CEntityGroup@@UAEXABVCGUID@@@Z 004624c0 f   app:EntityGroup.obj
 0001:00061540       ?insert@?$_Tree@V?$_Tmap_traits@VCGUID@@PAVCBaseEntity@@U?$less@VCGUID@@@std@@V?$allocator@U?$pair@$$CBVCGUID@@PAVCBaseEntity@@@std@@@4@$0A@@std@@@std@@QAE?AViterator@12@V312@ABU?$pair@$$CBVCGUID@@PAVCBaseEntity@@@2@@Z 00462540 f i app:EntityGroup.obj
 0001:00061740       ?erase@?$_Tree@V?$_Tmap_traits@V?$basic_string@DU?$char_traits@D@std@@V?$allocator@D@2@@std@@VCGUID@@U?$less@V?$basic_string@DU?$char_traits@D@std@@V?$allocator@D@2@@std@@@2@V?$allocator@U?$pair@$$CBV?$basic_string@DU?$char_traits@D@std@@V?$allocator@D@2@@std@@VCGUID@@@std@@@2@$0A@@std@@@std@@QAE?AViterator@12@V312@@Z 00462740 f i app:EntityGroup.obj
 0001:00061a30       ?_Insert@?$_Tree@V?$_Tmap_traits@V?$basic_string@DU?$char_traits@D@std@@V?$allocator@D@2@@std@@VCGUID@@U?$less@V?$basic_string@DU?$char_traits@D@std@@V?$allocator@D@2@@std@@@2@V?$allocator@U?$pair@$$CBV?$basic_string@DU?$char_traits@D@std@@V?$allocator@D@2@@std@@VCGUID@@@std@@@2@$0A@@std@@@std@@IAE?AViterator@12@_NPAU_Node@?$_Tree_nod@V?$_Tmap_traits@V?$basic_string@DU?$char_traits@D@std@@V?$allocator@D@2@@std@@VCGUID@@U?$less@V?$basic_string@DU?$char_traits@D@std@@V?$allocator@D@2@@std@@@2@V?$allocator@U?$pair@$$CBV?$basic_string@DU?$char_traits@D@std@@V?$allocator@D@2@@std@@VCGUID@@@std@@@2@$0A@@std@@@2@ABU?$pair@$$CBV?$basic_string@DU?$char_traits@D@std@@V?$allocator@D@2@@std@@VCGUID@@@2@@Z 00462a30 f i app:EntityGroup.obj
 0001:00061a30       ?_Insert@?$_Tree@V?$_Tmap_traits@V?$basic_string@DU?$char_traits@D@std@@V?$allocator@D@2@@std@@UtagEntityAttrInfo@@U?$less@V?$basic_string@DU?$char_traits@D@std@@V?$allocator@D@2@@std@@@2@V?$allocator@U?$pair@$$CBV?$basic_string@DU?$char_traits@D@std@@V?$allocator@D@2@@std@@UtagEntityAttrInfo@@@std@@@2@$0A@@std@@@std@@IAE?AViterator@12@_NPAU_Node@?$_Tree_nod@V?$_Tmap_traits@V?$basic_string@DU?$char_traits@D@std@@V?$allocator@D@2@@std@@UtagEntityAttrInfo@@U?$less@V?$basic_string@DU?$char_traits@D@std@@V?$allocator@D@2@@std@@@2@V?$allocator@U?$pair@$$CBV?$basic_string@DU?$char_traits@D@std@@V?$allocator@D@2@@std@@UtagEntityAttrInfo@@@std@@@2@$0A@@std@@@2@ABU?$pair@$$CBV?$basic_string@DU?$char_traits@D@std@@V?$allocator@D@2@@std@@UtagEntityAttrInfo@@@2@@Z 00462a30 f i app:EntityManager.obj
 0001:00061c30       ?_Erase@?$_Tree@V?$_Tmap_traits@V?$basic_string@DU?$char_traits@D@std@@V?$allocator@D@2@@std@@UtagEntityAttrInfo@@U?$less@V?$basic_string@DU?$char_traits@D@std@@V?$allocator@D@2@@std@@@2@V?$allocator@U?$pair@$$CBV?$basic_string@DU?$char_traits@D@std@@V?$allocator@D@2@@std@@UtagEntityAttrInfo@@@std@@@2@$0A@@std@@@std@@IAEXPAU_Node@?$_Tree_nod@V?$_Tmap_traits@V?$basic_string@DU?$char_traits@D@std@@V?$allocator@D@2@@std@@UtagEntityAttrInfo@@U?$less@V?$basic_string@DU?$char_traits@D@std@@V?$allocator@D@2@@std@@@2@V?$allocator@U?$pair@$$CBV?$basic_string@DU?$char_traits@D@std@@V?$allocator@D@2@@std@@UtagEntityAttrInfo@@@std@@@2@$0A@@std@@@2@@Z 00462c30 f i app:EntityManager.obj
 0001:00061c30       ?_Erase@?$_Tree@V?$_Tmap_traits@V?$basic_string@DU?$char_traits@D@std@@V?$allocator@D@2@@std@@VCGUID@@U?$less@V?$basic_string@DU?$char_traits@D@std@@V?$allocator@D@2@@std@@@2@V?$allocator@U?$pair@$$CBV?$basic_string@DU?$char_traits@D@std@@V?$allocator@D@2@@std@@VCGUID@@@std@@@2@$0A@@std@@@std@@IAEXPAU_Node@?$_Tree_nod@V?$_Tmap_traits@V?$basic_string@DU?$char_traits@D@std@@V?$allocator@D@2@@std@@VCGUID@@U?$less@V?$basic_string@DU?$char_traits@D@std@@V?$allocator@D@2@@std@@@2@V?$allocator@U?$pair@$$CBV?$basic_string@DU?$char_traits@D@std@@V?$allocator@D@2@@std@@VCGUID@@@std@@@2@$0A@@std@@@2@@Z 00462c30 f i app:EntityGroup.obj
 0001:00061c90       ??A?$map@VCGUID@@PAVCBaseEntity@@U?$less@VCGUID@@@std@@V?$allocator@U?$pair@$$CBVCGUID@@PAVCBaseEntity@@@std@@@4@@std@@QAEAAPAVCBaseEntity@@ABVCGUID@@@Z 00462c90 f i app:EntityGroup.obj
 0001:00061d40       ?insert@?$_Tree@V?$_Tmap_traits@V?$basic_string@DU?$char_traits@D@std@@V?$allocator@D@2@@std@@VCGUID@@U?$less@V?$basic_string@DU?$char_traits@D@std@@V?$allocator@D@2@@std@@@2@V?$allocator@U?$pair@$$CBV?$basic_string@DU?$char_traits@D@std@@V?$allocator@D@2@@std@@VCGUID@@@std@@@2@$0A@@std@@@std@@QAE?AU?$pair@Viterator@?$_Tree@V?$_Tmap_traits@V?$basic_string@DU?$char_traits@D@std@@V?$allocator@D@2@@std@@VCGUID@@U?$less@V?$basic_string@DU?$char_traits@D@std@@V?$allocator@D@2@@std@@@2@V?$allocator@U?$pair@$$CBV?$basic_string@DU?$char_traits@D@std@@V?$allocator@D@2@@std@@VCGUID@@@std@@@2@$0A@@std@@@std@@_N@2@ABU?$pair@$$CBV?$basic_string@DU?$char_traits@D@std@@V?$allocator@D@2@@std@@VCGUID@@@2@@Z 00462d40 f i app:EntityGroup.obj
 0001:00061d40       ?insert@?$_Tree@V?$_Tmap_traits@V?$basic_string@DU?$char_traits@D@std@@V?$allocator@D@2@@std@@UtagEntityAttrInfo@@U?$less@V?$basic_string@DU?$char_traits@D@std@@V?$allocator@D@2@@std@@@2@V?$allocator@U?$pair@$$CBV?$basic_string@DU?$char_traits@D@std@@V?$allocator@D@2@@std@@UtagEntityAttrInfo@@@std@@@2@$0A@@std@@@std@@QAE?AU?$pair@Viterator@?$_Tree@V?$_Tmap_traits@V?$basic_string@DU?$char_traits@D@std@@V?$allocator@D@2@@std@@UtagEntityAttrInfo@@U?$less@V?$basic_string@DU?$char_traits@D@std@@V?$allocator@D@2@@std@@@2@V?$allocator@U?$pair@$$CBV?$basic_string@DU?$char_traits@D@std@@V?$allocator@D@2@@std@@UtagEntityAttrInfo@@@std@@@2@$0A@@std@@@std@@_N@2@ABU?$pair@$$CBV?$basic_string@DU?$char_traits@D@std@@V?$allocator@D@2@@std@@UtagEntityAttrInfo@@@2@@Z 00462d40 f i app:EntityManager.obj
 0001:00061e70       ?_Copy@?$_Tree@V?$_Tmap_traits@V?$basic_string@DU?$char_traits@D@std@@V?$allocator@D@2@@std@@VCGUID@@U?$less@V?$basic_string@DU?$char_traits@D@std@@V?$allocator@D@2@@std@@@2@V?$allocator@U?$pair@$$CBV?$basic_string@DU?$char_traits@D@std@@V?$allocator@D@2@@std@@VCGUID@@@std@@@2@$0A@@std@@@std@@IAEPAU_Node@?$_Tree_nod@V?$_Tmap_traits@V?$basic_string@DU?$char_traits@D@std@@V?$allocator@D@2@@std@@VCGUID@@U?$less@V?$basic_string@DU?$char_traits@D@std@@V?$allocator@D@2@@std@@@2@V?$allocator@U?$pair@$$CBV?$basic_string@DU?$char_traits@D@std@@V?$allocator@D@2@@std@@VCGUID@@@std@@@2@$0A@@std@@@2@PAU342@0@Z 00462e70 f i app:EntityGroup.obj
 0001:00061f30       ??1?$map@VCGUID@@PAVCBaseEntity@@U?$less@VCGUID@@@std@@V?$allocator@U?$pair@$$CBVCGUID@@PAVCBaseEntity@@@std@@@4@@std@@QAE@XZ 00462f30 f i app:EntityGroup.obj
 0001:00061f70       ?insert@?$_Tree@V?$_Tmap_traits@V?$basic_string@DU?$char_traits@D@std@@V?$allocator@D@2@@std@@VCGUID@@U?$less@V?$basic_string@DU?$char_traits@D@std@@V?$allocator@D@2@@std@@@2@V?$allocator@U?$pair@$$CBV?$basic_string@DU?$char_traits@D@std@@V?$allocator@D@2@@std@@VCGUID@@@std@@@2@$0A@@std@@@std@@QAE?AViterator@12@V312@ABU?$pair@$$CBV?$basic_string@DU?$char_traits@D@std@@V?$allocator@D@2@@std@@VCGUID@@@2@@Z 00462f70 f i app:EntityGroup.obj
 0001:00062170       ?erase@?$_Tree@V?$_Tmap_traits@V?$basic_string@DU?$char_traits@D@std@@V?$allocator@D@2@@std@@VCGUID@@U?$less@V?$basic_string@DU?$char_traits@D@std@@V?$allocator@D@2@@std@@@2@V?$allocator@U?$pair@$$CBV?$basic_string@DU?$char_traits@D@std@@V?$allocator@D@2@@std@@VCGUID@@@std@@@2@$0A@@std@@@std@@QAE?AViterator@12@V312@0@Z 00463170 f i app:EntityGroup.obj
 0001:00062240       ?_Copy@?$_Tree@V?$_Tmap_traits@V?$basic_string@DU?$char_traits@D@std@@V?$allocator@D@2@@std@@VCGUID@@U?$less@V?$basic_string@DU?$char_traits@D@std@@V?$allocator@D@2@@std@@@2@V?$allocator@U?$pair@$$CBV?$basic_string@DU?$char_traits@D@std@@V?$allocator@D@2@@std@@VCGUID@@@std@@@2@$0A@@std@@@std@@IAEXABV12@@Z 00463240 f i app:EntityGroup.obj
 0001:000622c0       ??A?$map@V?$basic_string@DU?$char_traits@D@std@@V?$allocator@D@2@@std@@VCGUID@@U?$less@V?$basic_string@DU?$char_traits@D@std@@V?$allocator@D@2@@std@@@2@V?$allocator@U?$pair@$$CBV?$basic_string@DU?$char_traits@D@std@@V?$allocator@D@2@@std@@VCGUID@@@std@@@2@@std@@QAEAAVCGUID@@ABV?$basic_string@DU?$char_traits@D@std@@V?$allocator@D@2@@1@@Z 004632c0 f i app:EntityGroup.obj
 0001:000623d0       ??1?$map@V?$basic_string@DU?$char_traits@D@std@@V?$allocator@D@2@@std@@VCGUID@@U?$less@V?$basic_string@DU?$char_traits@D@std@@V?$allocator@D@2@@std@@@2@V?$allocator@U?$pair@$$CBV?$basic_string@DU?$char_traits@D@std@@V?$allocator@D@2@@std@@VCGUID@@@std@@@2@@std@@QAE@XZ 004633d0 f i app:EntityGroup.obj
 0001:00062410       ??1CEntityGroup@@UAE@XZ    00463410 f   app:EntityGroup.obj
 0001:00062850       ?AddChild@CEntityGroup@@QAEXPAVCBaseEntity@@@Z 00463850 f   app:EntityGroup.obj
 0001:00062920       ??_ECEntityGroup@@UAEPAXI@Z 00463920 f i app:EntityGroup.obj
 0001:00062920       ??_GCEntityGroup@@UAEPAXI@Z 00463920 f i app:EntityGroup.obj
 0001:00062940       ??0CEntityGroup@@QAE@ABV?$basic_string@DU?$char_traits@D@std@@V?$allocator@D@2@@std@@ABVCGUID@@@Z 00463940 f   app:EntityGroup.obj
 0001:00062b80       ??4CEntityGroup@@UAEAAV0@AAV0@@Z 00463b80 f   app:EntityGroup.obj
 0001:00063120       ?GetFromByteArray@CEntityGroup@@UAEXPAEAAJJ@Z 00464120 f   app:EntityGroup.obj
 0001:000643a0       ?InitProperty@CEntityGroup@@UAEXXZ 004653a0 f   app:EntityGroup.obj
 0001:00064730       ?GetLongAttr@CBaseEntity@@QAEJABV?$basic_string@DU?$char_traits@D@std@@V?$allocator@D@2@@std@@@Z 00465730 f   app:BaseEntity.obj
 0001:00064760       ?GetStringAttr@CBaseEntity@@QAEPBDABV?$basic_string@DU?$char_traits@D@std@@V?$allocator@D@2@@std@@@Z 00465760 f   app:BaseEntity.obj
 0001:00064790       ?GetGuidAttr@CBaseEntity@@QAEXABV?$basic_string@DU?$char_traits@D@std@@V?$allocator@D@2@@std@@AAVCGUID@@@Z 00465790 f   app:BaseEntity.obj
 0001:000647d0       ?SetStringAttr@CBaseEntity@@QAEXABV?$basic_string@DU?$char_traits@D@std@@V?$allocator@D@2@@std@@PBD@Z 004657d0 f   app:BaseEntity.obj
 0001:00064810       ??4CBaseEntity@@UAEAAV0@AAV0@@Z 00465810 f   app:BaseEntity.obj
 0001:00064880       ??1CBaseEntity@@UAE@XZ     00465880 f   app:BaseEntity.obj
 0001:00064910       ?InitProperty@CBaseEntity@@UAEXXZ 00465910 f i app:BaseEntity.obj
 0001:00064920       ??_GCBaseEntity@@UAEPAXI@Z 00465920 f i app:BaseEntity.obj
 0001:00064920       ??_ECBaseEntity@@UAEPAXI@Z 00465920 f i app:BaseEntity.obj
 0001:00064940       ??0CBaseEntity@@QAE@ABVCGUID@@@Z 00465940 f   app:BaseEntity.obj
 0001:000649e0       ??4Account@@UAEAAV0@AAV0@@Z 004659e0 f   app:Account.obj
 0001:00064a10       ??_EAccount@@UAEPAXI@Z     00465a10 f i app:Account.obj
 0001:00064a10       ??_GAccount@@UAEPAXI@Z     00465a10 f i app:Account.obj
 0001:00064a40       ?FindLoginPlayer@Account@@QAEPAVCEntityGroup@@ABVCGUID@@@Z 00465a40 f   app:Account.obj
 0001:00064b20       ??0Account@@QAE@ABVCGUID@@@Z 00465b20 f   app:Account.obj
 0001:00064bd0       ?AddLoginPlayer@Account@@QAEXPAVCEntityGroup@@@Z 00465bd0 f   app:Account.obj
 0001:00064cb0       ??_GDBRankThread@@UAEPAXI@Z 00465cb0 f i app:DBRankThread.obj
 0001:00064cb0       ??_EDBRankThread@@UAEPAXI@Z 00465cb0 f i app:DBRankThread.obj
 0001:00064d00       ?_Copy@?$_Tree@V?$_Tmap_traits@JPAUtagRankInfo@@U?$less@J@std@@V?$allocator@U?$pair@$$CBJPAUtagRankInfo@@@std@@@3@$0A@@std@@@std@@IAEPAU_Node@?$_Tree_nod@V?$_Tmap_traits@JPAUtagRankInfo@@U?$less@J@std@@V?$allocator@U?$pair@$$CBJPAUtagRankInfo@@@std@@@3@$0A@@std@@@2@PAU342@0@Z 00465d00 f i app:DBRankThread.obj
 0001:00064dc0       ??4_bstr_t@@QAEAAV0@PB_W@Z 00465dc0 f i app:DBRankThread.obj
 0001:00064e80       ??0_bstr_t@@QAE@ABV_variant_t@@@Z 00465e80 f i app:DBRankThread.obj
 0001:00064f30       ?GetName@Field20@@QAE?AV_bstr_t@@XZ 00465f30 f i app:DBRankThread.obj
 0001:00064f80       ?find@?$_Tree@V?$_Tmap_traits@JUtagRankConfig@@U?$less@J@std@@V?$allocator@U?$pair@$$CBJUtagRankConfig@@@std@@@3@$0A@@std@@@std@@QAE?AViterator@12@ABJ@Z 00465f80 f i app:DBRankThread.obj
 0001:00064ff0       ?_Copy@?$_Tree@V?$_Tmap_traits@JPAUtagRankInfo@@U?$less@J@std@@V?$allocator@U?$pair@$$CBJPAUtagRankInfo@@@std@@@3@$0A@@std@@@std@@IAEXABV12@@Z 00465ff0 f i app:DBRankThread.obj
 0001:00065070       ?UpdateRanks@DBRankThread@@QAE_NJ@Z 00466070 f   app:DBRankThread.obj
 0001:000651e0       ??0DBRankThread@@QAE@V?$basic_string@DU?$char_traits@D@std@@V?$allocator@D@2@@std@@0000@Z 004661e0 f   app:DBRankThread.obj
 0001:00065720       ?SendRanksToWS@DBRankThread@@QAEX_N@Z 00466720 f   app:DBRankThread.obj
 0001:00065ab0       ?SendRanksToWS@DBRankThread@@QAEXJ@Z 00466ab0 f   app:DBRankThread.obj
 0001:00065cd0       ?LoadRanks@DBRankThread@@QAE_NPAUtagRankInfo@@@Z 00466cd0 f   app:DBRankThread.obj
 0001:00066930       ?RunThread@DBRankThread@@CGIPAX@Z 00467930 f   app:DBRankThread.obj
 0001:00066aa0       ?Begin@DBRankThread@@QAE_NXZ 00467aa0 f   app:DBRankThread.obj
 0001:00066af0       ??1_com_error@@UAE@XZ      00467af0 f i db:RsEntity.obj
 0001:00066b30       ??_E_com_error@@UAEPAXI@Z  00467b30 f i db:RsEntity.obj
 0001:00066b30       ??_G_com_error@@UAEPAXI@Z  00467b30 f i db:RsEntity.obj
 0001:00066b80       ?GetValue@_Parameter@@QAE?AV_variant_t@@XZ 00467b80 f i db:RsEntity.obj
 0001:00066be0       ??0CRsEntity@@QAE@XZ       00467be0 f   db:RsEntity.obj
 0001:00066c00       ??B_bstr_t@@QBEPADXZ       00467c00 f i db:RsEntity.obj
 0001:00066c30       ??B_variant_t@@QBEJXZ      00467c30 f i db:RsEntity.obj
 0001:00066cd0       ??_GCRsEntity@@UAEPAXI@Z   00467cd0 f i db:RsEntity.obj
 0001:00066cd0       ??_ECRsEntity@@UAEPAXI@Z   00467cd0 f i db:RsEntity.obj
 0001:00066d00       ?GetItem@Parameters@@QAE?AV?$_com_ptr_t@V?$_com_IIID@U_Parameter@@$1?_GUID_0000050c_0000_0010_8000_00aa006d2ea4@@3U__s_GUID@@B@@@@ABV_variant_t@@@Z 00467d00 f i db:RsEntity.obj
 0001:00066d80       ?CreateInstance@?$_com_ptr_t@V?$_com_IIID@U_Parameter@@$1?_GUID_0000050c_0000_0010_8000_00aa006d2ea4@@3U__s_GUID@@B@@@@QAEJABU_GUID@@PAUIUnknown@@K@Z 00467d80 f i db:RsEntity.obj
 0001:00066e20       ?DeleteEntitys@CRsEntity@@SAJPBD0ABV?$basic_string@DU?$char_traits@D@std@@V?$allocator@D@2@@std@@AAV?$map@VCGUID@@PAVCBaseEntity@@U?$less@VCGUID@@@std@@V?$allocator@U?$pair@$$CBVCGUID@@PAVCBaseEntity@@@std@@@4@@3@AAV?$_com_ptr_t@V?$_com_IIID@U_Connection@@$1?_GUID_00000550_0000_0010_8000_00aa006d2ea4@@3U__s_GUID@@B@@@@@Z 00467e20 f   db:RsEntity.obj
 0001:00066f70       ?OperEntityGroups@CRsEntity@@SAJPAVCEntityGroup@@W4DB_OPERATION_TYPE@@AAV?$_com_ptr_t@V?$_com_IIID@U_Connection@@$1?_GUID_00000550_0000_0010_8000_00aa006d2ea4@@3U__s_GUID@@B@@@@@Z 00467f70 f   db:RsEntity.obj
 0001:00067c70       ?OperLeaves@CRsEntity@@SAJPBD0AAV?$map@VCGUID@@PAVCBaseEntity@@U?$less@VCGUID@@@std@@V?$allocator@U?$pair@$$CBVCGUID@@PAVCBaseEntity@@@std@@@4@@std@@W4DB_OPERATION_TYPE@@AAV?$_com_ptr_t@V?$_com_IIID@U_Connection@@$1?_GUID_00000550_0000_0010_8000_00aa006d2ea4@@3U__s_GUID@@B@@@@@Z 00468c70 f   db:RsEntity.obj
 0001:00068af0       ?OperAllEntityGroups@CRsEntity@@SAJPAVCEntityGroup@@W4DB_OPERATION_TYPE@@AAV?$_com_ptr_t@V?$_com_IIID@U_Connection@@$1?_GUID_00000550_0000_0010_8000_00aa006d2ea4@@3U__s_GUID@@B@@@@@Z 00469af0 f   db:RsEntity.obj
 0001:00069ae0       ?GenerateSqlString@CRsEntity@@SAJPADJW4DB_OPERATION_TYPE@@PAVCEntityGroup@@@Z 0046aae0 f   db:RsEntity.obj
 0001:0006a150       ?DeleteEntityGroupAttrs@CRsEntity@@SAJPAVCEntityGroup@@AAV?$_com_ptr_t@V?$_com_IIID@U_Connection@@$1?_GUID_00000550_0000_0010_8000_00aa006d2ea4@@3U__s_GUID@@B@@@@@Z 0046b150 f   db:RsEntity.obj
 0001:0006a280       ?DeleteInsertEntityGroupAttrs@CRsEntity@@SAJPAVCEntityGroup@@AAV?$_com_ptr_t@V?$_com_IIID@U_Connection@@$1?_GUID_00000550_0000_0010_8000_00aa006d2ea4@@3U__s_GUID@@B@@@@@Z 0046b280 f   db:RsEntity.obj
 0001:0006b040       ?DeleteInsertLeaves@CRsEntity@@SAJPBDABV?$basic_string@DU?$char_traits@D@std@@V?$allocator@D@2@@std@@AAV?$map@VCGUID@@PAVCBaseEntity@@U?$less@VCGUID@@@std@@V?$allocator@U?$pair@$$CBVCGUID@@PAVCBaseEntity@@@std@@@4@@3@AAV?$_com_ptr_t@V?$_com_IIID@U_Connection@@$1?_GUID_00000550_0000_0010_8000_00aa006d2ea4@@3U__s_GUID@@B@@@@@Z 0046c040 f   db:RsEntity.obj
 0001:0006be50       ?DeleteInsertAllEntityGroup@CRsEntity@@SAJPAVCEntityGroup@@AAV?$_com_ptr_t@V?$_com_IIID@U_Connection@@$1?_GUID_00000550_0000_0010_8000_00aa006d2ea4@@3U__s_GUID@@B@@@@@Z 0046ce50 f   db:RsEntity.obj
 0001:0006cdf0       ?LoadBufferField@CRsEntity@@SAJPAVCBaseEntity@@PBDAAV?$_com_ptr_t@V?$_com_IIID@U_Recordset@@$1?_GUID_00000556_0000_0010_8000_00aa006d2ea4@@3U__s_GUID@@B@@@@@Z 0046ddf0 f   db:RsEntity.obj
 0001:0006d0d0       ?ExecuteProcedure@CRsEntity@@SAJV?$basic_string@DU?$char_traits@D@std@@V?$allocator@D@2@@std@@AAV?$vector@PAVCTempEntityProperty@@V?$allocator@PAVCTempEntityProperty@@@std@@@3@1AAV?$_com_ptr_t@V?$_com_IIID@U_Connection@@$1?_GUID_00000550_0000_0010_8000_00aa006d2ea4@@3U__s_GUID@@B@@@@@Z 0046e0d0 f   db:RsEntity.obj
 0001:0006dcc0       ?CreateRoleProcedureEntity@CRsEntity@@SAJPAVCEntityGroup@@AAV?$_com_ptr_t@V?$_com_IIID@U_Connection@@$1?_GUID_00000550_0000_0010_8000_00aa006d2ea4@@3U__s_GUID@@B@@@@@Z 0046ecc0 f   db:RsEntity.obj
 0001:0006e050       ?InserMailProcedureEntity@CRsEntity@@SAJPAVCEntityGroup@@AAV?$_com_ptr_t@V?$_com_IIID@U_Connection@@$1?_GUID_00000550_0000_0010_8000_00aa006d2ea4@@3U__s_GUID@@B@@@@@Z 0046f050 f   db:RsEntity.obj
 0001:0006ed90       ?LoadEntityAttrs@CRsEntity@@SAJPAVCBaseEntity@@AAV?$_com_ptr_t@V?$_com_IIID@U_Connection@@$1?_GUID_00000550_0000_0010_8000_00aa006d2ea4@@3U__s_GUID@@B@@@@@Z 0046fd90 f   db:RsEntity.obj
 0001:0006f5a0       ?ProcedureEntity@CRsEntity@@SAJPAVCEntityGroup@@AAV?$_com_ptr_t@V?$_com_IIID@U_Connection@@$1?_GUID_00000550_0000_0010_8000_00aa006d2ea4@@3U__s_GUID@@B@@@@@Z 004705a0 f   db:RsEntity.obj
 0001:0006f680       ?LoadEntitys@CRsEntity@@SAJPBDABV?$basic_string@DU?$char_traits@D@std@@V?$allocator@D@2@@std@@AAV?$map@VCGUID@@PAVCBaseEntity@@U?$less@VCGUID@@@std@@V?$allocator@U?$pair@$$CBVCGUID@@PAVCBaseEntity@@@std@@@4@@3@AAV?$_com_ptr_t@V?$_com_IIID@U_Connection@@$1?_GUID_00000550_0000_0010_8000_00aa006d2ea4@@3U__s_GUID@@B@@@@@Z 00470680 f   db:RsEntity.obj
 0001:0006ffe0       ?LoadAllEntityGroup@CRsEntity@@SAJPAVCEntityGroup@@AAV?$_com_ptr_t@V?$_com_IIID@U_Connection@@$1?_GUID_00000550_0000_0010_8000_00aa006d2ea4@@3U__s_GUID@@B@@@@@Z 00470fe0 f   db:RsEntity.obj
 0001:00070e21       ??0_Mutex@std@@QAE@XZ      00471e21 f   libcpmt:xmutex.obj
 0001:00070e39       ??1_Mutex@std@@QAE@XZ      00471e39 f   libcpmt:xmutex.obj
 0001:00070e4e       ?_Lock@_Mutex@std@@QAEXXZ  00471e4e f   libcpmt:xmutex.obj
 0001:00070e57       ?_Unlock@_Mutex@std@@QAEXXZ 00471e57 f   libcpmt:xmutex.obj
 0001:00070e60       ?_Xlen@_String_base@std@@SAXXZ 00471e60 f   libcpmt:string.obj
 0001:00070e9f       ?_Xran@_String_base@std@@SAXXZ 00471e9f f   libcpmt:string.obj
 0001:00070ede       ?_Xfsopen@std@@YAPAU_iobuf@@PB_W0H@Z 00471ede f   libcpmt:fiopen.obj
 0001:00070f93       ?_Fiopen@std@@YAPAU_iobuf@@PB_WHH@Z 00471f93 f   libcpmt:fiopen.obj
 0001:00071048       ?_Fiopen@std@@YAPAU_iobuf@@PBDHH@Z 00472048 f   libcpmt:fiopen.obj
 0001:000710a3       __Toupper                  004720a3 f   libcpmt:_toupper.obj
 0001:000711b7       ??1_Fac_node@std@@QAE@XZ   004721b7 f i libcpmt:locale0.obj
 0001:000711cc       __Deletegloballocale       004721cc f   libcpmt:locale0.obj
 0001:00071212       ?_Getgloballocale@locale@std@@CAPAV_Locimp@12@XZ 00472212 f   libcpmt:locale0.obj
 0001:00071218       ?_Setgloballocale@locale@std@@CAXPAX@Z 00472218 f   libcpmt:locale0.obj
 0001:0007123d       ?_Locimp_dtor@_Locimp@locale@std@@CAXPAV123@@Z 0047223d f   libcpmt:locale0.obj
 0001:0007129d       __Fac_tidy                 0047229d f   libcpmt:locale0.obj
 0001:000712e0       ?facet_Register@facet@locale@std@@CAXPAV123@@Z 004722e0 f   libcpmt:locale0.obj
 0001:00071319       ?_Locinfo_dtor@_Locinfo@std@@SAXPAV12@@Z 00472319 f   libcpmt:locale0.obj
 0001:0007133c       ??0_Locimp@locale@std@@AAE@_N@Z 0047233c f i libcpmt:locale0.obj
 0001:00071385       ??1_Locimp@locale@std@@MAE@XZ 00472385 f i libcpmt:locale0.obj
 0001:000713c2       ??_G_Locimp@locale@std@@MAEPAXI@Z 004723c2 f i libcpmt:locale0.obj
 0001:000713c2       ??_E_Locimp@locale@std@@MAEPAXI@Z 004723c2 f i libcpmt:locale0.obj
 0001:000713de       ?_Init@locale@std@@CAPAV_Locimp@12@XZ 004723de f   libcpmt:locale0.obj
 0001:00071478       ?_Locinfo_ctor@_Locinfo@std@@SAXPAV12@PBD@Z 00472478 f   libcpmt:locale0.obj
 0001:000714c2       __Tolower                  004724c2 f   libcpmt:_tolower.obj
 0001:000715d1       __Getctype                 004725d1 f   libcpmt:_tolower.obj
 0001:0007162c       ??0_Init_locks@std@@QAE@XZ 0047262c f   libcpmt:xlock.obj
 0001:0007165b       ??1_Init_locks@std@@QAE@XZ 0047265b f   libcpmt:xlock.obj
 0001:00071684       ??0_Lockit@std@@QAE@H@Z    00472684 f   libcpmt:xlock.obj
 0001:000716a5       ??1_Lockit@std@@QAE@XZ     004726a5 f   libcpmt:xlock.obj
 0001:000716b7       __Stoulx                   004726b7 f   libcpmt:xstoul.obj
 0001:0007184d       __Stolx                    0047284d f   libcpmt:xstol.obj
 0001:000718f0       ?_Callfns@ios_base@std@@AAEXW4event@12@@Z 004728f0 f i libcpmt:ios.obj
 0001:00071912       ?_Tidy@ios_base@std@@AAAXXZ 00472912 f i libcpmt:ios.obj
 0001:00071958       ?_Addstd@ios_base@std@@SAXPAV12@@Z 00472958 f   libcpmt:ios.obj
 0001:000719a8       ?_Ios_base_dtor@ios_base@std@@CAXPAV12@@Z 004729a8 f   libcpmt:ios.obj
 0001:000719e6       __Stofx                    004729e6 f   libcpmt:xstof.obj
 0001:00071a06       __Stodx                    00472a06 f   libcpmt:xstod.obj
 0001:00071a6d       __Stoldx                   00472a6d f   libcpmt:xstold.obj
 0001:00071a72       ??_U@YAPAXI@Z              00472a72 f   libcpmt:newaop.obj
 0001:00071a77       __Getcvt                   00472a77 f   libcpmt:xwctomb.obj
 0001:00071a8b       ??0_Init_cout@std@@QAE@XZ  00472a8b f i libcpmt:cout.obj
 0001:00071ae0       ?uncaught_exception@std@@YA_NXZ 00472ae0 f   libcpmt:uncaught.obj
 0001:00071af1       ?setw@std@@YA?AU?$_Smanip@H@1@H@Z 00472af1 f   libcpmt:iomanip.obj
 0001:00071b03       __Mtxinit                  00472b03 f   libcpmt:xmtx.obj
 0001:00071b0e       __Mtxdst                   00472b0e f   libcpmt:xmtx.obj
 0001:00071b19       __Mtxlock                  00472b19 f   libcpmt:xmtx.obj
 0001:00071b24       __Mtxunlock                00472b24 f   libcpmt:xmtx.obj
 0001:00071b2f       ?_Atexit@@YAXP6AXXZ@Z      00472b2f f   libcpmt:iosptrs.obj
 0001:00071b4f       ??1_Init_atexit@@QAE@XZ    00472b4f f i libcpmt:iosptrs.obj
 0001:00071bc5       @__security_check_cookie@4 00472bc5 f   LIBCMT:secchk.obj
 0001:00071bd4       _memcpy_s                  00472bd4 f   LIBCMT:memcpy_s.obj
 0001:00071c4f       ??0exception@std@@QAE@XZ   00472c4f f   LIBCMT:stdexcpt.obj
 0001:00071c60       ??0exception@std@@QAE@ABQBD@Z 00472c60 f   LIBCMT:stdexcpt.obj
 0001:00071cae       ??0exception@std@@QAE@ABQBDH@Z 00472cae f   LIBCMT:stdexcpt.obj
 0001:00071cc6       ??0exception@std@@QAE@ABV01@@Z 00472cc6 f   LIBCMT:stdexcpt.obj
 0001:00071d1e       ??1exception@std@@UAE@XZ   00472d1e f   LIBCMT:stdexcpt.obj
 0001:00071d34       ?what@exception@std@@UBEPBDXZ 00472d34 f   LIBCMT:stdexcpt.obj
 0001:00071d41       ??0bad_cast@std@@QAE@PBD@Z 00472d41 f   LIBCMT:stdexcpt.obj
 0001:00071d5a       ??0bad_cast@std@@QAE@ABV01@@Z 00472d5a f   LIBCMT:stdexcpt.obj
 0001:00071d72       ??1bad_cast@std@@UAE@XZ    00472d72 f   LIBCMT:stdexcpt.obj
 0001:00071d7d       ??_Gexception@std@@UAEPAXI@Z 00472d7d f i LIBCMT:stdexcpt.obj
 0001:00071d7d       ??_Eexception@std@@UAEPAXI@Z 00472d7d f i LIBCMT:stdexcpt.obj
 0001:00071d99       ??_Ebad_cast@std@@UAEPAXI@Z 00472d99 f i LIBCMT:stdexcpt.obj
 0001:00071d99       ??_Gbad_cast@std@@UAEPAXI@Z 00472d99 f i LIBCMT:stdexcpt.obj
 0001:00071dbb       ??0bad_alloc@std@@QAE@XZ   00472dbb f i LIBCMT:new.obj
 0001:00071dd4       ??2@YAPAXI@Z               00472dd4 f   LIBCMT:new.obj
 0001:00071e3e       __flush                    00472e3e f   LIBCMT:fflush.obj
 0001:00071ea0       __fflush_nolock            00472ea0 f   LIBCMT:fflush.obj
 0001:00071fbc       _fflush                    00472fbc f   LIBCMT:fflush.obj
 0001:0007200f       __flushall                 0047300f f   LIBCMT:fflush.obj
 0001:00072018       ??_V@YAXPAX@Z              00473018 f   LIBCMT:delete2.obj
 0001:0007201d       _setvbuf                   0047301d f   LIBCMT:setvbuf.obj
 0001:0007211b       _sprintf                   0047311b f   LIBCMT:sprintf.obj
 0001:00072196       _sprintf_s                 00473196 f   LIBCMT:sprintf.obj
 0001:0007226b       ___onexitinit              0047326b f   LIBCMT:onexit.obj
 0001:0007229a       __onexit                   0047329a f   LIBCMT:onexit.obj
 0001:000722d6       _atexit                    004732d6 f   LIBCMT:onexit.obj
 0001:000722e8       _fsetpos                   004732e8 f   LIBCMT:fsetpos.obj
 0001:0007232a       __initp_misc_invarg        0047332a f   LIBCMT:invarg.obj
 0001:00072334       __invoke_watson            00473334 f   LIBCMT:invarg.obj
 0001:00072430       __invalid_parameter        00473430 f   LIBCMT:invarg.obj
 0001:00072454       __invalid_parameter_noinfo 00473454 f   LIBCMT:invarg.obj
 0001:00072464       ??3@YAXPAX@Z               00473464 f   LIBCMT:delete.obj
 0001:00072469       __fclose_nolock            00473469 f   LIBCMT:fclose.obj
 0001:000724db       _fclose                    004734db f   LIBCMT:fclose.obj
 0001:00072557       _fgetpos                   00473557 f   LIBCMT:fgetpos.obj
 0001:000725c2       __fseek_nolock             004735c2 f   LIBCMT:fseek.obj
 0001:00072649       _fseek                     00473649 f   LIBCMT:fseek.obj
 0001:000726ce       ??1type_info@@UAE@XZ       004736ce f   LIBCMT:typinfo.obj
 0001:000726dc       ??_Gtype_info@@UAEPAXI@Z   004736dc f i LIBCMT:typinfo.obj
 0001:000726dc       ??_Etype_info@@UAEPAXI@Z   004736dc f i LIBCMT:typinfo.obj
 0001:000726f8       ??8type_info@@QBE_NABV0@@Z 004736f8 f   LIBCMT:typinfo.obj
 0001:00072713       _fgetc                     00473713 f   LIBCMT:fgetc.obj
 0001:0007284a       __fwrite_nolock            0047384a f   LIBCMT:fwrite.obj
 0001:000729a9       _fwrite                    004739a9 f   LIBCMT:fwrite.obj
 0001:00072a2b       __ungetc_nolock            00473a2b f   LIBCMT:ungetc.obj
 0001:00072b49       _ungetc                    00473b49 f   LIBCMT:ungetc.obj
 0001:00072bbb       ??0_LocaleUpdate@@QAE@PAUlocaleinfo_struct@@@Z 00473bbb f i LIBCMT:strtoq.obj
 0001:00072ed1       __strtoi64                 00473ed1 f   LIBCMT:strtoq.obj
 0001:00072efa       __strtoui64                00473efa f   LIBCMT:strtoq.obj
 0001:00072f24       __snprintf                 00473f24 f   LIBCMT:snprintf.obj
 0001:00072fd1       _fputc                     00473fd1 f   LIBCMT:fputc.obj
 0001:00073110       _memmove_s                 00474110 f   LIBCMT:memmove_s.obj
 0001:0007316b       _atol                      0047416b f   LIBCMT:atox.obj
