; Listing generated by Microsoft (R) Optimizing Compiler Version 14.00.50727.762 

	TITLE	D:\Project_P6\trunk\Server\GameServer\Server\BillClient.cpp
	.686P
	.XMM
	include listing.inc
	.model	flat

INCLUDELIB LIBCMT
INCLUDELIB OLDNAMES

PUBLIC	?SUBPACK_NUM@CSubpackContainer@@2HB		; CSubpackContainer::SUBPACK_NUM
PUBLIC	?s_pInstance@CBillClient@@0PAV1@A		; CBillClient::s_pInstance
_BSS	SEGMENT
?s_pInstance@CBillClient@@0PAV1@A DD 01H DUP (?)	; CBillClient::s_pInstance
_BSS	ENDS
CONST	SEGMENT
_MIN_VAL DD	00H
	DD	00H
	DD	00H
	DD	00H
	DD	080000001H
	DD	0ffff8001H
	DD	00H
_MAX_VAL DD	0100H
	DD	010000H
	DD	07fffffffH
	DD	05f5e100H
	DD	07fffffffH
	DD	07fffH
	DD	01H
_PI	DD	040490fdbr			; 3.14159
CONST	ENDS
;	COMDAT ?SUBPACK_NUM@CSubpackContainer@@2HB
CONST	SEGMENT
?SUBPACK_NUM@CSubpackContainer@@2HB DD 05H		; CSubpackContainer::SUBPACK_NUM
CONST	ENDS
PUBLIC	?GetLeftTime@CCallbackBill@@QAEKXZ		; CCallbackBill::GetLeftTime
; Function compile flags: /Ogtpy
; File d:\project_p6\trunk\server\gameserver\server\billsession.h
;	COMDAT ?GetLeftTime@CCallbackBill@@QAEKXZ
_TEXT	SEGMENT
?GetLeftTime@CCallbackBill@@QAEKXZ PROC			; CCallbackBill::GetLeftTime, COMDAT
; _this$ = ecx

; 14   : 	DWORD	GetLeftTime()				{ return m_dwTimeOut; }

  00000	8b 41 04	 mov	 eax, DWORD PTR [ecx+4]
  00003	c3		 ret	 0
?GetLeftTime@CCallbackBill@@QAEKXZ ENDP			; CCallbackBill::GetLeftTime
_TEXT	ENDS
PUBLIC	?SetLeftTime@CCallbackBill@@QAEXK@Z		; CCallbackBill::SetLeftTime
; Function compile flags: /Ogtpy
;	COMDAT ?SetLeftTime@CCallbackBill@@QAEXK@Z
_TEXT	SEGMENT
_dwTime$ = 8						; size = 4
?SetLeftTime@CCallbackBill@@QAEXK@Z PROC		; CCallbackBill::SetLeftTime, COMDAT
; _this$ = ecx

; 15   : 	void	SetLeftTime(DWORD dwTime)	{ m_dwTimeOut=dwTime; }

  00000	8b 44 24 04	 mov	 eax, DWORD PTR _dwTime$[esp-4]
  00004	89 41 04	 mov	 DWORD PTR [ecx+4], eax
  00007	c2 04 00	 ret	 4
?SetLeftTime@CCallbackBill@@QAEXK@Z ENDP		; CCallbackBill::SetLeftTime
_TEXT	ENDS
EXTRN	__localtime32:PROC
; Function compile flags: /Ogtpy
; File d:\program files\microsoft visual studio 8\vc\include\time.inl
;	COMDAT _localtime
_TEXT	SEGMENT
_localtime PROC						; COMDAT
; __Time$ = eax

; 62   : #pragma warning( push )
; 63   : #pragma warning( disable : 4996 )
; 64   :     return _localtime32(_Time);

  00000	50		 push	 eax
  00001	e8 00 00 00 00	 call	 __localtime32
  00006	83 c4 04	 add	 esp, 4

; 65   : #pragma warning( pop )
; 66   : }

  00009	c3		 ret	 0
_localtime ENDP
_TEXT	ENDS
EXTRN	__time32:PROC
; Function compile flags: /Ogtpy
;	COMDAT _time
_TEXT	SEGMENT
_time	PROC						; COMDAT
; __Time$ = eax

; 81   :     return _time32(_Time);

  00000	50		 push	 eax
  00001	e8 00 00 00 00	 call	 __time32
  00006	83 c4 04	 add	 esp, 4

; 82   : }

  00009	c3		 ret	 0
_time	ENDP
_TEXT	ENDS
PUBLIC	?assign@?$char_traits@D@std@@SAXAADABD@Z	; std::char_traits<char>::assign
; Function compile flags: /Ogtpy
; File d:\program files\microsoft visual studio 8\vc\include\iosfwd
;	COMDAT ?assign@?$char_traits@D@std@@SAXAADABD@Z
_TEXT	SEGMENT
__Left$ = 8						; size = 4
__Right$ = 12						; size = 4
?assign@?$char_traits@D@std@@SAXAADABD@Z PROC		; std::char_traits<char>::assign, COMDAT

; 418  : 		_Left = _Right;

  00000	8b 44 24 08	 mov	 eax, DWORD PTR __Right$[esp-4]
  00004	8a 08		 mov	 cl, BYTE PTR [eax]
  00006	8b 54 24 04	 mov	 edx, DWORD PTR __Left$[esp-4]
  0000a	88 0a		 mov	 BYTE PTR [edx], cl

; 419  : 		}

  0000c	c3		 ret	 0
?assign@?$char_traits@D@std@@SAXAADABD@Z ENDP		; std::char_traits<char>::assign
_TEXT	ENDS
PUBLIC	?compare@?$char_traits@D@std@@SAHPBD0I@Z	; std::char_traits<char>::compare
; Function compile flags: /Ogtpy
;	COMDAT ?compare@?$char_traits@D@std@@SAHPBD0I@Z
_TEXT	SEGMENT
__First1$ = 8						; size = 4
__First2$ = 12						; size = 4
__Count$ = 16						; size = 4
?compare@?$char_traits@D@std@@SAHPBD0I@Z PROC		; std::char_traits<char>::compare, COMDAT

; 434  : //		_DEBUG_POINTER(_First1);
; 435  : //		_DEBUG_POINTER(_First2);
; 436  : 		return (::memcmp(_First1, _First2, _Count));

  00000	8b 44 24 0c	 mov	 eax, DWORD PTR __Count$[esp-4]
  00004	83 f8 04	 cmp	 eax, 4
  00007	8b 4c 24 08	 mov	 ecx, DWORD PTR __First2$[esp-4]
  0000b	8b 54 24 04	 mov	 edx, DWORD PTR __First1$[esp-4]
  0000f	56		 push	 esi
  00010	57		 push	 edi
  00011	72 14		 jb	 SHORT $LN11@compare
$LL4@compare:
  00013	8b 32		 mov	 esi, DWORD PTR [edx]
  00015	3b 31		 cmp	 esi, DWORD PTR [ecx]
  00017	75 12		 jne	 SHORT $LN5@compare
  00019	83 e8 04	 sub	 eax, 4
  0001c	83 c1 04	 add	 ecx, 4
  0001f	83 c2 04	 add	 edx, 4
  00022	83 f8 04	 cmp	 eax, 4
  00025	73 ec		 jae	 SHORT $LL4@compare
$LN11@compare:
  00027	85 c0		 test	 eax, eax
  00029	74 5e		 je	 SHORT $LN6@compare
$LN5@compare:
  0002b	0f b6 32	 movzx	 esi, BYTE PTR [edx]
  0002e	0f b6 39	 movzx	 edi, BYTE PTR [ecx]
  00031	2b f7		 sub	 esi, edi
  00033	75 45		 jne	 SHORT $LN7@compare
  00035	83 e8 01	 sub	 eax, 1
  00038	83 c1 01	 add	 ecx, 1
  0003b	83 c2 01	 add	 edx, 1
  0003e	85 c0		 test	 eax, eax
  00040	74 47		 je	 SHORT $LN6@compare
  00042	0f b6 32	 movzx	 esi, BYTE PTR [edx]
  00045	0f b6 39	 movzx	 edi, BYTE PTR [ecx]
  00048	2b f7		 sub	 esi, edi
  0004a	75 2e		 jne	 SHORT $LN7@compare
  0004c	83 e8 01	 sub	 eax, 1
  0004f	83 c1 01	 add	 ecx, 1
  00052	83 c2 01	 add	 edx, 1
  00055	85 c0		 test	 eax, eax
  00057	74 30		 je	 SHORT $LN6@compare
  00059	0f b6 32	 movzx	 esi, BYTE PTR [edx]
  0005c	0f b6 39	 movzx	 edi, BYTE PTR [ecx]
  0005f	2b f7		 sub	 esi, edi
  00061	75 17		 jne	 SHORT $LN7@compare
  00063	83 e8 01	 sub	 eax, 1
  00066	83 c1 01	 add	 ecx, 1
  00069	83 c2 01	 add	 edx, 1
  0006c	85 c0		 test	 eax, eax
  0006e	74 19		 je	 SHORT $LN6@compare
  00070	0f b6 32	 movzx	 esi, BYTE PTR [edx]
  00073	0f b6 01	 movzx	 eax, BYTE PTR [ecx]
  00076	2b f0		 sub	 esi, eax
  00078	74 0f		 je	 SHORT $LN6@compare
$LN7@compare:
  0007a	85 f6		 test	 esi, esi
  0007c	b8 01 00 00 00	 mov	 eax, 1
  00081	7f 08		 jg	 SHORT $LN8@compare
  00083	5f		 pop	 edi
  00084	83 c8 ff	 or	 eax, -1
  00087	5e		 pop	 esi

; 437  : 		}

  00088	c3		 ret	 0
$LN6@compare:

; 434  : //		_DEBUG_POINTER(_First1);
; 435  : //		_DEBUG_POINTER(_First2);
; 436  : 		return (::memcmp(_First1, _First2, _Count));

  00089	33 c0		 xor	 eax, eax
$LN8@compare:
  0008b	5f		 pop	 edi
  0008c	5e		 pop	 esi

; 437  : 		}

  0008d	c3		 ret	 0
?compare@?$char_traits@D@std@@SAHPBD0I@Z ENDP		; std::char_traits<char>::compare
_TEXT	ENDS
PUBLIC	?length@?$char_traits@D@std@@SAIPBD@Z		; std::char_traits<char>::length
; Function compile flags: /Ogtpy
;	COMDAT ?length@?$char_traits@D@std@@SAIPBD@Z
_TEXT	SEGMENT
__First$ = 8						; size = 4
?length@?$char_traits@D@std@@SAIPBD@Z PROC		; std::char_traits<char>::length, COMDAT

; 441  : //		_DEBUG_POINTER(_First);
; 442  : 		return (::strlen(_First));

  00000	8b 44 24 04	 mov	 eax, DWORD PTR __First$[esp-4]
  00004	8d 50 01	 lea	 edx, DWORD PTR [eax+1]
$LL3@length:
  00007	8a 08		 mov	 cl, BYTE PTR [eax]
  00009	83 c0 01	 add	 eax, 1
  0000c	84 c9		 test	 cl, cl
  0000e	75 f7		 jne	 SHORT $LL3@length
  00010	2b c2		 sub	 eax, edx

; 443  : 		}

  00012	c3		 ret	 0
?length@?$char_traits@D@std@@SAIPBD@Z ENDP		; std::char_traits<char>::length
_TEXT	ENDS
PUBLIC	?_Copy_s@?$char_traits@D@std@@SAPADPADIPBDI@Z	; std::char_traits<char>::_Copy_s
EXTRN	_memcpy_s:PROC
; Function compile flags: /Ogtpy
;	COMDAT ?_Copy_s@?$char_traits@D@std@@SAPADPADIPBDI@Z
_TEXT	SEGMENT
__First1$ = 8						; size = 4
__Size_in_bytes$ = 12					; size = 4
__First2$ = 16						; size = 4
__Count$ = 20						; size = 4
?_Copy_s@?$char_traits@D@std@@SAPADPADIPBDI@Z PROC	; std::char_traits<char>::_Copy_s, COMDAT

; 456  : //		_DEBUG_POINTER(_First1);
; 457  : //		_DEBUG_POINTER(_First2);
; 458  : 		_CRT_SECURE_MEMCPY(_First1, _Size_in_bytes, _First2, _Count);

  00000	8b 44 24 10	 mov	 eax, DWORD PTR __Count$[esp-4]
  00004	8b 4c 24 0c	 mov	 ecx, DWORD PTR __First2$[esp-4]
  00008	8b 54 24 08	 mov	 edx, DWORD PTR __Size_in_bytes$[esp-4]
  0000c	56		 push	 esi
  0000d	8b 74 24 08	 mov	 esi, DWORD PTR __First1$[esp]
  00011	50		 push	 eax
  00012	51		 push	 ecx
  00013	52		 push	 edx
  00014	56		 push	 esi
  00015	e8 00 00 00 00	 call	 _memcpy_s
  0001a	83 c4 10	 add	 esp, 16			; 00000010H

; 459  : 		return _First1;

  0001d	8b c6		 mov	 eax, esi
  0001f	5e		 pop	 esi

; 460  : 		}

  00020	c3		 ret	 0
?_Copy_s@?$char_traits@D@std@@SAPADPADIPBDI@Z ENDP	; std::char_traits<char>::_Copy_s
_TEXT	ENDS
PUBLIC	?_Move_s@?$char_traits@D@std@@SAPADPADIPBDI@Z	; std::char_traits<char>::_Move_s
EXTRN	_memmove_s:PROC
; Function compile flags: /Ogtpy
;	COMDAT ?_Move_s@?$char_traits@D@std@@SAPADPADIPBDI@Z
_TEXT	SEGMENT
__First1$ = 8						; size = 4
__Size_in_bytes$ = 12					; size = 4
__First2$ = 16						; size = 4
__Count$ = 20						; size = 4
?_Move_s@?$char_traits@D@std@@SAPADPADIPBDI@Z PROC	; std::char_traits<char>::_Move_s, COMDAT

; 480  : //		_DEBUG_POINTER(_First1);
; 481  : //		_DEBUG_POINTER(_First2);
; 482  : 		_CRT_SECURE_MEMMOVE(_First1, _Size_in_bytes, _First2, _Count);

  00000	8b 44 24 10	 mov	 eax, DWORD PTR __Count$[esp-4]
  00004	8b 4c 24 0c	 mov	 ecx, DWORD PTR __First2$[esp-4]
  00008	8b 54 24 08	 mov	 edx, DWORD PTR __Size_in_bytes$[esp-4]
  0000c	56		 push	 esi
  0000d	8b 74 24 08	 mov	 esi, DWORD PTR __First1$[esp]
  00011	50		 push	 eax
  00012	51		 push	 ecx
  00013	52		 push	 edx
  00014	56		 push	 esi
  00015	e8 00 00 00 00	 call	 _memmove_s
  0001a	83 c4 10	 add	 esp, 16			; 00000010H

; 483  : 		return _First1;

  0001d	8b c6		 mov	 eax, esi
  0001f	5e		 pop	 esi

; 484  : 		}

  00020	c3		 ret	 0
?_Move_s@?$char_traits@D@std@@SAPADPADIPBDI@Z ENDP	; std::char_traits<char>::_Move_s
_TEXT	ENDS
PUBLIC	??0_Iterator_base@std@@QAE@XZ			; std::_Iterator_base::_Iterator_base
; Function compile flags: /Ogtpy
; File d:\program files\microsoft visual studio 8\vc\include\xutility
;	COMDAT ??0_Iterator_base@std@@QAE@XZ
_TEXT	SEGMENT
??0_Iterator_base@std@@QAE@XZ PROC			; std::_Iterator_base::_Iterator_base, COMDAT
; _this$ = ecx

; 441  : 		{

  00000	8b c1		 mov	 eax, ecx
  00002	c7 00 00 00 00
	00		 mov	 DWORD PTR [eax], 0

; 442  : 		}

  00008	c3		 ret	 0
??0_Iterator_base@std@@QAE@XZ ENDP			; std::_Iterator_base::_Iterator_base
_TEXT	ENDS
PUBLIC	??_7bad_alloc@std@@6B@				; std::bad_alloc::`vftable'
PUBLIC	??0bad_alloc@std@@QAE@PBD@Z			; std::bad_alloc::bad_alloc
PUBLIC	??_R4bad_alloc@std@@6B@				; std::bad_alloc::`RTTI Complete Object Locator'
PUBLIC	??_R0?AVbad_alloc@std@@@8			; std::bad_alloc `RTTI Type Descriptor'
PUBLIC	??_R3bad_alloc@std@@8				; std::bad_alloc::`RTTI Class Hierarchy Descriptor'
PUBLIC	??_R2bad_alloc@std@@8				; std::bad_alloc::`RTTI Base Class Array'
PUBLIC	??_R1A@?0A@EA@bad_alloc@std@@8			; std::bad_alloc::`RTTI Base Class Descriptor at (0,-1,0,64)'
PUBLIC	??_R1A@?0A@EA@exception@std@@8			; std::exception::`RTTI Base Class Descriptor at (0,-1,0,64)'
PUBLIC	??_R0?AVexception@std@@@8			; std::exception `RTTI Type Descriptor'
PUBLIC	??_R3exception@std@@8				; std::exception::`RTTI Class Hierarchy Descriptor'
PUBLIC	??_R2exception@std@@8				; std::exception::`RTTI Base Class Array'
EXTRN	??0exception@std@@QAE@ABQBD@Z:PROC		; std::exception::exception
EXTRN	??_7type_info@@6B@:QWORD			; type_info::`vftable'
EXTRN	??_Ebad_alloc@std@@UAEPAXI@Z:PROC		; std::bad_alloc::`vector deleting destructor'
EXTRN	?what@exception@std@@UBEPBDXZ:PROC		; std::exception::what
;	COMDAT ??_R2exception@std@@8
; File d:\program files\microsoft visual studio 8\vc\include\exception
rdata$r	SEGMENT
??_R2exception@std@@8 DD FLAT:??_R1A@?0A@EA@exception@std@@8 ; std::exception::`RTTI Base Class Array'
rdata$r	ENDS
;	COMDAT ??_R3exception@std@@8
rdata$r	SEGMENT
??_R3exception@std@@8 DD 00H				; std::exception::`RTTI Class Hierarchy Descriptor'
	DD	00H
	DD	01H
	DD	FLAT:??_R2exception@std@@8
rdata$r	ENDS
;	COMDAT ??_R0?AVexception@std@@@8
_DATA	SEGMENT
??_R0?AVexception@std@@@8 DD FLAT:??_7type_info@@6B@	; std::exception `RTTI Type Descriptor'
	DD	00H
	DB	'.?AVexception@std@@', 00H
_DATA	ENDS
;	COMDAT ??_R1A@?0A@EA@exception@std@@8
rdata$r	SEGMENT
??_R1A@?0A@EA@exception@std@@8 DD FLAT:??_R0?AVexception@std@@@8 ; std::exception::`RTTI Base Class Descriptor at (0,-1,0,64)'
	DD	00H
	DD	00H
	DD	0ffffffffH
	DD	00H
	DD	040H
	DD	FLAT:??_R3exception@std@@8
rdata$r	ENDS
;	COMDAT ??_R1A@?0A@EA@bad_alloc@std@@8
rdata$r	SEGMENT
??_R1A@?0A@EA@bad_alloc@std@@8 DD FLAT:??_R0?AVbad_alloc@std@@@8 ; std::bad_alloc::`RTTI Base Class Descriptor at (0,-1,0,64)'
	DD	01H
	DD	00H
	DD	0ffffffffH
	DD	00H
	DD	040H
	DD	FLAT:??_R3bad_alloc@std@@8
rdata$r	ENDS
;	COMDAT ??_R2bad_alloc@std@@8
rdata$r	SEGMENT
??_R2bad_alloc@std@@8 DD FLAT:??_R1A@?0A@EA@bad_alloc@std@@8 ; std::bad_alloc::`RTTI Base Class Array'
	DD	FLAT:??_R1A@?0A@EA@exception@std@@8
rdata$r	ENDS
;	COMDAT ??_R3bad_alloc@std@@8
rdata$r	SEGMENT
??_R3bad_alloc@std@@8 DD 00H				; std::bad_alloc::`RTTI Class Hierarchy Descriptor'
	DD	00H
	DD	02H
	DD	FLAT:??_R2bad_alloc@std@@8
rdata$r	ENDS
;	COMDAT ??_R0?AVbad_alloc@std@@@8
_DATA	SEGMENT
??_R0?AVbad_alloc@std@@@8 DD FLAT:??_7type_info@@6B@	; std::bad_alloc `RTTI Type Descriptor'
	DD	00H
	DB	'.?AVbad_alloc@std@@', 00H
_DATA	ENDS
;	COMDAT ??_R4bad_alloc@std@@6B@
rdata$r	SEGMENT
??_R4bad_alloc@std@@6B@ DD 00H				; std::bad_alloc::`RTTI Complete Object Locator'
	DD	00H
	DD	00H
	DD	FLAT:??_R0?AVbad_alloc@std@@@8
	DD	FLAT:??_R3bad_alloc@std@@8
rdata$r	ENDS
;	COMDAT ??_7bad_alloc@std@@6B@
CONST	SEGMENT
??_7bad_alloc@std@@6B@ DD FLAT:??_R4bad_alloc@std@@6B@	; std::bad_alloc::`vftable'
	DD	FLAT:??_Ebad_alloc@std@@UAEPAXI@Z
	DD	FLAT:?what@exception@std@@UBEPBDXZ
; Function compile flags: /Ogtpy
CONST	ENDS
;	COMDAT ??0bad_alloc@std@@QAE@PBD@Z
_TEXT	SEGMENT
__Message$ = 8						; size = 4
??0bad_alloc@std@@QAE@PBD@Z PROC			; std::bad_alloc::bad_alloc, COMDAT
; _this$ = ecx

; 371  : 		{	// construct from message string

  00000	56		 push	 esi
  00001	8d 44 24 08	 lea	 eax, DWORD PTR __Message$[esp]
  00005	50		 push	 eax
  00006	8b f1		 mov	 esi, ecx
  00008	e8 00 00 00 00	 call	 ??0exception@std@@QAE@ABQBD@Z ; std::exception::exception
  0000d	c7 06 00 00 00
	00		 mov	 DWORD PTR [esi], OFFSET ??_7bad_alloc@std@@6B@

; 372  : 		}

  00013	8b c6		 mov	 eax, esi
  00015	5e		 pop	 esi
  00016	c2 04 00	 ret	 4
??0bad_alloc@std@@QAE@PBD@Z ENDP			; std::bad_alloc::bad_alloc
_TEXT	ENDS
PUBLIC	??1bad_alloc@std@@UAE@XZ			; std::bad_alloc::~bad_alloc
EXTRN	??1exception@std@@UAE@XZ:PROC			; std::exception::~exception
; Function compile flags: /Ogtpy
;	COMDAT ??1bad_alloc@std@@UAE@XZ
_TEXT	SEGMENT
??1bad_alloc@std@@UAE@XZ PROC				; std::bad_alloc::~bad_alloc, COMDAT
; _this$ = ecx

; 380  : 		{	// destroy the object

  00000	c7 01 00 00 00
	00		 mov	 DWORD PTR [ecx], OFFSET ??_7bad_alloc@std@@6B@

; 381  : 		}

  00006	e9 00 00 00 00	 jmp	 ??1exception@std@@UAE@XZ ; std::exception::~exception
??1bad_alloc@std@@UAE@XZ ENDP				; std::bad_alloc::~bad_alloc
_TEXT	ENDS
EXTRN	??3@YAXPAX@Z:PROC				; operator delete
; Function compile flags: /Ogtpy
;	COMDAT ??_Gbad_alloc@std@@UAEPAXI@Z
_TEXT	SEGMENT
___flags$ = 8						; size = 4
??_Gbad_alloc@std@@UAEPAXI@Z PROC			; std::bad_alloc::`scalar deleting destructor', COMDAT
; _this$ = ecx
  00000	56		 push	 esi
  00001	8b f1		 mov	 esi, ecx
  00003	c7 06 00 00 00
	00		 mov	 DWORD PTR [esi], OFFSET ??_7bad_alloc@std@@6B@
  00009	e8 00 00 00 00	 call	 ??1exception@std@@UAE@XZ ; std::exception::~exception
  0000e	f6 44 24 08 01	 test	 BYTE PTR ___flags$[esp], 1
  00013	74 09		 je	 SHORT $LN6@scalar
  00015	56		 push	 esi
  00016	e8 00 00 00 00	 call	 ??3@YAXPAX@Z		; operator delete
  0001b	83 c4 04	 add	 esp, 4
$LN6@scalar:
  0001e	8b c6		 mov	 eax, esi
  00020	5e		 pop	 esi
  00021	c2 04 00	 ret	 4
??_Gbad_alloc@std@@UAEPAXI@Z ENDP			; std::bad_alloc::`scalar deleting destructor'
_TEXT	ENDS
PUBLIC	??2@YAPAXIPAX@Z					; operator new
; Function compile flags: /Ogtpy
; File d:\program files\microsoft visual studio 8\vc\include\new
;	COMDAT ??2@YAPAXIPAX@Z
_TEXT	SEGMENT
___formal$ = 8						; size = 4
__Where$ = 12						; size = 4
??2@YAPAXIPAX@Z PROC					; operator new, COMDAT

; 60   : 	return (_Where);

  00000	8b 44 24 08	 mov	 eax, DWORD PTR __Where$[esp-4]

; 61   : 	}

  00004	c3		 ret	 0
??2@YAPAXIPAX@Z ENDP					; operator new
_TEXT	ENDS
PUBLIC	??3@YAXPAX0@Z					; operator delete
; Function compile flags: /Ogtpy
;	COMDAT ??3@YAXPAX0@Z
_TEXT	SEGMENT
___formal$ = 8						; size = 4
___formal$ = 12						; size = 4
??3@YAXPAX0@Z PROC					; operator delete, COMDAT

; 65   : 	}

  00000	c3		 ret	 0
??3@YAXPAX0@Z ENDP					; operator delete
_TEXT	ENDS
PUBLIC	??0id@locale@std@@QAE@I@Z			; std::locale::id::id
; Function compile flags: /Ogtpy
; File d:\program files\microsoft visual studio 8\vc\include\xlocale
;	COMDAT ??0id@locale@std@@QAE@I@Z
_TEXT	SEGMENT
__Val$ = 8						; size = 4
??0id@locale@std@@QAE@I@Z PROC				; std::locale::id::id, COMDAT
; _this$ = ecx

; 73   : 			{	// construct with specified stamp value

  00000	8b c1		 mov	 eax, ecx
  00002	8b 4c 24 04	 mov	 ecx, DWORD PTR __Val$[esp-4]
  00006	89 08		 mov	 DWORD PTR [eax], ecx

; 74   : 			}

  00008	c2 04 00	 ret	 4
??0id@locale@std@@QAE@I@Z ENDP				; std::locale::id::id
_TEXT	ENDS
PUBLIC	??1CGUID@@QAE@XZ				; CGUID::~CGUID
; Function compile flags: /Ogtpy
; File d:\project_p6\trunk\public\module\guid.h
;	COMDAT ??1CGUID@@QAE@XZ
_TEXT	SEGMENT
??1CGUID@@QAE@XZ PROC					; CGUID::~CGUID, COMDAT
; _this$ = ecx

; 45   : 	}

  00000	c3		 ret	 0
??1CGUID@@QAE@XZ ENDP					; CGUID::~CGUID
_TEXT	ENDS
PUBLIC	??0CBillClient@@QAE@XZ				; CBillClient::CBillClient
; Function compile flags: /Ogtpy
; File d:\project_p6\trunk\server\gameserver\server\billclient.cpp
;	COMDAT ??0CBillClient@@QAE@XZ
_TEXT	SEGMENT
??0CBillClient@@QAE@XZ PROC				; CBillClient::CBillClient, COMDAT
; _this$ = ecx

; 21   : {

  00000	8b c1		 mov	 eax, ecx

; 22   : }

  00002	c3		 ret	 0
??0CBillClient@@QAE@XZ ENDP				; CBillClient::CBillClient
_TEXT	ENDS
PUBLIC	??1CBillClient@@QAE@XZ				; CBillClient::~CBillClient
; Function compile flags: /Ogtpy
;	COMDAT ??1CBillClient@@QAE@XZ
_TEXT	SEGMENT
??1CBillClient@@QAE@XZ PROC				; CBillClient::~CBillClient, COMDAT
; _this$ = ecx

; 26   : }

  00000	c3		 ret	 0
??1CBillClient@@QAE@XZ ENDP				; CBillClient::~CBillClient
_TEXT	ENDS
PUBLIC	??_GCBillClient@@QAEPAXI@Z			; CBillClient::`scalar deleting destructor'
; Function compile flags: /Ogtpy
;	COMDAT ??_GCBillClient@@QAEPAXI@Z
_TEXT	SEGMENT
___flags$ = 8						; size = 4
??_GCBillClient@@QAEPAXI@Z PROC				; CBillClient::`scalar deleting destructor', COMDAT
; _this$ = ecx
  00000	f6 44 24 04 01	 test	 BYTE PTR ___flags$[esp-4], 1
  00005	56		 push	 esi
  00006	8b f1		 mov	 esi, ecx
  00008	74 09		 je	 SHORT $LN6@scalar@2
  0000a	56		 push	 esi
  0000b	e8 00 00 00 00	 call	 ??3@YAXPAX@Z		; operator delete
  00010	83 c4 04	 add	 esp, 4
$LN6@scalar@2:
  00013	8b c6		 mov	 eax, esi
  00015	5e		 pop	 esi
  00016	c2 04 00	 ret	 4
??_GCBillClient@@QAEPAXI@Z ENDP				; CBillClient::`scalar deleting destructor'
_TEXT	ENDS
PUBLIC	??_C@_0BO@NGNOHJIK@?$CF04d?9?$CF02d?9?$CF02d?5?$CF02d?3?$CF02d?3?$CF02d?$AA@ ; `string'
PUBLIC	?GetCurrentTimeString@CBillClient@@QAEXPADI@Z	; CBillClient::GetCurrentTimeString
EXTRN	__snprintf:PROC
;	COMDAT ??_C@_0BO@NGNOHJIK@?$CF04d?9?$CF02d?9?$CF02d?5?$CF02d?3?$CF02d?3?$CF02d?$AA@
; File d:\program files\microsoft visual studio 8\vc\include\time.inl
CONST	SEGMENT
??_C@_0BO@NGNOHJIK@?$CF04d?9?$CF02d?9?$CF02d?5?$CF02d?3?$CF02d?3?$CF02d?$AA@ DB '%'
	DB	'04d-%02d-%02d %02d:%02d:%02d', 00H		; `string'
; Function compile flags: /Ogtpy
; File d:\project_p6\trunk\server\gameserver\server\billclient.cpp
CONST	ENDS
;	COMDAT ?GetCurrentTimeString@CBillClient@@QAEXPADI@Z
_TEXT	SEGMENT
_t$ = -4						; size = 4
_str$ = 8						; size = 4
_bufsize$ = 12						; size = 4
?GetCurrentTimeString@CBillClient@@QAEXPADI@Z PROC	; CBillClient::GetCurrentTimeString, COMDAT
; _this$ = ecx

; 487  : {

  00000	51		 push	 ecx

; 488  : 	time_t t;
; 489  : 	struct tm *tm_time;
; 490  : 	time(&t);

  00001	8d 04 24	 lea	 eax, DWORD PTR _t$[esp+4]
  00004	50		 push	 eax
  00005	e8 00 00 00 00	 call	 __time32

; 491  : 	tm_time = localtime(&t);

  0000a	8d 4c 24 04	 lea	 ecx, DWORD PTR _t$[esp+8]
  0000e	51		 push	 ecx
  0000f	e8 00 00 00 00	 call	 __localtime32

; 492  : 	_snprintf(str, bufsize, "%04d-%02d-%02d %02d:%02d:%02d", 
; 493  : 		tm_time->tm_year+1900, tm_time->tm_mon+1, 
; 494  : 		tm_time->tm_mday, tm_time->tm_hour, tm_time->tm_min, tm_time->tm_sec);

  00014	8b 10		 mov	 edx, DWORD PTR [eax]
  00016	8b 48 04	 mov	 ecx, DWORD PTR [eax+4]
  00019	52		 push	 edx
  0001a	8b 50 08	 mov	 edx, DWORD PTR [eax+8]
  0001d	51		 push	 ecx
  0001e	8b 48 0c	 mov	 ecx, DWORD PTR [eax+12]
  00021	52		 push	 edx
  00022	8b 50 10	 mov	 edx, DWORD PTR [eax+16]
  00025	8b 40 14	 mov	 eax, DWORD PTR [eax+20]
  00028	51		 push	 ecx
  00029	8b 4c 24 24	 mov	 ecx, DWORD PTR _bufsize$[esp+24]
  0002d	83 c2 01	 add	 edx, 1
  00030	52		 push	 edx
  00031	8b 54 24 24	 mov	 edx, DWORD PTR _str$[esp+28]
  00035	05 6c 07 00 00	 add	 eax, 1900		; 0000076cH
  0003a	50		 push	 eax
  0003b	68 00 00 00 00	 push	 OFFSET ??_C@_0BO@NGNOHJIK@?$CF04d?9?$CF02d?9?$CF02d?5?$CF02d?3?$CF02d?3?$CF02d?$AA@
  00040	51		 push	 ecx
  00041	52		 push	 edx
  00042	e8 00 00 00 00	 call	 __snprintf

; 495  : }          

  00047	83 c4 30	 add	 esp, 48			; 00000030H
  0004a	c2 08 00	 ret	 8
?GetCurrentTimeString@CBillClient@@QAEXPADI@Z ENDP	; CBillClient::GetCurrentTimeString
_TEXT	ENDS
PUBLIC	??_C@_0BL@BGBLHBEA@SendConsignTransferRequest?$AA@ ; `string'
PUBLIC	??_C@_0BA@ODPOJKCK@GetNewIdByParam?$AA@		; `string'
PUBLIC	??_C@_08MPJLMMJA@GetNewId?$AA@			; `string'
PUBLIC	??_C@_0N@KJEBKNHI@SendAwardAck?$AA@		; `string'
PUBLIC	??_C@_0BH@MKLKFGAE@SendAwardAuthenRequest?$AA@	; `string'
PUBLIC	??_C@_0BJ@EABBDMHB@SendAccountUnlockRequest?$AA@ ; `string'
PUBLIC	??_C@_0BH@BDIIAAGH@SendAccountLockRequest?$AA@	; `string'
PUBLIC	??_C@_0BJ@IGHCNPG@SendAccountAuthenRequest?$AA@	; `string'
PUBLIC	??_C@_0N@JPKGDDIK@Uninitialize?$AA@		; `string'
PUBLIC	??_C@_0N@EHOHJICG@GSInitialize?$AA@		; `string'
PUBLIC	?BsipGetFunction@CBillClient@@QAEHPAUHINSTANCE__@@@Z ; CBillClient::BsipGetFunction
EXTRN	__imp__GetProcAddress@8:PROC
;	COMDAT ??_C@_0BL@BGBLHBEA@SendConsignTransferRequest?$AA@
CONST	SEGMENT
??_C@_0BL@BGBLHBEA@SendConsignTransferRequest?$AA@ DB 'SendConsignTransfe'
	DB	'rRequest', 00H				; `string'
CONST	ENDS
;	COMDAT ??_C@_0BA@ODPOJKCK@GetNewIdByParam?$AA@
CONST	SEGMENT
??_C@_0BA@ODPOJKCK@GetNewIdByParam?$AA@ DB 'GetNewIdByParam', 00H ; `string'
CONST	ENDS
;	COMDAT ??_C@_08MPJLMMJA@GetNewId?$AA@
CONST	SEGMENT
??_C@_08MPJLMMJA@GetNewId?$AA@ DB 'GetNewId', 00H	; `string'
CONST	ENDS
;	COMDAT ??_C@_0N@KJEBKNHI@SendAwardAck?$AA@
CONST	SEGMENT
??_C@_0N@KJEBKNHI@SendAwardAck?$AA@ DB 'SendAwardAck', 00H ; `string'
CONST	ENDS
;	COMDAT ??_C@_0BH@MKLKFGAE@SendAwardAuthenRequest?$AA@
CONST	SEGMENT
??_C@_0BH@MKLKFGAE@SendAwardAuthenRequest?$AA@ DB 'SendAwardAuthenRequest'
	DB	00H						; `string'
CONST	ENDS
;	COMDAT ??_C@_0BJ@EABBDMHB@SendAccountUnlockRequest?$AA@
CONST	SEGMENT
??_C@_0BJ@EABBDMHB@SendAccountUnlockRequest?$AA@ DB 'SendAccountUnlockReq'
	DB	'uest', 00H					; `string'
CONST	ENDS
;	COMDAT ??_C@_0BH@BDIIAAGH@SendAccountLockRequest?$AA@
CONST	SEGMENT
??_C@_0BH@BDIIAAGH@SendAccountLockRequest?$AA@ DB 'SendAccountLockRequest'
	DB	00H						; `string'
CONST	ENDS
;	COMDAT ??_C@_0BJ@IGHCNPG@SendAccountAuthenRequest?$AA@
CONST	SEGMENT
??_C@_0BJ@IGHCNPG@SendAccountAuthenRequest?$AA@ DB 'SendAccountAuthenRequ'
	DB	'est', 00H					; `string'
CONST	ENDS
;	COMDAT ??_C@_0N@JPKGDDIK@Uninitialize?$AA@
CONST	SEGMENT
??_C@_0N@JPKGDDIK@Uninitialize?$AA@ DB 'Uninitialize', 00H ; `string'
CONST	ENDS
;	COMDAT ??_C@_0N@EHOHJICG@GSInitialize?$AA@
CONST	SEGMENT
??_C@_0N@EHOHJICG@GSInitialize?$AA@ DB 'GSInitialize', 00H ; `string'
; Function compile flags: /Ogtpy
CONST	ENDS
;	COMDAT ?BsipGetFunction@CBillClient@@QAEHPAUHINSTANCE__@@@Z
_TEXT	SEGMENT
_hDll$ = 8						; size = 4
?BsipGetFunction@CBillClient@@QAEHPAUHINSTANCE__@@@Z PROC ; CBillClient::BsipGetFunction, COMDAT
; _this$ = ecx

; 511  : {

  00000	56		 push	 esi
  00001	57		 push	 edi

; 512  : 	if (hDll == NULL )

  00002	8b 7c 24 0c	 mov	 edi, DWORD PTR _hDll$[esp+4]
  00006	85 ff		 test	 edi, edi
  00008	8b f1		 mov	 esi, ecx

; 513  : 	{
; 514  : 		return -1;

  0000a	0f 84 a7 00 00
	00		 je	 $LN1@BsipGetFun
  00010	53		 push	 ebx

; 515  : 	}
; 516  : 	funGSInitialize               =  (FunGSInitialize)GetProcAddress(hDll, "GSInitialize");

  00011	8b 1d 00 00 00
	00		 mov	 ebx, DWORD PTR __imp__GetProcAddress@8
  00017	68 00 00 00 00	 push	 OFFSET ??_C@_0N@EHOHJICG@GSInitialize?$AA@
  0001c	57		 push	 edi
  0001d	ff d3		 call	 ebx

; 517  : 	funUninitialize               =  (FunUninitialize)GetProcAddress(hDll, "Uninitialize");

  0001f	68 00 00 00 00	 push	 OFFSET ??_C@_0N@JPKGDDIK@Uninitialize?$AA@
  00024	57		 push	 edi
  00025	89 46 3c	 mov	 DWORD PTR [esi+60], eax
  00028	ff d3		 call	 ebx

; 518  : 	funSendAccountAuthen          =  (FunSendAccountAuthenRequest)GetProcAddress(hDll, "SendAccountAuthenRequest");

  0002a	68 00 00 00 00	 push	 OFFSET ??_C@_0BJ@IGHCNPG@SendAccountAuthenRequest?$AA@
  0002f	57		 push	 edi
  00030	89 46 40	 mov	 DWORD PTR [esi+64], eax
  00033	ff d3		 call	 ebx

; 519  : 	funSendAccountLock            =  (FunSendAccountLockRequest)GetProcAddress(hDll, "SendAccountLockRequest");

  00035	68 00 00 00 00	 push	 OFFSET ??_C@_0BH@BDIIAAGH@SendAccountLockRequest?$AA@
  0003a	57		 push	 edi
  0003b	89 46 4c	 mov	 DWORD PTR [esi+76], eax
  0003e	ff d3		 call	 ebx

; 520  : 	funSendAccountUnlock          =  (FunSendAccountUnlockRequest)GetProcAddress(hDll, "SendAccountUnlockRequest");

  00040	68 00 00 00 00	 push	 OFFSET ??_C@_0BJ@EABBDMHB@SendAccountUnlockRequest?$AA@
  00045	57		 push	 edi
  00046	89 46 50	 mov	 DWORD PTR [esi+80], eax
  00049	ff d3		 call	 ebx

; 521  : 	funSendAwardAuthen            =  (FunSendAwardAuthenRequest)GetProcAddress(hDll, "SendAwardAuthenRequest");

  0004b	68 00 00 00 00	 push	 OFFSET ??_C@_0BH@MKLKFGAE@SendAwardAuthenRequest?$AA@
  00050	57		 push	 edi
  00051	89 46 54	 mov	 DWORD PTR [esi+84], eax
  00054	ff d3		 call	 ebx

; 522  : 	funSendAwardAck               =  (FunSendAwardAck)GetProcAddress(hDll, "SendAwardAck");

  00056	68 00 00 00 00	 push	 OFFSET ??_C@_0N@KJEBKNHI@SendAwardAck?$AA@
  0005b	57		 push	 edi
  0005c	89 46 5c	 mov	 DWORD PTR [esi+92], eax
  0005f	ff d3		 call	 ebx

; 523  : 	funGetNewId                   =  (FunGetNewId)GetProcAddress(hDll, "GetNewId");

  00061	68 00 00 00 00	 push	 OFFSET ??_C@_08MPJLMMJA@GetNewId?$AA@
  00066	57		 push	 edi
  00067	89 46 60	 mov	 DWORD PTR [esi+96], eax
  0006a	ff d3		 call	 ebx

; 524  : 	funGetNewIdByParam            =  (FunGetNewIdByParam)GetProcAddress(hDll, "GetNewIdByParam");

  0006c	68 00 00 00 00	 push	 OFFSET ??_C@_0BA@ODPOJKCK@GetNewIdByParam?$AA@
  00071	57		 push	 edi
  00072	89 46 44	 mov	 DWORD PTR [esi+68], eax
  00075	ff d3		 call	 ebx

; 525  : 	funSendConsignTransfer        =  (FunSendConsignTransferRequest)GetProcAddress(hDll, "SendConsignTransferRequest");

  00077	68 00 00 00 00	 push	 OFFSET ??_C@_0BL@BGBLHBEA@SendConsignTransferRequest?$AA@
  0007c	57		 push	 edi
  0007d	89 46 48	 mov	 DWORD PTR [esi+72], eax
  00080	ff d3		 call	 ebx

; 526  : 	if( 
; 527  : 		(funGSInitialize              ==NULL)||
; 528  : 		(funUninitialize              ==NULL)||
; 529  : 		(funSendAccountAuthen         ==NULL)||
; 530  : 		(funSendAwardAuthen           ==NULL)||
; 531  : 		(funSendAwardAck              ==NULL)||
; 532  : 		(funGetNewId                  ==NULL)||
; 533  : 		(funGetNewIdByParam           ==NULL)
; 534  : 		)

  00082	83 7e 3c 00	 cmp	 DWORD PTR [esi+60], 0
  00086	89 46 58	 mov	 DWORD PTR [esi+88], eax
  00089	5b		 pop	 ebx
  0008a	74 2b		 je	 SHORT $LN1@BsipGetFun
  0008c	83 7e 40 00	 cmp	 DWORD PTR [esi+64], 0
  00090	74 25		 je	 SHORT $LN1@BsipGetFun
  00092	83 7e 4c 00	 cmp	 DWORD PTR [esi+76], 0
  00096	74 1f		 je	 SHORT $LN1@BsipGetFun
  00098	83 7e 5c 00	 cmp	 DWORD PTR [esi+92], 0
  0009c	74 19		 je	 SHORT $LN1@BsipGetFun
  0009e	83 7e 60 00	 cmp	 DWORD PTR [esi+96], 0
  000a2	74 13		 je	 SHORT $LN1@BsipGetFun
  000a4	83 7e 44 00	 cmp	 DWORD PTR [esi+68], 0
  000a8	74 0d		 je	 SHORT $LN1@BsipGetFun
  000aa	83 7e 48 00	 cmp	 DWORD PTR [esi+72], 0
  000ae	74 07		 je	 SHORT $LN1@BsipGetFun
  000b0	5f		 pop	 edi

; 537  : 	}
; 538  : 	return 0;

  000b1	33 c0		 xor	 eax, eax
  000b3	5e		 pop	 esi

; 539  : }

  000b4	c2 04 00	 ret	 4
$LN1@BsipGetFun:
  000b7	5f		 pop	 edi

; 535  : 	{
; 536  : 		return -1;

  000b8	83 c8 ff	 or	 eax, -1
  000bb	5e		 pop	 esi

; 539  : }

  000bc	c2 04 00	 ret	 4
?BsipGetFunction@CBillClient@@QAEHPAUHINSTANCE__@@@Z ENDP ; CBillClient::BsipGetFunction
_TEXT	ENDS
PUBLIC	?GetInstance@CBillClient@@SAPAV1@XZ		; CBillClient::GetInstance
EXTRN	??2@YAPAXI@Z:PROC				; operator new
; Function compile flags: /Ogtpy
;	COMDAT ?GetInstance@CBillClient@@SAPAV1@XZ
_TEXT	SEGMENT
?GetInstance@CBillClient@@SAPAV1@XZ PROC		; CBillClient::GetInstance, COMDAT

; 543  : 	if(s_pInstance == NULL)

  00000	a1 00 00 00 00	 mov	 eax, DWORD PTR ?s_pInstance@CBillClient@@0PAV1@A ; CBillClient::s_pInstance
  00005	85 c0		 test	 eax, eax
  00007	75 0f		 jne	 SHORT $LN1@GetInstanc

; 544  : 	{
; 545  : 		s_pInstance = new CBillClient();

  00009	6a 64		 push	 100			; 00000064H
  0000b	e8 00 00 00 00	 call	 ??2@YAPAXI@Z		; operator new
  00010	83 c4 04	 add	 esp, 4
  00013	a3 00 00 00 00	 mov	 DWORD PTR ?s_pInstance@CBillClient@@0PAV1@A, eax ; CBillClient::s_pInstance
$LN1@GetInstanc:

; 546  : 	}
; 547  : 	return s_pInstance;
; 548  : }

  00018	c3		 ret	 0
?GetInstance@CBillClient@@SAPAV1@XZ ENDP		; CBillClient::GetInstance
_TEXT	ENDS
PUBLIC	?GetBillClient@@YAPAVCBillClient@@XZ		; GetBillClient
; Function compile flags: /Ogtpy
;	COMDAT ?GetBillClient@@YAPAVCBillClient@@XZ
_TEXT	SEGMENT
?GetBillClient@@YAPAVCBillClient@@XZ PROC		; GetBillClient, COMDAT

; 552  : 	return CBillClient::GetInstance();

  00000	a1 00 00 00 00	 mov	 eax, DWORD PTR ?s_pInstance@CBillClient@@0PAV1@A ; CBillClient::s_pInstance
  00005	85 c0		 test	 eax, eax
  00007	75 0f		 jne	 SHORT $LN3@GetBillCli
  00009	6a 64		 push	 100			; 00000064H
  0000b	e8 00 00 00 00	 call	 ??2@YAPAXI@Z		; operator new
  00010	83 c4 04	 add	 esp, 4
  00013	a3 00 00 00 00	 mov	 DWORD PTR ?s_pInstance@CBillClient@@0PAV1@A, eax ; CBillClient::s_pInstance
$LN3@GetBillCli:

; 553  : }

  00018	c3		 ret	 0
?GetBillClient@@YAPAVCBillClient@@XZ ENDP		; GetBillClient
_TEXT	ENDS
PUBLIC	?Lock@?$MulTiThMap@V?$basic_string@DU?$char_traits@D@std@@V?$allocator@D@2@@std@@PAUtagBillItem@CBillClient@@@@QAEXXZ ; MulTiThMap<std::basic_string<char,std::char_traits<char>,std::allocator<char> >,CBillClient::tagBillItem *>::Lock
EXTRN	__imp__EnterCriticalSection@4:PROC
; Function compile flags: /Ogtpy
; File d:\project_p6\trunk\public\module\multithmap.h
;	COMDAT ?Lock@?$MulTiThMap@V?$basic_string@DU?$char_traits@D@std@@V?$allocator@D@2@@std@@PAUtagBillItem@CBillClient@@@@QAEXXZ
_TEXT	SEGMENT
?Lock@?$MulTiThMap@V?$basic_string@DU?$char_traits@D@std@@V?$allocator@D@2@@std@@PAUtagBillItem@CBillClient@@@@QAEXXZ PROC ; MulTiThMap<std::basic_string<char,std::char_traits<char>,std::allocator<char> >,CBillClient::tagBillItem *>::Lock, COMDAT
; _this$ = ecx

; 15   : 	void Lock()		{EnterCriticalSection(&csMap);}

  00000	83 c1 0c	 add	 ecx, 12			; 0000000cH
  00003	51		 push	 ecx
  00004	ff 15 00 00 00
	00		 call	 DWORD PTR __imp__EnterCriticalSection@4
  0000a	c3		 ret	 0
?Lock@?$MulTiThMap@V?$basic_string@DU?$char_traits@D@std@@V?$allocator@D@2@@std@@PAUtagBillItem@CBillClient@@@@QAEXXZ ENDP ; MulTiThMap<std::basic_string<char,std::char_traits<char>,std::allocator<char> >,CBillClient::tagBillItem *>::Lock
_TEXT	ENDS
PUBLIC	?UnLock@?$MulTiThMap@V?$basic_string@DU?$char_traits@D@std@@V?$allocator@D@2@@std@@PAUtagBillItem@CBillClient@@@@QAEXXZ ; MulTiThMap<std::basic_string<char,std::char_traits<char>,std::allocator<char> >,CBillClient::tagBillItem *>::UnLock
EXTRN	__imp__LeaveCriticalSection@4:PROC
; Function compile flags: /Ogtpy
;	COMDAT ?UnLock@?$MulTiThMap@V?$basic_string@DU?$char_traits@D@std@@V?$allocator@D@2@@std@@PAUtagBillItem@CBillClient@@@@QAEXXZ
_TEXT	SEGMENT
?UnLock@?$MulTiThMap@V?$basic_string@DU?$char_traits@D@std@@V?$allocator@D@2@@std@@PAUtagBillItem@CBillClient@@@@QAEXXZ PROC ; MulTiThMap<std::basic_string<char,std::char_traits<char>,std::allocator<char> >,CBillClient::tagBillItem *>::UnLock, COMDAT
; _this$ = ecx

; 16   : 	void UnLock()	{LeaveCriticalSection(&csMap);}

  00000	83 c1 0c	 add	 ecx, 12			; 0000000cH
  00003	51		 push	 ecx
  00004	ff 15 00 00 00
	00		 call	 DWORD PTR __imp__LeaveCriticalSection@4
  0000a	c3		 ret	 0
?UnLock@?$MulTiThMap@V?$basic_string@DU?$char_traits@D@std@@V?$allocator@D@2@@std@@PAUtagBillItem@CBillClient@@@@QAEXXZ ENDP ; MulTiThMap<std::basic_string<char,std::char_traits<char>,std::allocator<char> >,CBillClient::tagBillItem *>::UnLock
_TEXT	ENDS
PUBLIC	?size@?$basic_string@DU?$char_traits@D@std@@V?$allocator@D@2@@std@@QBEIXZ ; std::basic_string<char,std::char_traits<char>,std::allocator<char> >::size
; Function compile flags: /Ogtpy
; File d:\program files\microsoft visual studio 8\vc\include\xstring
;	COMDAT ?size@?$basic_string@DU?$char_traits@D@std@@V?$allocator@D@2@@std@@QBEIXZ
_TEXT	SEGMENT
?size@?$basic_string@DU?$char_traits@D@std@@V?$allocator@D@2@@std@@QBEIXZ PROC ; std::basic_string<char,std::char_traits<char>,std::allocator<char> >::size, COMDAT
; _this$ = ecx

; 1637 : 		return (_Mysize);

  00000	8b 41 14	 mov	 eax, DWORD PTR [ecx+20]

; 1638 : 		}

  00003	c3		 ret	 0
?size@?$basic_string@DU?$char_traits@D@std@@V?$allocator@D@2@@std@@QBEIXZ ENDP ; std::basic_string<char,std::char_traits<char>,std::allocator<char> >::size
_TEXT	ENDS
PUBLIC	?_Color@?$_Tree@V?$_Tmap_traits@V?$basic_string@DU?$char_traits@D@std@@V?$allocator@D@2@@std@@PAUtagBillItem@CBillClient@@U?$less@V?$basic_string@DU?$char_traits@D@std@@V?$allocator@D@2@@std@@@2@V?$allocator@U?$pair@$$CBV?$basic_string@DU?$char_traits@D@std@@V?$allocator@D@2@@std@@PAUtagBillItem@CBillClient@@@std@@@2@$0A@@std@@@std@@KAAADPAU_Node@?$_Tree_nod@V?$_Tmap_traits@V?$basic_string@DU?$char_traits@D@std@@V?$allocator@D@2@@std@@PAUtagBillItem@CBillClient@@U?$less@V?$basic_string@DU?$char_traits@D@std@@V?$allocator@D@2@@std@@@2@V?$allocator@U?$pair@$$CBV?$basic_string@DU?$char_traits@D@std@@V?$allocator@D@2@@std@@PAUtagBillItem@CBillClient@@@std@@@2@$0A@@std@@@2@@Z ; std::_Tree<std::_Tmap_traits<std::basic_string<char,std::char_traits<char>,std::allocator<char> >,CBillClient::tagBillItem *,std::less<std::basic_string<char,std::char_traits<char>,std::allocator<char> > >,std::allocator<std::pair<std::basic_string<char,std::char_traits<char>,std::allocator<char> > const ,CBillClient::tagBillItem *> >,0> >::_Color
; Function compile flags: /Ogtpy
; File d:\program files\microsoft visual studio 8\vc\include\xtree
;	COMDAT ?_Color@?$_Tree@V?$_Tmap_traits@V?$basic_string@DU?$char_traits@D@std@@V?$allocator@D@2@@std@@PAUtagBillItem@CBillClient@@U?$less@V?$basic_string@DU?$char_traits@D@std@@V?$allocator@D@2@@std@@@2@V?$allocator@U?$pair@$$CBV?$basic_string@DU?$char_traits@D@std@@V?$allocator@D@2@@std@@PAUtagBillItem@CBillClient@@@std@@@2@$0A@@std@@@std@@KAAADPAU_Node@?$_Tree_nod@V?$_Tmap_traits@V?$basic_string@DU?$char_traits@D@std@@V?$allocator@D@2@@std@@PAUtagBillItem@CBillClient@@U?$less@V?$basic_string@DU?$char_traits@D@std@@V?$allocator@D@2@@std@@@2@V?$allocator@U?$pair@$$CBV?$basic_string@DU?$char_traits@D@std@@V?$allocator@D@2@@std@@PAUtagBillItem@CBillClient@@@std@@@2@$0A@@std@@@2@@Z
_TEXT	SEGMENT
__Pnode$ = 8						; size = 4
?_Color@?$_Tree@V?$_Tmap_traits@V?$basic_string@DU?$char_traits@D@std@@V?$allocator@D@2@@std@@PAUtagBillItem@CBillClient@@U?$less@V?$basic_string@DU?$char_traits@D@std@@V?$allocator@D@2@@std@@@2@V?$allocator@U?$pair@$$CBV?$basic_string@DU?$char_traits@D@std@@V?$allocator@D@2@@std@@PAUtagBillItem@CBillClient@@@std@@@2@$0A@@std@@@std@@KAAADPAU_Node@?$_Tree_nod@V?$_Tmap_traits@V?$basic_string@DU?$char_traits@D@std@@V?$allocator@D@2@@std@@PAUtagBillItem@CBillClient@@U?$less@V?$basic_string@DU?$char_traits@D@std@@V?$allocator@D@2@@std@@@2@V?$allocator@U?$pair@$$CBV?$basic_string@DU?$char_traits@D@std@@V?$allocator@D@2@@std@@PAUtagBillItem@CBillClient@@@std@@@2@$0A@@std@@@2@@Z PROC ; std::_Tree<std::_Tmap_traits<std::basic_string<char,std::char_traits<char>,std::allocator<char> >,CBillClient::tagBillItem *,std::less<std::basic_string<char,std::char_traits<char>,std::allocator<char> > >,std::allocator<std::pair<std::basic_string<char,std::char_traits<char>,std::allocator<char> > const ,CBillClient::tagBillItem *> >,0> >::_Color, COMDAT

; 141  : 		return ((_Charref)(*_Pnode)._Color);

  00000	8b 44 24 04	 mov	 eax, DWORD PTR __Pnode$[esp-4]
  00004	83 c0 2c	 add	 eax, 44			; 0000002cH

; 142  : 		}

  00007	c3		 ret	 0
?_Color@?$_Tree@V?$_Tmap_traits@V?$basic_string@DU?$char_traits@D@std@@V?$allocator@D@2@@std@@PAUtagBillItem@CBillClient@@U?$less@V?$basic_string@DU?$char_traits@D@std@@V?$allocator@D@2@@std@@@2@V?$allocator@U?$pair@$$CBV?$basic_string@DU?$char_traits@D@std@@V?$allocator@D@2@@std@@PAUtagBillItem@CBillClient@@@std@@@2@$0A@@std@@@std@@KAAADPAU_Node@?$_Tree_nod@V?$_Tmap_traits@V?$basic_string@DU?$char_traits@D@std@@V?$allocator@D@2@@std@@PAUtagBillItem@CBillClient@@U?$less@V?$basic_string@DU?$char_traits@D@std@@V?$allocator@D@2@@std@@@2@V?$allocator@U?$pair@$$CBV?$basic_string@DU?$char_traits@D@std@@V?$allocator@D@2@@std@@PAUtagBillItem@CBillClient@@@std@@@2@$0A@@std@@@2@@Z ENDP ; std::_Tree<std::_Tmap_traits<std::basic_string<char,std::char_traits<char>,std::allocator<char> >,CBillClient::tagBillItem *,std::less<std::basic_string<char,std::char_traits<char>,std::allocator<char> > >,std::allocator<std::pair<std::basic_string<char,std::char_traits<char>,std::allocator<char> > const ,CBillClient::tagBillItem *> >,0> >::_Color
_TEXT	ENDS
PUBLIC	?_Isnil@?$_Tree@V?$_Tmap_traits@V?$basic_string@DU?$char_traits@D@std@@V?$allocator@D@2@@std@@PAUtagBillItem@CBillClient@@U?$less@V?$basic_string@DU?$char_traits@D@std@@V?$allocator@D@2@@std@@@2@V?$allocator@U?$pair@$$CBV?$basic_string@DU?$char_traits@D@std@@V?$allocator@D@2@@std@@PAUtagBillItem@CBillClient@@@std@@@2@$0A@@std@@@std@@KAAADPAU_Node@?$_Tree_nod@V?$_Tmap_traits@V?$basic_string@DU?$char_traits@D@std@@V?$allocator@D@2@@std@@PAUtagBillItem@CBillClient@@U?$less@V?$basic_string@DU?$char_traits@D@std@@V?$allocator@D@2@@std@@@2@V?$allocator@U?$pair@$$CBV?$basic_string@DU?$char_traits@D@std@@V?$allocator@D@2@@std@@PAUtagBillItem@CBillClient@@@std@@@2@$0A@@std@@@2@@Z ; std::_Tree<std::_Tmap_traits<std::basic_string<char,std::char_traits<char>,std::allocator<char> >,CBillClient::tagBillItem *,std::less<std::basic_string<char,std::char_traits<char>,std::allocator<char> > >,std::allocator<std::pair<std::basic_string<char,std::char_traits<char>,std::allocator<char> > const ,CBillClient::tagBillItem *> >,0> >::_Isnil
; Function compile flags: /Ogtpy
;	COMDAT ?_Isnil@?$_Tree@V?$_Tmap_traits@V?$basic_string@DU?$char_traits@D@std@@V?$allocator@D@2@@std@@PAUtagBillItem@CBillClient@@U?$less@V?$basic_string@DU?$char_traits@D@std@@V?$allocator@D@2@@std@@@2@V?$allocator@U?$pair@$$CBV?$basic_string@DU?$char_traits@D@std@@V?$allocator@D@2@@std@@PAUtagBillItem@CBillClient@@@std@@@2@$0A@@std@@@std@@KAAADPAU_Node@?$_Tree_nod@V?$_Tmap_traits@V?$basic_string@DU?$char_traits@D@std@@V?$allocator@D@2@@std@@PAUtagBillItem@CBillClient@@U?$less@V?$basic_string@DU?$char_traits@D@std@@V?$allocator@D@2@@std@@@2@V?$allocator@U?$pair@$$CBV?$basic_string@DU?$char_traits@D@std@@V?$allocator@D@2@@std@@PAUtagBillItem@CBillClient@@@std@@@2@$0A@@std@@@2@@Z
_TEXT	SEGMENT
__Pnode$ = 8						; size = 4
?_Isnil@?$_Tree@V?$_Tmap_traits@V?$basic_string@DU?$char_traits@D@std@@V?$allocator@D@2@@std@@PAUtagBillItem@CBillClient@@U?$less@V?$basic_string@DU?$char_traits@D@std@@V?$allocator@D@2@@std@@@2@V?$allocator@U?$pair@$$CBV?$basic_string@DU?$char_traits@D@std@@V?$allocator@D@2@@std@@PAUtagBillItem@CBillClient@@@std@@@2@$0A@@std@@@std@@KAAADPAU_Node@?$_Tree_nod@V?$_Tmap_traits@V?$basic_string@DU?$char_traits@D@std@@V?$allocator@D@2@@std@@PAUtagBillItem@CBillClient@@U?$less@V?$basic_string@DU?$char_traits@D@std@@V?$allocator@D@2@@std@@@2@V?$allocator@U?$pair@$$CBV?$basic_string@DU?$char_traits@D@std@@V?$allocator@D@2@@std@@PAUtagBillItem@CBillClient@@@std@@@2@$0A@@std@@@2@@Z PROC ; std::_Tree<std::_Tmap_traits<std::basic_string<char,std::char_traits<char>,std::allocator<char> >,CBillClient::tagBillItem *,std::less<std::basic_string<char,std::char_traits<char>,std::allocator<char> > >,std::allocator<std::pair<std::basic_string<char,std::char_traits<char>,std::allocator<char> > const ,CBillClient::tagBillItem *> >,0> >::_Isnil, COMDAT

; 146  : 		return ((_Charref)(*_Pnode)._Isnil);

  00000	8b 44 24 04	 mov	 eax, DWORD PTR __Pnode$[esp-4]
  00004	83 c0 2d	 add	 eax, 45			; 0000002dH

; 147  : 		}

  00007	c3		 ret	 0
?_Isnil@?$_Tree@V?$_Tmap_traits@V?$basic_string@DU?$char_traits@D@std@@V?$allocator@D@2@@std@@PAUtagBillItem@CBillClient@@U?$less@V?$basic_string@DU?$char_traits@D@std@@V?$allocator@D@2@@std@@@2@V?$allocator@U?$pair@$$CBV?$basic_string@DU?$char_traits@D@std@@V?$allocator@D@2@@std@@PAUtagBillItem@CBillClient@@@std@@@2@$0A@@std@@@std@@KAAADPAU_Node@?$_Tree_nod@V?$_Tmap_traits@V?$basic_string@DU?$char_traits@D@std@@V?$allocator@D@2@@std@@PAUtagBillItem@CBillClient@@U?$less@V?$basic_string@DU?$char_traits@D@std@@V?$allocator@D@2@@std@@@2@V?$allocator@U?$pair@$$CBV?$basic_string@DU?$char_traits@D@std@@V?$allocator@D@2@@std@@PAUtagBillItem@CBillClient@@@std@@@2@$0A@@std@@@2@@Z ENDP ; std::_Tree<std::_Tmap_traits<std::basic_string<char,std::char_traits<char>,std::allocator<char> >,CBillClient::tagBillItem *,std::less<std::basic_string<char,std::char_traits<char>,std::allocator<char> > >,std::allocator<std::pair<std::basic_string<char,std::char_traits<char>,std::allocator<char> > const ,CBillClient::tagBillItem *> >,0> >::_Isnil
_TEXT	ENDS
PUBLIC	?_Left@?$_Tree@V?$_Tmap_traits@V?$basic_string@DU?$char_traits@D@std@@V?$allocator@D@2@@std@@PAUtagBillItem@CBillClient@@U?$less@V?$basic_string@DU?$char_traits@D@std@@V?$allocator@D@2@@std@@@2@V?$allocator@U?$pair@$$CBV?$basic_string@DU?$char_traits@D@std@@V?$allocator@D@2@@std@@PAUtagBillItem@CBillClient@@@std@@@2@$0A@@std@@@std@@KAAAPAU_Node@?$_Tree_nod@V?$_Tmap_traits@V?$basic_string@DU?$char_traits@D@std@@V?$allocator@D@2@@std@@PAUtagBillItem@CBillClient@@U?$less@V?$basic_string@DU?$char_traits@D@std@@V?$allocator@D@2@@std@@@2@V?$allocator@U?$pair@$$CBV?$basic_string@DU?$char_traits@D@std@@V?$allocator@D@2@@std@@PAUtagBillItem@CBillClient@@@std@@@2@$0A@@std@@@2@PAU342@@Z ; std::_Tree<std::_Tmap_traits<std::basic_string<char,std::char_traits<char>,std::allocator<char> >,CBillClient::tagBillItem *,std::less<std::basic_string<char,std::char_traits<char>,std::allocator<char> > >,std::allocator<std::pair<std::basic_string<char,std::char_traits<char>,std::allocator<char> > const ,CBillClient::tagBillItem *> >,0> >::_Left
; Function compile flags: /Ogtpy
;	COMDAT ?_Left@?$_Tree@V?$_Tmap_traits@V?$basic_string@DU?$char_traits@D@std@@V?$allocator@D@2@@std@@PAUtagBillItem@CBillClient@@U?$less@V?$basic_string@DU?$char_traits@D@std@@V?$allocator@D@2@@std@@@2@V?$allocator@U?$pair@$$CBV?$basic_string@DU?$char_traits@D@std@@V?$allocator@D@2@@std@@PAUtagBillItem@CBillClient@@@std@@@2@$0A@@std@@@std@@KAAAPAU_Node@?$_Tree_nod@V?$_Tmap_traits@V?$basic_string@DU?$char_traits@D@std@@V?$allocator@D@2@@std@@PAUtagBillItem@CBillClient@@U?$less@V?$basic_string@DU?$char_traits@D@std@@V?$allocator@D@2@@std@@@2@V?$allocator@U?$pair@$$CBV?$basic_string@DU?$char_traits@D@std@@V?$allocator@D@2@@std@@PAUtagBillItem@CBillClient@@@std@@@2@$0A@@std@@@2@PAU342@@Z
_TEXT	SEGMENT
__Pnode$ = 8						; size = 4
?_Left@?$_Tree@V?$_Tmap_traits@V?$basic_string@DU?$char_traits@D@std@@V?$allocator@D@2@@std@@PAUtagBillItem@CBillClient@@U?$less@V?$basic_string@DU?$char_traits@D@std@@V?$allocator@D@2@@std@@@2@V?$allocator@U?$pair@$$CBV?$basic_string@DU?$char_traits@D@std@@V?$allocator@D@2@@std@@PAUtagBillItem@CBillClient@@@std@@@2@$0A@@std@@@std@@KAAAPAU_Node@?$_Tree_nod@V?$_Tmap_traits@V?$basic_string@DU?$char_traits@D@std@@V?$allocator@D@2@@std@@PAUtagBillItem@CBillClient@@U?$less@V?$basic_string@DU?$char_traits@D@std@@V?$allocator@D@2@@std@@@2@V?$allocator@U?$pair@$$CBV?$basic_string@DU?$char_traits@D@std@@V?$allocator@D@2@@std@@PAUtagBillItem@CBillClient@@@std@@@2@$0A@@std@@@2@PAU342@@Z PROC ; std::_Tree<std::_Tmap_traits<std::basic_string<char,std::char_traits<char>,std::allocator<char> >,CBillClient::tagBillItem *,std::less<std::basic_string<char,std::char_traits<char>,std::allocator<char> > >,std::allocator<std::pair<std::basic_string<char,std::char_traits<char>,std::allocator<char> > const ,CBillClient::tagBillItem *> >,0> >::_Left, COMDAT

; 156  : 		return ((_Nodepref)(*_Pnode)._Left);

  00000	8b 44 24 04	 mov	 eax, DWORD PTR __Pnode$[esp-4]

; 157  : 		}

  00004	c3		 ret	 0
?_Left@?$_Tree@V?$_Tmap_traits@V?$basic_string@DU?$char_traits@D@std@@V?$allocator@D@2@@std@@PAUtagBillItem@CBillClient@@U?$less@V?$basic_string@DU?$char_traits@D@std@@V?$allocator@D@2@@std@@@2@V?$allocator@U?$pair@$$CBV?$basic_string@DU?$char_traits@D@std@@V?$allocator@D@2@@std@@PAUtagBillItem@CBillClient@@@std@@@2@$0A@@std@@@std@@KAAAPAU_Node@?$_Tree_nod@V?$_Tmap_traits@V?$basic_string@DU?$char_traits@D@std@@V?$allocator@D@2@@std@@PAUtagBillItem@CBillClient@@U?$less@V?$basic_string@DU?$char_traits@D@std@@V?$allocator@D@2@@std@@@2@V?$allocator@U?$pair@$$CBV?$basic_string@DU?$char_traits@D@std@@V?$allocator@D@2@@std@@PAUtagBillItem@CBillClient@@@std@@@2@$0A@@std@@@2@PAU342@@Z ENDP ; std::_Tree<std::_Tmap_traits<std::basic_string<char,std::char_traits<char>,std::allocator<char> >,CBillClient::tagBillItem *,std::less<std::basic_string<char,std::char_traits<char>,std::allocator<char> > >,std::allocator<std::pair<std::basic_string<char,std::char_traits<char>,std::allocator<char> > const ,CBillClient::tagBillItem *> >,0> >::_Left
_TEXT	ENDS
PUBLIC	?_Parent@?$_Tree@V?$_Tmap_traits@V?$basic_string@DU?$char_traits@D@std@@V?$allocator@D@2@@std@@PAUtagBillItem@CBillClient@@U?$less@V?$basic_string@DU?$char_traits@D@std@@V?$allocator@D@2@@std@@@2@V?$allocator@U?$pair@$$CBV?$basic_string@DU?$char_traits@D@std@@V?$allocator@D@2@@std@@PAUtagBillItem@CBillClient@@@std@@@2@$0A@@std@@@std@@KAAAPAU_Node@?$_Tree_nod@V?$_Tmap_traits@V?$basic_string@DU?$char_traits@D@std@@V?$allocator@D@2@@std@@PAUtagBillItem@CBillClient@@U?$less@V?$basic_string@DU?$char_traits@D@std@@V?$allocator@D@2@@std@@@2@V?$allocator@U?$pair@$$CBV?$basic_string@DU?$char_traits@D@std@@V?$allocator@D@2@@std@@PAUtagBillItem@CBillClient@@@std@@@2@$0A@@std@@@2@PAU342@@Z ; std::_Tree<std::_Tmap_traits<std::basic_string<char,std::char_traits<char>,std::allocator<char> >,CBillClient::tagBillItem *,std::less<std::basic_string<char,std::char_traits<char>,std::allocator<char> > >,std::allocator<std::pair<std::basic_string<char,std::char_traits<char>,std::allocator<char> > const ,CBillClient::tagBillItem *> >,0> >::_Parent
; Function compile flags: /Ogtpy
;	COMDAT ?_Parent@?$_Tree@V?$_Tmap_traits@V?$basic_string@DU?$char_traits@D@std@@V?$allocator@D@2@@std@@PAUtagBillItem@CBillClient@@U?$less@V?$basic_string@DU?$char_traits@D@std@@V?$allocator@D@2@@std@@@2@V?$allocator@U?$pair@$$CBV?$basic_string@DU?$char_traits@D@std@@V?$allocator@D@2@@std@@PAUtagBillItem@CBillClient@@@std@@@2@$0A@@std@@@std@@KAAAPAU_Node@?$_Tree_nod@V?$_Tmap_traits@V?$basic_string@DU?$char_traits@D@std@@V?$allocator@D@2@@std@@PAUtagBillItem@CBillClient@@U?$less@V?$basic_string@DU?$char_traits@D@std@@V?$allocator@D@2@@std@@@2@V?$allocator@U?$pair@$$CBV?$basic_string@DU?$char_traits@D@std@@V?$allocator@D@2@@std@@PAUtagBillItem@CBillClient@@@std@@@2@$0A@@std@@@2@PAU342@@Z
_TEXT	SEGMENT
__Pnode$ = 8						; size = 4
?_Parent@?$_Tree@V?$_Tmap_traits@V?$basic_string@DU?$char_traits@D@std@@V?$allocator@D@2@@std@@PAUtagBillItem@CBillClient@@U?$less@V?$basic_string@DU?$char_traits@D@std@@V?$allocator@D@2@@std@@@2@V?$allocator@U?$pair@$$CBV?$basic_string@DU?$char_traits@D@std@@V?$allocator@D@2@@std@@PAUtagBillItem@CBillClient@@@std@@@2@$0A@@std@@@std@@KAAAPAU_Node@?$_Tree_nod@V?$_Tmap_traits@V?$basic_string@DU?$char_traits@D@std@@V?$allocator@D@2@@std@@PAUtagBillItem@CBillClient@@U?$less@V?$basic_string@DU?$char_traits@D@std@@V?$allocator@D@2@@std@@@2@V?$allocator@U?$pair@$$CBV?$basic_string@DU?$char_traits@D@std@@V?$allocator@D@2@@std@@PAUtagBillItem@CBillClient@@@std@@@2@$0A@@std@@@2@PAU342@@Z PROC ; std::_Tree<std::_Tmap_traits<std::basic_string<char,std::char_traits<char>,std::allocator<char> >,CBillClient::tagBillItem *,std::less<std::basic_string<char,std::char_traits<char>,std::allocator<char> > >,std::allocator<std::pair<std::basic_string<char,std::char_traits<char>,std::allocator<char> > const ,CBillClient::tagBillItem *> >,0> >::_Parent, COMDAT

; 161  : 		return ((_Nodepref)(*_Pnode)._Parent);

  00000	8b 44 24 04	 mov	 eax, DWORD PTR __Pnode$[esp-4]
  00004	83 c0 04	 add	 eax, 4

; 162  : 		}

  00007	c3		 ret	 0
?_Parent@?$_Tree@V?$_Tmap_traits@V?$basic_string@DU?$char_traits@D@std@@V?$allocator@D@2@@std@@PAUtagBillItem@CBillClient@@U?$less@V?$basic_string@DU?$char_traits@D@std@@V?$allocator@D@2@@std@@@2@V?$allocator@U?$pair@$$CBV?$basic_string@DU?$char_traits@D@std@@V?$allocator@D@2@@std@@PAUtagBillItem@CBillClient@@@std@@@2@$0A@@std@@@std@@KAAAPAU_Node@?$_Tree_nod@V?$_Tmap_traits@V?$basic_string@DU?$char_traits@D@std@@V?$allocator@D@2@@std@@PAUtagBillItem@CBillClient@@U?$less@V?$basic_string@DU?$char_traits@D@std@@V?$allocator@D@2@@std@@@2@V?$allocator@U?$pair@$$CBV?$basic_string@DU?$char_traits@D@std@@V?$allocator@D@2@@std@@PAUtagBillItem@CBillClient@@@std@@@2@$0A@@std@@@2@PAU342@@Z ENDP ; std::_Tree<std::_Tmap_traits<std::basic_string<char,std::char_traits<char>,std::allocator<char> >,CBillClient::tagBillItem *,std::less<std::basic_string<char,std::char_traits<char>,std::allocator<char> > >,std::allocator<std::pair<std::basic_string<char,std::char_traits<char>,std::allocator<char> > const ,CBillClient::tagBillItem *> >,0> >::_Parent
_TEXT	ENDS
PUBLIC	?_Right@?$_Tree@V?$_Tmap_traits@V?$basic_string@DU?$char_traits@D@std@@V?$allocator@D@2@@std@@PAUtagBillItem@CBillClient@@U?$less@V?$basic_string@DU?$char_traits@D@std@@V?$allocator@D@2@@std@@@2@V?$allocator@U?$pair@$$CBV?$basic_string@DU?$char_traits@D@std@@V?$allocator@D@2@@std@@PAUtagBillItem@CBillClient@@@std@@@2@$0A@@std@@@std@@KAAAPAU_Node@?$_Tree_nod@V?$_Tmap_traits@V?$basic_string@DU?$char_traits@D@std@@V?$allocator@D@2@@std@@PAUtagBillItem@CBillClient@@U?$less@V?$basic_string@DU?$char_traits@D@std@@V?$allocator@D@2@@std@@@2@V?$allocator@U?$pair@$$CBV?$basic_string@DU?$char_traits@D@std@@V?$allocator@D@2@@std@@PAUtagBillItem@CBillClient@@@std@@@2@$0A@@std@@@2@PAU342@@Z ; std::_Tree<std::_Tmap_traits<std::basic_string<char,std::char_traits<char>,std::allocator<char> >,CBillClient::tagBillItem *,std::less<std::basic_string<char,std::char_traits<char>,std::allocator<char> > >,std::allocator<std::pair<std::basic_string<char,std::char_traits<char>,std::allocator<char> > const ,CBillClient::tagBillItem *> >,0> >::_Right
; Function compile flags: /Ogtpy
;	COMDAT ?_Right@?$_Tree@V?$_Tmap_traits@V?$basic_string@DU?$char_traits@D@std@@V?$allocator@D@2@@std@@PAUtagBillItem@CBillClient@@U?$less@V?$basic_string@DU?$char_traits@D@std@@V?$allocator@D@2@@std@@@2@V?$allocator@U?$pair@$$CBV?$basic_string@DU?$char_traits@D@std@@V?$allocator@D@2@@std@@PAUtagBillItem@CBillClient@@@std@@@2@$0A@@std@@@std@@KAAAPAU_Node@?$_Tree_nod@V?$_Tmap_traits@V?$basic_string@DU?$char_traits@D@std@@V?$allocator@D@2@@std@@PAUtagBillItem@CBillClient@@U?$less@V?$basic_string@DU?$char_traits@D@std@@V?$allocator@D@2@@std@@@2@V?$allocator@U?$pair@$$CBV?$basic_string@DU?$char_traits@D@std@@V?$allocator@D@2@@std@@PAUtagBillItem@CBillClient@@@std@@@2@$0A@@std@@@2@PAU342@@Z
_TEXT	SEGMENT
__Pnode$ = 8						; size = 4
?_Right@?$_Tree@V?$_Tmap_traits@V?$basic_string@DU?$char_traits@D@std@@V?$allocator@D@2@@std@@PAUtagBillItem@CBillClient@@U?$less@V?$basic_string@DU?$char_traits@D@std@@V?$allocator@D@2@@std@@@2@V?$allocator@U?$pair@$$CBV?$basic_string@DU?$char_traits@D@std@@V?$allocator@D@2@@std@@PAUtagBillItem@CBillClient@@@std@@@2@$0A@@std@@@std@@KAAAPAU_Node@?$_Tree_nod@V?$_Tmap_traits@V?$basic_string@DU?$char_traits@D@std@@V?$allocator@D@2@@std@@PAUtagBillItem@CBillClient@@U?$less@V?$basic_string@DU?$char_traits@D@std@@V?$allocator@D@2@@std@@@2@V?$allocator@U?$pair@$$CBV?$basic_string@DU?$char_traits@D@std@@V?$allocator@D@2@@std@@PAUtagBillItem@CBillClient@@@std@@@2@$0A@@std@@@2@PAU342@@Z PROC ; std::_Tree<std::_Tmap_traits<std::basic_string<char,std::char_traits<char>,std::allocator<char> >,CBillClient::tagBillItem *,std::less<std::basic_string<char,std::char_traits<char>,std::allocator<char> > >,std::allocator<std::pair<std::basic_string<char,std::char_traits<char>,std::allocator<char> > const ,CBillClient::tagBillItem *> >,0> >::_Right, COMDAT

; 166  : 		return ((_Nodepref)(*_Pnode)._Right);

  00000	8b 44 24 04	 mov	 eax, DWORD PTR __Pnode$[esp-4]
  00004	83 c0 08	 add	 eax, 8

; 167  : 		}

  00007	c3		 ret	 0
?_Right@?$_Tree@V?$_Tmap_traits@V?$basic_string@DU?$char_traits@D@std@@V?$allocator@D@2@@std@@PAUtagBillItem@CBillClient@@U?$less@V?$basic_string@DU?$char_traits@D@std@@V?$allocator@D@2@@std@@@2@V?$allocator@U?$pair@$$CBV?$basic_string@DU?$char_traits@D@std@@V?$allocator@D@2@@std@@PAUtagBillItem@CBillClient@@@std@@@2@$0A@@std@@@std@@KAAAPAU_Node@?$_Tree_nod@V?$_Tmap_traits@V?$basic_string@DU?$char_traits@D@std@@V?$allocator@D@2@@std@@PAUtagBillItem@CBillClient@@U?$less@V?$basic_string@DU?$char_traits@D@std@@V?$allocator@D@2@@std@@@2@V?$allocator@U?$pair@$$CBV?$basic_string@DU?$char_traits@D@std@@V?$allocator@D@2@@std@@PAUtagBillItem@CBillClient@@@std@@@2@$0A@@std@@@2@PAU342@@Z ENDP ; std::_Tree<std::_Tmap_traits<std::basic_string<char,std::char_traits<char>,std::allocator<char> >,CBillClient::tagBillItem *,std::less<std::basic_string<char,std::char_traits<char>,std::allocator<char> > >,std::allocator<std::pair<std::basic_string<char,std::char_traits<char>,std::allocator<char> > const ,CBillClient::tagBillItem *> >,0> >::_Right
_TEXT	ENDS
PUBLIC	?_Lmost@?$_Tree@V?$_Tmap_traits@V?$basic_string@DU?$char_traits@D@std@@V?$allocator@D@2@@std@@PAUtagBillItem@CBillClient@@U?$less@V?$basic_string@DU?$char_traits@D@std@@V?$allocator@D@2@@std@@@2@V?$allocator@U?$pair@$$CBV?$basic_string@DU?$char_traits@D@std@@V?$allocator@D@2@@std@@PAUtagBillItem@CBillClient@@@std@@@2@$0A@@std@@@std@@IBEAAPAU_Node@?$_Tree_nod@V?$_Tmap_traits@V?$basic_string@DU?$char_traits@D@std@@V?$allocator@D@2@@std@@PAUtagBillItem@CBillClient@@U?$less@V?$basic_string@DU?$char_traits@D@std@@V?$allocator@D@2@@std@@@2@V?$allocator@U?$pair@$$CBV?$basic_string@DU?$char_traits@D@std@@V?$allocator@D@2@@std@@PAUtagBillItem@CBillClient@@@std@@@2@$0A@@std@@@2@XZ ; std::_Tree<std::_Tmap_traits<std::basic_string<char,std::char_traits<char>,std::allocator<char> >,CBillClient::tagBillItem *,std::less<std::basic_string<char,std::char_traits<char>,std::allocator<char> > >,std::allocator<std::pair<std::basic_string<char,std::char_traits<char>,std::allocator<char> > const ,CBillClient::tagBillItem *> >,0> >::_Lmost
; Function compile flags: /Ogtpy
;	COMDAT ?_Lmost@?$_Tree@V?$_Tmap_traits@V?$basic_string@DU?$char_traits@D@std@@V?$allocator@D@2@@std@@PAUtagBillItem@CBillClient@@U?$less@V?$basic_string@DU?$char_traits@D@std@@V?$allocator@D@2@@std@@@2@V?$allocator@U?$pair@$$CBV?$basic_string@DU?$char_traits@D@std@@V?$allocator@D@2@@std@@PAUtagBillItem@CBillClient@@@std@@@2@$0A@@std@@@std@@IBEAAPAU_Node@?$_Tree_nod@V?$_Tmap_traits@V?$basic_string@DU?$char_traits@D@std@@V?$allocator@D@2@@std@@PAUtagBillItem@CBillClient@@U?$less@V?$basic_string@DU?$char_traits@D@std@@V?$allocator@D@2@@std@@@2@V?$allocator@U?$pair@$$CBV?$basic_string@DU?$char_traits@D@std@@V?$allocator@D@2@@std@@PAUtagBillItem@CBillClient@@@std@@@2@$0A@@std@@@2@XZ
_TEXT	SEGMENT
?_Lmost@?$_Tree@V?$_Tmap_traits@V?$basic_string@DU?$char_traits@D@std@@V?$allocator@D@2@@std@@PAUtagBillItem@CBillClient@@U?$less@V?$basic_string@DU?$char_traits@D@std@@V?$allocator@D@2@@std@@@2@V?$allocator@U?$pair@$$CBV?$basic_string@DU?$char_traits@D@std@@V?$allocator@D@2@@std@@PAUtagBillItem@CBillClient@@@std@@@2@$0A@@std@@@std@@IBEAAPAU_Node@?$_Tree_nod@V?$_Tmap_traits@V?$basic_string@DU?$char_traits@D@std@@V?$allocator@D@2@@std@@PAUtagBillItem@CBillClient@@U?$less@V?$basic_string@DU?$char_traits@D@std@@V?$allocator@D@2@@std@@@2@V?$allocator@U?$pair@$$CBV?$basic_string@DU?$char_traits@D@std@@V?$allocator@D@2@@std@@PAUtagBillItem@CBillClient@@@std@@@2@$0A@@std@@@2@XZ PROC ; std::_Tree<std::_Tmap_traits<std::basic_string<char,std::char_traits<char>,std::allocator<char> >,CBillClient::tagBillItem *,std::less<std::basic_string<char,std::char_traits<char>,std::allocator<char> > >,std::allocator<std::pair<std::basic_string<char,std::char_traits<char>,std::allocator<char> > const ,CBillClient::tagBillItem *> >,0> >::_Lmost, COMDAT
; _this$ = ecx

; 1187 : 		return (_Left(_Myhead));

  00000	8b 41 04	 mov	 eax, DWORD PTR [ecx+4]

; 1188 : 		}

  00003	c3		 ret	 0
?_Lmost@?$_Tree@V?$_Tmap_traits@V?$basic_string@DU?$char_traits@D@std@@V?$allocator@D@2@@std@@PAUtagBillItem@CBillClient@@U?$less@V?$basic_string@DU?$char_traits@D@std@@V?$allocator@D@2@@std@@@2@V?$allocator@U?$pair@$$CBV?$basic_string@DU?$char_traits@D@std@@V?$allocator@D@2@@std@@PAUtagBillItem@CBillClient@@@std@@@2@$0A@@std@@@std@@IBEAAPAU_Node@?$_Tree_nod@V?$_Tmap_traits@V?$basic_string@DU?$char_traits@D@std@@V?$allocator@D@2@@std@@PAUtagBillItem@CBillClient@@U?$less@V?$basic_string@DU?$char_traits@D@std@@V?$allocator@D@2@@std@@@2@V?$allocator@U?$pair@$$CBV?$basic_string@DU?$char_traits@D@std@@V?$allocator@D@2@@std@@PAUtagBillItem@CBillClient@@@std@@@2@$0A@@std@@@2@XZ ENDP ; std::_Tree<std::_Tmap_traits<std::basic_string<char,std::char_traits<char>,std::allocator<char> >,CBillClient::tagBillItem *,std::less<std::basic_string<char,std::char_traits<char>,std::allocator<char> > >,std::allocator<std::pair<std::basic_string<char,std::char_traits<char>,std::allocator<char> > const ,CBillClient::tagBillItem *> >,0> >::_Lmost
_TEXT	ENDS
PUBLIC	?_Max@?$_Tree@V?$_Tmap_traits@V?$basic_string@DU?$char_traits@D@std@@V?$allocator@D@2@@std@@PAUtagBillItem@CBillClient@@U?$less@V?$basic_string@DU?$char_traits@D@std@@V?$allocator@D@2@@std@@@2@V?$allocator@U?$pair@$$CBV?$basic_string@DU?$char_traits@D@std@@V?$allocator@D@2@@std@@PAUtagBillItem@CBillClient@@@std@@@2@$0A@@std@@@std@@KAPAU_Node@?$_Tree_nod@V?$_Tmap_traits@V?$basic_string@DU?$char_traits@D@std@@V?$allocator@D@2@@std@@PAUtagBillItem@CBillClient@@U?$less@V?$basic_string@DU?$char_traits@D@std@@V?$allocator@D@2@@std@@@2@V?$allocator@U?$pair@$$CBV?$basic_string@DU?$char_traits@D@std@@V?$allocator@D@2@@std@@PAUtagBillItem@CBillClient@@@std@@@2@$0A@@std@@@2@PAU342@@Z ; std::_Tree<std::_Tmap_traits<std::basic_string<char,std::char_traits<char>,std::allocator<char> >,CBillClient::tagBillItem *,std::less<std::basic_string<char,std::char_traits<char>,std::allocator<char> > >,std::allocator<std::pair<std::basic_string<char,std::char_traits<char>,std::allocator<char> > const ,CBillClient::tagBillItem *> >,0> >::_Max
; Function compile flags: /Ogtpy
;	COMDAT ?_Max@?$_Tree@V?$_Tmap_traits@V?$basic_string@DU?$char_traits@D@std@@V?$allocator@D@2@@std@@PAUtagBillItem@CBillClient@@U?$less@V?$basic_string@DU?$char_traits@D@std@@V?$allocator@D@2@@std@@@2@V?$allocator@U?$pair@$$CBV?$basic_string@DU?$char_traits@D@std@@V?$allocator@D@2@@std@@PAUtagBillItem@CBillClient@@@std@@@2@$0A@@std@@@std@@KAPAU_Node@?$_Tree_nod@V?$_Tmap_traits@V?$basic_string@DU?$char_traits@D@std@@V?$allocator@D@2@@std@@PAUtagBillItem@CBillClient@@U?$less@V?$basic_string@DU?$char_traits@D@std@@V?$allocator@D@2@@std@@@2@V?$allocator@U?$pair@$$CBV?$basic_string@DU?$char_traits@D@std@@V?$allocator@D@2@@std@@PAUtagBillItem@CBillClient@@@std@@@2@$0A@@std@@@2@PAU342@@Z
_TEXT	SEGMENT
__Pnode$ = 8						; size = 4
?_Max@?$_Tree@V?$_Tmap_traits@V?$basic_string@DU?$char_traits@D@std@@V?$allocator@D@2@@std@@PAUtagBillItem@CBillClient@@U?$less@V?$basic_string@DU?$char_traits@D@std@@V?$allocator@D@2@@std@@@2@V?$allocator@U?$pair@$$CBV?$basic_string@DU?$char_traits@D@std@@V?$allocator@D@2@@std@@PAUtagBillItem@CBillClient@@@std@@@2@$0A@@std@@@std@@KAPAU_Node@?$_Tree_nod@V?$_Tmap_traits@V?$basic_string@DU?$char_traits@D@std@@V?$allocator@D@2@@std@@PAUtagBillItem@CBillClient@@U?$less@V?$basic_string@DU?$char_traits@D@std@@V?$allocator@D@2@@std@@@2@V?$allocator@U?$pair@$$CBV?$basic_string@DU?$char_traits@D@std@@V?$allocator@D@2@@std@@PAUtagBillItem@CBillClient@@@std@@@2@$0A@@std@@@2@PAU342@@Z PROC ; std::_Tree<std::_Tmap_traits<std::basic_string<char,std::char_traits<char>,std::allocator<char> >,CBillClient::tagBillItem *,std::less<std::basic_string<char,std::char_traits<char>,std::allocator<char> > >,std::allocator<std::pair<std::basic_string<char,std::char_traits<char>,std::allocator<char> > const ,CBillClient::tagBillItem *> >,0> >::_Max, COMDAT

; 1212 : 		while (!_Isnil(_Right(_Pnode)))

  00000	8b 44 24 04	 mov	 eax, DWORD PTR __Pnode$[esp-4]
  00004	8b 48 08	 mov	 ecx, DWORD PTR [eax+8]
  00007	80 79 2d 00	 cmp	 BYTE PTR [ecx+45], 0
  0000b	75 0e		 jne	 SHORT $LN1@Max
  0000d	8d 49 00	 npad	 3
$LL2@Max:

; 1213 : 			_Pnode = _Right(_Pnode);

  00010	8b c1		 mov	 eax, ecx
  00012	8b 48 08	 mov	 ecx, DWORD PTR [eax+8]
  00015	80 79 2d 00	 cmp	 BYTE PTR [ecx+45], 0
  00019	74 f5		 je	 SHORT $LL2@Max
$LN1@Max:

; 1214 : 		return (_Pnode);
; 1215 : 		}

  0001b	c3		 ret	 0
?_Max@?$_Tree@V?$_Tmap_traits@V?$basic_string@DU?$char_traits@D@std@@V?$allocator@D@2@@std@@PAUtagBillItem@CBillClient@@U?$less@V?$basic_string@DU?$char_traits@D@std@@V?$allocator@D@2@@std@@@2@V?$allocator@U?$pair@$$CBV?$basic_string@DU?$char_traits@D@std@@V?$allocator@D@2@@std@@PAUtagBillItem@CBillClient@@@std@@@2@$0A@@std@@@std@@KAPAU_Node@?$_Tree_nod@V?$_Tmap_traits@V?$basic_string@DU?$char_traits@D@std@@V?$allocator@D@2@@std@@PAUtagBillItem@CBillClient@@U?$less@V?$basic_string@DU?$char_traits@D@std@@V?$allocator@D@2@@std@@@2@V?$allocator@U?$pair@$$CBV?$basic_string@DU?$char_traits@D@std@@V?$allocator@D@2@@std@@PAUtagBillItem@CBillClient@@@std@@@2@$0A@@std@@@2@PAU342@@Z ENDP ; std::_Tree<std::_Tmap_traits<std::basic_string<char,std::char_traits<char>,std::allocator<char> >,CBillClient::tagBillItem *,std::less<std::basic_string<char,std::char_traits<char>,std::allocator<char> > >,std::allocator<std::pair<std::basic_string<char,std::char_traits<char>,std::allocator<char> > const ,CBillClient::tagBillItem *> >,0> >::_Max
_TEXT	ENDS
PUBLIC	?_Min@?$_Tree@V?$_Tmap_traits@V?$basic_string@DU?$char_traits@D@std@@V?$allocator@D@2@@std@@PAUtagBillItem@CBillClient@@U?$less@V?$basic_string@DU?$char_traits@D@std@@V?$allocator@D@2@@std@@@2@V?$allocator@U?$pair@$$CBV?$basic_string@DU?$char_traits@D@std@@V?$allocator@D@2@@std@@PAUtagBillItem@CBillClient@@@std@@@2@$0A@@std@@@std@@KAPAU_Node@?$_Tree_nod@V?$_Tmap_traits@V?$basic_string@DU?$char_traits@D@std@@V?$allocator@D@2@@std@@PAUtagBillItem@CBillClient@@U?$less@V?$basic_string@DU?$char_traits@D@std@@V?$allocator@D@2@@std@@@2@V?$allocator@U?$pair@$$CBV?$basic_string@DU?$char_traits@D@std@@V?$allocator@D@2@@std@@PAUtagBillItem@CBillClient@@@std@@@2@$0A@@std@@@2@PAU342@@Z ; std::_Tree<std::_Tmap_traits<std::basic_string<char,std::char_traits<char>,std::allocator<char> >,CBillClient::tagBillItem *,std::less<std::basic_string<char,std::char_traits<char>,std::allocator<char> > >,std::allocator<std::pair<std::basic_string<char,std::char_traits<char>,std::allocator<char> > const ,CBillClient::tagBillItem *> >,0> >::_Min
; Function compile flags: /Ogtpy
;	COMDAT ?_Min@?$_Tree@V?$_Tmap_traits@V?$basic_string@DU?$char_traits@D@std@@V?$allocator@D@2@@std@@PAUtagBillItem@CBillClient@@U?$less@V?$basic_string@DU?$char_traits@D@std@@V?$allocator@D@2@@std@@@2@V?$allocator@U?$pair@$$CBV?$basic_string@DU?$char_traits@D@std@@V?$allocator@D@2@@std@@PAUtagBillItem@CBillClient@@@std@@@2@$0A@@std@@@std@@KAPAU_Node@?$_Tree_nod@V?$_Tmap_traits@V?$basic_string@DU?$char_traits@D@std@@V?$allocator@D@2@@std@@PAUtagBillItem@CBillClient@@U?$less@V?$basic_string@DU?$char_traits@D@std@@V?$allocator@D@2@@std@@@2@V?$allocator@U?$pair@$$CBV?$basic_string@DU?$char_traits@D@std@@V?$allocator@D@2@@std@@PAUtagBillItem@CBillClient@@@std@@@2@$0A@@std@@@2@PAU342@@Z
_TEXT	SEGMENT
__Pnode$ = 8						; size = 4
?_Min@?$_Tree@V?$_Tmap_traits@V?$basic_string@DU?$char_traits@D@std@@V?$allocator@D@2@@std@@PAUtagBillItem@CBillClient@@U?$less@V?$basic_string@DU?$char_traits@D@std@@V?$allocator@D@2@@std@@@2@V?$allocator@U?$pair@$$CBV?$basic_string@DU?$char_traits@D@std@@V?$allocator@D@2@@std@@PAUtagBillItem@CBillClient@@@std@@@2@$0A@@std@@@std@@KAPAU_Node@?$_Tree_nod@V?$_Tmap_traits@V?$basic_string@DU?$char_traits@D@std@@V?$allocator@D@2@@std@@PAUtagBillItem@CBillClient@@U?$less@V?$basic_string@DU?$char_traits@D@std@@V?$allocator@D@2@@std@@@2@V?$allocator@U?$pair@$$CBV?$basic_string@DU?$char_traits@D@std@@V?$allocator@D@2@@std@@PAUtagBillItem@CBillClient@@@std@@@2@$0A@@std@@@2@PAU342@@Z PROC ; std::_Tree<std::_Tmap_traits<std::basic_string<char,std::char_traits<char>,std::allocator<char> >,CBillClient::tagBillItem *,std::less<std::basic_string<char,std::char_traits<char>,std::allocator<char> > >,std::allocator<std::pair<std::basic_string<char,std::char_traits<char>,std::allocator<char> > const ,CBillClient::tagBillItem *> >,0> >::_Min, COMDAT

; 1219 : 		while (!_Isnil(_Left(_Pnode)))

  00000	8b 44 24 04	 mov	 eax, DWORD PTR __Pnode$[esp-4]
  00004	8b 08		 mov	 ecx, DWORD PTR [eax]
  00006	80 79 2d 00	 cmp	 BYTE PTR [ecx+45], 0
  0000a	75 0e		 jne	 SHORT $LN1@Min
  0000c	8d 64 24 00	 npad	 4
$LL2@Min:

; 1220 : 			_Pnode = _Left(_Pnode);

  00010	8b c1		 mov	 eax, ecx
  00012	8b 08		 mov	 ecx, DWORD PTR [eax]
  00014	80 79 2d 00	 cmp	 BYTE PTR [ecx+45], 0
  00018	74 f6		 je	 SHORT $LL2@Min
$LN1@Min:

; 1221 : 		return (_Pnode);
; 1222 : 		}

  0001a	c3		 ret	 0
?_Min@?$_Tree@V?$_Tmap_traits@V?$basic_string@DU?$char_traits@D@std@@V?$allocator@D@2@@std@@PAUtagBillItem@CBillClient@@U?$less@V?$basic_string@DU?$char_traits@D@std@@V?$allocator@D@2@@std@@@2@V?$allocator@U?$pair@$$CBV?$basic_string@DU?$char_traits@D@std@@V?$allocator@D@2@@std@@PAUtagBillItem@CBillClient@@@std@@@2@$0A@@std@@@std@@KAPAU_Node@?$_Tree_nod@V?$_Tmap_traits@V?$basic_string@DU?$char_traits@D@std@@V?$allocator@D@2@@std@@PAUtagBillItem@CBillClient@@U?$less@V?$basic_string@DU?$char_traits@D@std@@V?$allocator@D@2@@std@@@2@V?$allocator@U?$pair@$$CBV?$basic_string@DU?$char_traits@D@std@@V?$allocator@D@2@@std@@PAUtagBillItem@CBillClient@@@std@@@2@$0A@@std@@@2@PAU342@@Z ENDP ; std::_Tree<std::_Tmap_traits<std::basic_string<char,std::char_traits<char>,std::allocator<char> >,CBillClient::tagBillItem *,std::less<std::basic_string<char,std::char_traits<char>,std::allocator<char> > >,std::allocator<std::pair<std::basic_string<char,std::char_traits<char>,std::allocator<char> > const ,CBillClient::tagBillItem *> >,0> >::_Min
_TEXT	ENDS
PUBLIC	?_Rmost@?$_Tree@V?$_Tmap_traits@V?$basic_string@DU?$char_traits@D@std@@V?$allocator@D@2@@std@@PAUtagBillItem@CBillClient@@U?$less@V?$basic_string@DU?$char_traits@D@std@@V?$allocator@D@2@@std@@@2@V?$allocator@U?$pair@$$CBV?$basic_string@DU?$char_traits@D@std@@V?$allocator@D@2@@std@@PAUtagBillItem@CBillClient@@@std@@@2@$0A@@std@@@std@@IBEAAPAU_Node@?$_Tree_nod@V?$_Tmap_traits@V?$basic_string@DU?$char_traits@D@std@@V?$allocator@D@2@@std@@PAUtagBillItem@CBillClient@@U?$less@V?$basic_string@DU?$char_traits@D@std@@V?$allocator@D@2@@std@@@2@V?$allocator@U?$pair@$$CBV?$basic_string@DU?$char_traits@D@std@@V?$allocator@D@2@@std@@PAUtagBillItem@CBillClient@@@std@@@2@$0A@@std@@@2@XZ ; std::_Tree<std::_Tmap_traits<std::basic_string<char,std::char_traits<char>,std::allocator<char> >,CBillClient::tagBillItem *,std::less<std::basic_string<char,std::char_traits<char>,std::allocator<char> > >,std::allocator<std::pair<std::basic_string<char,std::char_traits<char>,std::allocator<char> > const ,CBillClient::tagBillItem *> >,0> >::_Rmost
; Function compile flags: /Ogtpy
;	COMDAT ?_Rmost@?$_Tree@V?$_Tmap_traits@V?$basic_string@DU?$char_traits@D@std@@V?$allocator@D@2@@std@@PAUtagBillItem@CBillClient@@U?$less@V?$basic_string@DU?$char_traits@D@std@@V?$allocator@D@2@@std@@@2@V?$allocator@U?$pair@$$CBV?$basic_string@DU?$char_traits@D@std@@V?$allocator@D@2@@std@@PAUtagBillItem@CBillClient@@@std@@@2@$0A@@std@@@std@@IBEAAPAU_Node@?$_Tree_nod@V?$_Tmap_traits@V?$basic_string@DU?$char_traits@D@std@@V?$allocator@D@2@@std@@PAUtagBillItem@CBillClient@@U?$less@V?$basic_string@DU?$char_traits@D@std@@V?$allocator@D@2@@std@@@2@V?$allocator@U?$pair@$$CBV?$basic_string@DU?$char_traits@D@std@@V?$allocator@D@2@@std@@PAUtagBillItem@CBillClient@@@std@@@2@$0A@@std@@@2@XZ
_TEXT	SEGMENT
?_Rmost@?$_Tree@V?$_Tmap_traits@V?$basic_string@DU?$char_traits@D@std@@V?$allocator@D@2@@std@@PAUtagBillItem@CBillClient@@U?$less@V?$basic_string@DU?$char_traits@D@std@@V?$allocator@D@2@@std@@@2@V?$allocator@U?$pair@$$CBV?$basic_string@DU?$char_traits@D@std@@V?$allocator@D@2@@std@@PAUtagBillItem@CBillClient@@@std@@@2@$0A@@std@@@std@@IBEAAPAU_Node@?$_Tree_nod@V?$_Tmap_traits@V?$basic_string@DU?$char_traits@D@std@@V?$allocator@D@2@@std@@PAUtagBillItem@CBillClient@@U?$less@V?$basic_string@DU?$char_traits@D@std@@V?$allocator@D@2@@std@@@2@V?$allocator@U?$pair@$$CBV?$basic_string@DU?$char_traits@D@std@@V?$allocator@D@2@@std@@PAUtagBillItem@CBillClient@@@std@@@2@$0A@@std@@@2@XZ PROC ; std::_Tree<std::_Tmap_traits<std::basic_string<char,std::char_traits<char>,std::allocator<char> >,CBillClient::tagBillItem *,std::less<std::basic_string<char,std::char_traits<char>,std::allocator<char> > >,std::allocator<std::pair<std::basic_string<char,std::char_traits<char>,std::allocator<char> > const ,CBillClient::tagBillItem *> >,0> >::_Rmost, COMDAT
; _this$ = ecx

; 1226 : 		return (_Right(_Myhead));

  00000	8b 41 04	 mov	 eax, DWORD PTR [ecx+4]
  00003	83 c0 08	 add	 eax, 8

; 1227 : 		}

  00006	c3		 ret	 0
?_Rmost@?$_Tree@V?$_Tmap_traits@V?$basic_string@DU?$char_traits@D@std@@V?$allocator@D@2@@std@@PAUtagBillItem@CBillClient@@U?$less@V?$basic_string@DU?$char_traits@D@std@@V?$allocator@D@2@@std@@@2@V?$allocator@U?$pair@$$CBV?$basic_string@DU?$char_traits@D@std@@V?$allocator@D@2@@std@@PAUtagBillItem@CBillClient@@@std@@@2@$0A@@std@@@std@@IBEAAPAU_Node@?$_Tree_nod@V?$_Tmap_traits@V?$basic_string@DU?$char_traits@D@std@@V?$allocator@D@2@@std@@PAUtagBillItem@CBillClient@@U?$less@V?$basic_string@DU?$char_traits@D@std@@V?$allocator@D@2@@std@@@2@V?$allocator@U?$pair@$$CBV?$basic_string@DU?$char_traits@D@std@@V?$allocator@D@2@@std@@PAUtagBillItem@CBillClient@@@std@@@2@$0A@@std@@@2@XZ ENDP ; std::_Tree<std::_Tmap_traits<std::basic_string<char,std::char_traits<char>,std::allocator<char> >,CBillClient::tagBillItem *,std::less<std::basic_string<char,std::char_traits<char>,std::allocator<char> > >,std::allocator<std::pair<std::basic_string<char,std::char_traits<char>,std::allocator<char> > const ,CBillClient::tagBillItem *> >,0> >::_Rmost
_TEXT	ENDS
PUBLIC	?_Root@?$_Tree@V?$_Tmap_traits@V?$basic_string@DU?$char_traits@D@std@@V?$allocator@D@2@@std@@PAUtagBillItem@CBillClient@@U?$less@V?$basic_string@DU?$char_traits@D@std@@V?$allocator@D@2@@std@@@2@V?$allocator@U?$pair@$$CBV?$basic_string@DU?$char_traits@D@std@@V?$allocator@D@2@@std@@PAUtagBillItem@CBillClient@@@std@@@2@$0A@@std@@@std@@IBEAAPAU_Node@?$_Tree_nod@V?$_Tmap_traits@V?$basic_string@DU?$char_traits@D@std@@V?$allocator@D@2@@std@@PAUtagBillItem@CBillClient@@U?$less@V?$basic_string@DU?$char_traits@D@std@@V?$allocator@D@2@@std@@@2@V?$allocator@U?$pair@$$CBV?$basic_string@DU?$char_traits@D@std@@V?$allocator@D@2@@std@@PAUtagBillItem@CBillClient@@@std@@@2@$0A@@std@@@2@XZ ; std::_Tree<std::_Tmap_traits<std::basic_string<char,std::char_traits<char>,std::allocator<char> >,CBillClient::tagBillItem *,std::less<std::basic_string<char,std::char_traits<char>,std::allocator<char> > >,std::allocator<std::pair<std::basic_string<char,std::char_traits<char>,std::allocator<char> > const ,CBillClient::tagBillItem *> >,0> >::_Root
; Function compile flags: /Ogtpy
;	COMDAT ?_Root@?$_Tree@V?$_Tmap_traits@V?$basic_string@DU?$char_traits@D@std@@V?$allocator@D@2@@std@@PAUtagBillItem@CBillClient@@U?$less@V?$basic_string@DU?$char_traits@D@std@@V?$allocator@D@2@@std@@@2@V?$allocator@U?$pair@$$CBV?$basic_string@DU?$char_traits@D@std@@V?$allocator@D@2@@std@@PAUtagBillItem@CBillClient@@@std@@@2@$0A@@std@@@std@@IBEAAPAU_Node@?$_Tree_nod@V?$_Tmap_traits@V?$basic_string@DU?$char_traits@D@std@@V?$allocator@D@2@@std@@PAUtagBillItem@CBillClient@@U?$less@V?$basic_string@DU?$char_traits@D@std@@V?$allocator@D@2@@std@@@2@V?$allocator@U?$pair@$$CBV?$basic_string@DU?$char_traits@D@std@@V?$allocator@D@2@@std@@PAUtagBillItem@CBillClient@@@std@@@2@$0A@@std@@@2@XZ
_TEXT	SEGMENT
?_Root@?$_Tree@V?$_Tmap_traits@V?$basic_string@DU?$char_traits@D@std@@V?$allocator@D@2@@std@@PAUtagBillItem@CBillClient@@U?$less@V?$basic_string@DU?$char_traits@D@std@@V?$allocator@D@2@@std@@@2@V?$allocator@U?$pair@$$CBV?$basic_string@DU?$char_traits@D@std@@V?$allocator@D@2@@std@@PAUtagBillItem@CBillClient@@@std@@@2@$0A@@std@@@std@@IBEAAPAU_Node@?$_Tree_nod@V?$_Tmap_traits@V?$basic_string@DU?$char_traits@D@std@@V?$allocator@D@2@@std@@PAUtagBillItem@CBillClient@@U?$less@V?$basic_string@DU?$char_traits@D@std@@V?$allocator@D@2@@std@@@2@V?$allocator@U?$pair@$$CBV?$basic_string@DU?$char_traits@D@std@@V?$allocator@D@2@@std@@PAUtagBillItem@CBillClient@@@std@@@2@$0A@@std@@@2@XZ PROC ; std::_Tree<std::_Tmap_traits<std::basic_string<char,std::char_traits<char>,std::allocator<char> >,CBillClient::tagBillItem *,std::less<std::basic_string<char,std::char_traits<char>,std::allocator<char> > >,std::allocator<std::pair<std::basic_string<char,std::char_traits<char>,std::allocator<char> > const ,CBillClient::tagBillItem *> >,0> >::_Root, COMDAT
; _this$ = ecx

; 1231 : 		return (_Parent(_Myhead));

  00000	8b 41 04	 mov	 eax, DWORD PTR [ecx+4]
  00003	83 c0 04	 add	 eax, 4

; 1232 : 		}

  00006	c3		 ret	 0
?_Root@?$_Tree@V?$_Tmap_traits@V?$basic_string@DU?$char_traits@D@std@@V?$allocator@D@2@@std@@PAUtagBillItem@CBillClient@@U?$less@V?$basic_string@DU?$char_traits@D@std@@V?$allocator@D@2@@std@@@2@V?$allocator@U?$pair@$$CBV?$basic_string@DU?$char_traits@D@std@@V?$allocator@D@2@@std@@PAUtagBillItem@CBillClient@@@std@@@2@$0A@@std@@@std@@IBEAAPAU_Node@?$_Tree_nod@V?$_Tmap_traits@V?$basic_string@DU?$char_traits@D@std@@V?$allocator@D@2@@std@@PAUtagBillItem@CBillClient@@U?$less@V?$basic_string@DU?$char_traits@D@std@@V?$allocator@D@2@@std@@@2@V?$allocator@U?$pair@$$CBV?$basic_string@DU?$char_traits@D@std@@V?$allocator@D@2@@std@@PAUtagBillItem@CBillClient@@@std@@@2@$0A@@std@@@2@XZ ENDP ; std::_Tree<std::_Tmap_traits<std::basic_string<char,std::char_traits<char>,std::allocator<char> >,CBillClient::tagBillItem *,std::less<std::basic_string<char,std::char_traits<char>,std::allocator<char> > >,std::allocator<std::pair<std::basic_string<char,std::char_traits<char>,std::allocator<char> > const ,CBillClient::tagBillItem *> >,0> >::_Root
_TEXT	ENDS
PUBLIC	?_Rrotate@?$_Tree@V?$_Tmap_traits@V?$basic_string@DU?$char_traits@D@std@@V?$allocator@D@2@@std@@PAUtagBillItem@CBillClient@@U?$less@V?$basic_string@DU?$char_traits@D@std@@V?$allocator@D@2@@std@@@2@V?$allocator@U?$pair@$$CBV?$basic_string@DU?$char_traits@D@std@@V?$allocator@D@2@@std@@PAUtagBillItem@CBillClient@@@std@@@2@$0A@@std@@@std@@IAEXPAU_Node@?$_Tree_nod@V?$_Tmap_traits@V?$basic_string@DU?$char_traits@D@std@@V?$allocator@D@2@@std@@PAUtagBillItem@CBillClient@@U?$less@V?$basic_string@DU?$char_traits@D@std@@V?$allocator@D@2@@std@@@2@V?$allocator@U?$pair@$$CBV?$basic_string@DU?$char_traits@D@std@@V?$allocator@D@2@@std@@PAUtagBillItem@CBillClient@@@std@@@2@$0A@@std@@@2@@Z ; std::_Tree<std::_Tmap_traits<std::basic_string<char,std::char_traits<char>,std::allocator<char> >,CBillClient::tagBillItem *,std::less<std::basic_string<char,std::char_traits<char>,std::allocator<char> > >,std::allocator<std::pair<std::basic_string<char,std::char_traits<char>,std::allocator<char> > const ,CBillClient::tagBillItem *> >,0> >::_Rrotate
; Function compile flags: /Ogtpy
;	COMDAT ?_Rrotate@?$_Tree@V?$_Tmap_traits@V?$basic_string@DU?$char_traits@D@std@@V?$allocator@D@2@@std@@PAUtagBillItem@CBillClient@@U?$less@V?$basic_string@DU?$char_traits@D@std@@V?$allocator@D@2@@std@@@2@V?$allocator@U?$pair@$$CBV?$basic_string@DU?$char_traits@D@std@@V?$allocator@D@2@@std@@PAUtagBillItem@CBillClient@@@std@@@2@$0A@@std@@@std@@IAEXPAU_Node@?$_Tree_nod@V?$_Tmap_traits@V?$basic_string@DU?$char_traits@D@std@@V?$allocator@D@2@@std@@PAUtagBillItem@CBillClient@@U?$less@V?$basic_string@DU?$char_traits@D@std@@V?$allocator@D@2@@std@@@2@V?$allocator@U?$pair@$$CBV?$basic_string@DU?$char_traits@D@std@@V?$allocator@D@2@@std@@PAUtagBillItem@CBillClient@@@std@@@2@$0A@@std@@@2@@Z
_TEXT	SEGMENT
__Wherenode$ = 8					; size = 4
?_Rrotate@?$_Tree@V?$_Tmap_traits@V?$basic_string@DU?$char_traits@D@std@@V?$allocator@D@2@@std@@PAUtagBillItem@CBillClient@@U?$less@V?$basic_string@DU?$char_traits@D@std@@V?$allocator@D@2@@std@@@2@V?$allocator@U?$pair@$$CBV?$basic_string@DU?$char_traits@D@std@@V?$allocator@D@2@@std@@PAUtagBillItem@CBillClient@@@std@@@2@$0A@@std@@@std@@IAEXPAU_Node@?$_Tree_nod@V?$_Tmap_traits@V?$basic_string@DU?$char_traits@D@std@@V?$allocator@D@2@@std@@PAUtagBillItem@CBillClient@@U?$less@V?$basic_string@DU?$char_traits@D@std@@V?$allocator@D@2@@std@@@2@V?$allocator@U?$pair@$$CBV?$basic_string@DU?$char_traits@D@std@@V?$allocator@D@2@@std@@PAUtagBillItem@CBillClient@@@std@@@2@$0A@@std@@@2@@Z PROC ; std::_Tree<std::_Tmap_traits<std::basic_string<char,std::char_traits<char>,std::allocator<char> >,CBillClient::tagBillItem *,std::less<std::basic_string<char,std::char_traits<char>,std::allocator<char> > >,std::allocator<std::pair<std::basic_string<char,std::char_traits<char>,std::allocator<char> > const ,CBillClient::tagBillItem *> >,0> >::_Rrotate, COMDAT
; _this$ = ecx

; 1236 : 		_Nodeptr _Pnode = _Left(_Wherenode);

  00000	8b 54 24 04	 mov	 edx, DWORD PTR __Wherenode$[esp-4]
  00004	8b 02		 mov	 eax, DWORD PTR [edx]
  00006	56		 push	 esi

; 1237 : 		_Left(_Wherenode) = _Right(_Pnode);

  00007	8b 70 08	 mov	 esi, DWORD PTR [eax+8]
  0000a	89 32		 mov	 DWORD PTR [edx], esi

; 1238 : 
; 1239 : 		if (!_Isnil(_Right(_Pnode)))

  0000c	8b 70 08	 mov	 esi, DWORD PTR [eax+8]
  0000f	80 7e 2d 00	 cmp	 BYTE PTR [esi+45], 0
  00013	75 03		 jne	 SHORT $LN5@Rrotate

; 1240 : 			_Parent(_Right(_Pnode)) = _Wherenode;

  00015	89 56 04	 mov	 DWORD PTR [esi+4], edx
$LN5@Rrotate:

; 1241 : 		_Parent(_Pnode) = _Parent(_Wherenode);

  00018	8b 72 04	 mov	 esi, DWORD PTR [edx+4]
  0001b	89 70 04	 mov	 DWORD PTR [eax+4], esi

; 1242 : 
; 1243 : 		if (_Wherenode == _Root())

  0001e	8b 49 04	 mov	 ecx, DWORD PTR [ecx+4]
  00021	3b 51 04	 cmp	 edx, DWORD PTR [ecx+4]
  00024	5e		 pop	 esi
  00025	75 0c		 jne	 SHORT $LN4@Rrotate

; 1244 : 			_Root() = _Pnode;

  00027	89 41 04	 mov	 DWORD PTR [ecx+4], eax

; 1249 : 
; 1250 : 		_Right(_Pnode) = _Wherenode;

  0002a	89 50 08	 mov	 DWORD PTR [eax+8], edx

; 1251 : 		_Parent(_Wherenode) = _Pnode;

  0002d	89 42 04	 mov	 DWORD PTR [edx+4], eax

; 1252 : 		}

  00030	c2 04 00	 ret	 4
$LN4@Rrotate:

; 1245 : 		else if (_Wherenode == _Right(_Parent(_Wherenode)))

  00033	8b 4a 04	 mov	 ecx, DWORD PTR [edx+4]
  00036	3b 51 08	 cmp	 edx, DWORD PTR [ecx+8]
  00039	75 0c		 jne	 SHORT $LN2@Rrotate

; 1246 : 			_Right(_Parent(_Wherenode)) = _Pnode;

  0003b	89 41 08	 mov	 DWORD PTR [ecx+8], eax

; 1249 : 
; 1250 : 		_Right(_Pnode) = _Wherenode;

  0003e	89 50 08	 mov	 DWORD PTR [eax+8], edx

; 1251 : 		_Parent(_Wherenode) = _Pnode;

  00041	89 42 04	 mov	 DWORD PTR [edx+4], eax

; 1252 : 		}

  00044	c2 04 00	 ret	 4
$LN2@Rrotate:

; 1247 : 		else
; 1248 : 			_Left(_Parent(_Wherenode)) = _Pnode;

  00047	89 01		 mov	 DWORD PTR [ecx], eax

; 1249 : 
; 1250 : 		_Right(_Pnode) = _Wherenode;

  00049	89 50 08	 mov	 DWORD PTR [eax+8], edx

; 1251 : 		_Parent(_Wherenode) = _Pnode;

  0004c	89 42 04	 mov	 DWORD PTR [edx+4], eax

; 1252 : 		}

  0004f	c2 04 00	 ret	 4
?_Rrotate@?$_Tree@V?$_Tmap_traits@V?$basic_string@DU?$char_traits@D@std@@V?$allocator@D@2@@std@@PAUtagBillItem@CBillClient@@U?$less@V?$basic_string@DU?$char_traits@D@std@@V?$allocator@D@2@@std@@@2@V?$allocator@U?$pair@$$CBV?$basic_string@DU?$char_traits@D@std@@V?$allocator@D@2@@std@@PAUtagBillItem@CBillClient@@@std@@@2@$0A@@std@@@std@@IAEXPAU_Node@?$_Tree_nod@V?$_Tmap_traits@V?$basic_string@DU?$char_traits@D@std@@V?$allocator@D@2@@std@@PAUtagBillItem@CBillClient@@U?$less@V?$basic_string@DU?$char_traits@D@std@@V?$allocator@D@2@@std@@@2@V?$allocator@U?$pair@$$CBV?$basic_string@DU?$char_traits@D@std@@V?$allocator@D@2@@std@@PAUtagBillItem@CBillClient@@@std@@@2@$0A@@std@@@2@@Z ENDP ; std::_Tree<std::_Tmap_traits<std::basic_string<char,std::char_traits<char>,std::allocator<char> >,CBillClient::tagBillItem *,std::less<std::basic_string<char,std::char_traits<char>,std::allocator<char> > >,std::allocator<std::pair<std::basic_string<char,std::char_traits<char>,std::allocator<char> > const ,CBillClient::tagBillItem *> >,0> >::_Rrotate
_TEXT	ENDS
PUBLIC	??0?$allocator@U?$pair@$$CBV?$basic_string@DU?$char_traits@D@std@@V?$allocator@D@2@@std@@PAUtagBillItem@CBillClient@@@std@@@std@@QAE@XZ ; std::allocator<std::pair<std::basic_string<char,std::char_traits<char>,std::allocator<char> > const ,CBillClient::tagBillItem *> >::allocator<std::pair<std::basic_string<char,std::char_traits<char>,std::allocator<char> > const ,CBillClient::tagBillItem *> >
; Function compile flags: /Ogtpy
; File d:\program files\microsoft visual studio 8\vc\include\xmemory
;	COMDAT ??0?$allocator@U?$pair@$$CBV?$basic_string@DU?$char_traits@D@std@@V?$allocator@D@2@@std@@PAUtagBillItem@CBillClient@@@std@@@std@@QAE@XZ
_TEXT	SEGMENT
??0?$allocator@U?$pair@$$CBV?$basic_string@DU?$char_traits@D@std@@V?$allocator@D@2@@std@@PAUtagBillItem@CBillClient@@@std@@@std@@QAE@XZ PROC ; std::allocator<std::pair<std::basic_string<char,std::char_traits<char>,std::allocator<char> > const ,CBillClient::tagBillItem *> >::allocator<std::pair<std::basic_string<char,std::char_traits<char>,std::allocator<char> > const ,CBillClient::tagBillItem *> >, COMDAT
; _this$ = ecx

; 120  : 	allocator() _THROW0()

  00000	8b c1		 mov	 eax, ecx

; 121  : 		{	// construct default allocator (do nothing)
; 122  : 		}

  00002	c3		 ret	 0
??0?$allocator@U?$pair@$$CBV?$basic_string@DU?$char_traits@D@std@@V?$allocator@D@2@@std@@PAUtagBillItem@CBillClient@@@std@@@std@@QAE@XZ ENDP ; std::allocator<std::pair<std::basic_string<char,std::char_traits<char>,std::allocator<char> > const ,CBillClient::tagBillItem *> >::allocator<std::pair<std::basic_string<char,std::char_traits<char>,std::allocator<char> > const ,CBillClient::tagBillItem *> >
_TEXT	ENDS
PUBLIC	?deallocate@?$allocator@U_Node@?$_Tree_nod@V?$_Tmap_traits@V?$basic_string@DU?$char_traits@D@std@@V?$allocator@D@2@@std@@PAUtagBillItem@CBillClient@@U?$less@V?$basic_string@DU?$char_traits@D@std@@V?$allocator@D@2@@std@@@2@V?$allocator@U?$pair@$$CBV?$basic_string@DU?$char_traits@D@std@@V?$allocator@D@2@@std@@PAUtagBillItem@CBillClient@@@std@@@2@$0A@@std@@@std@@@std@@QAEXPAU_Node@?$_Tree_nod@V?$_Tmap_traits@V?$basic_string@DU?$char_traits@D@std@@V?$allocator@D@2@@std@@PAUtagBillItem@CBillClient@@U?$less@V?$basic_string@DU?$char_traits@D@std@@V?$allocator@D@2@@std@@@2@V?$allocator@U?$pair@$$CBV?$basic_string@DU?$char_traits@D@std@@V?$allocator@D@2@@std@@PAUtagBillItem@CBillClient@@@std@@@2@$0A@@std@@@2@I@Z ; std::allocator<std::_Tree_nod<std::_Tmap_traits<std::basic_string<char,std::char_traits<char>,std::allocator<char> >,CBillClient::tagBillItem *,std::less<std::basic_string<char,std::char_traits<char>,std::allocator<char> > >,std::allocator<std::pair<std::basic_string<char,std::char_traits<char>,std::allocator<char> > const ,CBillClient::tagBillItem *> >,0> >::_Node>::deallocate
; Function compile flags: /Ogtpy
;	COMDAT ?deallocate@?$allocator@U_Node@?$_Tree_nod@V?$_Tmap_traits@V?$basic_string@DU?$char_traits@D@std@@V?$allocator@D@2@@std@@PAUtagBillItem@CBillClient@@U?$less@V?$basic_string@DU?$char_traits@D@std@@V?$allocator@D@2@@std@@@2@V?$allocator@U?$pair@$$CBV?$basic_string@DU?$char_traits@D@std@@V?$allocator@D@2@@std@@PAUtagBillItem@CBillClient@@@std@@@2@$0A@@std@@@std@@@std@@QAEXPAU_Node@?$_Tree_nod@V?$_Tmap_traits@V?$basic_string@DU?$char_traits@D@std@@V?$allocator@D@2@@std@@PAUtagBillItem@CBillClient@@U?$less@V?$basic_string@DU?$char_traits@D@std@@V?$allocator@D@2@@std@@@2@V?$allocator@U?$pair@$$CBV?$basic_string@DU?$char_traits@D@std@@V?$allocator@D@2@@std@@PAUtagBillItem@CBillClient@@@std@@@2@$0A@@std@@@2@I@Z
_TEXT	SEGMENT
__Ptr$ = 8						; size = 4
___formal$ = 12						; size = 4
?deallocate@?$allocator@U_Node@?$_Tree_nod@V?$_Tmap_traits@V?$basic_string@DU?$char_traits@D@std@@V?$allocator@D@2@@std@@PAUtagBillItem@CBillClient@@U?$less@V?$basic_string@DU?$char_traits@D@std@@V?$allocator@D@2@@std@@@2@V?$allocator@U?$pair@$$CBV?$basic_string@DU?$char_traits@D@std@@V?$allocator@D@2@@std@@PAUtagBillItem@CBillClient@@@std@@@2@$0A@@std@@@std@@@std@@QAEXPAU_Node@?$_Tree_nod@V?$_Tmap_traits@V?$basic_string@DU?$char_traits@D@std@@V?$allocator@D@2@@std@@PAUtagBillItem@CBillClient@@U?$less@V?$basic_string@DU?$char_traits@D@std@@V?$allocator@D@2@@std@@@2@V?$allocator@U?$pair@$$CBV?$basic_string@DU?$char_traits@D@std@@V?$allocator@D@2@@std@@PAUtagBillItem@CBillClient@@@std@@@2@$0A@@std@@@2@I@Z PROC ; std::allocator<std::_Tree_nod<std::_Tmap_traits<std::basic_string<char,std::char_traits<char>,std::allocator<char> >,CBillClient::tagBillItem *,std::less<std::basic_string<char,std::char_traits<char>,std::allocator<char> > >,std::allocator<std::pair<std::basic_string<char,std::char_traits<char>,std::allocator<char> > const ,CBillClient::tagBillItem *> >,0> >::_Node>::deallocate, COMDAT
; _this$ = ecx

; 141  : 		::operator delete(_Ptr);

  00000	8b 44 24 04	 mov	 eax, DWORD PTR __Ptr$[esp-4]
  00004	50		 push	 eax
  00005	e8 00 00 00 00	 call	 ??3@YAXPAX@Z		; operator delete
  0000a	59		 pop	 ecx

; 142  : 		}

  0000b	c2 08 00	 ret	 8
?deallocate@?$allocator@U_Node@?$_Tree_nod@V?$_Tmap_traits@V?$basic_string@DU?$char_traits@D@std@@V?$allocator@D@2@@std@@PAUtagBillItem@CBillClient@@U?$less@V?$basic_string@DU?$char_traits@D@std@@V?$allocator@D@2@@std@@@2@V?$allocator@U?$pair@$$CBV?$basic_string@DU?$char_traits@D@std@@V?$allocator@D@2@@std@@PAUtagBillItem@CBillClient@@@std@@@2@$0A@@std@@@std@@@std@@QAEXPAU_Node@?$_Tree_nod@V?$_Tmap_traits@V?$basic_string@DU?$char_traits@D@std@@V?$allocator@D@2@@std@@PAUtagBillItem@CBillClient@@U?$less@V?$basic_string@DU?$char_traits@D@std@@V?$allocator@D@2@@std@@@2@V?$allocator@U?$pair@$$CBV?$basic_string@DU?$char_traits@D@std@@V?$allocator@D@2@@std@@PAUtagBillItem@CBillClient@@@std@@@2@$0A@@std@@@2@I@Z ENDP ; std::allocator<std::_Tree_nod<std::_Tmap_traits<std::basic_string<char,std::char_traits<char>,std::allocator<char> >,CBillClient::tagBillItem *,std::less<std::basic_string<char,std::char_traits<char>,std::allocator<char> > >,std::allocator<std::pair<std::basic_string<char,std::char_traits<char>,std::allocator<char> > const ,CBillClient::tagBillItem *> >,0> >::_Node>::deallocate
_TEXT	ENDS
PUBLIC	?_Myptr@?$basic_string@DU?$char_traits@D@std@@V?$allocator@D@2@@std@@IBEPBDXZ ; std::basic_string<char,std::char_traits<char>,std::allocator<char> >::_Myptr
; Function compile flags: /Ogtpy
; File d:\program files\microsoft visual studio 8\vc\include\xstring
;	COMDAT ?_Myptr@?$basic_string@DU?$char_traits@D@std@@V?$allocator@D@2@@std@@IBEPBDXZ
_TEXT	SEGMENT
?_Myptr@?$basic_string@DU?$char_traits@D@std@@V?$allocator@D@2@@std@@IBEPBDXZ PROC ; std::basic_string<char,std::char_traits<char>,std::allocator<char> >::_Myptr, COMDAT
; _this$ = ecx

; 2093 : 		return (_BUF_SIZE <= _Myres ? _Bx._Ptr : _Bx._Buf);

  00000	83 79 18 10	 cmp	 DWORD PTR [ecx+24], 16	; 00000010H
  00004	72 04		 jb	 SHORT $LN3@Myptr
  00006	8b 41 04	 mov	 eax, DWORD PTR [ecx+4]

; 2094 : 		}

  00009	c3		 ret	 0
$LN3@Myptr:

; 2093 : 		return (_BUF_SIZE <= _Myres ? _Bx._Ptr : _Bx._Buf);

  0000a	8d 41 04	 lea	 eax, DWORD PTR [ecx+4]

; 2094 : 		}

  0000d	c3		 ret	 0
?_Myptr@?$basic_string@DU?$char_traits@D@std@@V?$allocator@D@2@@std@@IBEPBDXZ ENDP ; std::basic_string<char,std::char_traits<char>,std::allocator<char> >::_Myptr
_TEXT	ENDS
PUBLIC	??0?$allocator@D@std@@QAE@XZ			; std::allocator<char>::allocator<char>
; Function compile flags: /Ogtpy
; File d:\program files\microsoft visual studio 8\vc\include\xmemory
;	COMDAT ??0?$allocator@D@std@@QAE@XZ
_TEXT	SEGMENT
??0?$allocator@D@std@@QAE@XZ PROC			; std::allocator<char>::allocator<char>, COMDAT
; _this$ = ecx

; 120  : 	allocator() _THROW0()

  00000	8b c1		 mov	 eax, ecx

; 121  : 		{	// construct default allocator (do nothing)
; 122  : 		}

  00002	c3		 ret	 0
??0?$allocator@D@std@@QAE@XZ ENDP			; std::allocator<char>::allocator<char>
_TEXT	ENDS
PUBLIC	?deallocate@?$allocator@D@std@@QAEXPADI@Z	; std::allocator<char>::deallocate
; Function compile flags: /Ogtpy
;	COMDAT ?deallocate@?$allocator@D@std@@QAEXPADI@Z
_TEXT	SEGMENT
__Ptr$ = 8						; size = 4
___formal$ = 12						; size = 4
?deallocate@?$allocator@D@std@@QAEXPADI@Z PROC		; std::allocator<char>::deallocate, COMDAT
; _this$ = ecx

; 141  : 		::operator delete(_Ptr);

  00000	8b 44 24 04	 mov	 eax, DWORD PTR __Ptr$[esp-4]
  00004	50		 push	 eax
  00005	e8 00 00 00 00	 call	 ??3@YAXPAX@Z		; operator delete
  0000a	59		 pop	 ecx

; 142  : 		}

  0000b	c2 08 00	 ret	 8
?deallocate@?$allocator@D@std@@QAEXPADI@Z ENDP		; std::allocator<char>::deallocate
_TEXT	ENDS
PUBLIC	?_Myptr@?$basic_string@DU?$char_traits@D@std@@V?$allocator@D@2@@std@@IAEPADXZ ; std::basic_string<char,std::char_traits<char>,std::allocator<char> >::_Myptr
; Function compile flags: /Ogtpy
; File d:\program files\microsoft visual studio 8\vc\include\xstring
;	COMDAT ?_Myptr@?$basic_string@DU?$char_traits@D@std@@V?$allocator@D@2@@std@@IAEPADXZ
_TEXT	SEGMENT
?_Myptr@?$basic_string@DU?$char_traits@D@std@@V?$allocator@D@2@@std@@IAEPADXZ PROC ; std::basic_string<char,std::char_traits<char>,std::allocator<char> >::_Myptr, COMDAT
; _this$ = ecx

; 2088 : 		return (_BUF_SIZE <= _Myres ? _Bx._Ptr : _Bx._Buf);

  00000	83 79 18 10	 cmp	 DWORD PTR [ecx+24], 16	; 00000010H
  00004	72 04		 jb	 SHORT $LN3@Myptr@2
  00006	8b 41 04	 mov	 eax, DWORD PTR [ecx+4]

; 2089 : 		}

  00009	c3		 ret	 0
$LN3@Myptr@2:

; 2088 : 		return (_BUF_SIZE <= _Myres ? _Bx._Ptr : _Bx._Buf);

  0000a	8d 41 04	 lea	 eax, DWORD PTR [ecx+4]

; 2089 : 		}

  0000d	c3		 ret	 0
?_Myptr@?$basic_string@DU?$char_traits@D@std@@V?$allocator@D@2@@std@@IAEPADXZ ENDP ; std::basic_string<char,std::char_traits<char>,std::allocator<char> >::_Myptr
_TEXT	ENDS
PUBLIC	??0?$allocator@D@std@@QAE@ABV01@@Z		; std::allocator<char>::allocator<char>
; Function compile flags: /Ogtpy
; File d:\program files\microsoft visual studio 8\vc\include\xmemory
;	COMDAT ??0?$allocator@D@std@@QAE@ABV01@@Z
_TEXT	SEGMENT
___formal$ = 8						; size = 4
??0?$allocator@D@std@@QAE@ABV01@@Z PROC			; std::allocator<char>::allocator<char>, COMDAT
; _this$ = ecx

; 124  : 	allocator(const allocator<_Ty>&) _THROW0()

  00000	8b c1		 mov	 eax, ecx

; 125  : 		{	// construct by copying (do nothing)
; 126  : 		}

  00002	c2 04 00	 ret	 4
??0?$allocator@D@std@@QAE@ABV01@@Z ENDP			; std::allocator<char>::allocator<char>
_TEXT	ENDS
PUBLIC	??8const_iterator@?$_Tree@V?$_Tmap_traits@V?$basic_string@DU?$char_traits@D@std@@V?$allocator@D@2@@std@@PAUtagBillItem@CBillClient@@U?$less@V?$basic_string@DU?$char_traits@D@std@@V?$allocator@D@2@@std@@@2@V?$allocator@U?$pair@$$CBV?$basic_string@DU?$char_traits@D@std@@V?$allocator@D@2@@std@@PAUtagBillItem@CBillClient@@@std@@@2@$0A@@std@@@std@@QBE_NABV012@@Z ; std::_Tree<std::_Tmap_traits<std::basic_string<char,std::char_traits<char>,std::allocator<char> >,CBillClient::tagBillItem *,std::less<std::basic_string<char,std::char_traits<char>,std::allocator<char> > >,std::allocator<std::pair<std::basic_string<char,std::char_traits<char>,std::allocator<char> > const ,CBillClient::tagBillItem *> >,0> >::const_iterator::operator==
EXTRN	__invalid_parameter_noinfo:PROC
; Function compile flags: /Ogtpy
; File d:\program files\microsoft visual studio 8\vc\include\xtree
;	COMDAT ??8const_iterator@?$_Tree@V?$_Tmap_traits@V?$basic_string@DU?$char_traits@D@std@@V?$allocator@D@2@@std@@PAUtagBillItem@CBillClient@@U?$less@V?$basic_string@DU?$char_traits@D@std@@V?$allocator@D@2@@std@@@2@V?$allocator@U?$pair@$$CBV?$basic_string@DU?$char_traits@D@std@@V?$allocator@D@2@@std@@PAUtagBillItem@CBillClient@@@std@@@2@$0A@@std@@@std@@QBE_NABV012@@Z
_TEXT	SEGMENT
__Right$ = 8						; size = 4
??8const_iterator@?$_Tree@V?$_Tmap_traits@V?$basic_string@DU?$char_traits@D@std@@V?$allocator@D@2@@std@@PAUtagBillItem@CBillClient@@U?$less@V?$basic_string@DU?$char_traits@D@std@@V?$allocator@D@2@@std@@@2@V?$allocator@U?$pair@$$CBV?$basic_string@DU?$char_traits@D@std@@V?$allocator@D@2@@std@@PAUtagBillItem@CBillClient@@@std@@@2@$0A@@std@@@std@@QBE_NABV012@@Z PROC ; std::_Tree<std::_Tmap_traits<std::basic_string<char,std::char_traits<char>,std::allocator<char> >,CBillClient::tagBillItem *,std::less<std::basic_string<char,std::char_traits<char>,std::allocator<char> > >,std::allocator<std::pair<std::basic_string<char,std::char_traits<char>,std::allocator<char> > const ,CBillClient::tagBillItem *> >,0> >::const_iterator::operator==, COMDAT
; _this$ = ecx

; 288  : 			{	// test for iterator equality

  00000	56		 push	 esi
  00001	8b f1		 mov	 esi, ecx

; 289  : 
; 290  :  #if _HAS_ITERATOR_DEBUGGING
; 291  : 			if (this->_Mycont == 0 || this->_Mycont != _Right._Mycont)
; 292  : 				{
; 293  : 				_DEBUG_ERROR("map/set iterators incompatible");
; 294  : 				_SCL_SECURE_INVALID_ARGUMENT;
; 295  : 				}
; 296  :  #else
; 297  : 			_SCL_SECURE_VALIDATE(this->_Mycont != NULL && this->_Mycont == _Right._Mycont);

  00003	8b 06		 mov	 eax, DWORD PTR [esi]
  00005	85 c0		 test	 eax, eax
  00007	57		 push	 edi
  00008	8b 7c 24 0c	 mov	 edi, DWORD PTR __Right$[esp+4]
  0000c	74 04		 je	 SHORT $LN1@operator
  0000e	3b 07		 cmp	 eax, DWORD PTR [edi]
  00010	74 05		 je	 SHORT $LN2@operator
$LN1@operator:
  00012	e8 00 00 00 00	 call	 __invalid_parameter_noinfo
$LN2@operator:

; 298  :  #endif /* _HAS_ITERATOR_DEBUGGING */
; 299  : 
; 300  : 			return (_Ptr == _Right._Ptr);

  00017	8b 46 04	 mov	 eax, DWORD PTR [esi+4]
  0001a	33 c9		 xor	 ecx, ecx
  0001c	3b 47 04	 cmp	 eax, DWORD PTR [edi+4]
  0001f	5f		 pop	 edi
  00020	0f 94 c1	 sete	 cl
  00023	8a c1		 mov	 al, cl
  00025	5e		 pop	 esi

; 301  : 			}

  00026	c2 04 00	 ret	 4
??8const_iterator@?$_Tree@V?$_Tmap_traits@V?$basic_string@DU?$char_traits@D@std@@V?$allocator@D@2@@std@@PAUtagBillItem@CBillClient@@U?$less@V?$basic_string@DU?$char_traits@D@std@@V?$allocator@D@2@@std@@@2@V?$allocator@U?$pair@$$CBV?$basic_string@DU?$char_traits@D@std@@V?$allocator@D@2@@std@@PAUtagBillItem@CBillClient@@@std@@@2@$0A@@std@@@std@@QBE_NABV012@@Z ENDP ; std::_Tree<std::_Tmap_traits<std::basic_string<char,std::char_traits<char>,std::allocator<char> >,CBillClient::tagBillItem *,std::less<std::basic_string<char,std::char_traits<char>,std::allocator<char> > >,std::allocator<std::pair<std::basic_string<char,std::char_traits<char>,std::allocator<char> > const ,CBillClient::tagBillItem *> >,0> >::const_iterator::operator==
_TEXT	ENDS
PUBLIC	?_Mynode@const_iterator@?$_Tree@V?$_Tmap_traits@V?$basic_string@DU?$char_traits@D@std@@V?$allocator@D@2@@std@@PAUtagBillItem@CBillClient@@U?$less@V?$basic_string@DU?$char_traits@D@std@@V?$allocator@D@2@@std@@@2@V?$allocator@U?$pair@$$CBV?$basic_string@DU?$char_traits@D@std@@V?$allocator@D@2@@std@@PAUtagBillItem@CBillClient@@@std@@@2@$0A@@std@@@std@@QBEPAU_Node@?$_Tree_nod@V?$_Tmap_traits@V?$basic_string@DU?$char_traits@D@std@@V?$allocator@D@2@@std@@PAUtagBillItem@CBillClient@@U?$less@V?$basic_string@DU?$char_traits@D@std@@V?$allocator@D@2@@std@@@2@V?$allocator@U?$pair@$$CBV?$basic_string@DU?$char_traits@D@std@@V?$allocator@D@2@@std@@PAUtagBillItem@CBillClient@@@std@@@2@$0A@@std@@@3@XZ ; std::_Tree<std::_Tmap_traits<std::basic_string<char,std::char_traits<char>,std::allocator<char> >,CBillClient::tagBillItem *,std::less<std::basic_string<char,std::char_traits<char>,std::allocator<char> > >,std::allocator<std::pair<std::basic_string<char,std::char_traits<char>,std::allocator<char> > const ,CBillClient::tagBillItem *> >,0> >::const_iterator::_Mynode
; Function compile flags: /Ogtpy
;	COMDAT ?_Mynode@const_iterator@?$_Tree@V?$_Tmap_traits@V?$basic_string@DU?$char_traits@D@std@@V?$allocator@D@2@@std@@PAUtagBillItem@CBillClient@@U?$less@V?$basic_string@DU?$char_traits@D@std@@V?$allocator@D@2@@std@@@2@V?$allocator@U?$pair@$$CBV?$basic_string@DU?$char_traits@D@std@@V?$allocator@D@2@@std@@PAUtagBillItem@CBillClient@@@std@@@2@$0A@@std@@@std@@QBEPAU_Node@?$_Tree_nod@V?$_Tmap_traits@V?$basic_string@DU?$char_traits@D@std@@V?$allocator@D@2@@std@@PAUtagBillItem@CBillClient@@U?$less@V?$basic_string@DU?$char_traits@D@std@@V?$allocator@D@2@@std@@@2@V?$allocator@U?$pair@$$CBV?$basic_string@DU?$char_traits@D@std@@V?$allocator@D@2@@std@@PAUtagBillItem@CBillClient@@@std@@@2@$0A@@std@@@3@XZ
_TEXT	SEGMENT
?_Mynode@const_iterator@?$_Tree@V?$_Tmap_traits@V?$basic_string@DU?$char_traits@D@std@@V?$allocator@D@2@@std@@PAUtagBillItem@CBillClient@@U?$less@V?$basic_string@DU?$char_traits@D@std@@V?$allocator@D@2@@std@@@2@V?$allocator@U?$pair@$$CBV?$basic_string@DU?$char_traits@D@std@@V?$allocator@D@2@@std@@PAUtagBillItem@CBillClient@@@std@@@2@$0A@@std@@@std@@QBEPAU_Node@?$_Tree_nod@V?$_Tmap_traits@V?$basic_string@DU?$char_traits@D@std@@V?$allocator@D@2@@std@@PAUtagBillItem@CBillClient@@U?$less@V?$basic_string@DU?$char_traits@D@std@@V?$allocator@D@2@@std@@@2@V?$allocator@U?$pair@$$CBV?$basic_string@DU?$char_traits@D@std@@V?$allocator@D@2@@std@@PAUtagBillItem@CBillClient@@@std@@@2@$0A@@std@@@3@XZ PROC ; std::_Tree<std::_Tmap_traits<std::basic_string<char,std::char_traits<char>,std::allocator<char> >,CBillClient::tagBillItem *,std::less<std::basic_string<char,std::char_traits<char>,std::allocator<char> > >,std::allocator<std::pair<std::basic_string<char,std::char_traits<char>,std::allocator<char> > const ,CBillClient::tagBillItem *> >,0> >::const_iterator::_Mynode, COMDAT
; _this$ = ecx

; 396  : 			return (_Ptr);

  00000	8b 41 04	 mov	 eax, DWORD PTR [ecx+4]

; 397  : 			}

  00003	c3		 ret	 0
?_Mynode@const_iterator@?$_Tree@V?$_Tmap_traits@V?$basic_string@DU?$char_traits@D@std@@V?$allocator@D@2@@std@@PAUtagBillItem@CBillClient@@U?$less@V?$basic_string@DU?$char_traits@D@std@@V?$allocator@D@2@@std@@@2@V?$allocator@U?$pair@$$CBV?$basic_string@DU?$char_traits@D@std@@V?$allocator@D@2@@std@@PAUtagBillItem@CBillClient@@@std@@@2@$0A@@std@@@std@@QBEPAU_Node@?$_Tree_nod@V?$_Tmap_traits@V?$basic_string@DU?$char_traits@D@std@@V?$allocator@D@2@@std@@PAUtagBillItem@CBillClient@@U?$less@V?$basic_string@DU?$char_traits@D@std@@V?$allocator@D@2@@std@@@2@V?$allocator@U?$pair@$$CBV?$basic_string@DU?$char_traits@D@std@@V?$allocator@D@2@@std@@PAUtagBillItem@CBillClient@@@std@@@2@$0A@@std@@@3@XZ ENDP ; std::_Tree<std::_Tmap_traits<std::basic_string<char,std::char_traits<char>,std::allocator<char> >,CBillClient::tagBillItem *,std::less<std::basic_string<char,std::char_traits<char>,std::allocator<char> > >,std::allocator<std::pair<std::basic_string<char,std::char_traits<char>,std::allocator<char> > const ,CBillClient::tagBillItem *> >,0> >::const_iterator::_Mynode
_TEXT	ENDS
PUBLIC	?_Myval@?$_Tree@V?$_Tmap_traits@V?$basic_string@DU?$char_traits@D@std@@V?$allocator@D@2@@std@@PAUtagBillItem@CBillClient@@U?$less@V?$basic_string@DU?$char_traits@D@std@@V?$allocator@D@2@@std@@@2@V?$allocator@U?$pair@$$CBV?$basic_string@DU?$char_traits@D@std@@V?$allocator@D@2@@std@@PAUtagBillItem@CBillClient@@@std@@@2@$0A@@std@@@std@@KAAAU?$pair@$$CBV?$basic_string@DU?$char_traits@D@std@@V?$allocator@D@2@@std@@PAUtagBillItem@CBillClient@@@2@PAU_Node@?$_Tree_nod@V?$_Tmap_traits@V?$basic_string@DU?$char_traits@D@std@@V?$allocator@D@2@@std@@PAUtagBillItem@CBillClient@@U?$less@V?$basic_string@DU?$char_traits@D@std@@V?$allocator@D@2@@std@@@2@V?$allocator@U?$pair@$$CBV?$basic_string@DU?$char_traits@D@std@@V?$allocator@D@2@@std@@PAUtagBillItem@CBillClient@@@std@@@2@$0A@@std@@@2@@Z ; std::_Tree<std::_Tmap_traits<std::basic_string<char,std::char_traits<char>,std::allocator<char> >,CBillClient::tagBillItem *,std::less<std::basic_string<char,std::char_traits<char>,std::allocator<char> > >,std::allocator<std::pair<std::basic_string<char,std::char_traits<char>,std::allocator<char> > const ,CBillClient::tagBillItem *> >,0> >::_Myval
; Function compile flags: /Ogtpy
;	COMDAT ?_Myval@?$_Tree@V?$_Tmap_traits@V?$basic_string@DU?$char_traits@D@std@@V?$allocator@D@2@@std@@PAUtagBillItem@CBillClient@@U?$less@V?$basic_string@DU?$char_traits@D@std@@V?$allocator@D@2@@std@@@2@V?$allocator@U?$pair@$$CBV?$basic_string@DU?$char_traits@D@std@@V?$allocator@D@2@@std@@PAUtagBillItem@CBillClient@@@std@@@2@$0A@@std@@@std@@KAAAU?$pair@$$CBV?$basic_string@DU?$char_traits@D@std@@V?$allocator@D@2@@std@@PAUtagBillItem@CBillClient@@@2@PAU_Node@?$_Tree_nod@V?$_Tmap_traits@V?$basic_string@DU?$char_traits@D@std@@V?$allocator@D@2@@std@@PAUtagBillItem@CBillClient@@U?$less@V?$basic_string@DU?$char_traits@D@std@@V?$allocator@D@2@@std@@@2@V?$allocator@U?$pair@$$CBV?$basic_string@DU?$char_traits@D@std@@V?$allocator@D@2@@std@@PAUtagBillItem@CBillClient@@@std@@@2@$0A@@std@@@2@@Z
_TEXT	SEGMENT
__Pnode$ = 8						; size = 4
?_Myval@?$_Tree@V?$_Tmap_traits@V?$basic_string@DU?$char_traits@D@std@@V?$allocator@D@2@@std@@PAUtagBillItem@CBillClient@@U?$less@V?$basic_string@DU?$char_traits@D@std@@V?$allocator@D@2@@std@@@2@V?$allocator@U?$pair@$$CBV?$basic_string@DU?$char_traits@D@std@@V?$allocator@D@2@@std@@PAUtagBillItem@CBillClient@@@std@@@2@$0A@@std@@@std@@KAAAU?$pair@$$CBV?$basic_string@DU?$char_traits@D@std@@V?$allocator@D@2@@std@@PAUtagBillItem@CBillClient@@@2@PAU_Node@?$_Tree_nod@V?$_Tmap_traits@V?$basic_string@DU?$char_traits@D@std@@V?$allocator@D@2@@std@@PAUtagBillItem@CBillClient@@U?$less@V?$basic_string@DU?$char_traits@D@std@@V?$allocator@D@2@@std@@@2@V?$allocator@U?$pair@$$CBV?$basic_string@DU?$char_traits@D@std@@V?$allocator@D@2@@std@@PAUtagBillItem@CBillClient@@@std@@@2@$0A@@std@@@2@@Z PROC ; std::_Tree<std::_Tmap_traits<std::basic_string<char,std::char_traits<char>,std::allocator<char> >,CBillClient::tagBillItem *,std::less<std::basic_string<char,std::char_traits<char>,std::allocator<char> > >,std::allocator<std::pair<std::basic_string<char,std::char_traits<char>,std::allocator<char> > const ,CBillClient::tagBillItem *> >,0> >::_Myval, COMDAT

; 171  : 		return ((_Vref)(*_Pnode)._Myval);

  00000	8b 44 24 04	 mov	 eax, DWORD PTR __Pnode$[esp-4]
  00004	83 c0 0c	 add	 eax, 12			; 0000000cH

; 172  : 		}

  00007	c3		 ret	 0
?_Myval@?$_Tree@V?$_Tmap_traits@V?$basic_string@DU?$char_traits@D@std@@V?$allocator@D@2@@std@@PAUtagBillItem@CBillClient@@U?$less@V?$basic_string@DU?$char_traits@D@std@@V?$allocator@D@2@@std@@@2@V?$allocator@U?$pair@$$CBV?$basic_string@DU?$char_traits@D@std@@V?$allocator@D@2@@std@@PAUtagBillItem@CBillClient@@@std@@@2@$0A@@std@@@std@@KAAAU?$pair@$$CBV?$basic_string@DU?$char_traits@D@std@@V?$allocator@D@2@@std@@PAUtagBillItem@CBillClient@@@2@PAU_Node@?$_Tree_nod@V?$_Tmap_traits@V?$basic_string@DU?$char_traits@D@std@@V?$allocator@D@2@@std@@PAUtagBillItem@CBillClient@@U?$less@V?$basic_string@DU?$char_traits@D@std@@V?$allocator@D@2@@std@@@2@V?$allocator@U?$pair@$$CBV?$basic_string@DU?$char_traits@D@std@@V?$allocator@D@2@@std@@PAUtagBillItem@CBillClient@@@std@@@2@$0A@@std@@@2@@Z ENDP ; std::_Tree<std::_Tmap_traits<std::basic_string<char,std::char_traits<char>,std::allocator<char> >,CBillClient::tagBillItem *,std::less<std::basic_string<char,std::char_traits<char>,std::allocator<char> > >,std::allocator<std::pair<std::basic_string<char,std::char_traits<char>,std::allocator<char> > const ,CBillClient::tagBillItem *> >,0> >::_Myval
_TEXT	ENDS
PUBLIC	?size@?$_Tree@V?$_Tmap_traits@V?$basic_string@DU?$char_traits@D@std@@V?$allocator@D@2@@std@@PAUtagBillItem@CBillClient@@U?$less@V?$basic_string@DU?$char_traits@D@std@@V?$allocator@D@2@@std@@@2@V?$allocator@U?$pair@$$CBV?$basic_string@DU?$char_traits@D@std@@V?$allocator@D@2@@std@@PAUtagBillItem@CBillClient@@@std@@@2@$0A@@std@@@std@@QBEIXZ ; std::_Tree<std::_Tmap_traits<std::basic_string<char,std::char_traits<char>,std::allocator<char> >,CBillClient::tagBillItem *,std::less<std::basic_string<char,std::char_traits<char>,std::allocator<char> > >,std::allocator<std::pair<std::basic_string<char,std::char_traits<char>,std::allocator<char> > const ,CBillClient::tagBillItem *> >,0> >::size
; Function compile flags: /Ogtpy
;	COMDAT ?size@?$_Tree@V?$_Tmap_traits@V?$basic_string@DU?$char_traits@D@std@@V?$allocator@D@2@@std@@PAUtagBillItem@CBillClient@@U?$less@V?$basic_string@DU?$char_traits@D@std@@V?$allocator@D@2@@std@@@2@V?$allocator@U?$pair@$$CBV?$basic_string@DU?$char_traits@D@std@@V?$allocator@D@2@@std@@PAUtagBillItem@CBillClient@@@std@@@2@$0A@@std@@@std@@QBEIXZ
_TEXT	SEGMENT
?size@?$_Tree@V?$_Tmap_traits@V?$basic_string@DU?$char_traits@D@std@@V?$allocator@D@2@@std@@PAUtagBillItem@CBillClient@@U?$less@V?$basic_string@DU?$char_traits@D@std@@V?$allocator@D@2@@std@@@2@V?$allocator@U?$pair@$$CBV?$basic_string@DU?$char_traits@D@std@@V?$allocator@D@2@@std@@PAUtagBillItem@CBillClient@@@std@@@2@$0A@@std@@@std@@QBEIXZ PROC ; std::_Tree<std::_Tmap_traits<std::basic_string<char,std::char_traits<char>,std::allocator<char> >,CBillClient::tagBillItem *,std::less<std::basic_string<char,std::char_traits<char>,std::allocator<char> > >,std::allocator<std::pair<std::basic_string<char,std::char_traits<char>,std::allocator<char> > const ,CBillClient::tagBillItem *> >,0> >::size, COMDAT
; _this$ = ecx

; 582  : 		return (_Mysize);

  00000	8b 41 08	 mov	 eax, DWORD PTR [ecx+8]

; 583  : 		}

  00003	c3		 ret	 0
?size@?$_Tree@V?$_Tmap_traits@V?$basic_string@DU?$char_traits@D@std@@V?$allocator@D@2@@std@@PAUtagBillItem@CBillClient@@U?$less@V?$basic_string@DU?$char_traits@D@std@@V?$allocator@D@2@@std@@@2@V?$allocator@U?$pair@$$CBV?$basic_string@DU?$char_traits@D@std@@V?$allocator@D@2@@std@@PAUtagBillItem@CBillClient@@@std@@@2@$0A@@std@@@std@@QBEIXZ ENDP ; std::_Tree<std::_Tmap_traits<std::basic_string<char,std::char_traits<char>,std::allocator<char> >,CBillClient::tagBillItem *,std::less<std::basic_string<char,std::char_traits<char>,std::allocator<char> > >,std::allocator<std::pair<std::basic_string<char,std::char_traits<char>,std::allocator<char> > const ,CBillClient::tagBillItem *> >,0> >::size
_TEXT	ENDS
PUBLIC	?_Kfn@?$_Tmap_traits@V?$basic_string@DU?$char_traits@D@std@@V?$allocator@D@2@@std@@PAUtagBillItem@CBillClient@@U?$less@V?$basic_string@DU?$char_traits@D@std@@V?$allocator@D@2@@std@@@2@V?$allocator@U?$pair@$$CBV?$basic_string@DU?$char_traits@D@std@@V?$allocator@D@2@@std@@PAUtagBillItem@CBillClient@@@std@@@2@$0A@@std@@SAABV?$basic_string@DU?$char_traits@D@std@@V?$allocator@D@2@@2@ABU?$pair@$$CBV?$basic_string@DU?$char_traits@D@std@@V?$allocator@D@2@@std@@PAUtagBillItem@CBillClient@@@2@@Z ; std::_Tmap_traits<std::basic_string<char,std::char_traits<char>,std::allocator<char> >,CBillClient::tagBillItem *,std::less<std::basic_string<char,std::char_traits<char>,std::allocator<char> > >,std::allocator<std::pair<std::basic_string<char,std::char_traits<char>,std::allocator<char> > const ,CBillClient::tagBillItem *> >,0>::_Kfn
; Function compile flags: /Ogtpy
; File d:\program files\microsoft visual studio 8\vc\include\map
;	COMDAT ?_Kfn@?$_Tmap_traits@V?$basic_string@DU?$char_traits@D@std@@V?$allocator@D@2@@std@@PAUtagBillItem@CBillClient@@U?$less@V?$basic_string@DU?$char_traits@D@std@@V?$allocator@D@2@@std@@@2@V?$allocator@U?$pair@$$CBV?$basic_string@DU?$char_traits@D@std@@V?$allocator@D@2@@std@@PAUtagBillItem@CBillClient@@@std@@@2@$0A@@std@@SAABV?$basic_string@DU?$char_traits@D@std@@V?$allocator@D@2@@2@ABU?$pair@$$CBV?$basic_string@DU?$char_traits@D@std@@V?$allocator@D@2@@std@@PAUtagBillItem@CBillClient@@@2@@Z
_TEXT	SEGMENT
__Val$ = 8						; size = 4
?_Kfn@?$_Tmap_traits@V?$basic_string@DU?$char_traits@D@std@@V?$allocator@D@2@@std@@PAUtagBillItem@CBillClient@@U?$less@V?$basic_string@DU?$char_traits@D@std@@V?$allocator@D@2@@std@@@2@V?$allocator@U?$pair@$$CBV?$basic_string@DU?$char_traits@D@std@@V?$allocator@D@2@@std@@PAUtagBillItem@CBillClient@@@std@@@2@$0A@@std@@SAABV?$basic_string@DU?$char_traits@D@std@@V?$allocator@D@2@@2@ABU?$pair@$$CBV?$basic_string@DU?$char_traits@D@std@@V?$allocator@D@2@@std@@PAUtagBillItem@CBillClient@@@2@@Z PROC ; std::_Tmap_traits<std::basic_string<char,std::char_traits<char>,std::allocator<char> >,CBillClient::tagBillItem *,std::less<std::basic_string<char,std::char_traits<char>,std::allocator<char> > >,std::allocator<std::pair<std::basic_string<char,std::char_traits<char>,std::allocator<char> > const ,CBillClient::tagBillItem *> >,0>::_Kfn, COMDAT

; 69   : 		return (_Val.first);

  00000	8b 44 24 04	 mov	 eax, DWORD PTR __Val$[esp-4]

; 70   : 		}

  00004	c3		 ret	 0
?_Kfn@?$_Tmap_traits@V?$basic_string@DU?$char_traits@D@std@@V?$allocator@D@2@@std@@PAUtagBillItem@CBillClient@@U?$less@V?$basic_string@DU?$char_traits@D@std@@V?$allocator@D@2@@std@@@2@V?$allocator@U?$pair@$$CBV?$basic_string@DU?$char_traits@D@std@@V?$allocator@D@2@@std@@PAUtagBillItem@CBillClient@@@std@@@2@$0A@@std@@SAABV?$basic_string@DU?$char_traits@D@std@@V?$allocator@D@2@@2@ABU?$pair@$$CBV?$basic_string@DU?$char_traits@D@std@@V?$allocator@D@2@@std@@PAUtagBillItem@CBillClient@@@2@@Z ENDP ; std::_Tmap_traits<std::basic_string<char,std::char_traits<char>,std::allocator<char> >,CBillClient::tagBillItem *,std::less<std::basic_string<char,std::char_traits<char>,std::allocator<char> > >,std::allocator<std::pair<std::basic_string<char,std::char_traits<char>,std::allocator<char> > const ,CBillClient::tagBillItem *> >,0>::_Kfn
_TEXT	ENDS
PUBLIC	??0?$allocator@U?$pair@$$CBV?$basic_string@DU?$char_traits@D@std@@V?$allocator@D@2@@std@@PAUtagBillItem@CBillClient@@@std@@@std@@QAE@ABV01@@Z ; std::allocator<std::pair<std::basic_string<char,std::char_traits<char>,std::allocator<char> > const ,CBillClient::tagBillItem *> >::allocator<std::pair<std::basic_string<char,std::char_traits<char>,std::allocator<char> > const ,CBillClient::tagBillItem *> >
; Function compile flags: /Ogtpy
; File d:\program files\microsoft visual studio 8\vc\include\xmemory
;	COMDAT ??0?$allocator@U?$pair@$$CBV?$basic_string@DU?$char_traits@D@std@@V?$allocator@D@2@@std@@PAUtagBillItem@CBillClient@@@std@@@std@@QAE@ABV01@@Z
_TEXT	SEGMENT
___formal$ = 8						; size = 4
??0?$allocator@U?$pair@$$CBV?$basic_string@DU?$char_traits@D@std@@V?$allocator@D@2@@std@@PAUtagBillItem@CBillClient@@@std@@@std@@QAE@ABV01@@Z PROC ; std::allocator<std::pair<std::basic_string<char,std::char_traits<char>,std::allocator<char> > const ,CBillClient::tagBillItem *> >::allocator<std::pair<std::basic_string<char,std::char_traits<char>,std::allocator<char> > const ,CBillClient::tagBillItem *> >, COMDAT
; _this$ = ecx

; 124  : 	allocator(const allocator<_Ty>&) _THROW0()

  00000	8b c1		 mov	 eax, ecx

; 125  : 		{	// construct by copying (do nothing)
; 126  : 		}

  00002	c2 04 00	 ret	 4
??0?$allocator@U?$pair@$$CBV?$basic_string@DU?$char_traits@D@std@@V?$allocator@D@2@@std@@PAUtagBillItem@CBillClient@@@std@@@std@@QAE@ABV01@@Z ENDP ; std::allocator<std::pair<std::basic_string<char,std::char_traits<char>,std::allocator<char> > const ,CBillClient::tagBillItem *> >::allocator<std::pair<std::basic_string<char,std::char_traits<char>,std::allocator<char> > const ,CBillClient::tagBillItem *> >
_TEXT	ENDS
PUBLIC	?max_size@?$allocator@D@std@@QBEIXZ		; std::allocator<char>::max_size
; Function compile flags: /Ogtpy
;	COMDAT ?max_size@?$allocator@D@std@@QBEIXZ
_TEXT	SEGMENT
?max_size@?$allocator@D@std@@QBEIXZ PROC		; std::allocator<char>::max_size, COMDAT
; _this$ = ecx

; 166  : 		_SIZT _Count = (_SIZT)(-1) / sizeof (_Ty);
; 167  : 		return (0 < _Count ? _Count : 1);

  00000	83 c8 ff	 or	 eax, -1

; 168  : 		}

  00003	c3		 ret	 0
?max_size@?$allocator@D@std@@QBEIXZ ENDP		; std::allocator<char>::max_size
_TEXT	ENDS
PUBLIC	__TI2?AVbad_alloc@std@@
PUBLIC	??$_Allocate@D@std@@YAPADIPAD@Z			; std::_Allocate<char>
PUBLIC	__CTA2?AVbad_alloc@std@@
PUBLIC	__CT??_R0?AVbad_alloc@std@@@8??0bad_alloc@std@@QAE@ABV01@@Z12
PUBLIC	??0bad_alloc@std@@QAE@ABV01@@Z			; std::bad_alloc::bad_alloc
PUBLIC	__CT??_R0?AVexception@std@@@8??0exception@std@@QAE@ABV01@@Z12
EXTRN	__CxxThrowException@8:PROC
EXTRN	??0exception@std@@QAE@ABV01@@Z:PROC		; std::exception::exception
;	COMDAT __CT??_R0?AVexception@std@@@8??0exception@std@@QAE@ABV01@@Z12
; File d:\program files\microsoft visual studio 8\vc\include\exception
xdata$x	SEGMENT
__CT??_R0?AVexception@std@@@8??0exception@std@@QAE@ABV01@@Z12 DD 00H
	DD	FLAT:??_R0?AVexception@std@@@8
	DD	00H
	DD	0ffffffffH
	ORG $+4
	DD	0cH
	DD	FLAT:??0exception@std@@QAE@ABV01@@Z
xdata$x	ENDS
;	COMDAT __CT??_R0?AVbad_alloc@std@@@8??0bad_alloc@std@@QAE@ABV01@@Z12
xdata$x	SEGMENT
__CT??_R0?AVbad_alloc@std@@@8??0bad_alloc@std@@QAE@ABV01@@Z12 DD 00H
	DD	FLAT:??_R0?AVbad_alloc@std@@@8
	DD	00H
	DD	0ffffffffH
	ORG $+4
	DD	0cH
	DD	FLAT:??0bad_alloc@std@@QAE@ABV01@@Z
xdata$x	ENDS
;	COMDAT __CTA2?AVbad_alloc@std@@
xdata$x	SEGMENT
__CTA2?AVbad_alloc@std@@ DD 02H
	DD	FLAT:__CT??_R0?AVbad_alloc@std@@@8??0bad_alloc@std@@QAE@ABV01@@Z12
	DD	FLAT:__CT??_R0?AVexception@std@@@8??0exception@std@@QAE@ABV01@@Z12
xdata$x	ENDS
;	COMDAT __TI2?AVbad_alloc@std@@
xdata$x	SEGMENT
__TI2?AVbad_alloc@std@@ DD 00H
	DD	FLAT:??1bad_alloc@std@@UAE@XZ
	DD	00H
	DD	FLAT:__CTA2?AVbad_alloc@std@@
; Function compile flags: /Ogtpy
; File d:\program files\microsoft visual studio 8\vc\include\xmemory
xdata$x	ENDS
;	COMDAT ??$_Allocate@D@std@@YAPADIPAD@Z
_TEXT	SEGMENT
$T261015 = -12						; size = 12
$T261020 = 8						; size = 4
__Count$ = 8						; size = 4
___formal$ = 12						; size = 4
??$_Allocate@D@std@@YAPADIPAD@Z PROC			; std::_Allocate<char>, COMDAT

; 38   : 	if (_Count <= 0)

  00000	8b 4c 24 04	 mov	 ecx, DWORD PTR __Count$[esp-4]
  00004	83 ec 0c	 sub	 esp, 12			; 0000000cH
  00007	85 c9		 test	 ecx, ecx
  00009	77 0f		 ja	 SHORT $LN3@Allocate

; 39   : 		_Count = 0;

  0000b	33 c9		 xor	 ecx, ecx
$LN1@Allocate:

; 42   : 
; 43   : 		// allocate storage for _Count elements of type _Ty
; 44   : 	return ((_Ty _FARQ *)::operator new(_Count * sizeof (_Ty)));

  0000d	51		 push	 ecx
  0000e	e8 00 00 00 00	 call	 ??2@YAPAXI@Z		; operator new
  00013	83 c4 04	 add	 esp, 4

; 45   : 	}

  00016	83 c4 0c	 add	 esp, 12			; 0000000cH
  00019	c3		 ret	 0
$LN3@Allocate:

; 40   : 	else if (((_SIZT)(-1) / _Count) < sizeof (_Ty))

  0001a	83 c8 ff	 or	 eax, -1
  0001d	33 d2		 xor	 edx, edx
  0001f	f7 f1		 div	 ecx
  00021	83 f8 01	 cmp	 eax, 1
  00024	73 e7		 jae	 SHORT $LN1@Allocate

; 41   : 		_THROW_NCEE(std::bad_alloc, NULL);

  00026	8d 44 24 10	 lea	 eax, DWORD PTR $T261020[esp+8]
  0002a	50		 push	 eax
  0002b	8d 4c 24 04	 lea	 ecx, DWORD PTR $T261015[esp+16]
  0002f	c7 44 24 14 00
	00 00 00	 mov	 DWORD PTR $T261020[esp+12], 0
  00037	e8 00 00 00 00	 call	 ??0exception@std@@QAE@ABQBD@Z ; std::exception::exception
  0003c	68 00 00 00 00	 push	 OFFSET __TI2?AVbad_alloc@std@@
  00041	8d 4c 24 04	 lea	 ecx, DWORD PTR $T261015[esp+16]
  00045	51		 push	 ecx
  00046	c7 44 24 08 00
	00 00 00	 mov	 DWORD PTR $T261015[esp+20], OFFSET ??_7bad_alloc@std@@6B@
  0004e	e8 00 00 00 00	 call	 __CxxThrowException@8
$LN9@Allocate:
$LN8@Allocate:
  00053	cc		 int	 3
??$_Allocate@D@std@@YAPADIPAD@Z ENDP			; std::_Allocate<char>
_TEXT	ENDS
PUBLIC	??$swap@D@std@@YAXAAD0@Z			; std::swap<char>
; Function compile flags: /Ogtpy
; File d:\program files\microsoft visual studio 8\vc\include\utility
;	COMDAT ??$swap@D@std@@YAXAAD0@Z
_TEXT	SEGMENT
__Left$ = 8						; size = 4
__Right$ = 12						; size = 4
??$swap@D@std@@YAXAAD0@Z PROC				; std::swap<char>, COMDAT

; 18   : 	_Ty _Tmp = _Left;

  00000	8b 44 24 04	 mov	 eax, DWORD PTR __Left$[esp-4]
  00004	8a 08		 mov	 cl, BYTE PTR [eax]
  00006	56		 push	 esi

; 19   : 	_Left = _Right, _Right = _Tmp;

  00007	8b 74 24 0c	 mov	 esi, DWORD PTR __Right$[esp]
  0000b	8a 16		 mov	 dl, BYTE PTR [esi]
  0000d	88 10		 mov	 BYTE PTR [eax], dl
  0000f	88 0e		 mov	 BYTE PTR [esi], cl
  00011	5e		 pop	 esi

; 20   : 	}

  00012	c3		 ret	 0
??$swap@D@std@@YAXAAD0@Z ENDP				; std::swap<char>
; Function compile flags: /Ogtpy
_TEXT	ENDS
;	COMDAT ??0bad_alloc@std@@QAE@ABV01@@Z
_TEXT	SEGMENT
___that$ = 8						; size = 4
??0bad_alloc@std@@QAE@ABV01@@Z PROC			; std::bad_alloc::bad_alloc, COMDAT
; _this$ = ecx
  00000	8b 44 24 04	 mov	 eax, DWORD PTR ___that$[esp-4]
  00004	56		 push	 esi
  00005	50		 push	 eax
  00006	8b f1		 mov	 esi, ecx
  00008	e8 00 00 00 00	 call	 ??0exception@std@@QAE@ABV01@@Z ; std::exception::exception
  0000d	c7 06 00 00 00
	00		 mov	 DWORD PTR [esi], OFFSET ??_7bad_alloc@std@@6B@
  00013	8b c6		 mov	 eax, esi
  00015	5e		 pop	 esi
  00016	c2 04 00	 ret	 4
??0bad_alloc@std@@QAE@ABV01@@Z ENDP			; std::bad_alloc::bad_alloc
_TEXT	ENDS
PUBLIC	??Dconst_iterator@?$_Tree@V?$_Tmap_traits@V?$basic_string@DU?$char_traits@D@std@@V?$allocator@D@2@@std@@PAUtagBillItem@CBillClient@@U?$less@V?$basic_string@DU?$char_traits@D@std@@V?$allocator@D@2@@std@@@2@V?$allocator@U?$pair@$$CBV?$basic_string@DU?$char_traits@D@std@@V?$allocator@D@2@@std@@PAUtagBillItem@CBillClient@@@std@@@2@$0A@@std@@@std@@QBEABU?$pair@$$CBV?$basic_string@DU?$char_traits@D@std@@V?$allocator@D@2@@std@@PAUtagBillItem@CBillClient@@@2@XZ ; std::_Tree<std::_Tmap_traits<std::basic_string<char,std::char_traits<char>,std::allocator<char> >,CBillClient::tagBillItem *,std::less<std::basic_string<char,std::char_traits<char>,std::allocator<char> > >,std::allocator<std::pair<std::basic_string<char,std::char_traits<char>,std::allocator<char> > const ,CBillClient::tagBillItem *> >,0> >::const_iterator::operator*
; Function compile flags: /Ogtpy
; File d:\program files\microsoft visual studio 8\vc\include\xtree
;	COMDAT ??Dconst_iterator@?$_Tree@V?$_Tmap_traits@V?$basic_string@DU?$char_traits@D@std@@V?$allocator@D@2@@std@@PAUtagBillItem@CBillClient@@U?$less@V?$basic_string@DU?$char_traits@D@std@@V?$allocator@D@2@@std@@@2@V?$allocator@U?$pair@$$CBV?$basic_string@DU?$char_traits@D@std@@V?$allocator@D@2@@std@@PAUtagBillItem@CBillClient@@@std@@@2@$0A@@std@@@std@@QBEABU?$pair@$$CBV?$basic_string@DU?$char_traits@D@std@@V?$allocator@D@2@@std@@PAUtagBillItem@CBillClient@@@2@XZ
_TEXT	SEGMENT
??Dconst_iterator@?$_Tree@V?$_Tmap_traits@V?$basic_string@DU?$char_traits@D@std@@V?$allocator@D@2@@std@@PAUtagBillItem@CBillClient@@U?$less@V?$basic_string@DU?$char_traits@D@std@@V?$allocator@D@2@@std@@@2@V?$allocator@U?$pair@$$CBV?$basic_string@DU?$char_traits@D@std@@V?$allocator@D@2@@std@@PAUtagBillItem@CBillClient@@@std@@@2@$0A@@std@@@std@@QBEABU?$pair@$$CBV?$basic_string@DU?$char_traits@D@std@@V?$allocator@D@2@@std@@PAUtagBillItem@CBillClient@@@2@XZ PROC ; std::_Tree<std::_Tmap_traits<std::basic_string<char,std::char_traits<char>,std::allocator<char> >,CBillClient::tagBillItem *,std::less<std::basic_string<char,std::char_traits<char>,std::allocator<char> > >,std::allocator<std::pair<std::basic_string<char,std::char_traits<char>,std::allocator<char> > const ,CBillClient::tagBillItem *> >,0> >::const_iterator::operator*, COMDAT
; _this$ = ecx

; 239  : 			{	// return designated value

  00000	56		 push	 esi
  00001	8b f1		 mov	 esi, ecx

; 240  : 
; 241  :  #if _HAS_ITERATOR_DEBUGGING
; 242  : 			if (this->_Mycont == 0
; 243  : 				|| _Ptr == ((_Myt *)this->_Mycont)->_Myhead)
; 244  : 				{
; 245  : 				_DEBUG_ERROR("map/set iterator not dereferencable");
; 246  : 				_SCL_SECURE_OUT_OF_RANGE;
; 247  : 				}
; 248  :  #else
; 249  : 			_SCL_SECURE_VALIDATE(this->_Mycont != NULL);

  00003	83 3e 00	 cmp	 DWORD PTR [esi], 0
  00006	75 05		 jne	 SHORT $LN2@operator@2
  00008	e8 00 00 00 00	 call	 __invalid_parameter_noinfo
$LN2@operator@2:

; 250  : 			_SCL_SECURE_VALIDATE_RANGE(_Ptr != ((_Myt *)(this->_Mycont))->_Myhead);

  0000d	8b 06		 mov	 eax, DWORD PTR [esi]
  0000f	8b 4e 04	 mov	 ecx, DWORD PTR [esi+4]
  00012	3b 48 04	 cmp	 ecx, DWORD PTR [eax+4]
  00015	75 05		 jne	 SHORT $LN1@operator@2
  00017	e8 00 00 00 00	 call	 __invalid_parameter_noinfo
$LN1@operator@2:

; 251  :  #endif /* _HAS_ITERATOR_DEBUGGING */
; 252  : 
; 253  : 			return (_Myval(_Ptr));

  0001c	8b 46 04	 mov	 eax, DWORD PTR [esi+4]
  0001f	83 c0 0c	 add	 eax, 12			; 0000000cH
  00022	5e		 pop	 esi

; 254  : 			}

  00023	c3		 ret	 0
??Dconst_iterator@?$_Tree@V?$_Tmap_traits@V?$basic_string@DU?$char_traits@D@std@@V?$allocator@D@2@@std@@PAUtagBillItem@CBillClient@@U?$less@V?$basic_string@DU?$char_traits@D@std@@V?$allocator@D@2@@std@@@2@V?$allocator@U?$pair@$$CBV?$basic_string@DU?$char_traits@D@std@@V?$allocator@D@2@@std@@PAUtagBillItem@CBillClient@@@std@@@2@$0A@@std@@@std@@QBEABU?$pair@$$CBV?$basic_string@DU?$char_traits@D@std@@V?$allocator@D@2@@std@@PAUtagBillItem@CBillClient@@@2@XZ ENDP ; std::_Tree<std::_Tmap_traits<std::basic_string<char,std::char_traits<char>,std::allocator<char> >,CBillClient::tagBillItem *,std::less<std::basic_string<char,std::char_traits<char>,std::allocator<char> > >,std::allocator<std::pair<std::basic_string<char,std::char_traits<char>,std::allocator<char> > const ,CBillClient::tagBillItem *> >,0> >::const_iterator::operator*
_TEXT	ENDS
PUBLIC	??0?$_Bidit@U?$pair@$$CBV?$basic_string@DU?$char_traits@D@std@@V?$allocator@D@2@@std@@PAUtagBillItem@CBillClient@@@std@@HPBU12@ABU12@@std@@QAE@XZ ; std::_Bidit<std::pair<std::basic_string<char,std::char_traits<char>,std::allocator<char> > const ,CBillClient::tagBillItem *>,int,std::pair<std::basic_string<char,std::char_traits<char>,std::allocator<char> > const ,CBillClient::tagBillItem *> const *,std::pair<std::basic_string<char,std::char_traits<char>,std::allocator<char> > const ,CBillClient::tagBillItem *> const &>::_Bidit<std::pair<std::basic_string<char,std::char_traits<char>,std::allocator<char> > const ,CBillClient::tagBillItem *>,int,std::pair<std::basic_string<char,std::char_traits<char>,std::allocator<char> > const ,CBillClient::tagBillItem *> const *,std::pair<std::basic_string<char,std::char_traits<char>,std::allocator<char> > const ,CBillClient::tagBillItem *> const &>
; Function compile flags: /Ogtpy
;	COMDAT ??0?$_Bidit@U?$pair@$$CBV?$basic_string@DU?$char_traits@D@std@@V?$allocator@D@2@@std@@PAUtagBillItem@CBillClient@@@std@@HPBU12@ABU12@@std@@QAE@XZ
_TEXT	SEGMENT
??0?$_Bidit@U?$pair@$$CBV?$basic_string@DU?$char_traits@D@std@@V?$allocator@D@2@@std@@PAUtagBillItem@CBillClient@@@std@@HPBU12@ABU12@@std@@QAE@XZ PROC ; std::_Bidit<std::pair<std::basic_string<char,std::char_traits<char>,std::allocator<char> > const ,CBillClient::tagBillItem *>,int,std::pair<std::basic_string<char,std::char_traits<char>,std::allocator<char> > const ,CBillClient::tagBillItem *> const *,std::pair<std::basic_string<char,std::char_traits<char>,std::allocator<char> > const ,CBillClient::tagBillItem *> const &>::_Bidit<std::pair<std::basic_string<char,std::char_traits<char>,std::allocator<char> > const ,CBillClient::tagBillItem *>,int,std::pair<std::basic_string<char,std::char_traits<char>,std::allocator<char> > const ,CBillClient::tagBillItem *> const *,std::pair<std::basic_string<char,std::char_traits<char>,std::allocator<char> > const ,CBillClient::tagBillItem *> const &>, COMDAT
; _this$ = ecx
  00000	8b c1		 mov	 eax, ecx
  00002	c7 00 00 00 00
	00		 mov	 DWORD PTR [eax], 0
  00008	c3		 ret	 0
??0?$_Bidit@U?$pair@$$CBV?$basic_string@DU?$char_traits@D@std@@V?$allocator@D@2@@std@@PAUtagBillItem@CBillClient@@@std@@HPBU12@ABU12@@std@@QAE@XZ ENDP ; std::_Bidit<std::pair<std::basic_string<char,std::char_traits<char>,std::allocator<char> > const ,CBillClient::tagBillItem *>,int,std::pair<std::basic_string<char,std::char_traits<char>,std::allocator<char> > const ,CBillClient::tagBillItem *> const *,std::pair<std::basic_string<char,std::char_traits<char>,std::allocator<char> > const ,CBillClient::tagBillItem *> const &>::_Bidit<std::pair<std::basic_string<char,std::char_traits<char>,std::allocator<char> > const ,CBillClient::tagBillItem *>,int,std::pair<std::basic_string<char,std::char_traits<char>,std::allocator<char> > const ,CBillClient::tagBillItem *> const *,std::pair<std::basic_string<char,std::char_traits<char>,std::allocator<char> > const ,CBillClient::tagBillItem *> const &>
_TEXT	ENDS
PUBLIC	??0const_iterator@?$_Tree@V?$_Tmap_traits@V?$basic_string@DU?$char_traits@D@std@@V?$allocator@D@2@@std@@PAUtagBillItem@CBillClient@@U?$less@V?$basic_string@DU?$char_traits@D@std@@V?$allocator@D@2@@std@@@2@V?$allocator@U?$pair@$$CBV?$basic_string@DU?$char_traits@D@std@@V?$allocator@D@2@@std@@PAUtagBillItem@CBillClient@@@std@@@2@$0A@@std@@@std@@QAE@XZ ; std::_Tree<std::_Tmap_traits<std::basic_string<char,std::char_traits<char>,std::allocator<char> >,CBillClient::tagBillItem *,std::less<std::basic_string<char,std::char_traits<char>,std::allocator<char> > >,std::allocator<std::pair<std::basic_string<char,std::char_traits<char>,std::allocator<char> > const ,CBillClient::tagBillItem *> >,0> >::const_iterator::const_iterator
; Function compile flags: /Ogtpy
;	COMDAT ??0const_iterator@?$_Tree@V?$_Tmap_traits@V?$basic_string@DU?$char_traits@D@std@@V?$allocator@D@2@@std@@PAUtagBillItem@CBillClient@@U?$less@V?$basic_string@DU?$char_traits@D@std@@V?$allocator@D@2@@std@@@2@V?$allocator@U?$pair@$$CBV?$basic_string@DU?$char_traits@D@std@@V?$allocator@D@2@@std@@PAUtagBillItem@CBillClient@@@std@@@2@$0A@@std@@@std@@QAE@XZ
_TEXT	SEGMENT
??0const_iterator@?$_Tree@V?$_Tmap_traits@V?$basic_string@DU?$char_traits@D@std@@V?$allocator@D@2@@std@@PAUtagBillItem@CBillClient@@U?$less@V?$basic_string@DU?$char_traits@D@std@@V?$allocator@D@2@@std@@@2@V?$allocator@U?$pair@$$CBV?$basic_string@DU?$char_traits@D@std@@V?$allocator@D@2@@std@@PAUtagBillItem@CBillClient@@@std@@@2@$0A@@std@@@std@@QAE@XZ PROC ; std::_Tree<std::_Tmap_traits<std::basic_string<char,std::char_traits<char>,std::allocator<char> >,CBillClient::tagBillItem *,std::less<std::basic_string<char,std::char_traits<char>,std::allocator<char> > >,std::allocator<std::pair<std::basic_string<char,std::char_traits<char>,std::allocator<char> > const ,CBillClient::tagBillItem *> >,0> >::const_iterator::const_iterator, COMDAT
; _this$ = ecx

; 207  : 			{	// construct with null node pointer

  00000	8b c1		 mov	 eax, ecx
  00002	c7 00 00 00 00
	00		 mov	 DWORD PTR [eax], 0
  00008	c7 40 04 00 00
	00 00		 mov	 DWORD PTR [eax+4], 0

; 208  : 			}

  0000f	c3		 ret	 0
??0const_iterator@?$_Tree@V?$_Tmap_traits@V?$basic_string@DU?$char_traits@D@std@@V?$allocator@D@2@@std@@PAUtagBillItem@CBillClient@@U?$less@V?$basic_string@DU?$char_traits@D@std@@V?$allocator@D@2@@std@@@2@V?$allocator@U?$pair@$$CBV?$basic_string@DU?$char_traits@D@std@@V?$allocator@D@2@@std@@PAUtagBillItem@CBillClient@@@std@@@2@$0A@@std@@@std@@QAE@XZ ENDP ; std::_Tree<std::_Tmap_traits<std::basic_string<char,std::char_traits<char>,std::allocator<char> >,CBillClient::tagBillItem *,std::less<std::basic_string<char,std::char_traits<char>,std::allocator<char> > >,std::allocator<std::pair<std::basic_string<char,std::char_traits<char>,std::allocator<char> > const ,CBillClient::tagBillItem *> >,0> >::const_iterator::const_iterator
_TEXT	ENDS
PUBLIC	?_Inc@const_iterator@?$_Tree@V?$_Tmap_traits@V?$basic_string@DU?$char_traits@D@std@@V?$allocator@D@2@@std@@PAUtagBillItem@CBillClient@@U?$less@V?$basic_string@DU?$char_traits@D@std@@V?$allocator@D@2@@std@@@2@V?$allocator@U?$pair@$$CBV?$basic_string@DU?$char_traits@D@std@@V?$allocator@D@2@@std@@PAUtagBillItem@CBillClient@@@std@@@2@$0A@@std@@@std@@QAEXXZ ; std::_Tree<std::_Tmap_traits<std::basic_string<char,std::char_traits<char>,std::allocator<char> >,CBillClient::tagBillItem *,std::less<std::basic_string<char,std::char_traits<char>,std::allocator<char> > >,std::allocator<std::pair<std::basic_string<char,std::char_traits<char>,std::allocator<char> > const ,CBillClient::tagBillItem *> >,0> >::const_iterator::_Inc
; Function compile flags: /Ogtpy
;	COMDAT ?_Inc@const_iterator@?$_Tree@V?$_Tmap_traits@V?$basic_string@DU?$char_traits@D@std@@V?$allocator@D@2@@std@@PAUtagBillItem@CBillClient@@U?$less@V?$basic_string@DU?$char_traits@D@std@@V?$allocator@D@2@@std@@@2@V?$allocator@U?$pair@$$CBV?$basic_string@DU?$char_traits@D@std@@V?$allocator@D@2@@std@@PAUtagBillItem@CBillClient@@@std@@@2@$0A@@std@@@std@@QAEXXZ
_TEXT	SEGMENT
?_Inc@const_iterator@?$_Tree@V?$_Tmap_traits@V?$basic_string@DU?$char_traits@D@std@@V?$allocator@D@2@@std@@PAUtagBillItem@CBillClient@@U?$less@V?$basic_string@DU?$char_traits@D@std@@V?$allocator@D@2@@std@@@2@V?$allocator@U?$pair@$$CBV?$basic_string@DU?$char_traits@D@std@@V?$allocator@D@2@@std@@PAUtagBillItem@CBillClient@@@std@@@2@$0A@@std@@@std@@QAEXXZ PROC ; std::_Tree<std::_Tmap_traits<std::basic_string<char,std::char_traits<char>,std::allocator<char> >,CBillClient::tagBillItem *,std::less<std::basic_string<char,std::char_traits<char>,std::allocator<char> > >,std::allocator<std::pair<std::basic_string<char,std::char_traits<char>,std::allocator<char> > const ,CBillClient::tagBillItem *> >,0> >::const_iterator::_Inc, COMDAT
; _this$ = ecx

; 365  : 			{	// move to node with next larger value

  00000	56		 push	 esi
  00001	8b f1		 mov	 esi, ecx

; 366  : 
; 367  :  #if _HAS_ITERATOR_DEBUGGING
; 368  : 			if (this->_Mycont == 0 || _Isnil(_Ptr))
; 369  : 				{
; 370  : 				_DEBUG_ERROR("map/set iterator not incrementable");
; 371  : 				_SCL_SECURE_OUT_OF_RANGE;
; 372  : 				}
; 373  :  #else
; 374  : 			_SCL_SECURE_VALIDATE(this->_Mycont != NULL);

  00003	83 3e 00	 cmp	 DWORD PTR [esi], 0
  00006	75 05		 jne	 SHORT $LN7@Inc
  00008	e8 00 00 00 00	 call	 __invalid_parameter_noinfo
$LN7@Inc:

; 375  : 			if (_Isnil(_Ptr))

  0000d	8b 46 04	 mov	 eax, DWORD PTR [esi+4]
  00010	80 78 2d 00	 cmp	 BYTE PTR [eax+45], 0
  00014	74 06		 je	 SHORT $LN6@Inc
  00016	5e		 pop	 esi

; 376  : 				{
; 377  : 				_SCL_SECURE_OUT_OF_RANGE;

  00017	e9 00 00 00 00	 jmp	 __invalid_parameter_noinfo
$LN6@Inc:

; 378  : 				// end() shouldn't be incremented, don't move if _SCL_SECURE is not turned on
; 379  : 				}
; 380  :  #endif /* _HAS_ITERATOR_DEBUGGING */
; 381  : 
; 382  : 			else if (!_Isnil(_Right(_Ptr)))

  0001c	8b 48 08	 mov	 ecx, DWORD PTR [eax+8]
  0001f	80 79 2d 00	 cmp	 BYTE PTR [ecx+45], 0
  00023	75 1a		 jne	 SHORT $LN35@Inc

; 383  : 				_Ptr = _Min(_Right(_Ptr));	// ==> smallest of right subtree

  00025	8b 01		 mov	 eax, DWORD PTR [ecx]
  00027	80 78 2d 00	 cmp	 BYTE PTR [eax+45], 0
  0002b	75 0d		 jne	 SHORT $LN18@Inc
  0002d	8d 49 00	 npad	 3
$LL19@Inc:
  00030	8b c8		 mov	 ecx, eax
  00032	8b 01		 mov	 eax, DWORD PTR [ecx]
  00034	80 78 2d 00	 cmp	 BYTE PTR [eax+45], 0
  00038	74 f6		 je	 SHORT $LL19@Inc
$LN18@Inc:
  0003a	89 4e 04	 mov	 DWORD PTR [esi+4], ecx
  0003d	5e		 pop	 esi

; 391  : 				}
; 392  : 			}

  0003e	c3		 ret	 0
$LN35@Inc:

; 384  : 			else
; 385  : 				{	// climb looking for right subtree
; 386  : 				_Nodeptr _Pnode;
; 387  : 				while (!_Isnil(_Pnode = _Parent(_Ptr))
; 388  : 					&& _Ptr == _Right(_Pnode))

  0003f	8b 40 04	 mov	 eax, DWORD PTR [eax+4]
  00042	80 78 2d 00	 cmp	 BYTE PTR [eax+45], 0
  00046	75 16		 jne	 SHORT $LN1@Inc
$LL2@Inc:
  00048	8b 4e 04	 mov	 ecx, DWORD PTR [esi+4]
  0004b	3b 48 08	 cmp	 ecx, DWORD PTR [eax+8]
  0004e	75 0e		 jne	 SHORT $LN1@Inc

; 389  : 					_Ptr = _Pnode;	// ==> parent while right subtree

  00050	89 46 04	 mov	 DWORD PTR [esi+4], eax
  00053	8b d0		 mov	 edx, eax
  00055	8b 42 04	 mov	 eax, DWORD PTR [edx+4]
  00058	80 78 2d 00	 cmp	 BYTE PTR [eax+45], 0
  0005c	74 ea		 je	 SHORT $LL2@Inc
$LN1@Inc:

; 390  : 				_Ptr = _Pnode;	// ==> parent (head if end())

  0005e	89 46 04	 mov	 DWORD PTR [esi+4], eax
  00061	5e		 pop	 esi

; 391  : 				}
; 392  : 			}

  00062	c3		 ret	 0
?_Inc@const_iterator@?$_Tree@V?$_Tmap_traits@V?$basic_string@DU?$char_traits@D@std@@V?$allocator@D@2@@std@@PAUtagBillItem@CBillClient@@U?$less@V?$basic_string@DU?$char_traits@D@std@@V?$allocator@D@2@@std@@@2@V?$allocator@U?$pair@$$CBV?$basic_string@DU?$char_traits@D@std@@V?$allocator@D@2@@std@@PAUtagBillItem@CBillClient@@@std@@@2@$0A@@std@@@std@@QAEXXZ ENDP ; std::_Tree<std::_Tmap_traits<std::basic_string<char,std::char_traits<char>,std::allocator<char> >,CBillClient::tagBillItem *,std::less<std::basic_string<char,std::char_traits<char>,std::allocator<char> > >,std::allocator<std::pair<std::basic_string<char,std::char_traits<char>,std::allocator<char> > const ,CBillClient::tagBillItem *> >,0> >::const_iterator::_Inc
_TEXT	ENDS
PUBLIC	??0?$pair@Viterator@?$_Tree@V?$_Tmap_traits@V?$basic_string@DU?$char_traits@D@std@@V?$allocator@D@2@@std@@PAUtagBillItem@CBillClient@@U?$less@V?$basic_string@DU?$char_traits@D@std@@V?$allocator@D@2@@std@@@2@V?$allocator@U?$pair@$$CBV?$basic_string@DU?$char_traits@D@std@@V?$allocator@D@2@@std@@PAUtagBillItem@CBillClient@@@std@@@2@$0A@@std@@@std@@_N@std@@QAE@ABViterator@?$_Tree@V?$_Tmap_traits@V?$basic_string@DU?$char_traits@D@std@@V?$allocator@D@2@@std@@PAUtagBillItem@CBillClient@@U?$less@V?$basic_string@DU?$char_traits@D@std@@V?$allocator@D@2@@std@@@2@V?$allocator@U?$pair@$$CBV?$basic_string@DU?$char_traits@D@std@@V?$allocator@D@2@@std@@PAUtagBillItem@CBillClient@@@std@@@2@$0A@@std@@@1@AB_N@Z ; std::pair<std::_Tree<std::_Tmap_traits<std::basic_string<char,std::char_traits<char>,std::allocator<char> >,CBillClient::tagBillItem *,std::less<std::basic_string<char,std::char_traits<char>,std::allocator<char> > >,std::allocator<std::pair<std::basic_string<char,std::char_traits<char>,std::allocator<char> > const ,CBillClient::tagBillItem *> >,0> >::iterator,bool>::pair<std::_Tree<std::_Tmap_traits<std::basic_string<char,std::char_traits<char>,std::allocator<char> >,CBillClient::tagBillItem *,std::less<std::basic_string<char,std::char_traits<char>,std::allocator<char> > >,std::allocator<std::pair<std::basic_string<char,std::char_traits<char>,std::allocator<char> > const ,CBillClient::tagBillItem *> >,0> >::iterator,bool>
; Function compile flags: /Ogtpy
; File d:\program files\microsoft visual studio 8\vc\include\utility
;	COMDAT ??0?$pair@Viterator@?$_Tree@V?$_Tmap_traits@V?$basic_string@DU?$char_traits@D@std@@V?$allocator@D@2@@std@@PAUtagBillItem@CBillClient@@U?$less@V?$basic_string@DU?$char_traits@D@std@@V?$allocator@D@2@@std@@@2@V?$allocator@U?$pair@$$CBV?$basic_string@DU?$char_traits@D@std@@V?$allocator@D@2@@std@@PAUtagBillItem@CBillClient@@@std@@@2@$0A@@std@@@std@@_N@std@@QAE@ABViterator@?$_Tree@V?$_Tmap_traits@V?$basic_string@DU?$char_traits@D@std@@V?$allocator@D@2@@std@@PAUtagBillItem@CBillClient@@U?$less@V?$basic_string@DU?$char_traits@D@std@@V?$allocator@D@2@@std@@@2@V?$allocator@U?$pair@$$CBV?$basic_string@DU?$char_traits@D@std@@V?$allocator@D@2@@std@@PAUtagBillItem@CBillClient@@@std@@@2@$0A@@std@@@1@AB_N@Z
_TEXT	SEGMENT
__Val1$ = 8						; size = 4
__Val2$ = 12						; size = 4
??0?$pair@Viterator@?$_Tree@V?$_Tmap_traits@V?$basic_string@DU?$char_traits@D@std@@V?$allocator@D@2@@std@@PAUtagBillItem@CBillClient@@U?$less@V?$basic_string@DU?$char_traits@D@std@@V?$allocator@D@2@@std@@@2@V?$allocator@U?$pair@$$CBV?$basic_string@DU?$char_traits@D@std@@V?$allocator@D@2@@std@@PAUtagBillItem@CBillClient@@@std@@@2@$0A@@std@@@std@@_N@std@@QAE@ABViterator@?$_Tree@V?$_Tmap_traits@V?$basic_string@DU?$char_traits@D@std@@V?$allocator@D@2@@std@@PAUtagBillItem@CBillClient@@U?$less@V?$basic_string@DU?$char_traits@D@std@@V?$allocator@D@2@@std@@@2@V?$allocator@U?$pair@$$CBV?$basic_string@DU?$char_traits@D@std@@V?$allocator@D@2@@std@@PAUtagBillItem@CBillClient@@@std@@@2@$0A@@std@@@1@AB_N@Z PROC ; std::pair<std::_Tree<std::_Tmap_traits<std::basic_string<char,std::char_traits<char>,std::allocator<char> >,CBillClient::tagBillItem *,std::less<std::basic_string<char,std::char_traits<char>,std::allocator<char> > >,std::allocator<std::pair<std::basic_string<char,std::char_traits<char>,std::allocator<char> > const ,CBillClient::tagBillItem *> >,0> >::iterator,bool>::pair<std::_Tree<std::_Tmap_traits<std::basic_string<char,std::char_traits<char>,std::allocator<char> >,CBillClient::tagBillItem *,std::less<std::basic_string<char,std::char_traits<char>,std::allocator<char> > >,std::allocator<std::pair<std::basic_string<char,std::char_traits<char>,std::allocator<char> > const ,CBillClient::tagBillItem *> >,0> >::iterator,bool>, COMDAT
; _this$ = ecx

; 37   : 		{	// construct from specified values

  00000	8b c1		 mov	 eax, ecx
  00002	8b 4c 24 04	 mov	 ecx, DWORD PTR __Val1$[esp-4]
  00006	8b 11		 mov	 edx, DWORD PTR [ecx]
  00008	89 10		 mov	 DWORD PTR [eax], edx
  0000a	8b 49 04	 mov	 ecx, DWORD PTR [ecx+4]
  0000d	8b 54 24 08	 mov	 edx, DWORD PTR __Val2$[esp-4]
  00011	89 48 04	 mov	 DWORD PTR [eax+4], ecx
  00014	8a 0a		 mov	 cl, BYTE PTR [edx]
  00016	88 48 08	 mov	 BYTE PTR [eax+8], cl

; 38   : 		}

  00019	c2 08 00	 ret	 8
??0?$pair@Viterator@?$_Tree@V?$_Tmap_traits@V?$basic_string@DU?$char_traits@D@std@@V?$allocator@D@2@@std@@PAUtagBillItem@CBillClient@@U?$less@V?$basic_string@DU?$char_traits@D@std@@V?$allocator@D@2@@std@@@2@V?$allocator@U?$pair@$$CBV?$basic_string@DU?$char_traits@D@std@@V?$allocator@D@2@@std@@PAUtagBillItem@CBillClient@@@std@@@2@$0A@@std@@@std@@_N@std@@QAE@ABViterator@?$_Tree@V?$_Tmap_traits@V?$basic_string@DU?$char_traits@D@std@@V?$allocator@D@2@@std@@PAUtagBillItem@CBillClient@@U?$less@V?$basic_string@DU?$char_traits@D@std@@V?$allocator@D@2@@std@@@2@V?$allocator@U?$pair@$$CBV?$basic_string@DU?$char_traits@D@std@@V?$allocator@D@2@@std@@PAUtagBillItem@CBillClient@@@std@@@2@$0A@@std@@@1@AB_N@Z ENDP ; std::pair<std::_Tree<std::_Tmap_traits<std::basic_string<char,std::char_traits<char>,std::allocator<char> >,CBillClient::tagBillItem *,std::less<std::basic_string<char,std::char_traits<char>,std::allocator<char> > >,std::allocator<std::pair<std::basic_string<char,std::char_traits<char>,std::allocator<char> > const ,CBillClient::tagBillItem *> >,0> >::iterator,bool>::pair<std::_Tree<std::_Tmap_traits<std::basic_string<char,std::char_traits<char>,std::allocator<char> >,CBillClient::tagBillItem *,std::less<std::basic_string<char,std::char_traits<char>,std::allocator<char> > >,std::allocator<std::pair<std::basic_string<char,std::char_traits<char>,std::allocator<char> > const ,CBillClient::tagBillItem *> >,0> >::iterator,bool>
_TEXT	ENDS
PUBLIC	?max_size@?$allocator@U?$pair@$$CBV?$basic_string@DU?$char_traits@D@std@@V?$allocator@D@2@@std@@PAUtagBillItem@CBillClient@@@std@@@std@@QBEIXZ ; std::allocator<std::pair<std::basic_string<char,std::char_traits<char>,std::allocator<char> > const ,CBillClient::tagBillItem *> >::max_size
; Function compile flags: /Ogtpy
; File d:\program files\microsoft visual studio 8\vc\include\xmemory
;	COMDAT ?max_size@?$allocator@U?$pair@$$CBV?$basic_string@DU?$char_traits@D@std@@V?$allocator@D@2@@std@@PAUtagBillItem@CBillClient@@@std@@@std@@QBEIXZ
_TEXT	SEGMENT
?max_size@?$allocator@U?$pair@$$CBV?$basic_string@DU?$char_traits@D@std@@V?$allocator@D@2@@std@@PAUtagBillItem@CBillClient@@@std@@@std@@QBEIXZ PROC ; std::allocator<std::pair<std::basic_string<char,std::char_traits<char>,std::allocator<char> > const ,CBillClient::tagBillItem *> >::max_size, COMDAT
; _this$ = ecx

; 166  : 		_SIZT _Count = (_SIZT)(-1) / sizeof (_Ty);
; 167  : 		return (0 < _Count ? _Count : 1);

  00000	b8 ff ff ff 07	 mov	 eax, 134217727		; 07ffffffH

; 168  : 		}

  00005	c3		 ret	 0
?max_size@?$allocator@U?$pair@$$CBV?$basic_string@DU?$char_traits@D@std@@V?$allocator@D@2@@std@@PAUtagBillItem@CBillClient@@@std@@@std@@QBEIXZ ENDP ; std::allocator<std::pair<std::basic_string<char,std::char_traits<char>,std::allocator<char> > const ,CBillClient::tagBillItem *> >::max_size
_TEXT	ENDS
PUBLIC	?_Dec@const_iterator@?$_Tree@V?$_Tmap_traits@V?$basic_string@DU?$char_traits@D@std@@V?$allocator@D@2@@std@@PAUtagBillItem@CBillClient@@U?$less@V?$basic_string@DU?$char_traits@D@std@@V?$allocator@D@2@@std@@@2@V?$allocator@U?$pair@$$CBV?$basic_string@DU?$char_traits@D@std@@V?$allocator@D@2@@std@@PAUtagBillItem@CBillClient@@@std@@@2@$0A@@std@@@std@@QAEXXZ ; std::_Tree<std::_Tmap_traits<std::basic_string<char,std::char_traits<char>,std::allocator<char> >,CBillClient::tagBillItem *,std::less<std::basic_string<char,std::char_traits<char>,std::allocator<char> > >,std::allocator<std::pair<std::basic_string<char,std::char_traits<char>,std::allocator<char> > const ,CBillClient::tagBillItem *> >,0> >::const_iterator::_Dec
; Function compile flags: /Ogtpy
; File d:\program files\microsoft visual studio 8\vc\include\xtree
;	COMDAT ?_Dec@const_iterator@?$_Tree@V?$_Tmap_traits@V?$basic_string@DU?$char_traits@D@std@@V?$allocator@D@2@@std@@PAUtagBillItem@CBillClient@@U?$less@V?$basic_string@DU?$char_traits@D@std@@V?$allocator@D@2@@std@@@2@V?$allocator@U?$pair@$$CBV?$basic_string@DU?$char_traits@D@std@@V?$allocator@D@2@@std@@PAUtagBillItem@CBillClient@@@std@@@2@$0A@@std@@@std@@QAEXXZ
_TEXT	SEGMENT
?_Dec@const_iterator@?$_Tree@V?$_Tmap_traits@V?$basic_string@DU?$char_traits@D@std@@V?$allocator@D@2@@std@@PAUtagBillItem@CBillClient@@U?$less@V?$basic_string@DU?$char_traits@D@std@@V?$allocator@D@2@@std@@@2@V?$allocator@U?$pair@$$CBV?$basic_string@DU?$char_traits@D@std@@V?$allocator@D@2@@std@@PAUtagBillItem@CBillClient@@@std@@@2@$0A@@std@@@std@@QAEXXZ PROC ; std::_Tree<std::_Tmap_traits<std::basic_string<char,std::char_traits<char>,std::allocator<char> >,CBillClient::tagBillItem *,std::less<std::basic_string<char,std::char_traits<char>,std::allocator<char> > >,std::allocator<std::pair<std::basic_string<char,std::char_traits<char>,std::allocator<char> > const ,CBillClient::tagBillItem *> >,0> >::const_iterator::_Dec, COMDAT
; _this$ = ecx

; 309  : 			{	// move to node with next smaller value

  00000	56		 push	 esi
  00001	8b f1		 mov	 esi, ecx

; 310  : 
; 311  :  #if _HAS_ITERATOR_DEBUGGING
; 312  : 			if (this->_Mycont == 0)
; 313  : 				{
; 314  : 				_DEBUG_ERROR("map/set iterator not decrementable");
; 315  : 				_SCL_SECURE_INVALID_ARGUMENT;
; 316  : 				}
; 317  :  #else
; 318  : 			_SCL_SECURE_VALIDATE(this->_Mycont != NULL);

  00003	83 3e 00	 cmp	 DWORD PTR [esi], 0
  00006	75 05		 jne	 SHORT $LN10@Dec
  00008	e8 00 00 00 00	 call	 __invalid_parameter_noinfo
$LN10@Dec:

; 319  :  #endif /* _HAS_ITERATOR_DEBUGGING */
; 320  : 
; 321  : 			if (_Isnil(_Ptr))

  0000d	8b 46 04	 mov	 eax, DWORD PTR [esi+4]
  00010	80 78 2d 00	 cmp	 BYTE PTR [eax+45], 0
  00014	74 12		 je	 SHORT $LN9@Dec

; 322  : 			{
; 323  : 				_Ptr = _Right(_Ptr);	// end() ==> rightmost

  00016	8b 40 08	 mov	 eax, DWORD PTR [eax+8]
  00019	89 46 04	 mov	 DWORD PTR [esi+4], eax

; 324  :    				if (_Isnil(_Ptr))

  0001c	80 78 2d 00	 cmp	 BYTE PTR [eax+45], 0
  00020	74 65		 je	 SHORT $LN1@Dec
  00022	5e		 pop	 esi

; 325  : #if _HAS_ITERATOR_DEBUGGING
; 326  : 				{
; 327  : 					_DEBUG_ERROR("map/set iterator not decrementable");
; 328  : 					_SCL_SECURE_OUT_OF_RANGE;
; 329  : 				}
; 330  : #elif _SECURE_SCL
; 331  : 				{
; 332  :     				_SCL_SECURE_OUT_OF_RANGE;

  00023	e9 00 00 00 00	 jmp	 __invalid_parameter_noinfo
$LN9@Dec:

; 333  : 				}
; 334  : #else
; 335  : 				return;	// begin() shouldn't be incremented, don't move
; 336  : #endif
; 337  : 			}
; 338  : 			else if (!_Isnil(_Left(_Ptr)))

  00028	8b 08		 mov	 ecx, DWORD PTR [eax]
  0002a	80 79 2d 00	 cmp	 BYTE PTR [ecx+45], 0
  0002e	75 20		 jne	 SHORT $LN44@Dec

; 339  : 				_Ptr = _Max(_Left(_Ptr));	// ==> largest of left subtree

  00030	8b 41 08	 mov	 eax, DWORD PTR [ecx+8]
  00033	80 78 2d 00	 cmp	 BYTE PTR [eax+45], 0
  00037	75 12		 jne	 SHORT $LN25@Dec
  00039	8d a4 24 00 00
	00 00		 npad	 7
$LL26@Dec:
  00040	8b c8		 mov	 ecx, eax
  00042	8b 41 08	 mov	 eax, DWORD PTR [ecx+8]
  00045	80 78 2d 00	 cmp	 BYTE PTR [eax+45], 0
  00049	74 f5		 je	 SHORT $LL26@Dec
$LN25@Dec:
  0004b	89 4e 04	 mov	 DWORD PTR [esi+4], ecx
  0004e	5e		 pop	 esi

; 361  : 				}
; 362  : 			}

  0004f	c3		 ret	 0
$LN44@Dec:

; 340  : 			else
; 341  : 				{	// climb looking for left subtree
; 342  : 				_Nodeptr _Pnode;
; 343  : 				while (!_Isnil(_Pnode = _Parent(_Ptr))
; 344  : 					&& _Ptr == _Left(_Pnode))

  00050	8b 40 04	 mov	 eax, DWORD PTR [eax+4]
  00053	80 78 2d 00	 cmp	 BYTE PTR [eax+45], 0
  00057	75 1c		 jne	 SHORT $LN3@Dec
  00059	8d a4 24 00 00
	00 00		 npad	 7
$LL4@Dec:
  00060	8b 4e 04	 mov	 ecx, DWORD PTR [esi+4]
  00063	3b 08		 cmp	 ecx, DWORD PTR [eax]
  00065	75 0e		 jne	 SHORT $LN3@Dec

; 345  : 					_Ptr = _Pnode;	// ==> parent while left subtree

  00067	89 46 04	 mov	 DWORD PTR [esi+4], eax
  0006a	8b d0		 mov	 edx, eax
  0006c	8b 42 04	 mov	 eax, DWORD PTR [edx+4]
  0006f	80 78 2d 00	 cmp	 BYTE PTR [eax+45], 0
  00073	74 eb		 je	 SHORT $LL4@Dec
$LN3@Dec:

; 346  : 				if (_Isnil(_Ptr))

  00075	8b 4e 04	 mov	 ecx, DWORD PTR [esi+4]
  00078	80 79 2d 00	 cmp	 BYTE PTR [ecx+45], 0
  0007c	74 06		 je	 SHORT $LN2@Dec
  0007e	5e		 pop	 esi

; 347  :  #if _HAS_ITERATOR_DEBUGGING
; 348  :  					{
; 349  : 					_DEBUG_ERROR("map/set iterator not decrementable");
; 350  : 					_SCL_SECURE_OUT_OF_RANGE;
; 351  : 					}
; 352  :  #elif _SECURE_SCL
; 353  : 					{
; 354  : 					_SCL_SECURE_OUT_OF_RANGE;

  0007f	e9 00 00 00 00	 jmp	 __invalid_parameter_noinfo
$LN2@Dec:

; 355  : 					}
; 356  :  #else
; 357  : 					return;	// begin() shouldn't be incremented, don't move
; 358  :  #endif
; 359  : 				else
; 360  : 					_Ptr = _Pnode;	// ==> parent if not head

  00084	89 46 04	 mov	 DWORD PTR [esi+4], eax
$LN1@Dec:
  00087	5e		 pop	 esi

; 361  : 				}
; 362  : 			}

  00088	c3		 ret	 0
?_Dec@const_iterator@?$_Tree@V?$_Tmap_traits@V?$basic_string@DU?$char_traits@D@std@@V?$allocator@D@2@@std@@PAUtagBillItem@CBillClient@@U?$less@V?$basic_string@DU?$char_traits@D@std@@V?$allocator@D@2@@std@@@2@V?$allocator@U?$pair@$$CBV?$basic_string@DU?$char_traits@D@std@@V?$allocator@D@2@@std@@PAUtagBillItem@CBillClient@@@std@@@2@$0A@@std@@@std@@QAEXXZ ENDP ; std::_Tree<std::_Tmap_traits<std::basic_string<char,std::char_traits<char>,std::allocator<char> >,CBillClient::tagBillItem *,std::less<std::basic_string<char,std::char_traits<char>,std::allocator<char> > >,std::allocator<std::pair<std::basic_string<char,std::char_traits<char>,std::allocator<char> > const ,CBillClient::tagBillItem *> >,0> >::const_iterator::_Dec
_TEXT	ENDS
PUBLIC	??0?$_Tmap_traits@V?$basic_string@DU?$char_traits@D@std@@V?$allocator@D@2@@std@@PAUtagBillItem@CBillClient@@U?$less@V?$basic_string@DU?$char_traits@D@std@@V?$allocator@D@2@@std@@@2@V?$allocator@U?$pair@$$CBV?$basic_string@DU?$char_traits@D@std@@V?$allocator@D@2@@std@@PAUtagBillItem@CBillClient@@@std@@@2@$0A@@std@@QAE@U?$less@V?$basic_string@DU?$char_traits@D@std@@V?$allocator@D@2@@std@@@1@@Z ; std::_Tmap_traits<std::basic_string<char,std::char_traits<char>,std::allocator<char> >,CBillClient::tagBillItem *,std::less<std::basic_string<char,std::char_traits<char>,std::allocator<char> > >,std::allocator<std::pair<std::basic_string<char,std::char_traits<char>,std::allocator<char> > const ,CBillClient::tagBillItem *> >,0>::_Tmap_traits<std::basic_string<char,std::char_traits<char>,std::allocator<char> >,CBillClient::tagBillItem *,std::less<std::basic_string<char,std::char_traits<char>,std::allocator<char> > >,std::allocator<std::pair<std::basic_string<char,std::char_traits<char>,std::allocator<char> > const ,CBillClient::tagBillItem *> >,0>
; Function compile flags: /Ogtpy
; File d:\program files\microsoft visual studio 8\vc\include\map
;	COMDAT ??0?$_Tmap_traits@V?$basic_string@DU?$char_traits@D@std@@V?$allocator@D@2@@std@@PAUtagBillItem@CBillClient@@U?$less@V?$basic_string@DU?$char_traits@D@std@@V?$allocator@D@2@@std@@@2@V?$allocator@U?$pair@$$CBV?$basic_string@DU?$char_traits@D@std@@V?$allocator@D@2@@std@@PAUtagBillItem@CBillClient@@@std@@@2@$0A@@std@@QAE@U?$less@V?$basic_string@DU?$char_traits@D@std@@V?$allocator@D@2@@std@@@1@@Z
_TEXT	SEGMENT
__Parg$ = 8						; size = 1
??0?$_Tmap_traits@V?$basic_string@DU?$char_traits@D@std@@V?$allocator@D@2@@std@@PAUtagBillItem@CBillClient@@U?$less@V?$basic_string@DU?$char_traits@D@std@@V?$allocator@D@2@@std@@@2@V?$allocator@U?$pair@$$CBV?$basic_string@DU?$char_traits@D@std@@V?$allocator@D@2@@std@@PAUtagBillItem@CBillClient@@@std@@@2@$0A@@std@@QAE@U?$less@V?$basic_string@DU?$char_traits@D@std@@V?$allocator@D@2@@std@@@1@@Z PROC ; std::_Tmap_traits<std::basic_string<char,std::char_traits<char>,std::allocator<char> >,CBillClient::tagBillItem *,std::less<std::basic_string<char,std::char_traits<char>,std::allocator<char> > >,std::allocator<std::pair<std::basic_string<char,std::char_traits<char>,std::allocator<char> > const ,CBillClient::tagBillItem *> >,0>::_Tmap_traits<std::basic_string<char,std::char_traits<char>,std::allocator<char> >,CBillClient::tagBillItem *,std::less<std::basic_string<char,std::char_traits<char>,std::allocator<char> > >,std::allocator<std::pair<std::basic_string<char,std::char_traits<char>,std::allocator<char> > const ,CBillClient::tagBillItem *> >,0>, COMDAT
; _this$ = ecx

; 43   : 		{	// construct with specified comparator

  00000	8b c1		 mov	 eax, ecx

; 44   : 		}

  00002	c2 04 00	 ret	 4
??0?$_Tmap_traits@V?$basic_string@DU?$char_traits@D@std@@V?$allocator@D@2@@std@@PAUtagBillItem@CBillClient@@U?$less@V?$basic_string@DU?$char_traits@D@std@@V?$allocator@D@2@@std@@@2@V?$allocator@U?$pair@$$CBV?$basic_string@DU?$char_traits@D@std@@V?$allocator@D@2@@std@@PAUtagBillItem@CBillClient@@@std@@@2@$0A@@std@@QAE@U?$less@V?$basic_string@DU?$char_traits@D@std@@V?$allocator@D@2@@std@@@1@@Z ENDP ; std::_Tmap_traits<std::basic_string<char,std::char_traits<char>,std::allocator<char> >,CBillClient::tagBillItem *,std::less<std::basic_string<char,std::char_traits<char>,std::allocator<char> > >,std::allocator<std::pair<std::basic_string<char,std::char_traits<char>,std::allocator<char> > const ,CBillClient::tagBillItem *> >,0>::_Tmap_traits<std::basic_string<char,std::char_traits<char>,std::allocator<char> >,CBillClient::tagBillItem *,std::less<std::basic_string<char,std::char_traits<char>,std::allocator<char> > >,std::allocator<std::pair<std::basic_string<char,std::char_traits<char>,std::allocator<char> > const ,CBillClient::tagBillItem *> >,0>
_TEXT	ENDS
PUBLIC	??$_Char_traits_cat@U?$char_traits@D@std@@@std@@YA?AU_Secure_char_traits_tag@0@XZ ; std::_Char_traits_cat<std::char_traits<char> >
; Function compile flags: /Ogtpy
; File d:\program files\microsoft visual studio 8\vc\include\iosfwd
;	COMDAT ??$_Char_traits_cat@U?$char_traits@D@std@@@std@@YA?AU_Secure_char_traits_tag@0@XZ
_TEXT	SEGMENT
__Secure$ = -1						; size = 1
??$_Char_traits_cat@U?$char_traits@D@std@@@std@@YA?AU_Secure_char_traits_tag@0@XZ PROC ; std::_Char_traits_cat<std::char_traits<char> >, COMDAT

; 568  : 	{

  00000	51		 push	 ecx

; 569  : 		typename _Char_traits_category<_Traits>::_Secure_char_traits _Secure;
; 570  : 		return (_Secure);

  00001	8a 44 24 03	 mov	 al, BYTE PTR __Secure$[esp+4]

; 571  : 	}

  00005	59		 pop	 ecx
  00006	c3		 ret	 0
??$_Char_traits_cat@U?$char_traits@D@std@@@std@@YA?AU_Secure_char_traits_tag@0@XZ ENDP ; std::_Char_traits_cat<std::char_traits<char> >
_TEXT	ENDS
PUBLIC	??$copy_s@U?$char_traits@D@std@@@_Traits_helper@std@@YAPADPADIPBDIU_Secure_char_traits_tag@1@@Z ; std::_Traits_helper::copy_s<std::char_traits<char> >
; Function compile flags: /Ogtpy
;	COMDAT ??$copy_s@U?$char_traits@D@std@@@_Traits_helper@std@@YAPADPADIPBDIU_Secure_char_traits_tag@1@@Z
_TEXT	SEGMENT
__First1$ = 8						; size = 4
__Size$ = 12						; size = 4
__First2$ = 16						; size = 4
__Count$ = 20						; size = 4
___formal$ = 24						; size = 1
??$copy_s@U?$char_traits@D@std@@@_Traits_helper@std@@YAPADPADIPBDIU_Secure_char_traits_tag@1@@Z PROC ; std::_Traits_helper::copy_s<std::char_traits<char> >, COMDAT

; 590  : 		return _Traits::_Copy_s(_First1, _Size, _First2, _Count);

  00000	8b 44 24 10	 mov	 eax, DWORD PTR __Count$[esp-4]
  00004	8b 4c 24 0c	 mov	 ecx, DWORD PTR __First2$[esp-4]
  00008	8b 54 24 08	 mov	 edx, DWORD PTR __Size$[esp-4]
  0000c	56		 push	 esi
  0000d	8b 74 24 08	 mov	 esi, DWORD PTR __First1$[esp]
  00011	50		 push	 eax
  00012	51		 push	 ecx
  00013	52		 push	 edx
  00014	56		 push	 esi
  00015	e8 00 00 00 00	 call	 _memcpy_s
  0001a	83 c4 10	 add	 esp, 16			; 00000010H
  0001d	8b c6		 mov	 eax, esi
  0001f	5e		 pop	 esi

; 591  : 	}

  00020	c3		 ret	 0
??$copy_s@U?$char_traits@D@std@@@_Traits_helper@std@@YAPADPADIPBDIU_Secure_char_traits_tag@1@@Z ENDP ; std::_Traits_helper::copy_s<std::char_traits<char> >
_TEXT	ENDS
PUBLIC	??$move_s@U?$char_traits@D@std@@@_Traits_helper@std@@YAPADPADIPBDIU_Secure_char_traits_tag@1@@Z ; std::_Traits_helper::move_s<std::char_traits<char> >
; Function compile flags: /Ogtpy
;	COMDAT ??$move_s@U?$char_traits@D@std@@@_Traits_helper@std@@YAPADPADIPBDIU_Secure_char_traits_tag@1@@Z
_TEXT	SEGMENT
__First1$ = 8						; size = 4
__Size$ = 12						; size = 4
__First2$ = 16						; size = 4
__Count$ = 20						; size = 4
___formal$ = 24						; size = 1
??$move_s@U?$char_traits@D@std@@@_Traits_helper@std@@YAPADPADIPBDIU_Secure_char_traits_tag@1@@Z PROC ; std::_Traits_helper::move_s<std::char_traits<char> >, COMDAT

; 617  : 		return _Traits::_Move_s(_First1, _Size, _First2, _Count);

  00000	8b 44 24 10	 mov	 eax, DWORD PTR __Count$[esp-4]
  00004	8b 4c 24 0c	 mov	 ecx, DWORD PTR __First2$[esp-4]
  00008	8b 54 24 08	 mov	 edx, DWORD PTR __Size$[esp-4]
  0000c	56		 push	 esi
  0000d	8b 74 24 08	 mov	 esi, DWORD PTR __First1$[esp]
  00011	50		 push	 eax
  00012	51		 push	 ecx
  00013	52		 push	 edx
  00014	56		 push	 esi
  00015	e8 00 00 00 00	 call	 _memmove_s
  0001a	83 c4 10	 add	 esp, 16			; 00000010H
  0001d	8b c6		 mov	 eax, esi
  0001f	5e		 pop	 esi

; 618  : 	}

  00020	c3		 ret	 0
??$move_s@U?$char_traits@D@std@@@_Traits_helper@std@@YAPADPADIPBDIU_Secure_char_traits_tag@1@@Z ENDP ; std::_Traits_helper::move_s<std::char_traits<char> >
_TEXT	ENDS
PUBLIC	??$_Destroy@PAU_Node@?$_Tree_nod@V?$_Tmap_traits@V?$basic_string@DU?$char_traits@D@std@@V?$allocator@D@2@@std@@PAUtagBillItem@CBillClient@@U?$less@V?$basic_string@DU?$char_traits@D@std@@V?$allocator@D@2@@std@@@2@V?$allocator@U?$pair@$$CBV?$basic_string@DU?$char_traits@D@std@@V?$allocator@D@2@@std@@PAUtagBillItem@CBillClient@@@std@@@2@$0A@@std@@@std@@@std@@YAXPAPAU_Node@?$_Tree_nod@V?$_Tmap_traits@V?$basic_string@DU?$char_traits@D@std@@V?$allocator@D@2@@std@@PAUtagBillItem@CBillClient@@U?$less@V?$basic_string@DU?$char_traits@D@std@@V?$allocator@D@2@@std@@@2@V?$allocator@U?$pair@$$CBV?$basic_string@DU?$char_traits@D@std@@V?$allocator@D@2@@std@@PAUtagBillItem@CBillClient@@@std@@@2@$0A@@std@@@0@@Z ; std::_Destroy<std::_Tree_nod<std::_Tmap_traits<std::basic_string<char,std::char_traits<char>,std::allocator<char> >,CBillClient::tagBillItem *,std::less<std::basic_string<char,std::char_traits<char>,std::allocator<char> > >,std::allocator<std::pair<std::basic_string<char,std::char_traits<char>,std::allocator<char> > const ,CBillClient::tagBillItem *> >,0> >::_Node *>
; Function compile flags: /Ogtpy
; File d:\program files\microsoft visual studio 8\vc\include\xmemory
;	COMDAT ??$_Destroy@PAU_Node@?$_Tree_nod@V?$_Tmap_traits@V?$basic_string@DU?$char_traits@D@std@@V?$allocator@D@2@@std@@PAUtagBillItem@CBillClient@@U?$less@V?$basic_string@DU?$char_traits@D@std@@V?$allocator@D@2@@std@@@2@V?$allocator@U?$pair@$$CBV?$basic_string@DU?$char_traits@D@std@@V?$allocator@D@2@@std@@PAUtagBillItem@CBillClient@@@std@@@2@$0A@@std@@@std@@@std@@YAXPAPAU_Node@?$_Tree_nod@V?$_Tmap_traits@V?$basic_string@DU?$char_traits@D@std@@V?$allocator@D@2@@std@@PAUtagBillItem@CBillClient@@U?$less@V?$basic_string@DU?$char_traits@D@std@@V?$allocator@D@2@@std@@@2@V?$allocator@U?$pair@$$CBV?$basic_string@DU?$char_traits@D@std@@V?$allocator@D@2@@std@@PAUtagBillItem@CBillClient@@@std@@@2@$0A@@std@@@0@@Z
_TEXT	SEGMENT
__Ptr$ = 8						; size = 4
??$_Destroy@PAU_Node@?$_Tree_nod@V?$_Tmap_traits@V?$basic_string@DU?$char_traits@D@std@@V?$allocator@D@2@@std@@PAUtagBillItem@CBillClient@@U?$less@V?$basic_string@DU?$char_traits@D@std@@V?$allocator@D@2@@std@@@2@V?$allocator@U?$pair@$$CBV?$basic_string@DU?$char_traits@D@std@@V?$allocator@D@2@@std@@PAUtagBillItem@CBillClient@@@std@@@2@$0A@@std@@@std@@@std@@YAXPAPAU_Node@?$_Tree_nod@V?$_Tmap_traits@V?$basic_string@DU?$char_traits@D@std@@V?$allocator@D@2@@std@@PAUtagBillItem@CBillClient@@U?$less@V?$basic_string@DU?$char_traits@D@std@@V?$allocator@D@2@@std@@@2@V?$allocator@U?$pair@$$CBV?$basic_string@DU?$char_traits@D@std@@V?$allocator@D@2@@std@@PAUtagBillItem@CBillClient@@@std@@@2@$0A@@std@@@0@@Z PROC ; std::_Destroy<std::_Tree_nod<std::_Tmap_traits<std::basic_string<char,std::char_traits<char>,std::allocator<char> >,CBillClient::tagBillItem *,std::less<std::basic_string<char,std::char_traits<char>,std::allocator<char> > >,std::allocator<std::pair<std::basic_string<char,std::char_traits<char>,std::allocator<char> > const ,CBillClient::tagBillItem *> >,0> >::_Node *>, COMDAT

; 60   : 	_DESTRUCTOR(_Ty, _Ptr);
; 61   : 	}

  00000	c3		 ret	 0
??$_Destroy@PAU_Node@?$_Tree_nod@V?$_Tmap_traits@V?$basic_string@DU?$char_traits@D@std@@V?$allocator@D@2@@std@@PAUtagBillItem@CBillClient@@U?$less@V?$basic_string@DU?$char_traits@D@std@@V?$allocator@D@2@@std@@@2@V?$allocator@U?$pair@$$CBV?$basic_string@DU?$char_traits@D@std@@V?$allocator@D@2@@std@@PAUtagBillItem@CBillClient@@@std@@@2@$0A@@std@@@std@@@std@@YAXPAPAU_Node@?$_Tree_nod@V?$_Tmap_traits@V?$basic_string@DU?$char_traits@D@std@@V?$allocator@D@2@@std@@PAUtagBillItem@CBillClient@@U?$less@V?$basic_string@DU?$char_traits@D@std@@V?$allocator@D@2@@std@@@2@V?$allocator@U?$pair@$$CBV?$basic_string@DU?$char_traits@D@std@@V?$allocator@D@2@@std@@PAUtagBillItem@CBillClient@@@std@@@2@$0A@@std@@@0@@Z ENDP ; std::_Destroy<std::_Tree_nod<std::_Tmap_traits<std::basic_string<char,std::char_traits<char>,std::allocator<char> >,CBillClient::tagBillItem *,std::less<std::basic_string<char,std::char_traits<char>,std::allocator<char> > >,std::allocator<std::pair<std::basic_string<char,std::char_traits<char>,std::allocator<char> > const ,CBillClient::tagBillItem *> >,0> >::_Node *>
_TEXT	ENDS
PUBLIC	??$?0U?$pair@$$CBV?$basic_string@DU?$char_traits@D@std@@V?$allocator@D@2@@std@@PAUtagBillItem@CBillClient@@@std@@@?$allocator@PAU_Node@?$_Tree_nod@V?$_Tmap_traits@V?$basic_string@DU?$char_traits@D@std@@V?$allocator@D@2@@std@@PAUtagBillItem@CBillClient@@U?$less@V?$basic_string@DU?$char_traits@D@std@@V?$allocator@D@2@@std@@@2@V?$allocator@U?$pair@$$CBV?$basic_string@DU?$char_traits@D@std@@V?$allocator@D@2@@std@@PAUtagBillItem@CBillClient@@@std@@@2@$0A@@std@@@std@@@std@@QAE@ABV?$allocator@U?$pair@$$CBV?$basic_string@DU?$char_traits@D@std@@V?$allocator@D@2@@std@@PAUtagBillItem@CBillClient@@@std@@@1@@Z ; std::allocator<std::_Tree_nod<std::_Tmap_traits<std::basic_string<char,std::char_traits<char>,std::allocator<char> >,CBillClient::tagBillItem *,std::less<std::basic_string<char,std::char_traits<char>,std::allocator<char> > >,std::allocator<std::pair<std::basic_string<char,std::char_traits<char>,std::allocator<char> > const ,CBillClient::tagBillItem *> >,0> >::_Node *>::allocator<std::_Tree_nod<std::_Tmap_traits<std::basic_string<char,std::char_traits<char>,std::allocator<char> >,CBillClient::tagBillItem *,std::less<std::basic_string<char,std::char_traits<char>,std::allocator<char> > >,std::allocator<std::pair<std::basic_string<char,std::char_traits<char>,std::allocator<char> > const ,CBillClient::tagBillItem *> >,0> >::_Node *><std::pair<std::basic_string<char,std::char_traits<char>,std::allocator<char> > const ,CBillClient::tagBillItem *> >
; Function compile flags: /Ogtpy
;	COMDAT ??$?0U?$pair@$$CBV?$basic_string@DU?$char_traits@D@std@@V?$allocator@D@2@@std@@PAUtagBillItem@CBillClient@@@std@@@?$allocator@PAU_Node@?$_Tree_nod@V?$_Tmap_traits@V?$basic_string@DU?$char_traits@D@std@@V?$allocator@D@2@@std@@PAUtagBillItem@CBillClient@@U?$less@V?$basic_string@DU?$char_traits@D@std@@V?$allocator@D@2@@std@@@2@V?$allocator@U?$pair@$$CBV?$basic_string@DU?$char_traits@D@std@@V?$allocator@D@2@@std@@PAUtagBillItem@CBillClient@@@std@@@2@$0A@@std@@@std@@@std@@QAE@ABV?$allocator@U?$pair@$$CBV?$basic_string@DU?$char_traits@D@std@@V?$allocator@D@2@@std@@PAUtagBillItem@CBillClient@@@std@@@1@@Z
_TEXT	SEGMENT
___formal$ = 8						; size = 4
??$?0U?$pair@$$CBV?$basic_string@DU?$char_traits@D@std@@V?$allocator@D@2@@std@@PAUtagBillItem@CBillClient@@@std@@@?$allocator@PAU_Node@?$_Tree_nod@V?$_Tmap_traits@V?$basic_string@DU?$char_traits@D@std@@V?$allocator@D@2@@std@@PAUtagBillItem@CBillClient@@U?$less@V?$basic_string@DU?$char_traits@D@std@@V?$allocator@D@2@@std@@@2@V?$allocator@U?$pair@$$CBV?$basic_string@DU?$char_traits@D@std@@V?$allocator@D@2@@std@@PAUtagBillItem@CBillClient@@@std@@@2@$0A@@std@@@std@@@std@@QAE@ABV?$allocator@U?$pair@$$CBV?$basic_string@DU?$char_traits@D@std@@V?$allocator@D@2@@std@@PAUtagBillItem@CBillClient@@@std@@@1@@Z PROC ; std::allocator<std::_Tree_nod<std::_Tmap_traits<std::basic_string<char,std::char_traits<char>,std::allocator<char> >,CBillClient::tagBillItem *,std::less<std::basic_string<char,std::char_traits<char>,std::allocator<char> > >,std::allocator<std::pair<std::basic_string<char,std::char_traits<char>,std::allocator<char> > const ,CBillClient::tagBillItem *> >,0> >::_Node *>::allocator<std::_Tree_nod<std::_Tmap_traits<std::basic_string<char,std::char_traits<char>,std::allocator<char> >,CBillClient::tagBillItem *,std::less<std::basic_string<char,std::char_traits<char>,std::allocator<char> > >,std::allocator<std::pair<std::basic_string<char,std::char_traits<char>,std::allocator<char> > const ,CBillClient::tagBillItem *> >,0> >::_Node *><std::pair<std::basic_string<char,std::char_traits<char>,std::allocator<char> > const ,CBillClient::tagBillItem *> >, COMDAT
; _this$ = ecx

; 129  : 		allocator(const allocator<_Other>&) _THROW0()

  00000	8b c1		 mov	 eax, ecx

; 130  : 		{	// construct from a related allocator (do nothing)
; 131  : 		}

  00002	c2 04 00	 ret	 4
??$?0U?$pair@$$CBV?$basic_string@DU?$char_traits@D@std@@V?$allocator@D@2@@std@@PAUtagBillItem@CBillClient@@@std@@@?$allocator@PAU_Node@?$_Tree_nod@V?$_Tmap_traits@V?$basic_string@DU?$char_traits@D@std@@V?$allocator@D@2@@std@@PAUtagBillItem@CBillClient@@U?$less@V?$basic_string@DU?$char_traits@D@std@@V?$allocator@D@2@@std@@@2@V?$allocator@U?$pair@$$CBV?$basic_string@DU?$char_traits@D@std@@V?$allocator@D@2@@std@@PAUtagBillItem@CBillClient@@@std@@@2@$0A@@std@@@std@@@std@@QAE@ABV?$allocator@U?$pair@$$CBV?$basic_string@DU?$char_traits@D@std@@V?$allocator@D@2@@std@@PAUtagBillItem@CBillClient@@@std@@@1@@Z ENDP ; std::allocator<std::_Tree_nod<std::_Tmap_traits<std::basic_string<char,std::char_traits<char>,std::allocator<char> >,CBillClient::tagBillItem *,std::less<std::basic_string<char,std::char_traits<char>,std::allocator<char> > >,std::allocator<std::pair<std::basic_string<char,std::char_traits<char>,std::allocator<char> > const ,CBillClient::tagBillItem *> >,0> >::_Node *>::allocator<std::_Tree_nod<std::_Tmap_traits<std::basic_string<char,std::char_traits<char>,std::allocator<char> >,CBillClient::tagBillItem *,std::less<std::basic_string<char,std::char_traits<char>,std::allocator<char> > >,std::allocator<std::pair<std::basic_string<char,std::char_traits<char>,std::allocator<char> > const ,CBillClient::tagBillItem *> >,0> >::_Node *><std::pair<std::basic_string<char,std::char_traits<char>,std::allocator<char> > const ,CBillClient::tagBillItem *> >
_TEXT	ENDS
PUBLIC	??$?0U?$pair@$$CBV?$basic_string@DU?$char_traits@D@std@@V?$allocator@D@2@@std@@PAUtagBillItem@CBillClient@@@std@@@?$allocator@U_Node@?$_Tree_nod@V?$_Tmap_traits@V?$basic_string@DU?$char_traits@D@std@@V?$allocator@D@2@@std@@PAUtagBillItem@CBillClient@@U?$less@V?$basic_string@DU?$char_traits@D@std@@V?$allocator@D@2@@std@@@2@V?$allocator@U?$pair@$$CBV?$basic_string@DU?$char_traits@D@std@@V?$allocator@D@2@@std@@PAUtagBillItem@CBillClient@@@std@@@2@$0A@@std@@@std@@@std@@QAE@ABV?$allocator@U?$pair@$$CBV?$basic_string@DU?$char_traits@D@std@@V?$allocator@D@2@@std@@PAUtagBillItem@CBillClient@@@std@@@1@@Z ; std::allocator<std::_Tree_nod<std::_Tmap_traits<std::basic_string<char,std::char_traits<char>,std::allocator<char> >,CBillClient::tagBillItem *,std::less<std::basic_string<char,std::char_traits<char>,std::allocator<char> > >,std::allocator<std::pair<std::basic_string<char,std::char_traits<char>,std::allocator<char> > const ,CBillClient::tagBillItem *> >,0> >::_Node>::allocator<std::_Tree_nod<std::_Tmap_traits<std::basic_string<char,std::char_traits<char>,std::allocator<char> >,CBillClient::tagBillItem *,std::less<std::basic_string<char,std::char_traits<char>,std::allocator<char> > >,std::allocator<std::pair<std::basic_string<char,std::char_traits<char>,std::allocator<char> > const ,CBillClient::tagBillItem *> >,0> >::_Node><std::pair<std::basic_string<char,std::char_traits<char>,std::allocator<char> > const ,CBillClient::tagBillItem *> >
; Function compile flags: /Ogtpy
;	COMDAT ??$?0U?$pair@$$CBV?$basic_string@DU?$char_traits@D@std@@V?$allocator@D@2@@std@@PAUtagBillItem@CBillClient@@@std@@@?$allocator@U_Node@?$_Tree_nod@V?$_Tmap_traits@V?$basic_string@DU?$char_traits@D@std@@V?$allocator@D@2@@std@@PAUtagBillItem@CBillClient@@U?$less@V?$basic_string@DU?$char_traits@D@std@@V?$allocator@D@2@@std@@@2@V?$allocator@U?$pair@$$CBV?$basic_string@DU?$char_traits@D@std@@V?$allocator@D@2@@std@@PAUtagBillItem@CBillClient@@@std@@@2@$0A@@std@@@std@@@std@@QAE@ABV?$allocator@U?$pair@$$CBV?$basic_string@DU?$char_traits@D@std@@V?$allocator@D@2@@std@@PAUtagBillItem@CBillClient@@@std@@@1@@Z
_TEXT	SEGMENT
___formal$ = 8						; size = 4
??$?0U?$pair@$$CBV?$basic_string@DU?$char_traits@D@std@@V?$allocator@D@2@@std@@PAUtagBillItem@CBillClient@@@std@@@?$allocator@U_Node@?$_Tree_nod@V?$_Tmap_traits@V?$basic_string@DU?$char_traits@D@std@@V?$allocator@D@2@@std@@PAUtagBillItem@CBillClient@@U?$less@V?$basic_string@DU?$char_traits@D@std@@V?$allocator@D@2@@std@@@2@V?$allocator@U?$pair@$$CBV?$basic_string@DU?$char_traits@D@std@@V?$allocator@D@2@@std@@PAUtagBillItem@CBillClient@@@std@@@2@$0A@@std@@@std@@@std@@QAE@ABV?$allocator@U?$pair@$$CBV?$basic_string@DU?$char_traits@D@std@@V?$allocator@D@2@@std@@PAUtagBillItem@CBillClient@@@std@@@1@@Z PROC ; std::allocator<std::_Tree_nod<std::_Tmap_traits<std::basic_string<char,std::char_traits<char>,std::allocator<char> >,CBillClient::tagBillItem *,std::less<std::basic_string<char,std::char_traits<char>,std::allocator<char> > >,std::allocator<std::pair<std::basic_string<char,std::char_traits<char>,std::allocator<char> > const ,CBillClient::tagBillItem *> >,0> >::_Node>::allocator<std::_Tree_nod<std::_Tmap_traits<std::basic_string<char,std::char_traits<char>,std::allocator<char> >,CBillClient::tagBillItem *,std::less<std::basic_string<char,std::char_traits<char>,std::allocator<char> > >,std::allocator<std::pair<std::basic_string<char,std::char_traits<char>,std::allocator<char> > const ,CBillClient::tagBillItem *> >,0> >::_Node><std::pair<std::basic_string<char,std::char_traits<char>,std::allocator<char> > const ,CBillClient::tagBillItem *> >, COMDAT
; _this$ = ecx

; 129  : 		allocator(const allocator<_Other>&) _THROW0()

  00000	8b c1		 mov	 eax, ecx

; 130  : 		{	// construct from a related allocator (do nothing)
; 131  : 		}

  00002	c2 04 00	 ret	 4
??$?0U?$pair@$$CBV?$basic_string@DU?$char_traits@D@std@@V?$allocator@D@2@@std@@PAUtagBillItem@CBillClient@@@std@@@?$allocator@U_Node@?$_Tree_nod@V?$_Tmap_traits@V?$basic_string@DU?$char_traits@D@std@@V?$allocator@D@2@@std@@PAUtagBillItem@CBillClient@@U?$less@V?$basic_string@DU?$char_traits@D@std@@V?$allocator@D@2@@std@@@2@V?$allocator@U?$pair@$$CBV?$basic_string@DU?$char_traits@D@std@@V?$allocator@D@2@@std@@PAUtagBillItem@CBillClient@@@std@@@2@$0A@@std@@@std@@@std@@QAE@ABV?$allocator@U?$pair@$$CBV?$basic_string@DU?$char_traits@D@std@@V?$allocator@D@2@@std@@PAUtagBillItem@CBillClient@@@std@@@1@@Z ENDP ; std::allocator<std::_Tree_nod<std::_Tmap_traits<std::basic_string<char,std::char_traits<char>,std::allocator<char> >,CBillClient::tagBillItem *,std::less<std::basic_string<char,std::char_traits<char>,std::allocator<char> > >,std::allocator<std::pair<std::basic_string<char,std::char_traits<char>,std::allocator<char> > const ,CBillClient::tagBillItem *> >,0> >::_Node>::allocator<std::_Tree_nod<std::_Tmap_traits<std::basic_string<char,std::char_traits<char>,std::allocator<char> >,CBillClient::tagBillItem *,std::less<std::basic_string<char,std::char_traits<char>,std::allocator<char> > >,std::allocator<std::pair<std::basic_string<char,std::char_traits<char>,std::allocator<char> > const ,CBillClient::tagBillItem *> >,0> >::_Node><std::pair<std::basic_string<char,std::char_traits<char>,std::allocator<char> > const ,CBillClient::tagBillItem *> >
_TEXT	ENDS
PUBLIC	??$_Allocate@U_Node@?$_Tree_nod@V?$_Tmap_traits@V?$basic_string@DU?$char_traits@D@std@@V?$allocator@D@2@@std@@PAUtagBillItem@CBillClient@@U?$less@V?$basic_string@DU?$char_traits@D@std@@V?$allocator@D@2@@std@@@2@V?$allocator@U?$pair@$$CBV?$basic_string@DU?$char_traits@D@std@@V?$allocator@D@2@@std@@PAUtagBillItem@CBillClient@@@std@@@2@$0A@@std@@@std@@@std@@YAPAU_Node@?$_Tree_nod@V?$_Tmap_traits@V?$basic_string@DU?$char_traits@D@std@@V?$allocator@D@2@@std@@PAUtagBillItem@CBillClient@@U?$less@V?$basic_string@DU?$char_traits@D@std@@V?$allocator@D@2@@std@@@2@V?$allocator@U?$pair@$$CBV?$basic_string@DU?$char_traits@D@std@@V?$allocator@D@2@@std@@PAUtagBillItem@CBillClient@@@std@@@2@$0A@@std@@@0@IPAU120@@Z ; std::_Allocate<std::_Tree_nod<std::_Tmap_traits<std::basic_string<char,std::char_traits<char>,std::allocator<char> >,CBillClient::tagBillItem *,std::less<std::basic_string<char,std::char_traits<char>,std::allocator<char> > >,std::allocator<std::pair<std::basic_string<char,std::char_traits<char>,std::allocator<char> > const ,CBillClient::tagBillItem *> >,0> >::_Node>
; Function compile flags: /Ogtpy
;	COMDAT ??$_Allocate@U_Node@?$_Tree_nod@V?$_Tmap_traits@V?$basic_string@DU?$char_traits@D@std@@V?$allocator@D@2@@std@@PAUtagBillItem@CBillClient@@U?$less@V?$basic_string@DU?$char_traits@D@std@@V?$allocator@D@2@@std@@@2@V?$allocator@U?$pair@$$CBV?$basic_string@DU?$char_traits@D@std@@V?$allocator@D@2@@std@@PAUtagBillItem@CBillClient@@@std@@@2@$0A@@std@@@std@@@std@@YAPAU_Node@?$_Tree_nod@V?$_Tmap_traits@V?$basic_string@DU?$char_traits@D@std@@V?$allocator@D@2@@std@@PAUtagBillItem@CBillClient@@U?$less@V?$basic_string@DU?$char_traits@D@std@@V?$allocator@D@2@@std@@@2@V?$allocator@U?$pair@$$CBV?$basic_string@DU?$char_traits@D@std@@V?$allocator@D@2@@std@@PAUtagBillItem@CBillClient@@@std@@@2@$0A@@std@@@0@IPAU120@@Z
_TEXT	SEGMENT
$T261204 = -12						; size = 12
$T261208 = 8						; size = 4
__Count$ = 8						; size = 4
___formal$ = 12						; size = 4
??$_Allocate@U_Node@?$_Tree_nod@V?$_Tmap_traits@V?$basic_string@DU?$char_traits@D@std@@V?$allocator@D@2@@std@@PAUtagBillItem@CBillClient@@U?$less@V?$basic_string@DU?$char_traits@D@std@@V?$allocator@D@2@@std@@@2@V?$allocator@U?$pair@$$CBV?$basic_string@DU?$char_traits@D@std@@V?$allocator@D@2@@std@@PAUtagBillItem@CBillClient@@@std@@@2@$0A@@std@@@std@@@std@@YAPAU_Node@?$_Tree_nod@V?$_Tmap_traits@V?$basic_string@DU?$char_traits@D@std@@V?$allocator@D@2@@std@@PAUtagBillItem@CBillClient@@U?$less@V?$basic_string@DU?$char_traits@D@std@@V?$allocator@D@2@@std@@@2@V?$allocator@U?$pair@$$CBV?$basic_string@DU?$char_traits@D@std@@V?$allocator@D@2@@std@@PAUtagBillItem@CBillClient@@@std@@@2@$0A@@std@@@0@IPAU120@@Z PROC ; std::_Allocate<std::_Tree_nod<std::_Tmap_traits<std::basic_string<char,std::char_traits<char>,std::allocator<char> >,CBillClient::tagBillItem *,std::less<std::basic_string<char,std::char_traits<char>,std::allocator<char> > >,std::allocator<std::pair<std::basic_string<char,std::char_traits<char>,std::allocator<char> > const ,CBillClient::tagBillItem *> >,0> >::_Node>, COMDAT

; 38   : 	if (_Count <= 0)

  00000	8b 4c 24 04	 mov	 ecx, DWORD PTR __Count$[esp-4]
  00004	83 ec 0c	 sub	 esp, 12			; 0000000cH
  00007	85 c9		 test	 ecx, ecx
  00009	77 15		 ja	 SHORT $LN3@Allocate@2

; 39   : 		_Count = 0;

  0000b	33 c9		 xor	 ecx, ecx
$LN1@Allocate@2:

; 42   : 
; 43   : 		// allocate storage for _Count elements of type _Ty
; 44   : 	return ((_Ty _FARQ *)::operator new(_Count * sizeof (_Ty)));

  0000d	8d 14 49	 lea	 edx, DWORD PTR [ecx+ecx*2]
  00010	c1 e2 04	 shl	 edx, 4
  00013	52		 push	 edx
  00014	e8 00 00 00 00	 call	 ??2@YAPAXI@Z		; operator new
  00019	83 c4 04	 add	 esp, 4

; 45   : 	}

  0001c	83 c4 0c	 add	 esp, 12			; 0000000cH
  0001f	c3		 ret	 0
$LN3@Allocate@2:

; 40   : 	else if (((_SIZT)(-1) / _Count) < sizeof (_Ty))

  00020	83 c8 ff	 or	 eax, -1
  00023	33 d2		 xor	 edx, edx
  00025	f7 f1		 div	 ecx
  00027	83 f8 30	 cmp	 eax, 48			; 00000030H
  0002a	73 e1		 jae	 SHORT $LN1@Allocate@2

; 41   : 		_THROW_NCEE(std::bad_alloc, NULL);

  0002c	8d 44 24 10	 lea	 eax, DWORD PTR $T261208[esp+8]
  00030	50		 push	 eax
  00031	8d 4c 24 04	 lea	 ecx, DWORD PTR $T261204[esp+16]
  00035	c7 44 24 14 00
	00 00 00	 mov	 DWORD PTR $T261208[esp+12], 0
  0003d	e8 00 00 00 00	 call	 ??0exception@std@@QAE@ABQBD@Z ; std::exception::exception
  00042	68 00 00 00 00	 push	 OFFSET __TI2?AVbad_alloc@std@@
  00047	8d 4c 24 04	 lea	 ecx, DWORD PTR $T261204[esp+16]
  0004b	51		 push	 ecx
  0004c	c7 44 24 08 00
	00 00 00	 mov	 DWORD PTR $T261204[esp+20], OFFSET ??_7bad_alloc@std@@6B@
  00054	e8 00 00 00 00	 call	 __CxxThrowException@8
$LN9@Allocate@2:
$LN8@Allocate@2:
  00059	cc		 int	 3
??$_Allocate@U_Node@?$_Tree_nod@V?$_Tmap_traits@V?$basic_string@DU?$char_traits@D@std@@V?$allocator@D@2@@std@@PAUtagBillItem@CBillClient@@U?$less@V?$basic_string@DU?$char_traits@D@std@@V?$allocator@D@2@@std@@@2@V?$allocator@U?$pair@$$CBV?$basic_string@DU?$char_traits@D@std@@V?$allocator@D@2@@std@@PAUtagBillItem@CBillClient@@@std@@@2@$0A@@std@@@std@@@std@@YAPAU_Node@?$_Tree_nod@V?$_Tmap_traits@V?$basic_string@DU?$char_traits@D@std@@V?$allocator@D@2@@std@@PAUtagBillItem@CBillClient@@U?$less@V?$basic_string@DU?$char_traits@D@std@@V?$allocator@D@2@@std@@@2@V?$allocator@U?$pair@$$CBV?$basic_string@DU?$char_traits@D@std@@V?$allocator@D@2@@std@@PAUtagBillItem@CBillClient@@@std@@@2@$0A@@std@@@0@IPAU120@@Z ENDP ; std::_Allocate<std::_Tree_nod<std::_Tmap_traits<std::basic_string<char,std::char_traits<char>,std::allocator<char> >,CBillClient::tagBillItem *,std::less<std::basic_string<char,std::char_traits<char>,std::allocator<char> > >,std::allocator<std::pair<std::basic_string<char,std::char_traits<char>,std::allocator<char> > const ,CBillClient::tagBillItem *> >,0> >::_Node>
_TEXT	ENDS
PUBLIC	??$_Construct@PAU_Node@?$_Tree_nod@V?$_Tmap_traits@V?$basic_string@DU?$char_traits@D@std@@V?$allocator@D@2@@std@@PAUtagBillItem@CBillClient@@U?$less@V?$basic_string@DU?$char_traits@D@std@@V?$allocator@D@2@@std@@@2@V?$allocator@U?$pair@$$CBV?$basic_string@DU?$char_traits@D@std@@V?$allocator@D@2@@std@@PAUtagBillItem@CBillClient@@@std@@@2@$0A@@std@@@std@@PAU123@@std@@YAXPAPAU_Node@?$_Tree_nod@V?$_Tmap_traits@V?$basic_string@DU?$char_traits@D@std@@V?$allocator@D@2@@std@@PAUtagBillItem@CBillClient@@U?$less@V?$basic_string@DU?$char_traits@D@std@@V?$allocator@D@2@@std@@@2@V?$allocator@U?$pair@$$CBV?$basic_string@DU?$char_traits@D@std@@V?$allocator@D@2@@std@@PAUtagBillItem@CBillClient@@@std@@@2@$0A@@std@@@0@ABQAU120@@Z ; std::_Construct<std::_Tree_nod<std::_Tmap_traits<std::basic_string<char,std::char_traits<char>,std::allocator<char> >,CBillClient::tagBillItem *,std::less<std::basic_string<char,std::char_traits<char>,std::allocator<char> > >,std::allocator<std::pair<std::basic_string<char,std::char_traits<char>,std::allocator<char> > const ,CBillClient::tagBillItem *> >,0> >::_Node *,std::_Tree_nod<std::_Tmap_traits<std::basic_string<char,std::char_traits<char>,std::allocator<char> >,CBillClient::tagBillItem *,std::less<std::basic_string<char,std::char_traits<char>,std::allocator<char> > >,std::allocator<std::pair<std::basic_string<char,std::char_traits<char>,std::allocator<char> > const ,CBillClient::tagBillItem *> >,0> >::_Node *>
; Function compile flags: /Ogtpy
;	COMDAT ??$_Construct@PAU_Node@?$_Tree_nod@V?$_Tmap_traits@V?$basic_string@DU?$char_traits@D@std@@V?$allocator@D@2@@std@@PAUtagBillItem@CBillClient@@U?$less@V?$basic_string@DU?$char_traits@D@std@@V?$allocator@D@2@@std@@@2@V?$allocator@U?$pair@$$CBV?$basic_string@DU?$char_traits@D@std@@V?$allocator@D@2@@std@@PAUtagBillItem@CBillClient@@@std@@@2@$0A@@std@@@std@@PAU123@@std@@YAXPAPAU_Node@?$_Tree_nod@V?$_Tmap_traits@V?$basic_string@DU?$char_traits@D@std@@V?$allocator@D@2@@std@@PAUtagBillItem@CBillClient@@U?$less@V?$basic_string@DU?$char_traits@D@std@@V?$allocator@D@2@@std@@@2@V?$allocator@U?$pair@$$CBV?$basic_string@DU?$char_traits@D@std@@V?$allocator@D@2@@std@@PAUtagBillItem@CBillClient@@@std@@@2@$0A@@std@@@0@ABQAU120@@Z
_TEXT	SEGMENT
__Ptr$ = 8						; size = 4
__Val$ = 12						; size = 4
??$_Construct@PAU_Node@?$_Tree_nod@V?$_Tmap_traits@V?$basic_string@DU?$char_traits@D@std@@V?$allocator@D@2@@std@@PAUtagBillItem@CBillClient@@U?$less@V?$basic_string@DU?$char_traits@D@std@@V?$allocator@D@2@@std@@@2@V?$allocator@U?$pair@$$CBV?$basic_string@DU?$char_traits@D@std@@V?$allocator@D@2@@std@@PAUtagBillItem@CBillClient@@@std@@@2@$0A@@std@@@std@@PAU123@@std@@YAXPAPAU_Node@?$_Tree_nod@V?$_Tmap_traits@V?$basic_string@DU?$char_traits@D@std@@V?$allocator@D@2@@std@@PAUtagBillItem@CBillClient@@U?$less@V?$basic_string@DU?$char_traits@D@std@@V?$allocator@D@2@@std@@@2@V?$allocator@U?$pair@$$CBV?$basic_string@DU?$char_traits@D@std@@V?$allocator@D@2@@std@@PAUtagBillItem@CBillClient@@@std@@@2@$0A@@std@@@0@ABQAU120@@Z PROC ; std::_Construct<std::_Tree_nod<std::_Tmap_traits<std::basic_string<char,std::char_traits<char>,std::allocator<char> >,CBillClient::tagBillItem *,std::less<std::basic_string<char,std::char_traits<char>,std::allocator<char> > >,std::allocator<std::pair<std::basic_string<char,std::char_traits<char>,std::allocator<char> > const ,CBillClient::tagBillItem *> >,0> >::_Node *,std::_Tree_nod<std::_Tmap_traits<std::basic_string<char,std::char_traits<char>,std::allocator<char> >,CBillClient::tagBillItem *,std::less<std::basic_string<char,std::char_traits<char>,std::allocator<char> > >,std::allocator<std::pair<std::basic_string<char,std::char_traits<char>,std::allocator<char> > const ,CBillClient::tagBillItem *> >,0> >::_Node *>, COMDAT

; 52   : 	void _FARQ *_Vptr = _Ptr;
; 53   : 	::new (_Vptr) _T1(_Val);

  00000	8b 44 24 04	 mov	 eax, DWORD PTR __Ptr$[esp-4]
  00004	85 c0		 test	 eax, eax
  00006	74 08		 je	 SHORT $LN3@Construct
  00008	8b 4c 24 08	 mov	 ecx, DWORD PTR __Val$[esp-4]
  0000c	8b 11		 mov	 edx, DWORD PTR [ecx]
  0000e	89 10		 mov	 DWORD PTR [eax], edx
$LN3@Construct:

; 54   : 	}

  00010	c3		 ret	 0
??$_Construct@PAU_Node@?$_Tree_nod@V?$_Tmap_traits@V?$basic_string@DU?$char_traits@D@std@@V?$allocator@D@2@@std@@PAUtagBillItem@CBillClient@@U?$less@V?$basic_string@DU?$char_traits@D@std@@V?$allocator@D@2@@std@@@2@V?$allocator@U?$pair@$$CBV?$basic_string@DU?$char_traits@D@std@@V?$allocator@D@2@@std@@PAUtagBillItem@CBillClient@@@std@@@2@$0A@@std@@@std@@PAU123@@std@@YAXPAPAU_Node@?$_Tree_nod@V?$_Tmap_traits@V?$basic_string@DU?$char_traits@D@std@@V?$allocator@D@2@@std@@PAUtagBillItem@CBillClient@@U?$less@V?$basic_string@DU?$char_traits@D@std@@V?$allocator@D@2@@std@@@2@V?$allocator@U?$pair@$$CBV?$basic_string@DU?$char_traits@D@std@@V?$allocator@D@2@@std@@PAUtagBillItem@CBillClient@@@std@@@2@$0A@@std@@@0@ABQAU120@@Z ENDP ; std::_Construct<std::_Tree_nod<std::_Tmap_traits<std::basic_string<char,std::char_traits<char>,std::allocator<char> >,CBillClient::tagBillItem *,std::less<std::basic_string<char,std::char_traits<char>,std::allocator<char> > >,std::allocator<std::pair<std::basic_string<char,std::char_traits<char>,std::allocator<char> > const ,CBillClient::tagBillItem *> >,0> >::_Node *,std::_Tree_nod<std::_Tmap_traits<std::basic_string<char,std::char_traits<char>,std::allocator<char> >,CBillClient::tagBillItem *,std::less<std::basic_string<char,std::char_traits<char>,std::allocator<char> > >,std::allocator<std::pair<std::basic_string<char,std::char_traits<char>,std::allocator<char> > const ,CBillClient::tagBillItem *> >,0> >::_Node *>
_TEXT	ENDS
PUBLIC	??9const_iterator@?$_Tree@V?$_Tmap_traits@V?$basic_string@DU?$char_traits@D@std@@V?$allocator@D@2@@std@@PAUtagBillItem@CBillClient@@U?$less@V?$basic_string@DU?$char_traits@D@std@@V?$allocator@D@2@@std@@@2@V?$allocator@U?$pair@$$CBV?$basic_string@DU?$char_traits@D@std@@V?$allocator@D@2@@std@@PAUtagBillItem@CBillClient@@@std@@@2@$0A@@std@@@std@@QBE_NABV012@@Z ; std::_Tree<std::_Tmap_traits<std::basic_string<char,std::char_traits<char>,std::allocator<char> >,CBillClient::tagBillItem *,std::less<std::basic_string<char,std::char_traits<char>,std::allocator<char> > >,std::allocator<std::pair<std::basic_string<char,std::char_traits<char>,std::allocator<char> > const ,CBillClient::tagBillItem *> >,0> >::const_iterator::operator!=
; Function compile flags: /Ogtpy
; File d:\program files\microsoft visual studio 8\vc\include\xtree
;	COMDAT ??9const_iterator@?$_Tree@V?$_Tmap_traits@V?$basic_string@DU?$char_traits@D@std@@V?$allocator@D@2@@std@@PAUtagBillItem@CBillClient@@U?$less@V?$basic_string@DU?$char_traits@D@std@@V?$allocator@D@2@@std@@@2@V?$allocator@U?$pair@$$CBV?$basic_string@DU?$char_traits@D@std@@V?$allocator@D@2@@std@@PAUtagBillItem@CBillClient@@@std@@@2@$0A@@std@@@std@@QBE_NABV012@@Z
_TEXT	SEGMENT
__Right$ = 8						; size = 4
??9const_iterator@?$_Tree@V?$_Tmap_traits@V?$basic_string@DU?$char_traits@D@std@@V?$allocator@D@2@@std@@PAUtagBillItem@CBillClient@@U?$less@V?$basic_string@DU?$char_traits@D@std@@V?$allocator@D@2@@std@@@2@V?$allocator@U?$pair@$$CBV?$basic_string@DU?$char_traits@D@std@@V?$allocator@D@2@@std@@PAUtagBillItem@CBillClient@@@std@@@2@$0A@@std@@@std@@QBE_NABV012@@Z PROC ; std::_Tree<std::_Tmap_traits<std::basic_string<char,std::char_traits<char>,std::allocator<char> >,CBillClient::tagBillItem *,std::less<std::basic_string<char,std::char_traits<char>,std::allocator<char> > >,std::allocator<std::pair<std::basic_string<char,std::char_traits<char>,std::allocator<char> > const ,CBillClient::tagBillItem *> >,0> >::const_iterator::operator!=, COMDAT
; _this$ = ecx

; 304  : 			{	// test for iterator inequality

  00000	56		 push	 esi
  00001	8b f1		 mov	 esi, ecx

; 305  : 			return (!(*this == _Right));

  00003	8b 06		 mov	 eax, DWORD PTR [esi]
  00005	85 c0		 test	 eax, eax
  00007	57		 push	 edi
  00008	8b 7c 24 0c	 mov	 edi, DWORD PTR __Right$[esp+4]
  0000c	74 04		 je	 SHORT $LN3@operator@3
  0000e	3b 07		 cmp	 eax, DWORD PTR [edi]
  00010	74 05		 je	 SHORT $LN4@operator@3
$LN3@operator@3:
  00012	e8 00 00 00 00	 call	 __invalid_parameter_noinfo
$LN4@operator@3:
  00017	8b 46 04	 mov	 eax, DWORD PTR [esi+4]
  0001a	33 c9		 xor	 ecx, ecx
  0001c	3b 47 04	 cmp	 eax, DWORD PTR [edi+4]
  0001f	5f		 pop	 edi
  00020	0f 95 c1	 setne	 cl
  00023	8a c1		 mov	 al, cl
  00025	5e		 pop	 esi

; 306  : 			}

  00026	c2 04 00	 ret	 4
??9const_iterator@?$_Tree@V?$_Tmap_traits@V?$basic_string@DU?$char_traits@D@std@@V?$allocator@D@2@@std@@PAUtagBillItem@CBillClient@@U?$less@V?$basic_string@DU?$char_traits@D@std@@V?$allocator@D@2@@std@@@2@V?$allocator@U?$pair@$$CBV?$basic_string@DU?$char_traits@D@std@@V?$allocator@D@2@@std@@PAUtagBillItem@CBillClient@@@std@@@2@$0A@@std@@@std@@QBE_NABV012@@Z ENDP ; std::_Tree<std::_Tmap_traits<std::basic_string<char,std::char_traits<char>,std::allocator<char> >,CBillClient::tagBillItem *,std::less<std::basic_string<char,std::char_traits<char>,std::allocator<char> > >,std::allocator<std::pair<std::basic_string<char,std::char_traits<char>,std::allocator<char> > const ,CBillClient::tagBillItem *> >,0> >::const_iterator::operator!=
_TEXT	ENDS
PUBLIC	?_Key@?$_Tree@V?$_Tmap_traits@V?$basic_string@DU?$char_traits@D@std@@V?$allocator@D@2@@std@@PAUtagBillItem@CBillClient@@U?$less@V?$basic_string@DU?$char_traits@D@std@@V?$allocator@D@2@@std@@@2@V?$allocator@U?$pair@$$CBV?$basic_string@DU?$char_traits@D@std@@V?$allocator@D@2@@std@@PAUtagBillItem@CBillClient@@@std@@@2@$0A@@std@@@std@@KAABV?$basic_string@DU?$char_traits@D@std@@V?$allocator@D@2@@2@PAU_Node@?$_Tree_nod@V?$_Tmap_traits@V?$basic_string@DU?$char_traits@D@std@@V?$allocator@D@2@@std@@PAUtagBillItem@CBillClient@@U?$less@V?$basic_string@DU?$char_traits@D@std@@V?$allocator@D@2@@std@@@2@V?$allocator@U?$pair@$$CBV?$basic_string@DU?$char_traits@D@std@@V?$allocator@D@2@@std@@PAUtagBillItem@CBillClient@@@std@@@2@$0A@@std@@@2@@Z ; std::_Tree<std::_Tmap_traits<std::basic_string<char,std::char_traits<char>,std::allocator<char> >,CBillClient::tagBillItem *,std::less<std::basic_string<char,std::char_traits<char>,std::allocator<char> > >,std::allocator<std::pair<std::basic_string<char,std::char_traits<char>,std::allocator<char> > const ,CBillClient::tagBillItem *> >,0> >::_Key
; Function compile flags: /Ogtpy
;	COMDAT ?_Key@?$_Tree@V?$_Tmap_traits@V?$basic_string@DU?$char_traits@D@std@@V?$allocator@D@2@@std@@PAUtagBillItem@CBillClient@@U?$less@V?$basic_string@DU?$char_traits@D@std@@V?$allocator@D@2@@std@@@2@V?$allocator@U?$pair@$$CBV?$basic_string@DU?$char_traits@D@std@@V?$allocator@D@2@@std@@PAUtagBillItem@CBillClient@@@std@@@2@$0A@@std@@@std@@KAABV?$basic_string@DU?$char_traits@D@std@@V?$allocator@D@2@@2@PAU_Node@?$_Tree_nod@V?$_Tmap_traits@V?$basic_string@DU?$char_traits@D@std@@V?$allocator@D@2@@std@@PAUtagBillItem@CBillClient@@U?$less@V?$basic_string@DU?$char_traits@D@std@@V?$allocator@D@2@@std@@@2@V?$allocator@U?$pair@$$CBV?$basic_string@DU?$char_traits@D@std@@V?$allocator@D@2@@std@@PAUtagBillItem@CBillClient@@@std@@@2@$0A@@std@@@2@@Z
_TEXT	SEGMENT
__Pnode$ = 8						; size = 4
?_Key@?$_Tree@V?$_Tmap_traits@V?$basic_string@DU?$char_traits@D@std@@V?$allocator@D@2@@std@@PAUtagBillItem@CBillClient@@U?$less@V?$basic_string@DU?$char_traits@D@std@@V?$allocator@D@2@@std@@@2@V?$allocator@U?$pair@$$CBV?$basic_string@DU?$char_traits@D@std@@V?$allocator@D@2@@std@@PAUtagBillItem@CBillClient@@@std@@@2@$0A@@std@@@std@@KAABV?$basic_string@DU?$char_traits@D@std@@V?$allocator@D@2@@2@PAU_Node@?$_Tree_nod@V?$_Tmap_traits@V?$basic_string@DU?$char_traits@D@std@@V?$allocator@D@2@@std@@PAUtagBillItem@CBillClient@@U?$less@V?$basic_string@DU?$char_traits@D@std@@V?$allocator@D@2@@std@@@2@V?$allocator@U?$pair@$$CBV?$basic_string@DU?$char_traits@D@std@@V?$allocator@D@2@@std@@PAUtagBillItem@CBillClient@@@std@@@2@$0A@@std@@@2@@Z PROC ; std::_Tree<std::_Tmap_traits<std::basic_string<char,std::char_traits<char>,std::allocator<char> >,CBillClient::tagBillItem *,std::less<std::basic_string<char,std::char_traits<char>,std::allocator<char> > >,std::allocator<std::pair<std::basic_string<char,std::char_traits<char>,std::allocator<char> > const ,CBillClient::tagBillItem *> >,0> >::_Key, COMDAT

; 151  : 		return (_Mybase::_Kfn(_Myval(_Pnode)));

  00000	8b 44 24 04	 mov	 eax, DWORD PTR __Pnode$[esp-4]
  00004	83 c0 0c	 add	 eax, 12			; 0000000cH

; 152  : 		}

  00007	c3		 ret	 0
?_Key@?$_Tree@V?$_Tmap_traits@V?$basic_string@DU?$char_traits@D@std@@V?$allocator@D@2@@std@@PAUtagBillItem@CBillClient@@U?$less@V?$basic_string@DU?$char_traits@D@std@@V?$allocator@D@2@@std@@@2@V?$allocator@U?$pair@$$CBV?$basic_string@DU?$char_traits@D@std@@V?$allocator@D@2@@std@@PAUtagBillItem@CBillClient@@@std@@@2@$0A@@std@@@std@@KAABV?$basic_string@DU?$char_traits@D@std@@V?$allocator@D@2@@2@PAU_Node@?$_Tree_nod@V?$_Tmap_traits@V?$basic_string@DU?$char_traits@D@std@@V?$allocator@D@2@@std@@PAUtagBillItem@CBillClient@@U?$less@V?$basic_string@DU?$char_traits@D@std@@V?$allocator@D@2@@std@@@2@V?$allocator@U?$pair@$$CBV?$basic_string@DU?$char_traits@D@std@@V?$allocator@D@2@@std@@PAUtagBillItem@CBillClient@@@std@@@2@$0A@@std@@@2@@Z ENDP ; std::_Tree<std::_Tmap_traits<std::basic_string<char,std::char_traits<char>,std::allocator<char> >,CBillClient::tagBillItem *,std::less<std::basic_string<char,std::char_traits<char>,std::allocator<char> > >,std::allocator<std::pair<std::basic_string<char,std::char_traits<char>,std::allocator<char> > const ,CBillClient::tagBillItem *> >,0> >::_Key
_TEXT	ENDS
PUBLIC	?_Lrotate@?$_Tree@V?$_Tmap_traits@V?$basic_string@DU?$char_traits@D@std@@V?$allocator@D@2@@std@@PAUtagBillItem@CBillClient@@U?$less@V?$basic_string@DU?$char_traits@D@std@@V?$allocator@D@2@@std@@@2@V?$allocator@U?$pair@$$CBV?$basic_string@DU?$char_traits@D@std@@V?$allocator@D@2@@std@@PAUtagBillItem@CBillClient@@@std@@@2@$0A@@std@@@std@@IAEXPAU_Node@?$_Tree_nod@V?$_Tmap_traits@V?$basic_string@DU?$char_traits@D@std@@V?$allocator@D@2@@std@@PAUtagBillItem@CBillClient@@U?$less@V?$basic_string@DU?$char_traits@D@std@@V?$allocator@D@2@@std@@@2@V?$allocator@U?$pair@$$CBV?$basic_string@DU?$char_traits@D@std@@V?$allocator@D@2@@std@@PAUtagBillItem@CBillClient@@@std@@@2@$0A@@std@@@2@@Z ; std::_Tree<std::_Tmap_traits<std::basic_string<char,std::char_traits<char>,std::allocator<char> >,CBillClient::tagBillItem *,std::less<std::basic_string<char,std::char_traits<char>,std::allocator<char> > >,std::allocator<std::pair<std::basic_string<char,std::char_traits<char>,std::allocator<char> > const ,CBillClient::tagBillItem *> >,0> >::_Lrotate
; Function compile flags: /Ogtpy
;	COMDAT ?_Lrotate@?$_Tree@V?$_Tmap_traits@V?$basic_string@DU?$char_traits@D@std@@V?$allocator@D@2@@std@@PAUtagBillItem@CBillClient@@U?$less@V?$basic_string@DU?$char_traits@D@std@@V?$allocator@D@2@@std@@@2@V?$allocator@U?$pair@$$CBV?$basic_string@DU?$char_traits@D@std@@V?$allocator@D@2@@std@@PAUtagBillItem@CBillClient@@@std@@@2@$0A@@std@@@std@@IAEXPAU_Node@?$_Tree_nod@V?$_Tmap_traits@V?$basic_string@DU?$char_traits@D@std@@V?$allocator@D@2@@std@@PAUtagBillItem@CBillClient@@U?$less@V?$basic_string@DU?$char_traits@D@std@@V?$allocator@D@2@@std@@@2@V?$allocator@U?$pair@$$CBV?$basic_string@DU?$char_traits@D@std@@V?$allocator@D@2@@std@@PAUtagBillItem@CBillClient@@@std@@@2@$0A@@std@@@2@@Z
_TEXT	SEGMENT
__Wherenode$ = 8					; size = 4
?_Lrotate@?$_Tree@V?$_Tmap_traits@V?$basic_string@DU?$char_traits@D@std@@V?$allocator@D@2@@std@@PAUtagBillItem@CBillClient@@U?$less@V?$basic_string@DU?$char_traits@D@std@@V?$allocator@D@2@@std@@@2@V?$allocator@U?$pair@$$CBV?$basic_string@DU?$char_traits@D@std@@V?$allocator@D@2@@std@@PAUtagBillItem@CBillClient@@@std@@@2@$0A@@std@@@std@@IAEXPAU_Node@?$_Tree_nod@V?$_Tmap_traits@V?$basic_string@DU?$char_traits@D@std@@V?$allocator@D@2@@std@@PAUtagBillItem@CBillClient@@U?$less@V?$basic_string@DU?$char_traits@D@std@@V?$allocator@D@2@@std@@@2@V?$allocator@U?$pair@$$CBV?$basic_string@DU?$char_traits@D@std@@V?$allocator@D@2@@std@@PAUtagBillItem@CBillClient@@@std@@@2@$0A@@std@@@2@@Z PROC ; std::_Tree<std::_Tmap_traits<std::basic_string<char,std::char_traits<char>,std::allocator<char> >,CBillClient::tagBillItem *,std::less<std::basic_string<char,std::char_traits<char>,std::allocator<char> > >,std::allocator<std::pair<std::basic_string<char,std::char_traits<char>,std::allocator<char> > const ,CBillClient::tagBillItem *> >,0> >::_Lrotate, COMDAT
; _this$ = ecx

; 1192 : 		_Nodeptr _Pnode = _Right(_Wherenode);

  00000	8b 54 24 04	 mov	 edx, DWORD PTR __Wherenode$[esp-4]
  00004	8b 42 08	 mov	 eax, DWORD PTR [edx+8]
  00007	56		 push	 esi

; 1193 : 		_Right(_Wherenode) = _Left(_Pnode);

  00008	8b 30		 mov	 esi, DWORD PTR [eax]
  0000a	89 72 08	 mov	 DWORD PTR [edx+8], esi

; 1194 : 
; 1195 : 		if (!_Isnil(_Left(_Pnode)))

  0000d	8b 30		 mov	 esi, DWORD PTR [eax]
  0000f	80 7e 2d 00	 cmp	 BYTE PTR [esi+45], 0
  00013	75 03		 jne	 SHORT $LN5@Lrotate

; 1196 : 			_Parent(_Left(_Pnode)) = _Wherenode;

  00015	89 56 04	 mov	 DWORD PTR [esi+4], edx
$LN5@Lrotate:

; 1197 : 		_Parent(_Pnode) = _Parent(_Wherenode);

  00018	8b 72 04	 mov	 esi, DWORD PTR [edx+4]
  0001b	89 70 04	 mov	 DWORD PTR [eax+4], esi

; 1198 : 
; 1199 : 		if (_Wherenode == _Root())

  0001e	8b 49 04	 mov	 ecx, DWORD PTR [ecx+4]
  00021	3b 51 04	 cmp	 edx, DWORD PTR [ecx+4]
  00024	5e		 pop	 esi
  00025	75 0b		 jne	 SHORT $LN4@Lrotate

; 1200 : 			_Root() = _Pnode;

  00027	89 41 04	 mov	 DWORD PTR [ecx+4], eax

; 1205 : 
; 1206 : 		_Left(_Pnode) = _Wherenode;

  0002a	89 10		 mov	 DWORD PTR [eax], edx

; 1207 : 		_Parent(_Wherenode) = _Pnode;

  0002c	89 42 04	 mov	 DWORD PTR [edx+4], eax

; 1208 : 		}

  0002f	c2 04 00	 ret	 4
$LN4@Lrotate:

; 1201 : 		else if (_Wherenode == _Left(_Parent(_Wherenode)))

  00032	8b 4a 04	 mov	 ecx, DWORD PTR [edx+4]
  00035	3b 11		 cmp	 edx, DWORD PTR [ecx]
  00037	75 0a		 jne	 SHORT $LN2@Lrotate

; 1202 : 			_Left(_Parent(_Wherenode)) = _Pnode;

  00039	89 01		 mov	 DWORD PTR [ecx], eax

; 1205 : 
; 1206 : 		_Left(_Pnode) = _Wherenode;

  0003b	89 10		 mov	 DWORD PTR [eax], edx

; 1207 : 		_Parent(_Wherenode) = _Pnode;

  0003d	89 42 04	 mov	 DWORD PTR [edx+4], eax

; 1208 : 		}

  00040	c2 04 00	 ret	 4
$LN2@Lrotate:

; 1203 : 		else
; 1204 : 			_Right(_Parent(_Wherenode)) = _Pnode;

  00043	89 41 08	 mov	 DWORD PTR [ecx+8], eax

; 1205 : 
; 1206 : 		_Left(_Pnode) = _Wherenode;

  00046	89 10		 mov	 DWORD PTR [eax], edx

; 1207 : 		_Parent(_Wherenode) = _Pnode;

  00048	89 42 04	 mov	 DWORD PTR [edx+4], eax

; 1208 : 		}

  0004b	c2 04 00	 ret	 4
?_Lrotate@?$_Tree@V?$_Tmap_traits@V?$basic_string@DU?$char_traits@D@std@@V?$allocator@D@2@@std@@PAUtagBillItem@CBillClient@@U?$less@V?$basic_string@DU?$char_traits@D@std@@V?$allocator@D@2@@std@@@2@V?$allocator@U?$pair@$$CBV?$basic_string@DU?$char_traits@D@std@@V?$allocator@D@2@@std@@PAUtagBillItem@CBillClient@@@std@@@2@$0A@@std@@@std@@IAEXPAU_Node@?$_Tree_nod@V?$_Tmap_traits@V?$basic_string@DU?$char_traits@D@std@@V?$allocator@D@2@@std@@PAUtagBillItem@CBillClient@@U?$less@V?$basic_string@DU?$char_traits@D@std@@V?$allocator@D@2@@std@@@2@V?$allocator@U?$pair@$$CBV?$basic_string@DU?$char_traits@D@std@@V?$allocator@D@2@@std@@PAUtagBillItem@CBillClient@@@std@@@2@$0A@@std@@@2@@Z ENDP ; std::_Tree<std::_Tmap_traits<std::basic_string<char,std::char_traits<char>,std::allocator<char> >,CBillClient::tagBillItem *,std::less<std::basic_string<char,std::char_traits<char>,std::allocator<char> > >,std::allocator<std::pair<std::basic_string<char,std::char_traits<char>,std::allocator<char> > const ,CBillClient::tagBillItem *> >,0> >::_Lrotate
_TEXT	ENDS
PUBLIC	?compare@?$basic_string@DU?$char_traits@D@std@@V?$allocator@D@2@@std@@QBEHIIPBDI@Z ; std::basic_string<char,std::char_traits<char>,std::allocator<char> >::compare
EXTRN	?_Xran@_String_base@std@@SAXXZ:PROC		; std::_String_base::_Xran
; Function compile flags: /Ogtpy
; File d:\program files\microsoft visual studio 8\vc\include\xstring
;	COMDAT ?compare@?$basic_string@DU?$char_traits@D@std@@V?$allocator@D@2@@std@@QBEHIIPBDI@Z
_TEXT	SEGMENT
__Off$ = 8						; size = 4
__N0$ = 12						; size = 4
__Ptr$ = 16						; size = 4
__Count$ = 20						; size = 4
?compare@?$basic_string@DU?$char_traits@D@std@@V?$allocator@D@2@@std@@QBEHIIPBDI@Z PROC ; std::basic_string<char,std::char_traits<char>,std::allocator<char> >::compare, COMDAT
; _this$ = ecx

; 1960 : 		{	// compare [_Off, _Off + _N0) with [_Ptr, _Ptr + _Count)

  00000	53		 push	 ebx
  00001	55		 push	 ebp

; 1961 : 		_DEBUG_POINTER(_Ptr);
; 1962 : 		if (_Mysize < _Off)

  00002	8b 6c 24 0c	 mov	 ebp, DWORD PTR __Off$[esp+4]
  00006	56		 push	 esi
  00007	57		 push	 edi
  00008	8b f9		 mov	 edi, ecx
  0000a	39 6f 14	 cmp	 DWORD PTR [edi+20], ebp
  0000d	73 05		 jae	 SHORT $LN2@compare@2

; 1963 : 			_String_base::_Xran();	// _Off off end

  0000f	e8 00 00 00 00	 call	 ?_Xran@_String_base@std@@SAXXZ ; std::_String_base::_Xran
$LN2@compare@2:

; 1964 : 		if (_Mysize - _Off < _N0)

  00014	8b 47 14	 mov	 eax, DWORD PTR [edi+20]
  00017	8b 74 24 18	 mov	 esi, DWORD PTR __N0$[esp+12]

; 1965 : 			_N0 = _Mysize - _Off;	// trim _N0 to size
; 1966 : 
; 1967 : 		size_type _Ans = _Traits::compare(_Myptr() + _Off, _Ptr,
; 1968 : 			_N0 < _Count ? _N0 : _Count);

  0001b	8b 5c 24 20	 mov	 ebx, DWORD PTR __Count$[esp+12]
  0001f	2b c5		 sub	 eax, ebp
  00021	3b c6		 cmp	 eax, esi
  00023	0f 42 f0	 cmovb	 esi, eax
  00026	3b f3		 cmp	 esi, ebx
  00028	8b c6		 mov	 eax, esi
  0002a	72 02		 jb	 SHORT $LN6@compare@2
  0002c	8b c3		 mov	 eax, ebx
$LN6@compare@2:
  0002e	83 7f 18 10	 cmp	 DWORD PTR [edi+24], 16	; 00000010H
  00032	72 05		 jb	 SHORT $LN13@compare@2
  00034	8b 7f 04	 mov	 edi, DWORD PTR [edi+4]
  00037	eb 03		 jmp	 SHORT $LN14@compare@2
$LN13@compare@2:
  00039	83 c7 04	 add	 edi, 4
$LN14@compare@2:
  0003c	50		 push	 eax
  0003d	8b 44 24 20	 mov	 eax, DWORD PTR __Ptr$[esp+16]
  00041	50		 push	 eax
  00042	03 fd		 add	 edi, ebp
  00044	57		 push	 edi
  00045	e8 00 00 00 00	 call	 ?compare@?$char_traits@D@std@@SAHPBD0I@Z ; std::char_traits<char>::compare
  0004a	83 c4 0c	 add	 esp, 12			; 0000000cH

; 1969 : 		return (_Ans != 0 ? (int)_Ans : _N0 < _Count ? -1
; 1970 : 			: _N0 == _Count ? 0 : +1);

  0004d	85 c0		 test	 eax, eax
  0004f	75 15		 jne	 SHORT $LN8@compare@2
  00051	3b f3		 cmp	 esi, ebx
  00053	73 0a		 jae	 SHORT $LN7@compare@2
  00055	5f		 pop	 edi
  00056	5e		 pop	 esi
  00057	5d		 pop	 ebp
  00058	83 c8 ff	 or	 eax, -1
  0005b	5b		 pop	 ebx

; 1971 : 		}

  0005c	c2 10 00	 ret	 16			; 00000010H
$LN7@compare@2:

; 1969 : 		return (_Ans != 0 ? (int)_Ans : _N0 < _Count ? -1
; 1970 : 			: _N0 == _Count ? 0 : +1);

  0005f	33 c0		 xor	 eax, eax
  00061	3b f3		 cmp	 esi, ebx
  00063	0f 95 c0	 setne	 al
$LN8@compare@2:
  00066	5f		 pop	 edi
  00067	5e		 pop	 esi
  00068	5d		 pop	 ebp
  00069	5b		 pop	 ebx

; 1971 : 		}

  0006a	c2 10 00	 ret	 16			; 00000010H
?compare@?$basic_string@DU?$char_traits@D@std@@V?$allocator@D@2@@std@@QBEHIIPBDI@Z ENDP ; std::basic_string<char,std::char_traits<char>,std::allocator<char> >::compare
_TEXT	ENDS
PUBLIC	??0?$_String_val@DV?$allocator@D@std@@@std@@IAE@V?$allocator@D@1@@Z ; std::_String_val<char,std::allocator<char> >::_String_val<char,std::allocator<char> >
; Function compile flags: /Ogtpy
;	COMDAT ??0?$_String_val@DV?$allocator@D@std@@@std@@IAE@V?$allocator@D@1@@Z
_TEXT	SEGMENT
__Al$ = 8						; size = 1
??0?$_String_val@DV?$allocator@D@std@@@std@@IAE@V?$allocator@D@1@@Z PROC ; std::_String_val<char,std::allocator<char> >::_String_val<char,std::allocator<char> >, COMDAT
; _this$ = ecx

; 471  : 		{	// construct allocator from _Al

  00000	8b c1		 mov	 eax, ecx

; 472  : 		}

  00002	c2 04 00	 ret	 4
??0?$_String_val@DV?$allocator@D@std@@@std@@IAE@V?$allocator@D@1@@Z ENDP ; std::_String_val<char,std::allocator<char> >::_String_val<char,std::allocator<char> >
_TEXT	ENDS
PUBLIC	??0?$_String_val@DV?$allocator@D@std@@@std@@QAE@ABV01@@Z ; std::_String_val<char,std::allocator<char> >::_String_val<char,std::allocator<char> >
; Function compile flags: /Ogtpy
;	COMDAT ??0?$_String_val@DV?$allocator@D@std@@@std@@QAE@ABV01@@Z
_TEXT	SEGMENT
__Right$ = 8						; size = 4
??0?$_String_val@DV?$allocator@D@std@@@std@@QAE@ABV01@@Z PROC ; std::_String_val<char,std::allocator<char> >::_String_val<char,std::allocator<char> >, COMDAT
; _this$ = ecx

; 477  : 		{	// copy constructor

  00000	8b c1		 mov	 eax, ecx

; 478  : #if defined(_DEBUG)
; 479  : 		if (_Right._Myfirstiter == _IGNORE_MYITERLIST)
; 480  : 			{
; 481  : 			this->_Myfirstiter = _IGNORE_MYITERLIST;
; 482  : 			}
; 483  : #endif
; 484  : 		}

  00002	c2 04 00	 ret	 4
??0?$_String_val@DV?$allocator@D@std@@@std@@QAE@ABV01@@Z ENDP ; std::_String_val<char,std::allocator<char> >::_String_val<char,std::allocator<char> >
_TEXT	ENDS
PUBLIC	?allocate@?$allocator@D@std@@QAEPADI@Z		; std::allocator<char>::allocate
; Function compile flags: /Ogtpy
; File d:\program files\microsoft visual studio 8\vc\include\xmemory
;	COMDAT ?allocate@?$allocator@D@std@@QAEPADI@Z
_TEXT	SEGMENT
__Count$ = 8						; size = 4
?allocate@?$allocator@D@std@@QAEPADI@Z PROC		; std::allocator<char>::allocate, COMDAT
; _this$ = ecx

; 146  : 		return (_Allocate(_Count, (pointer)0));

  00000	8b 44 24 04	 mov	 eax, DWORD PTR __Count$[esp-4]
  00004	6a 00		 push	 0
  00006	50		 push	 eax
  00007	e8 00 00 00 00	 call	 ??$_Allocate@D@std@@YAPADIPAD@Z ; std::_Allocate<char>
  0000c	83 c4 08	 add	 esp, 8

; 147  : 		}

  0000f	c2 04 00	 ret	 4
?allocate@?$allocator@D@std@@QAEPADI@Z ENDP		; std::allocator<char>::allocate
_TEXT	ENDS
PUBLIC	?_Eos@?$basic_string@DU?$char_traits@D@std@@V?$allocator@D@2@@std@@IAEXI@Z ; std::basic_string<char,std::char_traits<char>,std::allocator<char> >::_Eos
; Function compile flags: /Ogtpy
; File d:\program files\microsoft visual studio 8\vc\include\xstring
;	COMDAT ?_Eos@?$basic_string@DU?$char_traits@D@std@@V?$allocator@D@2@@std@@IAEXI@Z
_TEXT	SEGMENT
__Newsize$ = 8						; size = 4
?_Eos@?$basic_string@DU?$char_traits@D@std@@V?$allocator@D@2@@std@@IAEXI@Z PROC ; std::basic_string<char,std::char_traits<char>,std::allocator<char> >::_Eos, COMDAT
; _this$ = ecx

; 2031 : 		_Traits::assign(_Myptr()[_Mysize = _Newsize], _Elem());

  00000	83 79 18 10	 cmp	 DWORD PTR [ecx+24], 16	; 00000010H
  00004	8b 44 24 04	 mov	 eax, DWORD PTR __Newsize$[esp-4]
  00008	89 41 14	 mov	 DWORD PTR [ecx+20], eax
  0000b	72 0a		 jb	 SHORT $LN5@Eos
  0000d	8b 49 04	 mov	 ecx, DWORD PTR [ecx+4]
  00010	c6 04 01 00	 mov	 BYTE PTR [ecx+eax], 0

; 2032 : 		}

  00014	c2 04 00	 ret	 4

; 2031 : 		_Traits::assign(_Myptr()[_Mysize = _Newsize], _Elem());

$LN5@Eos:
  00017	c6 44 01 04 00	 mov	 BYTE PTR [ecx+eax+4], 0

; 2032 : 		}

  0001c	c2 04 00	 ret	 4
?_Eos@?$basic_string@DU?$char_traits@D@std@@V?$allocator@D@2@@std@@IAEXI@Z ENDP ; std::basic_string<char,std::char_traits<char>,std::allocator<char> >::_Eos
_TEXT	ENDS
PUBLIC	?_Inside@?$basic_string@DU?$char_traits@D@std@@V?$allocator@D@2@@std@@IAE_NPBD@Z ; std::basic_string<char,std::char_traits<char>,std::allocator<char> >::_Inside
; Function compile flags: /Ogtpy
;	COMDAT ?_Inside@?$basic_string@DU?$char_traits@D@std@@V?$allocator@D@2@@std@@IAE_NPBD@Z
_TEXT	SEGMENT
__Ptr$ = 8						; size = 4
?_Inside@?$basic_string@DU?$char_traits@D@std@@V?$allocator@D@2@@std@@IAE_NPBD@Z PROC ; std::basic_string<char,std::char_traits<char>,std::allocator<char> >::_Inside, COMDAT
; _this$ = ecx

; 2050 : 		{	// test if _Ptr points inside string

  00000	56		 push	 esi

; 2051 : 		_DEBUG_POINTER(_Ptr);
; 2052 : 		if (_Ptr < _Myptr() || _Myptr() + _Mysize <= _Ptr)

  00001	8b 71 18	 mov	 esi, DWORD PTR [ecx+24]
  00004	83 fe 10	 cmp	 esi, 16			; 00000010H
  00007	57		 push	 edi
  00008	8d 41 04	 lea	 eax, DWORD PTR [ecx+4]
  0000b	72 04		 jb	 SHORT $LN8@Inside
  0000d	8b 10		 mov	 edx, DWORD PTR [eax]
  0000f	eb 02		 jmp	 SHORT $LN9@Inside
$LN8@Inside:
  00011	8b d0		 mov	 edx, eax
$LN9@Inside:
  00013	8b 7c 24 0c	 mov	 edi, DWORD PTR __Ptr$[esp+4]
  00017	3b fa		 cmp	 edi, edx
  00019	72 17		 jb	 SHORT $LN2@Inside
  0001b	83 fe 10	 cmp	 esi, 16			; 00000010H
  0001e	72 02		 jb	 SHORT $LN12@Inside
  00020	8b 00		 mov	 eax, DWORD PTR [eax]
$LN12@Inside:
  00022	8b 49 14	 mov	 ecx, DWORD PTR [ecx+20]
  00025	03 c8		 add	 ecx, eax
  00027	3b cf		 cmp	 ecx, edi
  00029	76 07		 jbe	 SHORT $LN2@Inside
  0002b	5f		 pop	 edi

; 2054 : 		else
; 2055 : 			return (true);

  0002c	b0 01		 mov	 al, 1
  0002e	5e		 pop	 esi

; 2056 : 		}

  0002f	c2 04 00	 ret	 4
$LN2@Inside:
  00032	5f		 pop	 edi

; 2053 : 			return (false);	// don't ask

  00033	32 c0		 xor	 al, al
  00035	5e		 pop	 esi

; 2056 : 		}

  00036	c2 04 00	 ret	 4
?_Inside@?$basic_string@DU?$char_traits@D@std@@V?$allocator@D@2@@std@@IAE_NPBD@Z ENDP ; std::basic_string<char,std::char_traits<char>,std::allocator<char> >::_Inside
_TEXT	ENDS
PUBLIC	??Diterator@?$_Tree@V?$_Tmap_traits@V?$basic_string@DU?$char_traits@D@std@@V?$allocator@D@2@@std@@PAUtagBillItem@CBillClient@@U?$less@V?$basic_string@DU?$char_traits@D@std@@V?$allocator@D@2@@std@@@2@V?$allocator@U?$pair@$$CBV?$basic_string@DU?$char_traits@D@std@@V?$allocator@D@2@@std@@PAUtagBillItem@CBillClient@@@std@@@2@$0A@@std@@@std@@QBEAAU?$pair@$$CBV?$basic_string@DU?$char_traits@D@std@@V?$allocator@D@2@@std@@PAUtagBillItem@CBillClient@@@2@XZ ; std::_Tree<std::_Tmap_traits<std::basic_string<char,std::char_traits<char>,std::allocator<char> >,CBillClient::tagBillItem *,std::less<std::basic_string<char,std::char_traits<char>,std::allocator<char> > >,std::allocator<std::pair<std::basic_string<char,std::char_traits<char>,std::allocator<char> > const ,CBillClient::tagBillItem *> >,0> >::iterator::operator*
; Function compile flags: /Ogtpy
; File d:\program files\microsoft visual studio 8\vc\include\xtree
;	COMDAT ??Diterator@?$_Tree@V?$_Tmap_traits@V?$basic_string@DU?$char_traits@D@std@@V?$allocator@D@2@@std@@PAUtagBillItem@CBillClient@@U?$less@V?$basic_string@DU?$char_traits@D@std@@V?$allocator@D@2@@std@@@2@V?$allocator@U?$pair@$$CBV?$basic_string@DU?$char_traits@D@std@@V?$allocator@D@2@@std@@PAUtagBillItem@CBillClient@@@std@@@2@$0A@@std@@@std@@QBEAAU?$pair@$$CBV?$basic_string@DU?$char_traits@D@std@@V?$allocator@D@2@@std@@PAUtagBillItem@CBillClient@@@2@XZ
_TEXT	SEGMENT
??Diterator@?$_Tree@V?$_Tmap_traits@V?$basic_string@DU?$char_traits@D@std@@V?$allocator@D@2@@std@@PAUtagBillItem@CBillClient@@U?$less@V?$basic_string@DU?$char_traits@D@std@@V?$allocator@D@2@@std@@@2@V?$allocator@U?$pair@$$CBV?$basic_string@DU?$char_traits@D@std@@V?$allocator@D@2@@std@@PAUtagBillItem@CBillClient@@@std@@@2@$0A@@std@@@std@@QBEAAU?$pair@$$CBV?$basic_string@DU?$char_traits@D@std@@V?$allocator@D@2@@std@@PAUtagBillItem@CBillClient@@@2@XZ PROC ; std::_Tree<std::_Tmap_traits<std::basic_string<char,std::char_traits<char>,std::allocator<char> >,CBillClient::tagBillItem *,std::less<std::basic_string<char,std::char_traits<char>,std::allocator<char> > >,std::allocator<std::pair<std::basic_string<char,std::char_traits<char>,std::allocator<char> > const ,CBillClient::tagBillItem *> >,0> >::iterator::operator*, COMDAT
; _this$ = ecx

; 450  : 			{	// return designated value

  00000	56		 push	 esi
  00001	8b f1		 mov	 esi, ecx

; 451  : 			return ((reference)**(const_iterator *)this);

  00003	83 3e 00	 cmp	 DWORD PTR [esi], 0
  00006	75 05		 jne	 SHORT $LN4@operator@4
  00008	e8 00 00 00 00	 call	 __invalid_parameter_noinfo
$LN4@operator@4:
  0000d	8b 06		 mov	 eax, DWORD PTR [esi]
  0000f	8b 4e 04	 mov	 ecx, DWORD PTR [esi+4]
  00012	3b 48 04	 cmp	 ecx, DWORD PTR [eax+4]
  00015	75 05		 jne	 SHORT $LN3@operator@4
  00017	e8 00 00 00 00	 call	 __invalid_parameter_noinfo
$LN3@operator@4:
  0001c	8b 46 04	 mov	 eax, DWORD PTR [esi+4]
  0001f	83 c0 0c	 add	 eax, 12			; 0000000cH
  00022	5e		 pop	 esi

; 452  : 			}

  00023	c3		 ret	 0
??Diterator@?$_Tree@V?$_Tmap_traits@V?$basic_string@DU?$char_traits@D@std@@V?$allocator@D@2@@std@@PAUtagBillItem@CBillClient@@U?$less@V?$basic_string@DU?$char_traits@D@std@@V?$allocator@D@2@@std@@@2@V?$allocator@U?$pair@$$CBV?$basic_string@DU?$char_traits@D@std@@V?$allocator@D@2@@std@@PAUtagBillItem@CBillClient@@@std@@@2@$0A@@std@@@std@@QBEAAU?$pair@$$CBV?$basic_string@DU?$char_traits@D@std@@V?$allocator@D@2@@std@@PAUtagBillItem@CBillClient@@@2@XZ ENDP ; std::_Tree<std::_Tmap_traits<std::basic_string<char,std::char_traits<char>,std::allocator<char> >,CBillClient::tagBillItem *,std::less<std::basic_string<char,std::char_traits<char>,std::allocator<char> > >,std::allocator<std::pair<std::basic_string<char,std::char_traits<char>,std::allocator<char> > const ,CBillClient::tagBillItem *> >,0> >::iterator::operator*
_TEXT	ENDS
PUBLIC	?destroy@?$allocator@PAU_Node@?$_Tree_nod@V?$_Tmap_traits@V?$basic_string@DU?$char_traits@D@std@@V?$allocator@D@2@@std@@PAUtagBillItem@CBillClient@@U?$less@V?$basic_string@DU?$char_traits@D@std@@V?$allocator@D@2@@std@@@2@V?$allocator@U?$pair@$$CBV?$basic_string@DU?$char_traits@D@std@@V?$allocator@D@2@@std@@PAUtagBillItem@CBillClient@@@std@@@2@$0A@@std@@@std@@@std@@QAEXPAPAU_Node@?$_Tree_nod@V?$_Tmap_traits@V?$basic_string@DU?$char_traits@D@std@@V?$allocator@D@2@@std@@PAUtagBillItem@CBillClient@@U?$less@V?$basic_string@DU?$char_traits@D@std@@V?$allocator@D@2@@std@@@2@V?$allocator@U?$pair@$$CBV?$basic_string@DU?$char_traits@D@std@@V?$allocator@D@2@@std@@PAUtagBillItem@CBillClient@@@std@@@2@$0A@@std@@@2@@Z ; std::allocator<std::_Tree_nod<std::_Tmap_traits<std::basic_string<char,std::char_traits<char>,std::allocator<char> >,CBillClient::tagBillItem *,std::less<std::basic_string<char,std::char_traits<char>,std::allocator<char> > >,std::allocator<std::pair<std::basic_string<char,std::char_traits<char>,std::allocator<char> > const ,CBillClient::tagBillItem *> >,0> >::_Node *>::destroy
; Function compile flags: /Ogtpy
; File d:\program files\microsoft visual studio 8\vc\include\xmemory
;	COMDAT ?destroy@?$allocator@PAU_Node@?$_Tree_nod@V?$_Tmap_traits@V?$basic_string@DU?$char_traits@D@std@@V?$allocator@D@2@@std@@PAUtagBillItem@CBillClient@@U?$less@V?$basic_string@DU?$char_traits@D@std@@V?$allocator@D@2@@std@@@2@V?$allocator@U?$pair@$$CBV?$basic_string@DU?$char_traits@D@std@@V?$allocator@D@2@@std@@PAUtagBillItem@CBillClient@@@std@@@2@$0A@@std@@@std@@@std@@QAEXPAPAU_Node@?$_Tree_nod@V?$_Tmap_traits@V?$basic_string@DU?$char_traits@D@std@@V?$allocator@D@2@@std@@PAUtagBillItem@CBillClient@@U?$less@V?$basic_string@DU?$char_traits@D@std@@V?$allocator@D@2@@std@@@2@V?$allocator@U?$pair@$$CBV?$basic_string@DU?$char_traits@D@std@@V?$allocator@D@2@@std@@PAUtagBillItem@CBillClient@@@std@@@2@$0A@@std@@@2@@Z
_TEXT	SEGMENT
__Ptr$ = 8						; size = 4
?destroy@?$allocator@PAU_Node@?$_Tree_nod@V?$_Tmap_traits@V?$basic_string@DU?$char_traits@D@std@@V?$allocator@D@2@@std@@PAUtagBillItem@CBillClient@@U?$less@V?$basic_string@DU?$char_traits@D@std@@V?$allocator@D@2@@std@@@2@V?$allocator@U?$pair@$$CBV?$basic_string@DU?$char_traits@D@std@@V?$allocator@D@2@@std@@PAUtagBillItem@CBillClient@@@std@@@2@$0A@@std@@@std@@@std@@QAEXPAPAU_Node@?$_Tree_nod@V?$_Tmap_traits@V?$basic_string@DU?$char_traits@D@std@@V?$allocator@D@2@@std@@PAUtagBillItem@CBillClient@@U?$less@V?$basic_string@DU?$char_traits@D@std@@V?$allocator@D@2@@std@@@2@V?$allocator@U?$pair@$$CBV?$basic_string@DU?$char_traits@D@std@@V?$allocator@D@2@@std@@PAUtagBillItem@CBillClient@@@std@@@2@$0A@@std@@@2@@Z PROC ; std::allocator<std::_Tree_nod<std::_Tmap_traits<std::basic_string<char,std::char_traits<char>,std::allocator<char> >,CBillClient::tagBillItem *,std::less<std::basic_string<char,std::char_traits<char>,std::allocator<char> > >,std::allocator<std::pair<std::basic_string<char,std::char_traits<char>,std::allocator<char> > const ,CBillClient::tagBillItem *> >,0> >::_Node *>::destroy, COMDAT
; _this$ = ecx

; 161  : 		_Destroy(_Ptr);
; 162  : 		}

  00000	c2 04 00	 ret	 4
?destroy@?$allocator@PAU_Node@?$_Tree_nod@V?$_Tmap_traits@V?$basic_string@DU?$char_traits@D@std@@V?$allocator@D@2@@std@@PAUtagBillItem@CBillClient@@U?$less@V?$basic_string@DU?$char_traits@D@std@@V?$allocator@D@2@@std@@@2@V?$allocator@U?$pair@$$CBV?$basic_string@DU?$char_traits@D@std@@V?$allocator@D@2@@std@@PAUtagBillItem@CBillClient@@@std@@@2@$0A@@std@@@std@@@std@@QAEXPAPAU_Node@?$_Tree_nod@V?$_Tmap_traits@V?$basic_string@DU?$char_traits@D@std@@V?$allocator@D@2@@std@@PAUtagBillItem@CBillClient@@U?$less@V?$basic_string@DU?$char_traits@D@std@@V?$allocator@D@2@@std@@@2@V?$allocator@U?$pair@$$CBV?$basic_string@DU?$char_traits@D@std@@V?$allocator@D@2@@std@@PAUtagBillItem@CBillClient@@@std@@@2@$0A@@std@@@2@@Z ENDP ; std::allocator<std::_Tree_nod<std::_Tmap_traits<std::basic_string<char,std::char_traits<char>,std::allocator<char> >,CBillClient::tagBillItem *,std::less<std::basic_string<char,std::char_traits<char>,std::allocator<char> > >,std::allocator<std::pair<std::basic_string<char,std::char_traits<char>,std::allocator<char> > const ,CBillClient::tagBillItem *> >,0> >::_Node *>::destroy
_TEXT	ENDS
PUBLIC	?max_size@?$basic_string@DU?$char_traits@D@std@@V?$allocator@D@2@@std@@QBEIXZ ; std::basic_string<char,std::char_traits<char>,std::allocator<char> >::max_size
; Function compile flags: /Ogtpy
; File d:\program files\microsoft visual studio 8\vc\include\xstring
;	COMDAT ?max_size@?$basic_string@DU?$char_traits@D@std@@V?$allocator@D@2@@std@@QBEIXZ
_TEXT	SEGMENT
?max_size@?$basic_string@DU?$char_traits@D@std@@V?$allocator@D@2@@std@@QBEIXZ PROC ; std::basic_string<char,std::char_traits<char>,std::allocator<char> >::max_size, COMDAT
; _this$ = ecx

; 1642 : 		size_type _Num = _Mybase::_Alval.max_size();
; 1643 : 		return (_Num <= 1 ? 1 : _Num - 1);

  00000	b8 fe ff ff ff	 mov	 eax, -2			; fffffffeH

; 1644 : 		}

  00005	c3		 ret	 0
?max_size@?$basic_string@DU?$char_traits@D@std@@V?$allocator@D@2@@std@@QBEIXZ ENDP ; std::basic_string<char,std::char_traits<char>,std::allocator<char> >::max_size
_TEXT	ENDS
PUBLIC	??$copy_s@U?$char_traits@D@std@@@_Traits_helper@std@@YAPADPADIPBDI@Z ; std::_Traits_helper::copy_s<std::char_traits<char> >
; Function compile flags: /Ogtpy
; File d:\program files\microsoft visual studio 8\vc\include\iosfwd
;	COMDAT ??$copy_s@U?$char_traits@D@std@@@_Traits_helper@std@@YAPADPADIPBDI@Z
_TEXT	SEGMENT
__First1$ = 8						; size = 4
__Size$ = 12						; size = 4
__First2$ = 16						; size = 4
__Count$ = 20						; size = 4
??$copy_s@U?$char_traits@D@std@@@_Traits_helper@std@@YAPADPADIPBDI@Z PROC ; std::_Traits_helper::copy_s<std::char_traits<char> >, COMDAT

; 582  : 		return copy_s<_Traits>(_First1, _Size, _First2, _Count, _Char_traits_cat<_Traits>());

  00000	8b 44 24 10	 mov	 eax, DWORD PTR __Count$[esp-4]
  00004	8b 4c 24 0c	 mov	 ecx, DWORD PTR __First2$[esp-4]
  00008	8b 54 24 08	 mov	 edx, DWORD PTR __Size$[esp-4]
  0000c	56		 push	 esi
  0000d	8b 74 24 08	 mov	 esi, DWORD PTR __First1$[esp]
  00011	50		 push	 eax
  00012	51		 push	 ecx
  00013	52		 push	 edx
  00014	56		 push	 esi
  00015	e8 00 00 00 00	 call	 _memcpy_s
  0001a	83 c4 10	 add	 esp, 16			; 00000010H
  0001d	8b c6		 mov	 eax, esi
  0001f	5e		 pop	 esi

; 583  : 	}

  00020	c3		 ret	 0
??$copy_s@U?$char_traits@D@std@@@_Traits_helper@std@@YAPADPADIPBDI@Z ENDP ; std::_Traits_helper::copy_s<std::char_traits<char> >
_TEXT	ENDS
PUBLIC	??$move_s@U?$char_traits@D@std@@@_Traits_helper@std@@YAPADPADIPBDI@Z ; std::_Traits_helper::move_s<std::char_traits<char> >
; Function compile flags: /Ogtpy
;	COMDAT ??$move_s@U?$char_traits@D@std@@@_Traits_helper@std@@YAPADPADIPBDI@Z
_TEXT	SEGMENT
__First1$ = 8						; size = 4
__Size$ = 12						; size = 4
__First2$ = 16						; size = 4
__Count$ = 20						; size = 4
??$move_s@U?$char_traits@D@std@@@_Traits_helper@std@@YAPADPADIPBDI@Z PROC ; std::_Traits_helper::move_s<std::char_traits<char> >, COMDAT

; 609  : 		return move_s<_Traits>(_First1, _Size, _First2, _Count, _Char_traits_cat<_Traits>());

  00000	8b 44 24 10	 mov	 eax, DWORD PTR __Count$[esp-4]
  00004	8b 4c 24 0c	 mov	 ecx, DWORD PTR __First2$[esp-4]
  00008	8b 54 24 08	 mov	 edx, DWORD PTR __Size$[esp-4]
  0000c	56		 push	 esi
  0000d	8b 74 24 08	 mov	 esi, DWORD PTR __First1$[esp]
  00011	50		 push	 eax
  00012	51		 push	 ecx
  00013	52		 push	 edx
  00014	56		 push	 esi
  00015	e8 00 00 00 00	 call	 _memmove_s
  0001a	83 c4 10	 add	 esp, 16			; 00000010H
  0001d	8b c6		 mov	 eax, esi
  0001f	5e		 pop	 esi

; 610  : 	}

  00020	c3		 ret	 0
??$move_s@U?$char_traits@D@std@@@_Traits_helper@std@@YAPADPADIPBDI@Z ENDP ; std::_Traits_helper::move_s<std::char_traits<char> >
_TEXT	ENDS
PUBLIC	??0iterator@?$_Tree@V?$_Tmap_traits@V?$basic_string@DU?$char_traits@D@std@@V?$allocator@D@2@@std@@PAUtagBillItem@CBillClient@@U?$less@V?$basic_string@DU?$char_traits@D@std@@V?$allocator@D@2@@std@@@2@V?$allocator@U?$pair@$$CBV?$basic_string@DU?$char_traits@D@std@@V?$allocator@D@2@@std@@PAUtagBillItem@CBillClient@@@std@@@2@$0A@@std@@@std@@QAE@XZ ; std::_Tree<std::_Tmap_traits<std::basic_string<char,std::char_traits<char>,std::allocator<char> >,CBillClient::tagBillItem *,std::less<std::basic_string<char,std::char_traits<char>,std::allocator<char> > >,std::allocator<std::pair<std::basic_string<char,std::char_traits<char>,std::allocator<char> > const ,CBillClient::tagBillItem *> >,0> >::iterator::iterator
; Function compile flags: /Ogtpy
; File d:\program files\microsoft visual studio 8\vc\include\xtree
;	COMDAT ??0iterator@?$_Tree@V?$_Tmap_traits@V?$basic_string@DU?$char_traits@D@std@@V?$allocator@D@2@@std@@PAUtagBillItem@CBillClient@@U?$less@V?$basic_string@DU?$char_traits@D@std@@V?$allocator@D@2@@std@@@2@V?$allocator@U?$pair@$$CBV?$basic_string@DU?$char_traits@D@std@@V?$allocator@D@2@@std@@PAUtagBillItem@CBillClient@@@std@@@2@$0A@@std@@@std@@QAE@XZ
_TEXT	SEGMENT
??0iterator@?$_Tree@V?$_Tmap_traits@V?$basic_string@DU?$char_traits@D@std@@V?$allocator@D@2@@std@@PAUtagBillItem@CBillClient@@U?$less@V?$basic_string@DU?$char_traits@D@std@@V?$allocator@D@2@@std@@@2@V?$allocator@U?$pair@$$CBV?$basic_string@DU?$char_traits@D@std@@V?$allocator@D@2@@std@@PAUtagBillItem@CBillClient@@@std@@@2@$0A@@std@@@std@@QAE@XZ PROC ; std::_Tree<std::_Tmap_traits<std::basic_string<char,std::char_traits<char>,std::allocator<char> >,CBillClient::tagBillItem *,std::less<std::basic_string<char,std::char_traits<char>,std::allocator<char> > >,std::allocator<std::pair<std::basic_string<char,std::char_traits<char>,std::allocator<char> > const ,CBillClient::tagBillItem *> >,0> >::iterator::iterator, COMDAT
; _this$ = ecx

; 420  : 		iterator()

  00000	8b c1		 mov	 eax, ecx
  00002	c7 00 00 00 00
	00		 mov	 DWORD PTR [eax], 0
  00008	c7 40 04 00 00
	00 00		 mov	 DWORD PTR [eax+4], 0

; 421  : 			{	// construct with null node pointer
; 422  : 			}

  0000f	c3		 ret	 0
??0iterator@?$_Tree@V?$_Tmap_traits@V?$basic_string@DU?$char_traits@D@std@@V?$allocator@D@2@@std@@PAUtagBillItem@CBillClient@@U?$less@V?$basic_string@DU?$char_traits@D@std@@V?$allocator@D@2@@std@@@2@V?$allocator@U?$pair@$$CBV?$basic_string@DU?$char_traits@D@std@@V?$allocator@D@2@@std@@PAUtagBillItem@CBillClient@@@std@@@2@$0A@@std@@@std@@QAE@XZ ENDP ; std::_Tree<std::_Tmap_traits<std::basic_string<char,std::char_traits<char>,std::allocator<char> >,CBillClient::tagBillItem *,std::less<std::basic_string<char,std::char_traits<char>,std::allocator<char> > >,std::allocator<std::pair<std::basic_string<char,std::char_traits<char>,std::allocator<char> > const ,CBillClient::tagBillItem *> >,0> >::iterator::iterator
_TEXT	ENDS
PUBLIC	??0const_iterator@?$_Tree@V?$_Tmap_traits@V?$basic_string@DU?$char_traits@D@std@@V?$allocator@D@2@@std@@PAUtagBillItem@CBillClient@@U?$less@V?$basic_string@DU?$char_traits@D@std@@V?$allocator@D@2@@std@@@2@V?$allocator@U?$pair@$$CBV?$basic_string@DU?$char_traits@D@std@@V?$allocator@D@2@@std@@PAUtagBillItem@CBillClient@@@std@@@2@$0A@@std@@@std@@QAE@PAU_Node@?$_Tree_nod@V?$_Tmap_traits@V?$basic_string@DU?$char_traits@D@std@@V?$allocator@D@2@@std@@PAUtagBillItem@CBillClient@@U?$less@V?$basic_string@DU?$char_traits@D@std@@V?$allocator@D@2@@std@@@2@V?$allocator@U?$pair@$$CBV?$basic_string@DU?$char_traits@D@std@@V?$allocator@D@2@@std@@PAUtagBillItem@CBillClient@@@std@@@2@$0A@@std@@@2@PBV12@@Z ; std::_Tree<std::_Tmap_traits<std::basic_string<char,std::char_traits<char>,std::allocator<char> >,CBillClient::tagBillItem *,std::less<std::basic_string<char,std::char_traits<char>,std::allocator<char> > >,std::allocator<std::pair<std::basic_string<char,std::char_traits<char>,std::allocator<char> > const ,CBillClient::tagBillItem *> >,0> >::const_iterator::const_iterator
; Function compile flags: /Ogtpy
;	COMDAT ??0const_iterator@?$_Tree@V?$_Tmap_traits@V?$basic_string@DU?$char_traits@D@std@@V?$allocator@D@2@@std@@PAUtagBillItem@CBillClient@@U?$less@V?$basic_string@DU?$char_traits@D@std@@V?$allocator@D@2@@std@@@2@V?$allocator@U?$pair@$$CBV?$basic_string@DU?$char_traits@D@std@@V?$allocator@D@2@@std@@PAUtagBillItem@CBillClient@@@std@@@2@$0A@@std@@@std@@QAE@PAU_Node@?$_Tree_nod@V?$_Tmap_traits@V?$basic_string@DU?$char_traits@D@std@@V?$allocator@D@2@@std@@PAUtagBillItem@CBillClient@@U?$less@V?$basic_string@DU?$char_traits@D@std@@V?$allocator@D@2@@std@@@2@V?$allocator@U?$pair@$$CBV?$basic_string@DU?$char_traits@D@std@@V?$allocator@D@2@@std@@PAUtagBillItem@CBillClient@@@std@@@2@$0A@@std@@@2@PBV12@@Z
_TEXT	SEGMENT
__Pnode$ = 8						; size = 4
__Plist$ = 12						; size = 4
??0const_iterator@?$_Tree@V?$_Tmap_traits@V?$basic_string@DU?$char_traits@D@std@@V?$allocator@D@2@@std@@PAUtagBillItem@CBillClient@@U?$less@V?$basic_string@DU?$char_traits@D@std@@V?$allocator@D@2@@std@@@2@V?$allocator@U?$pair@$$CBV?$basic_string@DU?$char_traits@D@std@@V?$allocator@D@2@@std@@PAUtagBillItem@CBillClient@@@std@@@2@$0A@@std@@@std@@QAE@PAU_Node@?$_Tree_nod@V?$_Tmap_traits@V?$basic_string@DU?$char_traits@D@std@@V?$allocator@D@2@@std@@PAUtagBillItem@CBillClient@@U?$less@V?$basic_string@DU?$char_traits@D@std@@V?$allocator@D@2@@std@@@2@V?$allocator@U?$pair@$$CBV?$basic_string@DU?$char_traits@D@std@@V?$allocator@D@2@@std@@PAUtagBillItem@CBillClient@@@std@@@2@$0A@@std@@@2@PBV12@@Z PROC ; std::_Tree<std::_Tmap_traits<std::basic_string<char,std::char_traits<char>,std::allocator<char> >,CBillClient::tagBillItem *,std::less<std::basic_string<char,std::char_traits<char>,std::allocator<char> > >,std::allocator<std::pair<std::basic_string<char,std::char_traits<char>,std::allocator<char> > const ,CBillClient::tagBillItem *> >,0> >::const_iterator::const_iterator, COMDAT
; _this$ = ecx

; 224  : 			{	// construct with node pointer _Pnode

  00000	8b 44 24 04	 mov	 eax, DWORD PTR __Pnode$[esp-4]
  00004	56		 push	 esi
  00005	57		 push	 edi

; 225  : 			_SCL_SECURE_VALIDATE(_Plist != NULL);

  00006	8b 7c 24 10	 mov	 edi, DWORD PTR __Plist$[esp+4]
  0000a	85 ff		 test	 edi, edi
  0000c	8b f1		 mov	 esi, ecx
  0000e	c7 06 00 00 00
	00		 mov	 DWORD PTR [esi], 0
  00014	89 46 04	 mov	 DWORD PTR [esi+4], eax
  00017	75 05		 jne	 SHORT $LN8@const_iter
  00019	e8 00 00 00 00	 call	 __invalid_parameter_noinfo
$LN8@const_iter:

; 226  : 			this->_Mycont =_Plist;

  0001e	89 3e		 mov	 DWORD PTR [esi], edi
  00020	5f		 pop	 edi

; 227  : 			}

  00021	8b c6		 mov	 eax, esi
  00023	5e		 pop	 esi
  00024	c2 08 00	 ret	 8
??0const_iterator@?$_Tree@V?$_Tmap_traits@V?$basic_string@DU?$char_traits@D@std@@V?$allocator@D@2@@std@@PAUtagBillItem@CBillClient@@U?$less@V?$basic_string@DU?$char_traits@D@std@@V?$allocator@D@2@@std@@@2@V?$allocator@U?$pair@$$CBV?$basic_string@DU?$char_traits@D@std@@V?$allocator@D@2@@std@@PAUtagBillItem@CBillClient@@@std@@@2@$0A@@std@@@std@@QAE@PAU_Node@?$_Tree_nod@V?$_Tmap_traits@V?$basic_string@DU?$char_traits@D@std@@V?$allocator@D@2@@std@@PAUtagBillItem@CBillClient@@U?$less@V?$basic_string@DU?$char_traits@D@std@@V?$allocator@D@2@@std@@@2@V?$allocator@U?$pair@$$CBV?$basic_string@DU?$char_traits@D@std@@V?$allocator@D@2@@std@@PAUtagBillItem@CBillClient@@@std@@@2@$0A@@std@@@2@PBV12@@Z ENDP ; std::_Tree<std::_Tmap_traits<std::basic_string<char,std::char_traits<char>,std::allocator<char> >,CBillClient::tagBillItem *,std::less<std::basic_string<char,std::char_traits<char>,std::allocator<char> > >,std::allocator<std::pair<std::basic_string<char,std::char_traits<char>,std::allocator<char> > const ,CBillClient::tagBillItem *> >,0> >::const_iterator::const_iterator
_TEXT	ENDS
PUBLIC	??Econst_iterator@?$_Tree@V?$_Tmap_traits@V?$basic_string@DU?$char_traits@D@std@@V?$allocator@D@2@@std@@PAUtagBillItem@CBillClient@@U?$less@V?$basic_string@DU?$char_traits@D@std@@V?$allocator@D@2@@std@@@2@V?$allocator@U?$pair@$$CBV?$basic_string@DU?$char_traits@D@std@@V?$allocator@D@2@@std@@PAUtagBillItem@CBillClient@@@std@@@2@$0A@@std@@@std@@QAEAAV012@XZ ; std::_Tree<std::_Tmap_traits<std::basic_string<char,std::char_traits<char>,std::allocator<char> >,CBillClient::tagBillItem *,std::less<std::basic_string<char,std::char_traits<char>,std::allocator<char> > >,std::allocator<std::pair<std::basic_string<char,std::char_traits<char>,std::allocator<char> > const ,CBillClient::tagBillItem *> >,0> >::const_iterator::operator++
; Function compile flags: /Ogtpy
;	COMDAT ??Econst_iterator@?$_Tree@V?$_Tmap_traits@V?$basic_string@DU?$char_traits@D@std@@V?$allocator@D@2@@std@@PAUtagBillItem@CBillClient@@U?$less@V?$basic_string@DU?$char_traits@D@std@@V?$allocator@D@2@@std@@@2@V?$allocator@U?$pair@$$CBV?$basic_string@DU?$char_traits@D@std@@V?$allocator@D@2@@std@@PAUtagBillItem@CBillClient@@@std@@@2@$0A@@std@@@std@@QAEAAV012@XZ
_TEXT	SEGMENT
??Econst_iterator@?$_Tree@V?$_Tmap_traits@V?$basic_string@DU?$char_traits@D@std@@V?$allocator@D@2@@std@@PAUtagBillItem@CBillClient@@U?$less@V?$basic_string@DU?$char_traits@D@std@@V?$allocator@D@2@@std@@@2@V?$allocator@U?$pair@$$CBV?$basic_string@DU?$char_traits@D@std@@V?$allocator@D@2@@std@@PAUtagBillItem@CBillClient@@@std@@@2@$0A@@std@@@std@@QAEAAV012@XZ PROC ; std::_Tree<std::_Tmap_traits<std::basic_string<char,std::char_traits<char>,std::allocator<char> >,CBillClient::tagBillItem *,std::less<std::basic_string<char,std::char_traits<char>,std::allocator<char> > >,std::allocator<std::pair<std::basic_string<char,std::char_traits<char>,std::allocator<char> > const ,CBillClient::tagBillItem *> >,0> >::const_iterator::operator++, COMDAT
; _this$ = ecx

; 262  : 			{	// preincrement

  00000	56		 push	 esi
  00001	8b f1		 mov	 esi, ecx

; 263  : 			_Inc();

  00003	e8 00 00 00 00	 call	 ?_Inc@const_iterator@?$_Tree@V?$_Tmap_traits@V?$basic_string@DU?$char_traits@D@std@@V?$allocator@D@2@@std@@PAUtagBillItem@CBillClient@@U?$less@V?$basic_string@DU?$char_traits@D@std@@V?$allocator@D@2@@std@@@2@V?$allocator@U?$pair@$$CBV?$basic_string@DU?$char_traits@D@std@@V?$allocator@D@2@@std@@PAUtagBillItem@CBillClient@@@std@@@2@$0A@@std@@@std@@QAEXXZ ; std::_Tree<std::_Tmap_traits<std::basic_string<char,std::char_traits<char>,std::allocator<char> >,CBillClient::tagBillItem *,std::less<std::basic_string<char,std::char_traits<char>,std::allocator<char> > >,std::allocator<std::pair<std::basic_string<char,std::char_traits<char>,std::allocator<char> > const ,CBillClient::tagBillItem *> >,0> >::const_iterator::_Inc

; 264  : 			return (*this);

  00008	8b c6		 mov	 eax, esi
  0000a	5e		 pop	 esi

; 265  : 			}

  0000b	c3		 ret	 0
??Econst_iterator@?$_Tree@V?$_Tmap_traits@V?$basic_string@DU?$char_traits@D@std@@V?$allocator@D@2@@std@@PAUtagBillItem@CBillClient@@U?$less@V?$basic_string@DU?$char_traits@D@std@@V?$allocator@D@2@@std@@@2@V?$allocator@U?$pair@$$CBV?$basic_string@DU?$char_traits@D@std@@V?$allocator@D@2@@std@@PAUtagBillItem@CBillClient@@@std@@@2@$0A@@std@@@std@@QAEAAV012@XZ ENDP ; std::_Tree<std::_Tmap_traits<std::basic_string<char,std::char_traits<char>,std::allocator<char> >,CBillClient::tagBillItem *,std::less<std::basic_string<char,std::char_traits<char>,std::allocator<char> > >,std::allocator<std::pair<std::basic_string<char,std::char_traits<char>,std::allocator<char> > const ,CBillClient::tagBillItem *> >,0> >::const_iterator::operator++
_TEXT	ENDS
PUBLIC	?max_size@?$_Tree@V?$_Tmap_traits@V?$basic_string@DU?$char_traits@D@std@@V?$allocator@D@2@@std@@PAUtagBillItem@CBillClient@@U?$less@V?$basic_string@DU?$char_traits@D@std@@V?$allocator@D@2@@std@@@2@V?$allocator@U?$pair@$$CBV?$basic_string@DU?$char_traits@D@std@@V?$allocator@D@2@@std@@PAUtagBillItem@CBillClient@@@std@@@2@$0A@@std@@@std@@QBEIXZ ; std::_Tree<std::_Tmap_traits<std::basic_string<char,std::char_traits<char>,std::allocator<char> >,CBillClient::tagBillItem *,std::less<std::basic_string<char,std::char_traits<char>,std::allocator<char> > >,std::allocator<std::pair<std::basic_string<char,std::char_traits<char>,std::allocator<char> > const ,CBillClient::tagBillItem *> >,0> >::max_size
; Function compile flags: /Ogtpy
;	COMDAT ?max_size@?$_Tree@V?$_Tmap_traits@V?$basic_string@DU?$char_traits@D@std@@V?$allocator@D@2@@std@@PAUtagBillItem@CBillClient@@U?$less@V?$basic_string@DU?$char_traits@D@std@@V?$allocator@D@2@@std@@@2@V?$allocator@U?$pair@$$CBV?$basic_string@DU?$char_traits@D@std@@V?$allocator@D@2@@std@@PAUtagBillItem@CBillClient@@@std@@@2@$0A@@std@@@std@@QBEIXZ
_TEXT	SEGMENT
?max_size@?$_Tree@V?$_Tmap_traits@V?$basic_string@DU?$char_traits@D@std@@V?$allocator@D@2@@std@@PAUtagBillItem@CBillClient@@U?$less@V?$basic_string@DU?$char_traits@D@std@@V?$allocator@D@2@@std@@@2@V?$allocator@U?$pair@$$CBV?$basic_string@DU?$char_traits@D@std@@V?$allocator@D@2@@std@@PAUtagBillItem@CBillClient@@@std@@@2@$0A@@std@@@std@@QBEIXZ PROC ; std::_Tree<std::_Tmap_traits<std::basic_string<char,std::char_traits<char>,std::allocator<char> >,CBillClient::tagBillItem *,std::less<std::basic_string<char,std::char_traits<char>,std::allocator<char> > >,std::allocator<std::pair<std::basic_string<char,std::char_traits<char>,std::allocator<char> > const ,CBillClient::tagBillItem *> >,0> >::max_size, COMDAT
; _this$ = ecx

; 587  : 		return (this->_Alval.max_size());

  00000	b8 ff ff ff 07	 mov	 eax, 134217727		; 07ffffffH

; 588  : 		}

  00005	c3		 ret	 0
?max_size@?$_Tree@V?$_Tmap_traits@V?$basic_string@DU?$char_traits@D@std@@V?$allocator@D@2@@std@@PAUtagBillItem@CBillClient@@U?$less@V?$basic_string@DU?$char_traits@D@std@@V?$allocator@D@2@@std@@@2@V?$allocator@U?$pair@$$CBV?$basic_string@DU?$char_traits@D@std@@V?$allocator@D@2@@std@@PAUtagBillItem@CBillClient@@@std@@@2@$0A@@std@@@std@@QBEIXZ ENDP ; std::_Tree<std::_Tmap_traits<std::basic_string<char,std::char_traits<char>,std::allocator<char> >,CBillClient::tagBillItem *,std::less<std::basic_string<char,std::char_traits<char>,std::allocator<char> > >,std::allocator<std::pair<std::basic_string<char,std::char_traits<char>,std::allocator<char> > const ,CBillClient::tagBillItem *> >,0> >::max_size
_TEXT	ENDS
PUBLIC	??Fconst_iterator@?$_Tree@V?$_Tmap_traits@V?$basic_string@DU?$char_traits@D@std@@V?$allocator@D@2@@std@@PAUtagBillItem@CBillClient@@U?$less@V?$basic_string@DU?$char_traits@D@std@@V?$allocator@D@2@@std@@@2@V?$allocator@U?$pair@$$CBV?$basic_string@DU?$char_traits@D@std@@V?$allocator@D@2@@std@@PAUtagBillItem@CBillClient@@@std@@@2@$0A@@std@@@std@@QAEAAV012@XZ ; std::_Tree<std::_Tmap_traits<std::basic_string<char,std::char_traits<char>,std::allocator<char> >,CBillClient::tagBillItem *,std::less<std::basic_string<char,std::char_traits<char>,std::allocator<char> > >,std::allocator<std::pair<std::basic_string<char,std::char_traits<char>,std::allocator<char> > const ,CBillClient::tagBillItem *> >,0> >::const_iterator::operator--
; Function compile flags: /Ogtpy
;	COMDAT ??Fconst_iterator@?$_Tree@V?$_Tmap_traits@V?$basic_string@DU?$char_traits@D@std@@V?$allocator@D@2@@std@@PAUtagBillItem@CBillClient@@U?$less@V?$basic_string@DU?$char_traits@D@std@@V?$allocator@D@2@@std@@@2@V?$allocator@U?$pair@$$CBV?$basic_string@DU?$char_traits@D@std@@V?$allocator@D@2@@std@@PAUtagBillItem@CBillClient@@@std@@@2@$0A@@std@@@std@@QAEAAV012@XZ
_TEXT	SEGMENT
??Fconst_iterator@?$_Tree@V?$_Tmap_traits@V?$basic_string@DU?$char_traits@D@std@@V?$allocator@D@2@@std@@PAUtagBillItem@CBillClient@@U?$less@V?$basic_string@DU?$char_traits@D@std@@V?$allocator@D@2@@std@@@2@V?$allocator@U?$pair@$$CBV?$basic_string@DU?$char_traits@D@std@@V?$allocator@D@2@@std@@PAUtagBillItem@CBillClient@@@std@@@2@$0A@@std@@@std@@QAEAAV012@XZ PROC ; std::_Tree<std::_Tmap_traits<std::basic_string<char,std::char_traits<char>,std::allocator<char> >,CBillClient::tagBillItem *,std::less<std::basic_string<char,std::char_traits<char>,std::allocator<char> > >,std::allocator<std::pair<std::basic_string<char,std::char_traits<char>,std::allocator<char> > const ,CBillClient::tagBillItem *> >,0> >::const_iterator::operator--, COMDAT
; _this$ = ecx

; 275  : 			{	// predecrement

  00000	56		 push	 esi
  00001	8b f1		 mov	 esi, ecx

; 276  : 			_Dec();

  00003	e8 00 00 00 00	 call	 ?_Dec@const_iterator@?$_Tree@V?$_Tmap_traits@V?$basic_string@DU?$char_traits@D@std@@V?$allocator@D@2@@std@@PAUtagBillItem@CBillClient@@U?$less@V?$basic_string@DU?$char_traits@D@std@@V?$allocator@D@2@@std@@@2@V?$allocator@U?$pair@$$CBV?$basic_string@DU?$char_traits@D@std@@V?$allocator@D@2@@std@@PAUtagBillItem@CBillClient@@@std@@@2@$0A@@std@@@std@@QAEXXZ ; std::_Tree<std::_Tmap_traits<std::basic_string<char,std::char_traits<char>,std::allocator<char> >,CBillClient::tagBillItem *,std::less<std::basic_string<char,std::char_traits<char>,std::allocator<char> > >,std::allocator<std::pair<std::basic_string<char,std::char_traits<char>,std::allocator<char> > const ,CBillClient::tagBillItem *> >,0> >::const_iterator::_Dec

; 277  : 			return (*this);

  00008	8b c6		 mov	 eax, esi
  0000a	5e		 pop	 esi

; 278  : 			}

  0000b	c3		 ret	 0
??Fconst_iterator@?$_Tree@V?$_Tmap_traits@V?$basic_string@DU?$char_traits@D@std@@V?$allocator@D@2@@std@@PAUtagBillItem@CBillClient@@U?$less@V?$basic_string@DU?$char_traits@D@std@@V?$allocator@D@2@@std@@@2@V?$allocator@U?$pair@$$CBV?$basic_string@DU?$char_traits@D@std@@V?$allocator@D@2@@std@@PAUtagBillItem@CBillClient@@@std@@@2@$0A@@std@@@std@@QAEAAV012@XZ ENDP ; std::_Tree<std::_Tmap_traits<std::basic_string<char,std::char_traits<char>,std::allocator<char> >,CBillClient::tagBillItem *,std::less<std::basic_string<char,std::char_traits<char>,std::allocator<char> > >,std::allocator<std::pair<std::basic_string<char,std::char_traits<char>,std::allocator<char> > const ,CBillClient::tagBillItem *> >,0> >::const_iterator::operator--
_TEXT	ENDS
PUBLIC	??0?$_Tree_nod@V?$_Tmap_traits@V?$basic_string@DU?$char_traits@D@std@@V?$allocator@D@2@@std@@PAUtagBillItem@CBillClient@@U?$less@V?$basic_string@DU?$char_traits@D@std@@V?$allocator@D@2@@std@@@2@V?$allocator@U?$pair@$$CBV?$basic_string@DU?$char_traits@D@std@@V?$allocator@D@2@@std@@PAUtagBillItem@CBillClient@@@std@@@2@$0A@@std@@@std@@IAE@ABU?$less@V?$basic_string@DU?$char_traits@D@std@@V?$allocator@D@2@@std@@@1@V?$allocator@U?$pair@$$CBV?$basic_string@DU?$char_traits@D@std@@V?$allocator@D@2@@std@@PAUtagBillItem@CBillClient@@@std@@@1@@Z ; std::_Tree_nod<std::_Tmap_traits<std::basic_string<char,std::char_traits<char>,std::allocator<char> >,CBillClient::tagBillItem *,std::less<std::basic_string<char,std::char_traits<char>,std::allocator<char> > >,std::allocator<std::pair<std::basic_string<char,std::char_traits<char>,std::allocator<char> > const ,CBillClient::tagBillItem *> >,0> >::_Tree_nod<std::_Tmap_traits<std::basic_string<char,std::char_traits<char>,std::allocator<char> >,CBillClient::tagBillItem *,std::less<std::basic_string<char,std::char_traits<char>,std::allocator<char> > >,std::allocator<std::pair<std::basic_string<char,std::char_traits<char>,std::allocator<char> > const ,CBillClient::tagBillItem *> >,0> >
; Function compile flags: /Ogtpy
;	COMDAT ??0?$_Tree_nod@V?$_Tmap_traits@V?$basic_string@DU?$char_traits@D@std@@V?$allocator@D@2@@std@@PAUtagBillItem@CBillClient@@U?$less@V?$basic_string@DU?$char_traits@D@std@@V?$allocator@D@2@@std@@@2@V?$allocator@U?$pair@$$CBV?$basic_string@DU?$char_traits@D@std@@V?$allocator@D@2@@std@@PAUtagBillItem@CBillClient@@@std@@@2@$0A@@std@@@std@@IAE@ABU?$less@V?$basic_string@DU?$char_traits@D@std@@V?$allocator@D@2@@std@@@1@V?$allocator@U?$pair@$$CBV?$basic_string@DU?$char_traits@D@std@@V?$allocator@D@2@@std@@PAUtagBillItem@CBillClient@@@std@@@1@@Z
_TEXT	SEGMENT
__Parg$ = 8						; size = 4
__Al$ = 12						; size = 1
??0?$_Tree_nod@V?$_Tmap_traits@V?$basic_string@DU?$char_traits@D@std@@V?$allocator@D@2@@std@@PAUtagBillItem@CBillClient@@U?$less@V?$basic_string@DU?$char_traits@D@std@@V?$allocator@D@2@@std@@@2@V?$allocator@U?$pair@$$CBV?$basic_string@DU?$char_traits@D@std@@V?$allocator@D@2@@std@@PAUtagBillItem@CBillClient@@@std@@@2@$0A@@std@@@std@@IAE@ABU?$less@V?$basic_string@DU?$char_traits@D@std@@V?$allocator@D@2@@std@@@1@V?$allocator@U?$pair@$$CBV?$basic_string@DU?$char_traits@D@std@@V?$allocator@D@2@@std@@PAUtagBillItem@CBillClient@@@std@@@1@@Z PROC ; std::_Tree_nod<std::_Tmap_traits<std::basic_string<char,std::char_traits<char>,std::allocator<char> >,CBillClient::tagBillItem *,std::less<std::basic_string<char,std::char_traits<char>,std::allocator<char> > >,std::allocator<std::pair<std::basic_string<char,std::char_traits<char>,std::allocator<char> > const ,CBillClient::tagBillItem *> >,0> >::_Tree_nod<std::_Tmap_traits<std::basic_string<char,std::char_traits<char>,std::allocator<char> >,CBillClient::tagBillItem *,std::less<std::basic_string<char,std::char_traits<char>,std::allocator<char> > >,std::allocator<std::pair<std::basic_string<char,std::char_traits<char>,std::allocator<char> > const ,CBillClient::tagBillItem *> >,0> >, COMDAT
; _this$ = ecx

; 57   : 		{	// construct traits from _Parg and allocator from _Al

  00000	8b c1		 mov	 eax, ecx

; 58   : 		}

  00002	c2 08 00	 ret	 8
??0?$_Tree_nod@V?$_Tmap_traits@V?$basic_string@DU?$char_traits@D@std@@V?$allocator@D@2@@std@@PAUtagBillItem@CBillClient@@U?$less@V?$basic_string@DU?$char_traits@D@std@@V?$allocator@D@2@@std@@@2@V?$allocator@U?$pair@$$CBV?$basic_string@DU?$char_traits@D@std@@V?$allocator@D@2@@std@@PAUtagBillItem@CBillClient@@@std@@@2@$0A@@std@@@std@@IAE@ABU?$less@V?$basic_string@DU?$char_traits@D@std@@V?$allocator@D@2@@std@@@1@V?$allocator@U?$pair@$$CBV?$basic_string@DU?$char_traits@D@std@@V?$allocator@D@2@@std@@PAUtagBillItem@CBillClient@@@std@@@1@@Z ENDP ; std::_Tree_nod<std::_Tmap_traits<std::basic_string<char,std::char_traits<char>,std::allocator<char> >,CBillClient::tagBillItem *,std::less<std::basic_string<char,std::char_traits<char>,std::allocator<char> > >,std::allocator<std::pair<std::basic_string<char,std::char_traits<char>,std::allocator<char> > const ,CBillClient::tagBillItem *> >,0> >::_Tree_nod<std::_Tmap_traits<std::basic_string<char,std::char_traits<char>,std::allocator<char> >,CBillClient::tagBillItem *,std::less<std::basic_string<char,std::char_traits<char>,std::allocator<char> > >,std::allocator<std::pair<std::basic_string<char,std::char_traits<char>,std::allocator<char> > const ,CBillClient::tagBillItem *> >,0> >
_TEXT	ENDS
PUBLIC	?allocate@?$allocator@U_Node@?$_Tree_nod@V?$_Tmap_traits@V?$basic_string@DU?$char_traits@D@std@@V?$allocator@D@2@@std@@PAUtagBillItem@CBillClient@@U?$less@V?$basic_string@DU?$char_traits@D@std@@V?$allocator@D@2@@std@@@2@V?$allocator@U?$pair@$$CBV?$basic_string@DU?$char_traits@D@std@@V?$allocator@D@2@@std@@PAUtagBillItem@CBillClient@@@std@@@2@$0A@@std@@@std@@@std@@QAEPAU_Node@?$_Tree_nod@V?$_Tmap_traits@V?$basic_string@DU?$char_traits@D@std@@V?$allocator@D@2@@std@@PAUtagBillItem@CBillClient@@U?$less@V?$basic_string@DU?$char_traits@D@std@@V?$allocator@D@2@@std@@@2@V?$allocator@U?$pair@$$CBV?$basic_string@DU?$char_traits@D@std@@V?$allocator@D@2@@std@@PAUtagBillItem@CBillClient@@@std@@@2@$0A@@std@@@2@I@Z ; std::allocator<std::_Tree_nod<std::_Tmap_traits<std::basic_string<char,std::char_traits<char>,std::allocator<char> >,CBillClient::tagBillItem *,std::less<std::basic_string<char,std::char_traits<char>,std::allocator<char> > >,std::allocator<std::pair<std::basic_string<char,std::char_traits<char>,std::allocator<char> > const ,CBillClient::tagBillItem *> >,0> >::_Node>::allocate
; Function compile flags: /Ogtpy
; File d:\program files\microsoft visual studio 8\vc\include\xmemory
;	COMDAT ?allocate@?$allocator@U_Node@?$_Tree_nod@V?$_Tmap_traits@V?$basic_string@DU?$char_traits@D@std@@V?$allocator@D@2@@std@@PAUtagBillItem@CBillClient@@U?$less@V?$basic_string@DU?$char_traits@D@std@@V?$allocator@D@2@@std@@@2@V?$allocator@U?$pair@$$CBV?$basic_string@DU?$char_traits@D@std@@V?$allocator@D@2@@std@@PAUtagBillItem@CBillClient@@@std@@@2@$0A@@std@@@std@@@std@@QAEPAU_Node@?$_Tree_nod@V?$_Tmap_traits@V?$basic_string@DU?$char_traits@D@std@@V?$allocator@D@2@@std@@PAUtagBillItem@CBillClient@@U?$less@V?$basic_string@DU?$char_traits@D@std@@V?$allocator@D@2@@std@@@2@V?$allocator@U?$pair@$$CBV?$basic_string@DU?$char_traits@D@std@@V?$allocator@D@2@@std@@PAUtagBillItem@CBillClient@@@std@@@2@$0A@@std@@@2@I@Z
_TEXT	SEGMENT
__Count$ = 8						; size = 4
?allocate@?$allocator@U_Node@?$_Tree_nod@V?$_Tmap_traits@V?$basic_string@DU?$char_traits@D@std@@V?$allocator@D@2@@std@@PAUtagBillItem@CBillClient@@U?$less@V?$basic_string@DU?$char_traits@D@std@@V?$allocator@D@2@@std@@@2@V?$allocator@U?$pair@$$CBV?$basic_string@DU?$char_traits@D@std@@V?$allocator@D@2@@std@@PAUtagBillItem@CBillClient@@@std@@@2@$0A@@std@@@std@@@std@@QAEPAU_Node@?$_Tree_nod@V?$_Tmap_traits@V?$basic_string@DU?$char_traits@D@std@@V?$allocator@D@2@@std@@PAUtagBillItem@CBillClient@@U?$less@V?$basic_string@DU?$char_traits@D@std@@V?$allocator@D@2@@std@@@2@V?$allocator@U?$pair@$$CBV?$basic_string@DU?$char_traits@D@std@@V?$allocator@D@2@@std@@PAUtagBillItem@CBillClient@@@std@@@2@$0A@@std@@@2@I@Z PROC ; std::allocator<std::_Tree_nod<std::_Tmap_traits<std::basic_string<char,std::char_traits<char>,std::allocator<char> >,CBillClient::tagBillItem *,std::less<std::basic_string<char,std::char_traits<char>,std::allocator<char> > >,std::allocator<std::pair<std::basic_string<char,std::char_traits<char>,std::allocator<char> > const ,CBillClient::tagBillItem *> >,0> >::_Node>::allocate, COMDAT
; _this$ = ecx

; 146  : 		return (_Allocate(_Count, (pointer)0));

  00000	8b 44 24 04	 mov	 eax, DWORD PTR __Count$[esp-4]
  00004	6a 00		 push	 0
  00006	50		 push	 eax
  00007	e8 00 00 00 00	 call	 ??$_Allocate@U_Node@?$_Tree_nod@V?$_Tmap_traits@V?$basic_string@DU?$char_traits@D@std@@V?$allocator@D@2@@std@@PAUtagBillItem@CBillClient@@U?$less@V?$basic_string@DU?$char_traits@D@std@@V?$allocator@D@2@@std@@@2@V?$allocator@U?$pair@$$CBV?$basic_string@DU?$char_traits@D@std@@V?$allocator@D@2@@std@@PAUtagBillItem@CBillClient@@@std@@@2@$0A@@std@@@std@@@std@@YAPAU_Node@?$_Tree_nod@V?$_Tmap_traits@V?$basic_string@DU?$char_traits@D@std@@V?$allocator@D@2@@std@@PAUtagBillItem@CBillClient@@U?$less@V?$basic_string@DU?$char_traits@D@std@@V?$allocator@D@2@@std@@@2@V?$allocator@U?$pair@$$CBV?$basic_string@DU?$char_traits@D@std@@V?$allocator@D@2@@std@@PAUtagBillItem@CBillClient@@@std@@@2@$0A@@std@@@0@IPAU120@@Z ; std::_Allocate<std::_Tree_nod<std::_Tmap_traits<std::basic_string<char,std::char_traits<char>,std::allocator<char> >,CBillClient::tagBillItem *,std::less<std::basic_string<char,std::char_traits<char>,std::allocator<char> > >,std::allocator<std::pair<std::basic_string<char,std::char_traits<char>,std::allocator<char> > const ,CBillClient::tagBillItem *> >,0> >::_Node>
  0000c	83 c4 08	 add	 esp, 8

; 147  : 		}

  0000f	c2 04 00	 ret	 4
?allocate@?$allocator@U_Node@?$_Tree_nod@V?$_Tmap_traits@V?$basic_string@DU?$char_traits@D@std@@V?$allocator@D@2@@std@@PAUtagBillItem@CBillClient@@U?$less@V?$basic_string@DU?$char_traits@D@std@@V?$allocator@D@2@@std@@@2@V?$allocator@U?$pair@$$CBV?$basic_string@DU?$char_traits@D@std@@V?$allocator@D@2@@std@@PAUtagBillItem@CBillClient@@@std@@@2@$0A@@std@@@std@@@std@@QAEPAU_Node@?$_Tree_nod@V?$_Tmap_traits@V?$basic_string@DU?$char_traits@D@std@@V?$allocator@D@2@@std@@PAUtagBillItem@CBillClient@@U?$less@V?$basic_string@DU?$char_traits@D@std@@V?$allocator@D@2@@std@@@2@V?$allocator@U?$pair@$$CBV?$basic_string@DU?$char_traits@D@std@@V?$allocator@D@2@@std@@PAUtagBillItem@CBillClient@@@std@@@2@$0A@@std@@@2@I@Z ENDP ; std::allocator<std::_Tree_nod<std::_Tmap_traits<std::basic_string<char,std::char_traits<char>,std::allocator<char> >,CBillClient::tagBillItem *,std::less<std::basic_string<char,std::char_traits<char>,std::allocator<char> > >,std::allocator<std::pair<std::basic_string<char,std::char_traits<char>,std::allocator<char> > const ,CBillClient::tagBillItem *> >,0> >::_Node>::allocate
_TEXT	ENDS
PUBLIC	?construct@?$allocator@PAU_Node@?$_Tree_nod@V?$_Tmap_traits@V?$basic_string@DU?$char_traits@D@std@@V?$allocator@D@2@@std@@PAUtagBillItem@CBillClient@@U?$less@V?$basic_string@DU?$char_traits@D@std@@V?$allocator@D@2@@std@@@2@V?$allocator@U?$pair@$$CBV?$basic_string@DU?$char_traits@D@std@@V?$allocator@D@2@@std@@PAUtagBillItem@CBillClient@@@std@@@2@$0A@@std@@@std@@@std@@QAEXPAPAU_Node@?$_Tree_nod@V?$_Tmap_traits@V?$basic_string@DU?$char_traits@D@std@@V?$allocator@D@2@@std@@PAUtagBillItem@CBillClient@@U?$less@V?$basic_string@DU?$char_traits@D@std@@V?$allocator@D@2@@std@@@2@V?$allocator@U?$pair@$$CBV?$basic_string@DU?$char_traits@D@std@@V?$allocator@D@2@@std@@PAUtagBillItem@CBillClient@@@std@@@2@$0A@@std@@@2@ABQAU342@@Z ; std::allocator<std::_Tree_nod<std::_Tmap_traits<std::basic_string<char,std::char_traits<char>,std::allocator<char> >,CBillClient::tagBillItem *,std::less<std::basic_string<char,std::char_traits<char>,std::allocator<char> > >,std::allocator<std::pair<std::basic_string<char,std::char_traits<char>,std::allocator<char> > const ,CBillClient::tagBillItem *> >,0> >::_Node *>::construct
; Function compile flags: /Ogtpy
;	COMDAT ?construct@?$allocator@PAU_Node@?$_Tree_nod@V?$_Tmap_traits@V?$basic_string@DU?$char_traits@D@std@@V?$allocator@D@2@@std@@PAUtagBillItem@CBillClient@@U?$less@V?$basic_string@DU?$char_traits@D@std@@V?$allocator@D@2@@std@@@2@V?$allocator@U?$pair@$$CBV?$basic_string@DU?$char_traits@D@std@@V?$allocator@D@2@@std@@PAUtagBillItem@CBillClient@@@std@@@2@$0A@@std@@@std@@@std@@QAEXPAPAU_Node@?$_Tree_nod@V?$_Tmap_traits@V?$basic_string@DU?$char_traits@D@std@@V?$allocator@D@2@@std@@PAUtagBillItem@CBillClient@@U?$less@V?$basic_string@DU?$char_traits@D@std@@V?$allocator@D@2@@std@@@2@V?$allocator@U?$pair@$$CBV?$basic_string@DU?$char_traits@D@std@@V?$allocator@D@2@@std@@PAUtagBillItem@CBillClient@@@std@@@2@$0A@@std@@@2@ABQAU342@@Z
_TEXT	SEGMENT
__Ptr$ = 8						; size = 4
__Val$ = 12						; size = 4
?construct@?$allocator@PAU_Node@?$_Tree_nod@V?$_Tmap_traits@V?$basic_string@DU?$char_traits@D@std@@V?$allocator@D@2@@std@@PAUtagBillItem@CBillClient@@U?$less@V?$basic_string@DU?$char_traits@D@std@@V?$allocator@D@2@@std@@@2@V?$allocator@U?$pair@$$CBV?$basic_string@DU?$char_traits@D@std@@V?$allocator@D@2@@std@@PAUtagBillItem@CBillClient@@@std@@@2@$0A@@std@@@std@@@std@@QAEXPAPAU_Node@?$_Tree_nod@V?$_Tmap_traits@V?$basic_string@DU?$char_traits@D@std@@V?$allocator@D@2@@std@@PAUtagBillItem@CBillClient@@U?$less@V?$basic_string@DU?$char_traits@D@std@@V?$allocator@D@2@@std@@@2@V?$allocator@U?$pair@$$CBV?$basic_string@DU?$char_traits@D@std@@V?$allocator@D@2@@std@@PAUtagBillItem@CBillClient@@@std@@@2@$0A@@std@@@2@ABQAU342@@Z PROC ; std::allocator<std::_Tree_nod<std::_Tmap_traits<std::basic_string<char,std::char_traits<char>,std::allocator<char> >,CBillClient::tagBillItem *,std::less<std::basic_string<char,std::char_traits<char>,std::allocator<char> > >,std::allocator<std::pair<std::basic_string<char,std::char_traits<char>,std::allocator<char> > const ,CBillClient::tagBillItem *> >,0> >::_Node *>::construct, COMDAT
; _this$ = ecx

; 156  : 		_Construct(_Ptr, _Val);

  00000	8b 44 24 04	 mov	 eax, DWORD PTR __Ptr$[esp-4]
  00004	85 c0		 test	 eax, eax
  00006	74 08		 je	 SHORT $LN5@construct
  00008	8b 4c 24 08	 mov	 ecx, DWORD PTR __Val$[esp-4]
  0000c	8b 11		 mov	 edx, DWORD PTR [ecx]
  0000e	89 10		 mov	 DWORD PTR [eax], edx
$LN5@construct:

; 157  : 		}

  00010	c2 08 00	 ret	 8
?construct@?$allocator@PAU_Node@?$_Tree_nod@V?$_Tmap_traits@V?$basic_string@DU?$char_traits@D@std@@V?$allocator@D@2@@std@@PAUtagBillItem@CBillClient@@U?$less@V?$basic_string@DU?$char_traits@D@std@@V?$allocator@D@2@@std@@@2@V?$allocator@U?$pair@$$CBV?$basic_string@DU?$char_traits@D@std@@V?$allocator@D@2@@std@@PAUtagBillItem@CBillClient@@@std@@@2@$0A@@std@@@std@@@std@@QAEXPAPAU_Node@?$_Tree_nod@V?$_Tmap_traits@V?$basic_string@DU?$char_traits@D@std@@V?$allocator@D@2@@std@@PAUtagBillItem@CBillClient@@U?$less@V?$basic_string@DU?$char_traits@D@std@@V?$allocator@D@2@@std@@@2@V?$allocator@U?$pair@$$CBV?$basic_string@DU?$char_traits@D@std@@V?$allocator@D@2@@std@@PAUtagBillItem@CBillClient@@@std@@@2@$0A@@std@@@2@ABQAU342@@Z ENDP ; std::allocator<std::_Tree_nod<std::_Tmap_traits<std::basic_string<char,std::char_traits<char>,std::allocator<char> >,CBillClient::tagBillItem *,std::less<std::basic_string<char,std::char_traits<char>,std::allocator<char> > >,std::allocator<std::pair<std::basic_string<char,std::char_traits<char>,std::allocator<char> > const ,CBillClient::tagBillItem *> >,0> >::_Node *>::construct
_TEXT	ENDS
PUBLIC	?compare@?$basic_string@DU?$char_traits@D@std@@V?$allocator@D@2@@std@@QBEHABV12@@Z ; std::basic_string<char,std::char_traits<char>,std::allocator<char> >::compare
; Function compile flags: /Ogtpy
; File d:\program files\microsoft visual studio 8\vc\include\xstring
;	COMDAT ?compare@?$basic_string@DU?$char_traits@D@std@@V?$allocator@D@2@@std@@QBEHABV12@@Z
_TEXT	SEGMENT
__Right$ = 8						; size = 4
?compare@?$basic_string@DU?$char_traits@D@std@@V?$allocator@D@2@@std@@QBEHABV12@@Z PROC ; std::basic_string<char,std::char_traits<char>,std::allocator<char> >::compare, COMDAT
; _this$ = ecx

; 1928 : 		return (compare(0, _Mysize, _Right._Myptr(), _Right.size()));

  00000	8b 44 24 04	 mov	 eax, DWORD PTR __Right$[esp-4]
  00004	83 78 18 10	 cmp	 DWORD PTR [eax+24], 16	; 00000010H
  00008	8b 50 14	 mov	 edx, DWORD PTR [eax+20]
  0000b	72 13		 jb	 SHORT $LN7@compare@3
  0000d	8b 40 04	 mov	 eax, DWORD PTR [eax+4]
  00010	52		 push	 edx
  00011	50		 push	 eax
  00012	8b 41 14	 mov	 eax, DWORD PTR [ecx+20]
  00015	50		 push	 eax
  00016	6a 00		 push	 0
  00018	e8 00 00 00 00	 call	 ?compare@?$basic_string@DU?$char_traits@D@std@@V?$allocator@D@2@@std@@QBEHIIPBDI@Z ; std::basic_string<char,std::char_traits<char>,std::allocator<char> >::compare

; 1929 : 		}

  0001d	c2 04 00	 ret	 4

; 1928 : 		return (compare(0, _Mysize, _Right._Myptr(), _Right.size()));

$LN7@compare@3:
  00020	52		 push	 edx
  00021	83 c0 04	 add	 eax, 4
  00024	50		 push	 eax
  00025	8b 41 14	 mov	 eax, DWORD PTR [ecx+20]
  00028	50		 push	 eax
  00029	6a 00		 push	 0
  0002b	e8 00 00 00 00	 call	 ?compare@?$basic_string@DU?$char_traits@D@std@@V?$allocator@D@2@@std@@QBEHIIPBDI@Z ; std::basic_string<char,std::char_traits<char>,std::allocator<char> >::compare

; 1929 : 		}

  00030	c2 04 00	 ret	 4
?compare@?$basic_string@DU?$char_traits@D@std@@V?$allocator@D@2@@std@@QBEHABV12@@Z ENDP ; std::basic_string<char,std::char_traits<char>,std::allocator<char> >::compare
_TEXT	ENDS
PUBLIC	??Citerator@?$_Tree@V?$_Tmap_traits@V?$basic_string@DU?$char_traits@D@std@@V?$allocator@D@2@@std@@PAUtagBillItem@CBillClient@@U?$less@V?$basic_string@DU?$char_traits@D@std@@V?$allocator@D@2@@std@@@2@V?$allocator@U?$pair@$$CBV?$basic_string@DU?$char_traits@D@std@@V?$allocator@D@2@@std@@PAUtagBillItem@CBillClient@@@std@@@2@$0A@@std@@@std@@QBEPAU?$pair@$$CBV?$basic_string@DU?$char_traits@D@std@@V?$allocator@D@2@@std@@PAUtagBillItem@CBillClient@@@2@XZ ; std::_Tree<std::_Tmap_traits<std::basic_string<char,std::char_traits<char>,std::allocator<char> >,CBillClient::tagBillItem *,std::less<std::basic_string<char,std::char_traits<char>,std::allocator<char> > >,std::allocator<std::pair<std::basic_string<char,std::char_traits<char>,std::allocator<char> > const ,CBillClient::tagBillItem *> >,0> >::iterator::operator->
; Function compile flags: /Ogtpy
; File d:\program files\microsoft visual studio 8\vc\include\xtree
;	COMDAT ??Citerator@?$_Tree@V?$_Tmap_traits@V?$basic_string@DU?$char_traits@D@std@@V?$allocator@D@2@@std@@PAUtagBillItem@CBillClient@@U?$less@V?$basic_string@DU?$char_traits@D@std@@V?$allocator@D@2@@std@@@2@V?$allocator@U?$pair@$$CBV?$basic_string@DU?$char_traits@D@std@@V?$allocator@D@2@@std@@PAUtagBillItem@CBillClient@@@std@@@2@$0A@@std@@@std@@QBEPAU?$pair@$$CBV?$basic_string@DU?$char_traits@D@std@@V?$allocator@D@2@@std@@PAUtagBillItem@CBillClient@@@2@XZ
_TEXT	SEGMENT
??Citerator@?$_Tree@V?$_Tmap_traits@V?$basic_string@DU?$char_traits@D@std@@V?$allocator@D@2@@std@@PAUtagBillItem@CBillClient@@U?$less@V?$basic_string@DU?$char_traits@D@std@@V?$allocator@D@2@@std@@@2@V?$allocator@U?$pair@$$CBV?$basic_string@DU?$char_traits@D@std@@V?$allocator@D@2@@std@@PAUtagBillItem@CBillClient@@@std@@@2@$0A@@std@@@std@@QBEPAU?$pair@$$CBV?$basic_string@DU?$char_traits@D@std@@V?$allocator@D@2@@std@@PAUtagBillItem@CBillClient@@@2@XZ PROC ; std::_Tree<std::_Tmap_traits<std::basic_string<char,std::char_traits<char>,std::allocator<char> >,CBillClient::tagBillItem *,std::less<std::basic_string<char,std::char_traits<char>,std::allocator<char> > >,std::allocator<std::pair<std::basic_string<char,std::char_traits<char>,std::allocator<char> > const ,CBillClient::tagBillItem *> >,0> >::iterator::operator->, COMDAT
; _this$ = ecx

; 455  : 			{	// return pointer to class object

  00000	56		 push	 esi
  00001	8b f1		 mov	 esi, ecx

; 456  : 			return (&**this);

  00003	83 3e 00	 cmp	 DWORD PTR [esi], 0
  00006	75 05		 jne	 SHORT $LN6@operator@5
  00008	e8 00 00 00 00	 call	 __invalid_parameter_noinfo
$LN6@operator@5:
  0000d	8b 06		 mov	 eax, DWORD PTR [esi]
  0000f	8b 4e 04	 mov	 ecx, DWORD PTR [esi+4]
  00012	3b 48 04	 cmp	 ecx, DWORD PTR [eax+4]
  00015	75 05		 jne	 SHORT $LN5@operator@5
  00017	e8 00 00 00 00	 call	 __invalid_parameter_noinfo
$LN5@operator@5:
  0001c	8b 46 04	 mov	 eax, DWORD PTR [esi+4]
  0001f	83 c0 0c	 add	 eax, 12			; 0000000cH
  00022	5e		 pop	 esi

; 457  : 			}

  00023	c3		 ret	 0
??Citerator@?$_Tree@V?$_Tmap_traits@V?$basic_string@DU?$char_traits@D@std@@V?$allocator@D@2@@std@@PAUtagBillItem@CBillClient@@U?$less@V?$basic_string@DU?$char_traits@D@std@@V?$allocator@D@2@@std@@@2@V?$allocator@U?$pair@$$CBV?$basic_string@DU?$char_traits@D@std@@V?$allocator@D@2@@std@@PAUtagBillItem@CBillClient@@@std@@@2@$0A@@std@@@std@@QBEPAU?$pair@$$CBV?$basic_string@DU?$char_traits@D@std@@V?$allocator@D@2@@std@@PAUtagBillItem@CBillClient@@@2@XZ ENDP ; std::_Tree<std::_Tmap_traits<std::basic_string<char,std::char_traits<char>,std::allocator<char> >,CBillClient::tagBillItem *,std::less<std::basic_string<char,std::char_traits<char>,std::allocator<char> > >,std::allocator<std::pair<std::basic_string<char,std::char_traits<char>,std::allocator<char> > const ,CBillClient::tagBillItem *> >,0> >::iterator::operator->
_TEXT	ENDS
PUBLIC	?erase@?$basic_string@DU?$char_traits@D@std@@V?$allocator@D@2@@std@@QAEAAV12@II@Z ; std::basic_string<char,std::char_traits<char>,std::allocator<char> >::erase
; Function compile flags: /Ogtpy
; File d:\program files\microsoft visual studio 8\vc\include\xstring
;	COMDAT ?erase@?$basic_string@DU?$char_traits@D@std@@V?$allocator@D@2@@std@@QAEAAV12@II@Z
_TEXT	SEGMENT
tv130 = 8						; size = 4
__Off$ = 8						; size = 4
__Count$ = 12						; size = 4
?erase@?$basic_string@DU?$char_traits@D@std@@V?$allocator@D@2@@std@@QAEAAV12@II@Z PROC ; std::basic_string<char,std::char_traits<char>,std::allocator<char> >::erase, COMDAT
; _this$ = ecx

; 1240 : 		{	// erase elements [_Off, _Off + _Count)

  00000	53		 push	 ebx

; 1241 : 		if (_Mysize < _Off)

  00001	8b 5c 24 08	 mov	 ebx, DWORD PTR __Off$[esp]
  00005	56		 push	 esi
  00006	8b f1		 mov	 esi, ecx
  00008	39 5e 14	 cmp	 DWORD PTR [esi+20], ebx
  0000b	57		 push	 edi
  0000c	73 05		 jae	 SHORT $LN3@erase

; 1242 : 			_String_base::_Xran();	// _Off off end

  0000e	e8 00 00 00 00	 call	 ?_Xran@_String_base@std@@SAXXZ ; std::_String_base::_Xran
$LN3@erase:

; 1243 : 		if (_Mysize - _Off < _Count)

  00013	8b 46 14	 mov	 eax, DWORD PTR [esi+20]
  00016	8b 7c 24 14	 mov	 edi, DWORD PTR __Count$[esp+8]
  0001a	2b c3		 sub	 eax, ebx
  0001c	3b c7		 cmp	 eax, edi

; 1244 : 			_Count = _Mysize - _Off;	// trim _Count

  0001e	0f 42 f8	 cmovb	 edi, eax

; 1245 : 		if (0 < _Count)

  00021	85 ff		 test	 edi, edi
  00023	76 55		 jbe	 SHORT $LN30@erase

; 1246 : 			{	// move elements down
; 1247 : 			_Traits_helper::move_s<_Traits>(_Myptr() + _Off, _Myres - _Off, _Myptr() + _Off + _Count,
; 1248 : 				_Mysize - _Off - _Count);

  00025	8b 4e 18	 mov	 ecx, DWORD PTR [esi+24]
  00028	83 f9 10	 cmp	 ecx, 16			; 00000010H
  0002b	55		 push	 ebp
  0002c	8d 6e 04	 lea	 ebp, DWORD PTR [esi+4]
  0002f	72 09		 jb	 SHORT $LN8@erase
  00031	8b 55 00	 mov	 edx, DWORD PTR [ebp]
  00034	89 54 24 14	 mov	 DWORD PTR tv130[esp+12], edx
  00038	eb 04		 jmp	 SHORT $LN9@erase
$LN8@erase:
  0003a	89 6c 24 14	 mov	 DWORD PTR tv130[esp+12], ebp
$LN9@erase:
  0003e	83 f9 10	 cmp	 ecx, 16			; 00000010H
  00041	72 05		 jb	 SHORT $LN12@erase
  00043	8b 55 00	 mov	 edx, DWORD PTR [ebp]
  00046	eb 02		 jmp	 SHORT $LN13@erase
$LN12@erase:
  00048	8b d5		 mov	 edx, ebp
$LN13@erase:
  0004a	2b c7		 sub	 eax, edi
  0004c	50		 push	 eax
  0004d	8b 44 24 18	 mov	 eax, DWORD PTR tv130[esp+16]
  00051	03 c3		 add	 eax, ebx
  00053	03 c7		 add	 eax, edi
  00055	50		 push	 eax
  00056	2b cb		 sub	 ecx, ebx
  00058	51		 push	 ecx
  00059	03 d3		 add	 edx, ebx
  0005b	52		 push	 edx
  0005c	e8 00 00 00 00	 call	 _memmove_s

; 1249 : 			size_type _Newsize = _Mysize - _Count;

  00061	8b 46 14	 mov	 eax, DWORD PTR [esi+20]
  00064	2b c7		 sub	 eax, edi
  00066	83 c4 10	 add	 esp, 16			; 00000010H

; 1250 : 			_Eos(_Newsize);

  00069	83 7e 18 10	 cmp	 DWORD PTR [esi+24], 16	; 00000010H
  0006d	89 46 14	 mov	 DWORD PTR [esi+20], eax
  00070	72 03		 jb	 SHORT $LN26@erase
  00072	8b 6d 00	 mov	 ebp, DWORD PTR [ebp]
$LN26@erase:
  00075	c6 04 28 00	 mov	 BYTE PTR [eax+ebp], 0
  00079	5d		 pop	 ebp
$LN30@erase:
  0007a	5f		 pop	 edi

; 1251 : 			}
; 1252 : 		return (*this);

  0007b	8b c6		 mov	 eax, esi
  0007d	5e		 pop	 esi
  0007e	5b		 pop	 ebx

; 1253 : 		}

  0007f	c2 08 00	 ret	 8
?erase@?$basic_string@DU?$char_traits@D@std@@V?$allocator@D@2@@std@@QAEAAV12@II@Z ENDP ; std::basic_string<char,std::char_traits<char>,std::allocator<char> >::erase
_TEXT	ENDS
PUBLIC	?_Tidy@?$basic_string@DU?$char_traits@D@std@@V?$allocator@D@2@@std@@IAEX_NI@Z ; std::basic_string<char,std::char_traits<char>,std::allocator<char> >::_Tidy
; Function compile flags: /Ogtpy
;	COMDAT ?_Tidy@?$basic_string@DU?$char_traits@D@std@@V?$allocator@D@2@@std@@IAEX_NI@Z
_TEXT	SEGMENT
__Built$ = 8						; size = 1
__Newsize$ = 12						; size = 4
?_Tidy@?$basic_string@DU?$char_traits@D@std@@V?$allocator@D@2@@std@@IAEX_NI@Z PROC ; std::basic_string<char,std::char_traits<char>,std::allocator<char> >::_Tidy, COMDAT
; _this$ = ecx

; 2067 : 		if (!_Built)

  00000	80 7c 24 04 00	 cmp	 BYTE PTR __Built$[esp-4], 0
  00005	56		 push	 esi
  00006	57		 push	 edi
  00007	8b 7c 24 10	 mov	 edi, DWORD PTR __Newsize$[esp+4]
  0000b	8b f1		 mov	 esi, ecx
  0000d	74 27		 je	 SHORT $LN15@Tidy

; 2068 : 			;
; 2069 : 		else if (_BUF_SIZE <= _Myres)

  0000f	83 7e 18 10	 cmp	 DWORD PTR [esi+24], 16	; 00000010H
  00013	72 21		 jb	 SHORT $LN15@Tidy

; 2070 : 			{	// copy any leftovers to small buffer and deallocate
; 2071 : 			_Elem *_Ptr = _Bx._Ptr;
; 2072 : 			if (0 < _Newsize)

  00015	85 ff		 test	 edi, edi
  00017	8d 46 04	 lea	 eax, DWORD PTR [esi+4]
  0001a	53		 push	 ebx
  0001b	8b 18		 mov	 ebx, DWORD PTR [eax]
  0001d	76 0d		 jbe	 SHORT $LN13@Tidy

; 2073 : 				_Traits_helper::copy_s<_Traits>(_Bx._Buf, _BUF_SIZE, _Ptr, _Newsize);

  0001f	57		 push	 edi
  00020	53		 push	 ebx
  00021	6a 10		 push	 16			; 00000010H
  00023	50		 push	 eax
  00024	e8 00 00 00 00	 call	 _memcpy_s
  00029	83 c4 10	 add	 esp, 16			; 00000010H
$LN13@Tidy:

; 2074 : 			_Mybase::_Alval.deallocate(_Ptr, _Myres + 1);

  0002c	53		 push	 ebx
  0002d	e8 00 00 00 00	 call	 ??3@YAXPAX@Z		; operator delete
  00032	83 c4 04	 add	 esp, 4
  00035	5b		 pop	 ebx
$LN15@Tidy:

; 2075 : 			}
; 2076 : 		_Myres = _BUF_SIZE - 1;
; 2077 : 		_Eos(_Newsize);

  00036	89 7e 14	 mov	 DWORD PTR [esi+20], edi
  00039	c7 46 18 0f 00
	00 00		 mov	 DWORD PTR [esi+24], 15	; 0000000fH
  00040	c6 44 3e 04 00	 mov	 BYTE PTR [esi+edi+4], 0
  00045	5f		 pop	 edi
  00046	5e		 pop	 esi

; 2078 : 		}

  00047	c2 08 00	 ret	 8
?_Tidy@?$basic_string@DU?$char_traits@D@std@@V?$allocator@D@2@@std@@IAEX_NI@Z ENDP ; std::basic_string<char,std::char_traits<char>,std::allocator<char> >::_Tidy
_TEXT	ENDS
PUBLIC	??0iterator@?$_Tree@V?$_Tmap_traits@V?$basic_string@DU?$char_traits@D@std@@V?$allocator@D@2@@std@@PAUtagBillItem@CBillClient@@U?$less@V?$basic_string@DU?$char_traits@D@std@@V?$allocator@D@2@@std@@@2@V?$allocator@U?$pair@$$CBV?$basic_string@DU?$char_traits@D@std@@V?$allocator@D@2@@std@@PAUtagBillItem@CBillClient@@@std@@@2@$0A@@std@@@std@@QAE@PAU_Node@?$_Tree_nod@V?$_Tmap_traits@V?$basic_string@DU?$char_traits@D@std@@V?$allocator@D@2@@std@@PAUtagBillItem@CBillClient@@U?$less@V?$basic_string@DU?$char_traits@D@std@@V?$allocator@D@2@@std@@@2@V?$allocator@U?$pair@$$CBV?$basic_string@DU?$char_traits@D@std@@V?$allocator@D@2@@std@@PAUtagBillItem@CBillClient@@@std@@@2@$0A@@std@@@2@PBV12@@Z ; std::_Tree<std::_Tmap_traits<std::basic_string<char,std::char_traits<char>,std::allocator<char> >,CBillClient::tagBillItem *,std::less<std::basic_string<char,std::char_traits<char>,std::allocator<char> > >,std::allocator<std::pair<std::basic_string<char,std::char_traits<char>,std::allocator<char> > const ,CBillClient::tagBillItem *> >,0> >::iterator::iterator
; Function compile flags: /Ogtpy
; File d:\program files\microsoft visual studio 8\vc\include\xtree
;	COMDAT ??0iterator@?$_Tree@V?$_Tmap_traits@V?$basic_string@DU?$char_traits@D@std@@V?$allocator@D@2@@std@@PAUtagBillItem@CBillClient@@U?$less@V?$basic_string@DU?$char_traits@D@std@@V?$allocator@D@2@@std@@@2@V?$allocator@U?$pair@$$CBV?$basic_string@DU?$char_traits@D@std@@V?$allocator@D@2@@std@@PAUtagBillItem@CBillClient@@@std@@@2@$0A@@std@@@std@@QAE@PAU_Node@?$_Tree_nod@V?$_Tmap_traits@V?$basic_string@DU?$char_traits@D@std@@V?$allocator@D@2@@std@@PAUtagBillItem@CBillClient@@U?$less@V?$basic_string@DU?$char_traits@D@std@@V?$allocator@D@2@@std@@@2@V?$allocator@U?$pair@$$CBV?$basic_string@DU?$char_traits@D@std@@V?$allocator@D@2@@std@@PAUtagBillItem@CBillClient@@@std@@@2@$0A@@std@@@2@PBV12@@Z
_TEXT	SEGMENT
__Pnode$ = 8						; size = 4
__Plist$ = 12						; size = 4
??0iterator@?$_Tree@V?$_Tmap_traits@V?$basic_string@DU?$char_traits@D@std@@V?$allocator@D@2@@std@@PAUtagBillItem@CBillClient@@U?$less@V?$basic_string@DU?$char_traits@D@std@@V?$allocator@D@2@@std@@@2@V?$allocator@U?$pair@$$CBV?$basic_string@DU?$char_traits@D@std@@V?$allocator@D@2@@std@@PAUtagBillItem@CBillClient@@@std@@@2@$0A@@std@@@std@@QAE@PAU_Node@?$_Tree_nod@V?$_Tmap_traits@V?$basic_string@DU?$char_traits@D@std@@V?$allocator@D@2@@std@@PAUtagBillItem@CBillClient@@U?$less@V?$basic_string@DU?$char_traits@D@std@@V?$allocator@D@2@@std@@@2@V?$allocator@U?$pair@$$CBV?$basic_string@DU?$char_traits@D@std@@V?$allocator@D@2@@std@@PAUtagBillItem@CBillClient@@@std@@@2@$0A@@std@@@2@PBV12@@Z PROC ; std::_Tree<std::_Tmap_traits<std::basic_string<char,std::char_traits<char>,std::allocator<char> >,CBillClient::tagBillItem *,std::less<std::basic_string<char,std::char_traits<char>,std::allocator<char> > >,std::allocator<std::pair<std::basic_string<char,std::char_traits<char>,std::allocator<char> > const ,CBillClient::tagBillItem *> >,0> >::iterator::iterator, COMDAT
; _this$ = ecx

; 437  : 			{	// construct with node pointer _Pnode

  00000	8b 44 24 04	 mov	 eax, DWORD PTR __Pnode$[esp-4]
  00004	56		 push	 esi
  00005	57		 push	 edi
  00006	8b 7c 24 10	 mov	 edi, DWORD PTR __Plist$[esp+4]
  0000a	85 ff		 test	 edi, edi
  0000c	8b f1		 mov	 esi, ecx
  0000e	c7 06 00 00 00
	00		 mov	 DWORD PTR [esi], 0
  00014	89 46 04	 mov	 DWORD PTR [esi+4], eax
  00017	75 05		 jne	 SHORT $LN10@iterator
  00019	e8 00 00 00 00	 call	 __invalid_parameter_noinfo
$LN10@iterator:
  0001e	89 3e		 mov	 DWORD PTR [esi], edi
  00020	5f		 pop	 edi

; 438  : 			}

  00021	8b c6		 mov	 eax, esi
  00023	5e		 pop	 esi
  00024	c2 08 00	 ret	 8
??0iterator@?$_Tree@V?$_Tmap_traits@V?$basic_string@DU?$char_traits@D@std@@V?$allocator@D@2@@std@@PAUtagBillItem@CBillClient@@U?$less@V?$basic_string@DU?$char_traits@D@std@@V?$allocator@D@2@@std@@@2@V?$allocator@U?$pair@$$CBV?$basic_string@DU?$char_traits@D@std@@V?$allocator@D@2@@std@@PAUtagBillItem@CBillClient@@@std@@@2@$0A@@std@@@std@@QAE@PAU_Node@?$_Tree_nod@V?$_Tmap_traits@V?$basic_string@DU?$char_traits@D@std@@V?$allocator@D@2@@std@@PAUtagBillItem@CBillClient@@U?$less@V?$basic_string@DU?$char_traits@D@std@@V?$allocator@D@2@@std@@@2@V?$allocator@U?$pair@$$CBV?$basic_string@DU?$char_traits@D@std@@V?$allocator@D@2@@std@@PAUtagBillItem@CBillClient@@@std@@@2@$0A@@std@@@2@PBV12@@Z ENDP ; std::_Tree<std::_Tmap_traits<std::basic_string<char,std::char_traits<char>,std::allocator<char> >,CBillClient::tagBillItem *,std::less<std::basic_string<char,std::char_traits<char>,std::allocator<char> > >,std::allocator<std::pair<std::basic_string<char,std::char_traits<char>,std::allocator<char> > const ,CBillClient::tagBillItem *> >,0> >::iterator::iterator
_TEXT	ENDS
PUBLIC	??Eiterator@?$_Tree@V?$_Tmap_traits@V?$basic_string@DU?$char_traits@D@std@@V?$allocator@D@2@@std@@PAUtagBillItem@CBillClient@@U?$less@V?$basic_string@DU?$char_traits@D@std@@V?$allocator@D@2@@std@@@2@V?$allocator@U?$pair@$$CBV?$basic_string@DU?$char_traits@D@std@@V?$allocator@D@2@@std@@PAUtagBillItem@CBillClient@@@std@@@2@$0A@@std@@@std@@QAEAAV012@XZ ; std::_Tree<std::_Tmap_traits<std::basic_string<char,std::char_traits<char>,std::allocator<char> >,CBillClient::tagBillItem *,std::less<std::basic_string<char,std::char_traits<char>,std::allocator<char> > >,std::allocator<std::pair<std::basic_string<char,std::char_traits<char>,std::allocator<char> > const ,CBillClient::tagBillItem *> >,0> >::iterator::operator++
; Function compile flags: /Ogtpy
;	COMDAT ??Eiterator@?$_Tree@V?$_Tmap_traits@V?$basic_string@DU?$char_traits@D@std@@V?$allocator@D@2@@std@@PAUtagBillItem@CBillClient@@U?$less@V?$basic_string@DU?$char_traits@D@std@@V?$allocator@D@2@@std@@@2@V?$allocator@U?$pair@$$CBV?$basic_string@DU?$char_traits@D@std@@V?$allocator@D@2@@std@@PAUtagBillItem@CBillClient@@@std@@@2@$0A@@std@@@std@@QAEAAV012@XZ
_TEXT	SEGMENT
??Eiterator@?$_Tree@V?$_Tmap_traits@V?$basic_string@DU?$char_traits@D@std@@V?$allocator@D@2@@std@@PAUtagBillItem@CBillClient@@U?$less@V?$basic_string@DU?$char_traits@D@std@@V?$allocator@D@2@@std@@@2@V?$allocator@U?$pair@$$CBV?$basic_string@DU?$char_traits@D@std@@V?$allocator@D@2@@std@@PAUtagBillItem@CBillClient@@@std@@@2@$0A@@std@@@std@@QAEAAV012@XZ PROC ; std::_Tree<std::_Tmap_traits<std::basic_string<char,std::char_traits<char>,std::allocator<char> >,CBillClient::tagBillItem *,std::less<std::basic_string<char,std::char_traits<char>,std::allocator<char> > >,std::allocator<std::pair<std::basic_string<char,std::char_traits<char>,std::allocator<char> > const ,CBillClient::tagBillItem *> >,0> >::iterator::operator++, COMDAT
; _this$ = ecx

; 460  : 			{	// preincrement

  00000	56		 push	 esi
  00001	8b f1		 mov	 esi, ecx

; 461  : 			++(*(const_iterator *)this);

  00003	e8 00 00 00 00	 call	 ?_Inc@const_iterator@?$_Tree@V?$_Tmap_traits@V?$basic_string@DU?$char_traits@D@std@@V?$allocator@D@2@@std@@PAUtagBillItem@CBillClient@@U?$less@V?$basic_string@DU?$char_traits@D@std@@V?$allocator@D@2@@std@@@2@V?$allocator@U?$pair@$$CBV?$basic_string@DU?$char_traits@D@std@@V?$allocator@D@2@@std@@PAUtagBillItem@CBillClient@@@std@@@2@$0A@@std@@@std@@QAEXXZ ; std::_Tree<std::_Tmap_traits<std::basic_string<char,std::char_traits<char>,std::allocator<char> >,CBillClient::tagBillItem *,std::less<std::basic_string<char,std::char_traits<char>,std::allocator<char> > >,std::allocator<std::pair<std::basic_string<char,std::char_traits<char>,std::allocator<char> > const ,CBillClient::tagBillItem *> >,0> >::const_iterator::_Inc

; 462  : 			return (*this);

  00008	8b c6		 mov	 eax, esi
  0000a	5e		 pop	 esi

; 463  : 			}

  0000b	c3		 ret	 0
??Eiterator@?$_Tree@V?$_Tmap_traits@V?$basic_string@DU?$char_traits@D@std@@V?$allocator@D@2@@std@@PAUtagBillItem@CBillClient@@U?$less@V?$basic_string@DU?$char_traits@D@std@@V?$allocator@D@2@@std@@@2@V?$allocator@U?$pair@$$CBV?$basic_string@DU?$char_traits@D@std@@V?$allocator@D@2@@std@@PAUtagBillItem@CBillClient@@@std@@@2@$0A@@std@@@std@@QAEAAV012@XZ ENDP ; std::_Tree<std::_Tmap_traits<std::basic_string<char,std::char_traits<char>,std::allocator<char> >,CBillClient::tagBillItem *,std::less<std::basic_string<char,std::char_traits<char>,std::allocator<char> > >,std::allocator<std::pair<std::basic_string<char,std::char_traits<char>,std::allocator<char> > const ,CBillClient::tagBillItem *> >,0> >::iterator::operator++
_TEXT	ENDS
PUBLIC	?_Copy@?$basic_string@DU?$char_traits@D@std@@V?$allocator@D@2@@std@@IAEXII@Z ; std::basic_string<char,std::char_traits<char>,std::allocator<char> >::_Copy
EXTRN	___security_cookie:DWORD
EXTRN	___CxxFrameHandler3:PROC
EXTRN	@__security_check_cookie@4:PROC
;	COMDAT xdata$x
; File d:\program files\microsoft visual studio 8\vc\include\iosfwd
xdata$x	SEGMENT
__catchsym$?_Copy@?$basic_string@DU?$char_traits@D@std@@V?$allocator@D@2@@std@@IAEXII@Z$5 DD 040H
	DD	00H
	DD	00H
	DD	FLAT:__catch$?_Copy@?$basic_string@DU?$char_traits@D@std@@V?$allocator@D@2@@std@@IAEXII@Z$0
__catchsym$?_Copy@?$basic_string@DU?$char_traits@D@std@@V?$allocator@D@2@@std@@IAEXII@Z$4 DD 040H
	DD	00H
	DD	00H
	DD	FLAT:__catch$?_Copy@?$basic_string@DU?$char_traits@D@std@@V?$allocator@D@2@@std@@IAEXII@Z$1
__unwindtable$?_Copy@?$basic_string@DU?$char_traits@D@std@@V?$allocator@D@2@@std@@IAEXII@Z DD 0ffffffffH
	DD	00H
	DD	0ffffffffH
	DD	00H
	DD	01H
	DD	00H
	DD	01H
	DD	00H
__ehfuncinfo$?_Copy@?$basic_string@DU?$char_traits@D@std@@V?$allocator@D@2@@std@@IAEXII@Z DD 019930522H
	DD	04H
	DD	FLAT:__unwindtable$?_Copy@?$basic_string@DU?$char_traits@D@std@@V?$allocator@D@2@@std@@IAEXII@Z
	DD	02H
	DD	FLAT:__tryblocktable$?_Copy@?$basic_string@DU?$char_traits@D@std@@V?$allocator@D@2@@std@@IAEXII@Z
	DD	2 DUP(00H)
	DD	00H
	DD	01H
__tryblocktable$?_Copy@?$basic_string@DU?$char_traits@D@std@@V?$allocator@D@2@@std@@IAEXII@Z DD 02H
	DD	02H
	DD	03H
	DD	01H
	DD	FLAT:__catchsym$?_Copy@?$basic_string@DU?$char_traits@D@std@@V?$allocator@D@2@@std@@IAEXII@Z$4
	DD	00H
	DD	00H
	DD	03H
	DD	01H
	DD	FLAT:__catchsym$?_Copy@?$basic_string@DU?$char_traits@D@std@@V?$allocator@D@2@@std@@IAEXII@Z$5
; Function compile flags: /Ogtpy
; File d:\program files\microsoft visual studio 8\vc\include\xstring
xdata$x	ENDS
;	COMDAT ?_Copy@?$basic_string@DU?$char_traits@D@std@@V?$allocator@D@2@@std@@IAEXII@Z
_TEXT	SEGMENT
__Newres$ = -24						; size = 4
_this$ = -20						; size = 4
__$EHRec$ = -16						; size = 16
__Ptr$ = 8						; size = 4
__Newsize$ = 8						; size = 4
__Oldlen$ = 12						; size = 4
?_Copy@?$basic_string@DU?$char_traits@D@std@@V?$allocator@D@2@@std@@IAEXII@Z PROC ; std::basic_string<char,std::char_traits<char>,std::allocator<char> >::_Copy, COMDAT
; _this$ = ecx

; 2000 : 		{	// copy _Oldlen elements to newly allocated buffer

  00000	55		 push	 ebp
  00001	8b ec		 mov	 ebp, esp
  00003	6a ff		 push	 -1
  00005	68 00 00 00 00	 push	 __ehhandler$?_Copy@?$basic_string@DU?$char_traits@D@std@@V?$allocator@D@2@@std@@IAEXII@Z
  0000a	64 a1 00 00 00
	00		 mov	 eax, DWORD PTR fs:0
  00010	50		 push	 eax
  00011	83 ec 0c	 sub	 esp, 12			; 0000000cH
  00014	53		 push	 ebx
  00015	56		 push	 esi
  00016	57		 push	 edi
  00017	a1 00 00 00 00	 mov	 eax, DWORD PTR ___security_cookie
  0001c	33 c5		 xor	 eax, ebp
  0001e	50		 push	 eax
  0001f	8d 45 f4	 lea	 eax, DWORD PTR __$EHRec$[ebp+4]
  00022	64 a3 00 00 00
	00		 mov	 DWORD PTR fs:0, eax
  00028	89 65 f0	 mov	 DWORD PTR __$EHRec$[ebp], esp
  0002b	8b f9		 mov	 edi, ecx
  0002d	89 7d ec	 mov	 DWORD PTR _this$[ebp], edi

; 2001 : 		size_type _Newres = _Newsize | _ALLOC_MASK;

  00030	8b 45 08	 mov	 eax, DWORD PTR __Newsize$[ebp]
  00033	8b f0		 mov	 esi, eax
  00035	83 ce 0f	 or	 esi, 15			; 0000000fH

; 2002 : 		if (max_size() < _Newres)

  00038	83 fe fe	 cmp	 esi, -2			; fffffffeH
  0003b	76 04		 jbe	 SHORT $LN6@Copy

; 2003 : 			_Newres = _Newsize;	// undo roundup if too big

  0003d	8b f0		 mov	 esi, eax

; 2004 : 		else if (_Newres / 3 < _Myres / 2

  0003f	eb 22		 jmp	 SHORT $LN4@Copy
$LN6@Copy:

; 2005 : 			&& _Myres <= max_size() - _Myres / 2)

  00041	8b 5f 18	 mov	 ebx, DWORD PTR [edi+24]
  00044	b8 ab aa aa aa	 mov	 eax, -1431655765	; aaaaaaabH
  00049	f7 e6		 mul	 esi
  0004b	8b cb		 mov	 ecx, ebx
  0004d	d1 e9		 shr	 ecx, 1
  0004f	d1 ea		 shr	 edx, 1
  00051	3b d1		 cmp	 edx, ecx
  00053	73 0e		 jae	 SHORT $LN4@Copy
  00055	b8 fe ff ff ff	 mov	 eax, -2			; fffffffeH
  0005a	2b c1		 sub	 eax, ecx
  0005c	3b d8		 cmp	 ebx, eax
  0005e	77 03		 ja	 SHORT $LN4@Copy

; 2006 : 			_Newres = _Myres + _Myres / 2;	// grow exponentially if possible

  00060	8d 34 19	 lea	 esi, DWORD PTR [ecx+ebx]
$LN4@Copy:

; 2007 : 		_Elem *_Ptr = 0;
; 2008 : 
; 2009 : 		_TRY_BEGIN
; 2010 : 			_Ptr = _Mybase::_Alval.allocate(_Newres + 1);

  00063	8d 4e 01	 lea	 ecx, DWORD PTR [esi+1]
  00066	6a 00		 push	 0
  00068	51		 push	 ecx
  00069	c7 45 fc 00 00
	00 00		 mov	 DWORD PTR __$EHRec$[ebp+12], 0
  00070	e8 00 00 00 00	 call	 ??$_Allocate@D@std@@YAPADIPAD@Z ; std::_Allocate<char>
  00075	83 c4 08	 add	 esp, 8
  00078	89 45 08	 mov	 DWORD PTR __Ptr$[ebp], eax

; 2018 : 			_CATCH_END
; 2019 : 		_CATCH_END

  0007b	eb 2a		 jmp	 SHORT $LN16@Copy
__catch$?_Copy@?$basic_string@DU?$char_traits@D@std@@V?$allocator@D@2@@std@@IAEXII@Z$0:

; 2011 : 		_CATCH_ALL
; 2012 : 			_Newres = _Newsize;	// allocation failed, undo roundup and retry

  0007d	8b 45 08	 mov	 eax, DWORD PTR __Newsize$[ebp]
  00080	89 65 f0	 mov	 DWORD PTR __$EHRec$[ebp], esp
  00083	89 45 e8	 mov	 DWORD PTR __Newres$[ebp], eax

; 2013 : 			_TRY_BEGIN
; 2014 : 				_Ptr = _Mybase::_Alval.allocate(_Newres + 1);

  00086	83 c0 01	 add	 eax, 1
  00089	6a 00		 push	 0
  0008b	50		 push	 eax
  0008c	c6 45 fc 02	 mov	 BYTE PTR __$EHRec$[ebp+12], 2
  00090	e8 00 00 00 00	 call	 ??$_Allocate@D@std@@YAPADIPAD@Z ; std::_Allocate<char>
  00095	89 45 08	 mov	 DWORD PTR __Ptr$[ebp], eax
  00098	83 c4 08	 add	 esp, 8

; 2018 : 			_CATCH_END
; 2019 : 		_CATCH_END

  0009b	b8 00 00 00 00	 mov	 eax, $LN106@Copy
  000a0	c3		 ret	 0
$LN106@Copy:
  000a1	8b 7d ec	 mov	 edi, DWORD PTR _this$[ebp]
  000a4	8b 75 e8	 mov	 esi, DWORD PTR __Newres$[ebp]
$LN16@Copy:

; 2020 : 
; 2021 : 		if (0 < _Oldlen)

  000a7	8b 5d 0c	 mov	 ebx, DWORD PTR __Oldlen$[ebp]
  000aa	85 db		 test	 ebx, ebx
  000ac	76 20		 jbe	 SHORT $LN71@Copy

; 2022 : 			_Traits_helper::copy_s<_Traits>(_Ptr, _Newres + 1, _Myptr(), _Oldlen);	// copy existing elements

  000ae	83 7f 18 10	 cmp	 DWORD PTR [edi+24], 16	; 00000010H
  000b2	72 05		 jb	 SHORT $LN63@Copy
  000b4	8b 47 04	 mov	 eax, DWORD PTR [edi+4]
  000b7	eb 03		 jmp	 SHORT $LN64@Copy
$LN63@Copy:
  000b9	8d 47 04	 lea	 eax, DWORD PTR [edi+4]
$LN64@Copy:
  000bc	53		 push	 ebx
  000bd	50		 push	 eax
  000be	8b 45 08	 mov	 eax, DWORD PTR __Ptr$[ebp]
  000c1	8d 56 01	 lea	 edx, DWORD PTR [esi+1]
  000c4	52		 push	 edx
  000c5	50		 push	 eax
  000c6	e8 00 00 00 00	 call	 _memcpy_s
  000cb	83 c4 10	 add	 esp, 16			; 00000010H
$LN71@Copy:

; 2023 : 		_Tidy(true);

  000ce	83 7f 18 10	 cmp	 DWORD PTR [edi+24], 16	; 00000010H
  000d2	72 0c		 jb	 SHORT $LN87@Copy
  000d4	8b 4f 04	 mov	 ecx, DWORD PTR [edi+4]
  000d7	51		 push	 ecx
  000d8	e8 00 00 00 00	 call	 ??3@YAXPAX@Z		; operator delete
  000dd	83 c4 04	 add	 esp, 4
$LN87@Copy:

; 2024 : 		_Bx._Ptr = _Ptr;
; 2025 : 		_Myres = _Newres;
; 2026 : 		_Eos(_Oldlen);

  000e0	83 fe 10	 cmp	 esi, 16			; 00000010H
  000e3	8b 4d 08	 mov	 ecx, DWORD PTR __Ptr$[ebp]
  000e6	8d 47 04	 lea	 eax, DWORD PTR [edi+4]
  000e9	c6 00 00	 mov	 BYTE PTR [eax], 0
  000ec	89 08		 mov	 DWORD PTR [eax], ecx
  000ee	89 77 18	 mov	 DWORD PTR [edi+24], esi
  000f1	89 5f 14	 mov	 DWORD PTR [edi+20], ebx
  000f4	72 02		 jb	 SHORT $LN101@Copy
  000f6	8b c1		 mov	 eax, ecx
$LN101@Copy:
  000f8	c6 04 18 00	 mov	 BYTE PTR [eax+ebx], 0

; 2027 : 		}

  000fc	8b 4d f4	 mov	 ecx, DWORD PTR __$EHRec$[ebp+4]
  000ff	64 89 0d 00 00
	00 00		 mov	 DWORD PTR fs:0, ecx
  00106	59		 pop	 ecx
  00107	5f		 pop	 edi
  00108	5e		 pop	 esi
  00109	5b		 pop	 ebx
  0010a	8b e5		 mov	 esp, ebp
  0010c	5d		 pop	 ebp
  0010d	c2 08 00	 ret	 8
__catch$?_Copy@?$basic_string@DU?$char_traits@D@std@@V?$allocator@D@2@@std@@IAEXII@Z$1:

; 2015 : 			_CATCH_ALL
; 2016 : 			_Tidy(true);	// failed again, discard storage and reraise

  00110	8b 75 ec	 mov	 esi, DWORD PTR _this$[ebp]
  00113	83 7e 18 10	 cmp	 DWORD PTR [esi+24], 16	; 00000010H
  00117	72 0c		 jb	 SHORT $LN51@Copy
  00119	8b 56 04	 mov	 edx, DWORD PTR [esi+4]
  0011c	52		 push	 edx
  0011d	e8 00 00 00 00	 call	 ??3@YAXPAX@Z		; operator delete
  00122	83 c4 04	 add	 esp, 4
$LN51@Copy:

; 2017 : 			_RERAISE;

  00125	6a 00		 push	 0
  00127	c7 46 18 0f 00
	00 00		 mov	 DWORD PTR [esi+24], 15	; 0000000fH
  0012e	c7 46 14 00 00
	00 00		 mov	 DWORD PTR [esi+20], 0
  00135	6a 00		 push	 0
  00137	c6 46 04 00	 mov	 BYTE PTR [esi+4], 0
  0013b	e8 00 00 00 00	 call	 __CxxThrowException@8
$LN110@Copy:
$LN109@Copy:
  00140	cc		 int	 3
_TEXT	ENDS
;	COMDAT text$x
text$x	SEGMENT
__ehhandler$?_Copy@?$basic_string@DU?$char_traits@D@std@@V?$allocator@D@2@@std@@IAEXII@Z:
  00000	8b 54 24 08	 mov	 edx, DWORD PTR [esp+8]
  00004	8d 42 0c	 lea	 eax, DWORD PTR [edx+12]
  00007	8b 4a e4	 mov	 ecx, DWORD PTR [edx-28]
  0000a	33 c8		 xor	 ecx, eax
  0000c	e8 00 00 00 00	 call	 @__security_check_cookie@4
  00011	b8 00 00 00 00	 mov	 eax, OFFSET __ehfuncinfo$?_Copy@?$basic_string@DU?$char_traits@D@std@@V?$allocator@D@2@@std@@IAEXII@Z
  00016	e9 00 00 00 00	 jmp	 ___CxxFrameHandler3
text$x	ENDS
?_Copy@?$basic_string@DU?$char_traits@D@std@@V?$allocator@D@2@@std@@IAEXII@Z ENDP ; std::basic_string<char,std::char_traits<char>,std::allocator<char> >::_Copy
PUBLIC	??$?MDU?$char_traits@D@std@@V?$allocator@D@1@@std@@YA_NABV?$basic_string@DU?$char_traits@D@std@@V?$allocator@D@2@@0@0@Z ; std::operator<<char,std::char_traits<char>,std::allocator<char> >
; Function compile flags: /Ogtpy
; File d:\program files\microsoft visual studio 8\vc\include\string
;	COMDAT ??$?MDU?$char_traits@D@std@@V?$allocator@D@1@@std@@YA_NABV?$basic_string@DU?$char_traits@D@std@@V?$allocator@D@2@@0@0@Z
_TEXT	SEGMENT
__Left$ = 8						; size = 4
__Right$ = 12						; size = 4
??$?MDU?$char_traits@D@std@@V?$allocator@D@1@@std@@YA_NABV?$basic_string@DU?$char_traits@D@std@@V?$allocator@D@2@@0@0@Z PROC ; std::operator<<char,std::char_traits<char>,std::allocator<char> >, COMDAT

; 135  : 	return (_Left.compare(_Right) < 0);

  00000	8b 44 24 08	 mov	 eax, DWORD PTR __Right$[esp-4]
  00004	83 78 18 10	 cmp	 DWORD PTR [eax+24], 16	; 00000010H
  00008	8b 48 14	 mov	 ecx, DWORD PTR [eax+20]
  0000b	72 05		 jb	 SHORT $LN9@operator@6
  0000d	8b 40 04	 mov	 eax, DWORD PTR [eax+4]
  00010	eb 03		 jmp	 SHORT $LN10@operator@6
$LN9@operator@6:
  00012	83 c0 04	 add	 eax, 4
$LN10@operator@6:
  00015	51		 push	 ecx
  00016	8b 4c 24 08	 mov	 ecx, DWORD PTR __Left$[esp]
  0001a	50		 push	 eax
  0001b	8b 41 14	 mov	 eax, DWORD PTR [ecx+20]
  0001e	50		 push	 eax
  0001f	6a 00		 push	 0
  00021	e8 00 00 00 00	 call	 ?compare@?$basic_string@DU?$char_traits@D@std@@V?$allocator@D@2@@std@@QBEHIIPBDI@Z ; std::basic_string<char,std::char_traits<char>,std::allocator<char> >::compare
  00026	33 c9		 xor	 ecx, ecx
  00028	85 c0		 test	 eax, eax
  0002a	0f 9c c1	 setl	 cl
  0002d	8a c1		 mov	 al, cl

; 136  : 	}

  0002f	c3		 ret	 0
??$?MDU?$char_traits@D@std@@V?$allocator@D@1@@std@@YA_NABV?$basic_string@DU?$char_traits@D@std@@V?$allocator@D@2@@0@0@Z ENDP ; std::operator<<char,std::char_traits<char>,std::allocator<char> >
_TEXT	ENDS
PUBLIC	??Fiterator@?$_Tree@V?$_Tmap_traits@V?$basic_string@DU?$char_traits@D@std@@V?$allocator@D@2@@std@@PAUtagBillItem@CBillClient@@U?$less@V?$basic_string@DU?$char_traits@D@std@@V?$allocator@D@2@@std@@@2@V?$allocator@U?$pair@$$CBV?$basic_string@DU?$char_traits@D@std@@V?$allocator@D@2@@std@@PAUtagBillItem@CBillClient@@@std@@@2@$0A@@std@@@std@@QAEAAV012@XZ ; std::_Tree<std::_Tmap_traits<std::basic_string<char,std::char_traits<char>,std::allocator<char> >,CBillClient::tagBillItem *,std::less<std::basic_string<char,std::char_traits<char>,std::allocator<char> > >,std::allocator<std::pair<std::basic_string<char,std::char_traits<char>,std::allocator<char> > const ,CBillClient::tagBillItem *> >,0> >::iterator::operator--
; Function compile flags: /Ogtpy
; File d:\program files\microsoft visual studio 8\vc\include\xtree
;	COMDAT ??Fiterator@?$_Tree@V?$_Tmap_traits@V?$basic_string@DU?$char_traits@D@std@@V?$allocator@D@2@@std@@PAUtagBillItem@CBillClient@@U?$less@V?$basic_string@DU?$char_traits@D@std@@V?$allocator@D@2@@std@@@2@V?$allocator@U?$pair@$$CBV?$basic_string@DU?$char_traits@D@std@@V?$allocator@D@2@@std@@PAUtagBillItem@CBillClient@@@std@@@2@$0A@@std@@@std@@QAEAAV012@XZ
_TEXT	SEGMENT
??Fiterator@?$_Tree@V?$_Tmap_traits@V?$basic_string@DU?$char_traits@D@std@@V?$allocator@D@2@@std@@PAUtagBillItem@CBillClient@@U?$less@V?$basic_string@DU?$char_traits@D@std@@V?$allocator@D@2@@std@@@2@V?$allocator@U?$pair@$$CBV?$basic_string@DU?$char_traits@D@std@@V?$allocator@D@2@@std@@PAUtagBillItem@CBillClient@@@std@@@2@$0A@@std@@@std@@QAEAAV012@XZ PROC ; std::_Tree<std::_Tmap_traits<std::basic_string<char,std::char_traits<char>,std::allocator<char> >,CBillClient::tagBillItem *,std::less<std::basic_string<char,std::char_traits<char>,std::allocator<char> > >,std::allocator<std::pair<std::basic_string<char,std::char_traits<char>,std::allocator<char> > const ,CBillClient::tagBillItem *> >,0> >::iterator::operator--, COMDAT
; _this$ = ecx

; 473  : 			{	// predecrement

  00000	56		 push	 esi
  00001	8b f1		 mov	 esi, ecx

; 474  : 			--(*(const_iterator *)this);

  00003	e8 00 00 00 00	 call	 ?_Dec@const_iterator@?$_Tree@V?$_Tmap_traits@V?$basic_string@DU?$char_traits@D@std@@V?$allocator@D@2@@std@@PAUtagBillItem@CBillClient@@U?$less@V?$basic_string@DU?$char_traits@D@std@@V?$allocator@D@2@@std@@@2@V?$allocator@U?$pair@$$CBV?$basic_string@DU?$char_traits@D@std@@V?$allocator@D@2@@std@@PAUtagBillItem@CBillClient@@@std@@@2@$0A@@std@@@std@@QAEXXZ ; std::_Tree<std::_Tmap_traits<std::basic_string<char,std::char_traits<char>,std::allocator<char> >,CBillClient::tagBillItem *,std::less<std::basic_string<char,std::char_traits<char>,std::allocator<char> > >,std::allocator<std::pair<std::basic_string<char,std::char_traits<char>,std::allocator<char> > const ,CBillClient::tagBillItem *> >,0> >::const_iterator::_Dec

; 475  : 			return (*this);

  00008	8b c6		 mov	 eax, esi
  0000a	5e		 pop	 esi

; 476  : 			}

  0000b	c3		 ret	 0
??Fiterator@?$_Tree@V?$_Tmap_traits@V?$basic_string@DU?$char_traits@D@std@@V?$allocator@D@2@@std@@PAUtagBillItem@CBillClient@@U?$less@V?$basic_string@DU?$char_traits@D@std@@V?$allocator@D@2@@std@@@2@V?$allocator@U?$pair@$$CBV?$basic_string@DU?$char_traits@D@std@@V?$allocator@D@2@@std@@PAUtagBillItem@CBillClient@@@std@@@2@$0A@@std@@@std@@QAEAAV012@XZ ENDP ; std::_Tree<std::_Tmap_traits<std::basic_string<char,std::char_traits<char>,std::allocator<char> >,CBillClient::tagBillItem *,std::less<std::basic_string<char,std::char_traits<char>,std::allocator<char> > >,std::allocator<std::pair<std::basic_string<char,std::char_traits<char>,std::allocator<char> > const ,CBillClient::tagBillItem *> >,0> >::iterator::operator--
_TEXT	ENDS
PUBLIC	?_Buynode@?$_Tree@V?$_Tmap_traits@V?$basic_string@DU?$char_traits@D@std@@V?$allocator@D@2@@std@@PAUtagBillItem@CBillClient@@U?$less@V?$basic_string@DU?$char_traits@D@std@@V?$allocator@D@2@@std@@@2@V?$allocator@U?$pair@$$CBV?$basic_string@DU?$char_traits@D@std@@V?$allocator@D@2@@std@@PAUtagBillItem@CBillClient@@@std@@@2@$0A@@std@@@std@@IAEPAU_Node@?$_Tree_nod@V?$_Tmap_traits@V?$basic_string@DU?$char_traits@D@std@@V?$allocator@D@2@@std@@PAUtagBillItem@CBillClient@@U?$less@V?$basic_string@DU?$char_traits@D@std@@V?$allocator@D@2@@std@@@2@V?$allocator@U?$pair@$$CBV?$basic_string@DU?$char_traits@D@std@@V?$allocator@D@2@@std@@PAUtagBillItem@CBillClient@@@std@@@2@$0A@@std@@@2@XZ ; std::_Tree<std::_Tmap_traits<std::basic_string<char,std::char_traits<char>,std::allocator<char> >,CBillClient::tagBillItem *,std::less<std::basic_string<char,std::char_traits<char>,std::allocator<char> > >,std::allocator<std::pair<std::basic_string<char,std::char_traits<char>,std::allocator<char> > const ,CBillClient::tagBillItem *> >,0> >::_Buynode
; Function compile flags: /Ogtpy
;	COMDAT ?_Buynode@?$_Tree@V?$_Tmap_traits@V?$basic_string@DU?$char_traits@D@std@@V?$allocator@D@2@@std@@PAUtagBillItem@CBillClient@@U?$less@V?$basic_string@DU?$char_traits@D@std@@V?$allocator@D@2@@std@@@2@V?$allocator@U?$pair@$$CBV?$basic_string@DU?$char_traits@D@std@@V?$allocator@D@2@@std@@PAUtagBillItem@CBillClient@@@std@@@2@$0A@@std@@@std@@IAEPAU_Node@?$_Tree_nod@V?$_Tmap_traits@V?$basic_string@DU?$char_traits@D@std@@V?$allocator@D@2@@std@@PAUtagBillItem@CBillClient@@U?$less@V?$basic_string@DU?$char_traits@D@std@@V?$allocator@D@2@@std@@@2@V?$allocator@U?$pair@$$CBV?$basic_string@DU?$char_traits@D@std@@V?$allocator@D@2@@std@@PAUtagBillItem@CBillClient@@@std@@@2@$0A@@std@@@2@XZ
_TEXT	SEGMENT
?_Buynode@?$_Tree@V?$_Tmap_traits@V?$basic_string@DU?$char_traits@D@std@@V?$allocator@D@2@@std@@PAUtagBillItem@CBillClient@@U?$less@V?$basic_string@DU?$char_traits@D@std@@V?$allocator@D@2@@std@@@2@V?$allocator@U?$pair@$$CBV?$basic_string@DU?$char_traits@D@std@@V?$allocator@D@2@@std@@PAUtagBillItem@CBillClient@@@std@@@2@$0A@@std@@@std@@IAEPAU_Node@?$_Tree_nod@V?$_Tmap_traits@V?$basic_string@DU?$char_traits@D@std@@V?$allocator@D@2@@std@@PAUtagBillItem@CBillClient@@U?$less@V?$basic_string@DU?$char_traits@D@std@@V?$allocator@D@2@@std@@@2@V?$allocator@U?$pair@$$CBV?$basic_string@DU?$char_traits@D@std@@V?$allocator@D@2@@std@@PAUtagBillItem@CBillClient@@@std@@@2@$0A@@std@@@2@XZ PROC ; std::_Tree<std::_Tmap_traits<std::basic_string<char,std::char_traits<char>,std::allocator<char> >,CBillClient::tagBillItem *,std::less<std::basic_string<char,std::char_traits<char>,std::allocator<char> > >,std::allocator<std::pair<std::basic_string<char,std::char_traits<char>,std::allocator<char> > const ,CBillClient::tagBillItem *> >,0> >::_Buynode, COMDAT
; _this$ = ecx

; 1290 : 		_Nodeptr _Wherenode = this->_Alnod.allocate(1);

  00000	6a 30		 push	 48			; 00000030H
  00002	e8 00 00 00 00	 call	 ??2@YAPAXI@Z		; operator new
  00007	83 c4 04	 add	 esp, 4

; 1291 : 		int _Linkcnt = 0;
; 1292 : 
; 1293 : 		_TRY_BEGIN
; 1294 : 		this->_Alptr.construct(&_Left(_Wherenode), 0);

  0000a	85 c0		 test	 eax, eax
  0000c	74 06		 je	 SHORT $LN27@Buynode
  0000e	c7 00 00 00 00
	00		 mov	 DWORD PTR [eax], 0
$LN27@Buynode:

; 1295 : 		++_Linkcnt;
; 1296 : 		this->_Alptr.construct(&_Parent(_Wherenode), 0);

  00014	8d 48 04	 lea	 ecx, DWORD PTR [eax+4]
  00017	85 c9		 test	 ecx, ecx
  00019	74 06		 je	 SHORT $LN37@Buynode
  0001b	c7 01 00 00 00
	00		 mov	 DWORD PTR [ecx], 0
$LN37@Buynode:

; 1297 : 		++_Linkcnt;
; 1298 : 		this->_Alptr.construct(&_Right(_Wherenode), 0);

  00021	8d 48 08	 lea	 ecx, DWORD PTR [eax+8]
  00024	85 c9		 test	 ecx, ecx
  00026	74 06		 je	 SHORT $LN47@Buynode
  00028	c7 01 00 00 00
	00		 mov	 DWORD PTR [ecx], 0
$LN47@Buynode:

; 1299 : 		_CATCH_ALL
; 1300 : 		if (1 < _Linkcnt)
; 1301 : 			this->_Alptr.destroy(&_Parent(_Wherenode));
; 1302 : 		if (0 < _Linkcnt)
; 1303 : 			this->_Alptr.destroy(&_Left(_Wherenode));
; 1304 : 		this->_Alnod.deallocate(_Wherenode, 1);
; 1305 : 		_RERAISE;
; 1306 : 		_CATCH_END
; 1307 : 		_Color(_Wherenode) = _Black;

  0002e	c6 40 2c 01	 mov	 BYTE PTR [eax+44], 1

; 1308 : 		_Isnil(_Wherenode) = false;

  00032	c6 40 2d 00	 mov	 BYTE PTR [eax+45], 0

; 1309 : 		return (_Wherenode);
; 1310 : 		}

  00036	c3		 ret	 0
?_Buynode@?$_Tree@V?$_Tmap_traits@V?$basic_string@DU?$char_traits@D@std@@V?$allocator@D@2@@std@@PAUtagBillItem@CBillClient@@U?$less@V?$basic_string@DU?$char_traits@D@std@@V?$allocator@D@2@@std@@@2@V?$allocator@U?$pair@$$CBV?$basic_string@DU?$char_traits@D@std@@V?$allocator@D@2@@std@@PAUtagBillItem@CBillClient@@@std@@@2@$0A@@std@@@std@@IAEPAU_Node@?$_Tree_nod@V?$_Tmap_traits@V?$basic_string@DU?$char_traits@D@std@@V?$allocator@D@2@@std@@PAUtagBillItem@CBillClient@@U?$less@V?$basic_string@DU?$char_traits@D@std@@V?$allocator@D@2@@std@@@2@V?$allocator@U?$pair@$$CBV?$basic_string@DU?$char_traits@D@std@@V?$allocator@D@2@@std@@PAUtagBillItem@CBillClient@@@std@@@2@$0A@@std@@@2@XZ ENDP ; std::_Tree<std::_Tmap_traits<std::basic_string<char,std::char_traits<char>,std::allocator<char> >,CBillClient::tagBillItem *,std::less<std::basic_string<char,std::char_traits<char>,std::allocator<char> > >,std::allocator<std::pair<std::basic_string<char,std::char_traits<char>,std::allocator<char> > const ,CBillClient::tagBillItem *> >,0> >::_Buynode
_TEXT	ENDS
PUBLIC	??0?$_Tree_ptr@V?$_Tmap_traits@V?$basic_string@DU?$char_traits@D@std@@V?$allocator@D@2@@std@@PAUtagBillItem@CBillClient@@U?$less@V?$basic_string@DU?$char_traits@D@std@@V?$allocator@D@2@@std@@@2@V?$allocator@U?$pair@$$CBV?$basic_string@DU?$char_traits@D@std@@V?$allocator@D@2@@std@@PAUtagBillItem@CBillClient@@@std@@@2@$0A@@std@@@std@@IAE@ABU?$less@V?$basic_string@DU?$char_traits@D@std@@V?$allocator@D@2@@std@@@1@V?$allocator@U?$pair@$$CBV?$basic_string@DU?$char_traits@D@std@@V?$allocator@D@2@@std@@PAUtagBillItem@CBillClient@@@std@@@1@@Z ; std::_Tree_ptr<std::_Tmap_traits<std::basic_string<char,std::char_traits<char>,std::allocator<char> >,CBillClient::tagBillItem *,std::less<std::basic_string<char,std::char_traits<char>,std::allocator<char> > >,std::allocator<std::pair<std::basic_string<char,std::char_traits<char>,std::allocator<char> > const ,CBillClient::tagBillItem *> >,0> >::_Tree_ptr<std::_Tmap_traits<std::basic_string<char,std::char_traits<char>,std::allocator<char> >,CBillClient::tagBillItem *,std::less<std::basic_string<char,std::char_traits<char>,std::allocator<char> > >,std::allocator<std::pair<std::basic_string<char,std::char_traits<char>,std::allocator<char> > const ,CBillClient::tagBillItem *> >,0> >
; Function compile flags: /Ogtpy
;	COMDAT ??0?$_Tree_ptr@V?$_Tmap_traits@V?$basic_string@DU?$char_traits@D@std@@V?$allocator@D@2@@std@@PAUtagBillItem@CBillClient@@U?$less@V?$basic_string@DU?$char_traits@D@std@@V?$allocator@D@2@@std@@@2@V?$allocator@U?$pair@$$CBV?$basic_string@DU?$char_traits@D@std@@V?$allocator@D@2@@std@@PAUtagBillItem@CBillClient@@@std@@@2@$0A@@std@@@std@@IAE@ABU?$less@V?$basic_string@DU?$char_traits@D@std@@V?$allocator@D@2@@std@@@1@V?$allocator@U?$pair@$$CBV?$basic_string@DU?$char_traits@D@std@@V?$allocator@D@2@@std@@PAUtagBillItem@CBillClient@@@std@@@1@@Z
_TEXT	SEGMENT
__Parg$ = 8						; size = 4
__Al$ = 12						; size = 1
??0?$_Tree_ptr@V?$_Tmap_traits@V?$basic_string@DU?$char_traits@D@std@@V?$allocator@D@2@@std@@PAUtagBillItem@CBillClient@@U?$less@V?$basic_string@DU?$char_traits@D@std@@V?$allocator@D@2@@std@@@2@V?$allocator@U?$pair@$$CBV?$basic_string@DU?$char_traits@D@std@@V?$allocator@D@2@@std@@PAUtagBillItem@CBillClient@@@std@@@2@$0A@@std@@@std@@IAE@ABU?$less@V?$basic_string@DU?$char_traits@D@std@@V?$allocator@D@2@@std@@@1@V?$allocator@U?$pair@$$CBV?$basic_string@DU?$char_traits@D@std@@V?$allocator@D@2@@std@@PAUtagBillItem@CBillClient@@@std@@@1@@Z PROC ; std::_Tree_ptr<std::_Tmap_traits<std::basic_string<char,std::char_traits<char>,std::allocator<char> >,CBillClient::tagBillItem *,std::less<std::basic_string<char,std::char_traits<char>,std::allocator<char> > >,std::allocator<std::pair<std::basic_string<char,std::char_traits<char>,std::allocator<char> > const ,CBillClient::tagBillItem *> >,0> >::_Tree_ptr<std::_Tmap_traits<std::basic_string<char,std::char_traits<char>,std::allocator<char> >,CBillClient::tagBillItem *,std::less<std::basic_string<char,std::char_traits<char>,std::allocator<char> > >,std::allocator<std::pair<std::basic_string<char,std::char_traits<char>,std::allocator<char> > const ,CBillClient::tagBillItem *> >,0> >, COMDAT
; _this$ = ecx

; 83   : 		{	// construct base, and allocator from _Al

  00000	8b c1		 mov	 eax, ecx

; 84   : 		}

  00002	c2 08 00	 ret	 8
??0?$_Tree_ptr@V?$_Tmap_traits@V?$basic_string@DU?$char_traits@D@std@@V?$allocator@D@2@@std@@PAUtagBillItem@CBillClient@@U?$less@V?$basic_string@DU?$char_traits@D@std@@V?$allocator@D@2@@std@@@2@V?$allocator@U?$pair@$$CBV?$basic_string@DU?$char_traits@D@std@@V?$allocator@D@2@@std@@PAUtagBillItem@CBillClient@@@std@@@2@$0A@@std@@@std@@IAE@ABU?$less@V?$basic_string@DU?$char_traits@D@std@@V?$allocator@D@2@@std@@@1@V?$allocator@U?$pair@$$CBV?$basic_string@DU?$char_traits@D@std@@V?$allocator@D@2@@std@@PAUtagBillItem@CBillClient@@@std@@@1@@Z ENDP ; std::_Tree_ptr<std::_Tmap_traits<std::basic_string<char,std::char_traits<char>,std::allocator<char> >,CBillClient::tagBillItem *,std::less<std::basic_string<char,std::char_traits<char>,std::allocator<char> > >,std::allocator<std::pair<std::basic_string<char,std::char_traits<char>,std::allocator<char> > const ,CBillClient::tagBillItem *> >,0> >::_Tree_ptr<std::_Tmap_traits<std::basic_string<char,std::char_traits<char>,std::allocator<char> >,CBillClient::tagBillItem *,std::less<std::basic_string<char,std::char_traits<char>,std::allocator<char> > >,std::allocator<std::pair<std::basic_string<char,std::char_traits<char>,std::allocator<char> > const ,CBillClient::tagBillItem *> >,0> >
_TEXT	ENDS
PUBLIC	?begin@?$_Tree@V?$_Tmap_traits@V?$basic_string@DU?$char_traits@D@std@@V?$allocator@D@2@@std@@PAUtagBillItem@CBillClient@@U?$less@V?$basic_string@DU?$char_traits@D@std@@V?$allocator@D@2@@std@@@2@V?$allocator@U?$pair@$$CBV?$basic_string@DU?$char_traits@D@std@@V?$allocator@D@2@@std@@PAUtagBillItem@CBillClient@@@std@@@2@$0A@@std@@@std@@QAE?AViterator@12@XZ ; std::_Tree<std::_Tmap_traits<std::basic_string<char,std::char_traits<char>,std::allocator<char> >,CBillClient::tagBillItem *,std::less<std::basic_string<char,std::char_traits<char>,std::allocator<char> > >,std::allocator<std::pair<std::basic_string<char,std::char_traits<char>,std::allocator<char> > const ,CBillClient::tagBillItem *> >,0> >::begin
; Function compile flags: /Ogtpy
;	COMDAT ?begin@?$_Tree@V?$_Tmap_traits@V?$basic_string@DU?$char_traits@D@std@@V?$allocator@D@2@@std@@PAUtagBillItem@CBillClient@@U?$less@V?$basic_string@DU?$char_traits@D@std@@V?$allocator@D@2@@std@@@2@V?$allocator@U?$pair@$$CBV?$basic_string@DU?$char_traits@D@std@@V?$allocator@D@2@@std@@PAUtagBillItem@CBillClient@@@std@@@2@$0A@@std@@@std@@QAE?AViterator@12@XZ
_TEXT	SEGMENT
___$ReturnUdt$ = 8					; size = 4
?begin@?$_Tree@V?$_Tmap_traits@V?$basic_string@DU?$char_traits@D@std@@V?$allocator@D@2@@std@@PAUtagBillItem@CBillClient@@U?$less@V?$basic_string@DU?$char_traits@D@std@@V?$allocator@D@2@@std@@@2@V?$allocator@U?$pair@$$CBV?$basic_string@DU?$char_traits@D@std@@V?$allocator@D@2@@std@@PAUtagBillItem@CBillClient@@@std@@@2@$0A@@std@@@std@@QAE?AViterator@12@XZ PROC ; std::_Tree<std::_Tmap_traits<std::basic_string<char,std::char_traits<char>,std::allocator<char> >,CBillClient::tagBillItem *,std::less<std::basic_string<char,std::char_traits<char>,std::allocator<char> > >,std::allocator<std::pair<std::basic_string<char,std::char_traits<char>,std::allocator<char> > const ,CBillClient::tagBillItem *> >,0> >::begin, COMDAT
; _this$ = ecx

; 542  : 		return (_TREE_ITERATOR(_Lmost()));

  00000	8b 41 04	 mov	 eax, DWORD PTR [ecx+4]
  00003	8b 10		 mov	 edx, DWORD PTR [eax]
  00005	8b 44 24 04	 mov	 eax, DWORD PTR ___$ReturnUdt$[esp-4]
  00009	89 50 04	 mov	 DWORD PTR [eax+4], edx
  0000c	89 08		 mov	 DWORD PTR [eax], ecx

; 543  : 		}

  0000e	c2 04 00	 ret	 4
?begin@?$_Tree@V?$_Tmap_traits@V?$basic_string@DU?$char_traits@D@std@@V?$allocator@D@2@@std@@PAUtagBillItem@CBillClient@@U?$less@V?$basic_string@DU?$char_traits@D@std@@V?$allocator@D@2@@std@@@2@V?$allocator@U?$pair@$$CBV?$basic_string@DU?$char_traits@D@std@@V?$allocator@D@2@@std@@PAUtagBillItem@CBillClient@@@std@@@2@$0A@@std@@@std@@QAE?AViterator@12@XZ ENDP ; std::_Tree<std::_Tmap_traits<std::basic_string<char,std::char_traits<char>,std::allocator<char> >,CBillClient::tagBillItem *,std::less<std::basic_string<char,std::char_traits<char>,std::allocator<char> > >,std::allocator<std::pair<std::basic_string<char,std::char_traits<char>,std::allocator<char> > const ,CBillClient::tagBillItem *> >,0> >::begin
_TEXT	ENDS
PUBLIC	?end@?$_Tree@V?$_Tmap_traits@V?$basic_string@DU?$char_traits@D@std@@V?$allocator@D@2@@std@@PAUtagBillItem@CBillClient@@U?$less@V?$basic_string@DU?$char_traits@D@std@@V?$allocator@D@2@@std@@@2@V?$allocator@U?$pair@$$CBV?$basic_string@DU?$char_traits@D@std@@V?$allocator@D@2@@std@@PAUtagBillItem@CBillClient@@@std@@@2@$0A@@std@@@std@@QAE?AViterator@12@XZ ; std::_Tree<std::_Tmap_traits<std::basic_string<char,std::char_traits<char>,std::allocator<char> >,CBillClient::tagBillItem *,std::less<std::basic_string<char,std::char_traits<char>,std::allocator<char> > >,std::allocator<std::pair<std::basic_string<char,std::char_traits<char>,std::allocator<char> > const ,CBillClient::tagBillItem *> >,0> >::end
; Function compile flags: /Ogtpy
;	COMDAT ?end@?$_Tree@V?$_Tmap_traits@V?$basic_string@DU?$char_traits@D@std@@V?$allocator@D@2@@std@@PAUtagBillItem@CBillClient@@U?$less@V?$basic_string@DU?$char_traits@D@std@@V?$allocator@D@2@@std@@@2@V?$allocator@U?$pair@$$CBV?$basic_string@DU?$char_traits@D@std@@V?$allocator@D@2@@std@@PAUtagBillItem@CBillClient@@@std@@@2@$0A@@std@@@std@@QAE?AViterator@12@XZ
_TEXT	SEGMENT
___$ReturnUdt$ = 8					; size = 4
?end@?$_Tree@V?$_Tmap_traits@V?$basic_string@DU?$char_traits@D@std@@V?$allocator@D@2@@std@@PAUtagBillItem@CBillClient@@U?$less@V?$basic_string@DU?$char_traits@D@std@@V?$allocator@D@2@@std@@@2@V?$allocator@U?$pair@$$CBV?$basic_string@DU?$char_traits@D@std@@V?$allocator@D@2@@std@@PAUtagBillItem@CBillClient@@@std@@@2@$0A@@std@@@std@@QAE?AViterator@12@XZ PROC ; std::_Tree<std::_Tmap_traits<std::basic_string<char,std::char_traits<char>,std::allocator<char> >,CBillClient::tagBillItem *,std::less<std::basic_string<char,std::char_traits<char>,std::allocator<char> > >,std::allocator<std::pair<std::basic_string<char,std::char_traits<char>,std::allocator<char> > const ,CBillClient::tagBillItem *> >,0> >::end, COMDAT
; _this$ = ecx

; 552  : 		return (_TREE_ITERATOR(_Myhead));

  00000	8b 44 24 04	 mov	 eax, DWORD PTR ___$ReturnUdt$[esp-4]
  00004	8b 51 04	 mov	 edx, DWORD PTR [ecx+4]
  00007	89 50 04	 mov	 DWORD PTR [eax+4], edx
  0000a	89 08		 mov	 DWORD PTR [eax], ecx

; 553  : 		}

  0000c	c2 04 00	 ret	 4
?end@?$_Tree@V?$_Tmap_traits@V?$basic_string@DU?$char_traits@D@std@@V?$allocator@D@2@@std@@PAUtagBillItem@CBillClient@@U?$less@V?$basic_string@DU?$char_traits@D@std@@V?$allocator@D@2@@std@@@2@V?$allocator@U?$pair@$$CBV?$basic_string@DU?$char_traits@D@std@@V?$allocator@D@2@@std@@PAUtagBillItem@CBillClient@@@std@@@2@$0A@@std@@@std@@QAE?AViterator@12@XZ ENDP ; std::_Tree<std::_Tmap_traits<std::basic_string<char,std::char_traits<char>,std::allocator<char> >,CBillClient::tagBillItem *,std::less<std::basic_string<char,std::char_traits<char>,std::allocator<char> > >,std::allocator<std::pair<std::basic_string<char,std::char_traits<char>,std::allocator<char> > const ,CBillClient::tagBillItem *> >,0> >::end
_TEXT	ENDS
PUBLIC	??1?$basic_string@DU?$char_traits@D@std@@V?$allocator@D@2@@std@@QAE@XZ ; std::basic_string<char,std::char_traits<char>,std::allocator<char> >::~basic_string<char,std::char_traits<char>,std::allocator<char> >
; Function compile flags: /Ogtpy
; File d:\program files\microsoft visual studio 8\vc\include\xstring
;	COMDAT ??1?$basic_string@DU?$char_traits@D@std@@V?$allocator@D@2@@std@@QAE@XZ
_TEXT	SEGMENT
??1?$basic_string@DU?$char_traits@D@std@@V?$allocator@D@2@@std@@QAE@XZ PROC ; std::basic_string<char,std::char_traits<char>,std::allocator<char> >::~basic_string<char,std::char_traits<char>,std::allocator<char> >, COMDAT
; _this$ = ecx

; 904  : 		{	// destroy the string

  00000	56		 push	 esi
  00001	8b f1		 mov	 esi, ecx

; 905  : 		_Tidy(true);

  00003	83 7e 18 10	 cmp	 DWORD PTR [esi+24], 16	; 00000010H
  00007	72 0c		 jb	 SHORT $LN17@basic_stri
  00009	8b 46 04	 mov	 eax, DWORD PTR [esi+4]
  0000c	50		 push	 eax
  0000d	e8 00 00 00 00	 call	 ??3@YAXPAX@Z		; operator delete
  00012	83 c4 04	 add	 esp, 4
$LN17@basic_stri:
  00015	33 c0		 xor	 eax, eax
  00017	c7 46 18 0f 00
	00 00		 mov	 DWORD PTR [esi+24], 15	; 0000000fH
  0001e	89 46 14	 mov	 DWORD PTR [esi+20], eax
  00021	88 46 04	 mov	 BYTE PTR [esi+4], al
  00024	5e		 pop	 esi

; 906  : 		}

  00025	c3		 ret	 0
??1?$basic_string@DU?$char_traits@D@std@@V?$allocator@D@2@@std@@QAE@XZ ENDP ; std::basic_string<char,std::char_traits<char>,std::allocator<char> >::~basic_string<char,std::char_traits<char>,std::allocator<char> >
_TEXT	ENDS
PUBLIC	??Eiterator@?$_Tree@V?$_Tmap_traits@V?$basic_string@DU?$char_traits@D@std@@V?$allocator@D@2@@std@@PAUtagBillItem@CBillClient@@U?$less@V?$basic_string@DU?$char_traits@D@std@@V?$allocator@D@2@@std@@@2@V?$allocator@U?$pair@$$CBV?$basic_string@DU?$char_traits@D@std@@V?$allocator@D@2@@std@@PAUtagBillItem@CBillClient@@@std@@@2@$0A@@std@@@std@@QAE?AV012@H@Z ; std::_Tree<std::_Tmap_traits<std::basic_string<char,std::char_traits<char>,std::allocator<char> >,CBillClient::tagBillItem *,std::less<std::basic_string<char,std::char_traits<char>,std::allocator<char> > >,std::allocator<std::pair<std::basic_string<char,std::char_traits<char>,std::allocator<char> > const ,CBillClient::tagBillItem *> >,0> >::iterator::operator++
; Function compile flags: /Ogtpy
; File d:\program files\microsoft visual studio 8\vc\include\xtree
;	COMDAT ??Eiterator@?$_Tree@V?$_Tmap_traits@V?$basic_string@DU?$char_traits@D@std@@V?$allocator@D@2@@std@@PAUtagBillItem@CBillClient@@U?$less@V?$basic_string@DU?$char_traits@D@std@@V?$allocator@D@2@@std@@@2@V?$allocator@U?$pair@$$CBV?$basic_string@DU?$char_traits@D@std@@V?$allocator@D@2@@std@@PAUtagBillItem@CBillClient@@@std@@@2@$0A@@std@@@std@@QAE?AV012@H@Z
_TEXT	SEGMENT
___$ReturnUdt$ = 8					; size = 4
___formal$ = 12						; size = 4
??Eiterator@?$_Tree@V?$_Tmap_traits@V?$basic_string@DU?$char_traits@D@std@@V?$allocator@D@2@@std@@PAUtagBillItem@CBillClient@@U?$less@V?$basic_string@DU?$char_traits@D@std@@V?$allocator@D@2@@std@@@2@V?$allocator@U?$pair@$$CBV?$basic_string@DU?$char_traits@D@std@@V?$allocator@D@2@@std@@PAUtagBillItem@CBillClient@@@std@@@2@$0A@@std@@@std@@QAE?AV012@H@Z PROC ; std::_Tree<std::_Tmap_traits<std::basic_string<char,std::char_traits<char>,std::allocator<char> >,CBillClient::tagBillItem *,std::less<std::basic_string<char,std::char_traits<char>,std::allocator<char> > >,std::allocator<std::pair<std::basic_string<char,std::char_traits<char>,std::allocator<char> > const ,CBillClient::tagBillItem *> >,0> >::iterator::operator++, COMDAT
; _this$ = ecx

; 467  : 			iterator _Tmp = *this;

  00000	8b 01		 mov	 eax, DWORD PTR [ecx]
  00002	8b 51 04	 mov	 edx, DWORD PTR [ecx+4]
  00005	56		 push	 esi
  00006	8b 74 24 08	 mov	 esi, DWORD PTR ___$ReturnUdt$[esp]
  0000a	89 06		 mov	 DWORD PTR [esi], eax
  0000c	89 56 04	 mov	 DWORD PTR [esi+4], edx

; 468  : 			++*this;

  0000f	e8 00 00 00 00	 call	 ?_Inc@const_iterator@?$_Tree@V?$_Tmap_traits@V?$basic_string@DU?$char_traits@D@std@@V?$allocator@D@2@@std@@PAUtagBillItem@CBillClient@@U?$less@V?$basic_string@DU?$char_traits@D@std@@V?$allocator@D@2@@std@@@2@V?$allocator@U?$pair@$$CBV?$basic_string@DU?$char_traits@D@std@@V?$allocator@D@2@@std@@PAUtagBillItem@CBillClient@@@std@@@2@$0A@@std@@@std@@QAEXXZ ; std::_Tree<std::_Tmap_traits<std::basic_string<char,std::char_traits<char>,std::allocator<char> >,CBillClient::tagBillItem *,std::less<std::basic_string<char,std::char_traits<char>,std::allocator<char> > >,std::allocator<std::pair<std::basic_string<char,std::char_traits<char>,std::allocator<char> > const ,CBillClient::tagBillItem *> >,0> >::const_iterator::_Inc

; 469  : 			return (_Tmp);

  00014	8b c6		 mov	 eax, esi
  00016	5e		 pop	 esi

; 470  : 			}

  00017	c2 08 00	 ret	 8
??Eiterator@?$_Tree@V?$_Tmap_traits@V?$basic_string@DU?$char_traits@D@std@@V?$allocator@D@2@@std@@PAUtagBillItem@CBillClient@@U?$less@V?$basic_string@DU?$char_traits@D@std@@V?$allocator@D@2@@std@@@2@V?$allocator@U?$pair@$$CBV?$basic_string@DU?$char_traits@D@std@@V?$allocator@D@2@@std@@PAUtagBillItem@CBillClient@@@std@@@2@$0A@@std@@@std@@QAE?AV012@H@Z ENDP ; std::_Tree<std::_Tmap_traits<std::basic_string<char,std::char_traits<char>,std::allocator<char> >,CBillClient::tagBillItem *,std::less<std::basic_string<char,std::char_traits<char>,std::allocator<char> > >,std::allocator<std::pair<std::basic_string<char,std::char_traits<char>,std::allocator<char> > const ,CBillClient::tagBillItem *> >,0> >::iterator::operator++
_TEXT	ENDS
PUBLIC	??1?$pair@$$CBV?$basic_string@DU?$char_traits@D@std@@V?$allocator@D@2@@std@@PAUtagBillItem@CBillClient@@@std@@QAE@XZ ; std::pair<std::basic_string<char,std::char_traits<char>,std::allocator<char> > const ,CBillClient::tagBillItem *>::~pair<std::basic_string<char,std::char_traits<char>,std::allocator<char> > const ,CBillClient::tagBillItem *>
; Function compile flags: /Ogtpy
;	COMDAT ??1?$pair@$$CBV?$basic_string@DU?$char_traits@D@std@@V?$allocator@D@2@@std@@PAUtagBillItem@CBillClient@@@std@@QAE@XZ
_TEXT	SEGMENT
??1?$pair@$$CBV?$basic_string@DU?$char_traits@D@std@@V?$allocator@D@2@@std@@PAUtagBillItem@CBillClient@@@std@@QAE@XZ PROC ; std::pair<std::basic_string<char,std::char_traits<char>,std::allocator<char> > const ,CBillClient::tagBillItem *>::~pair<std::basic_string<char,std::char_traits<char>,std::allocator<char> > const ,CBillClient::tagBillItem *>, COMDAT
; _this$ = ecx
  00000	56		 push	 esi
  00001	8b f1		 mov	 esi, ecx
  00003	83 7e 18 10	 cmp	 DWORD PTR [esi+24], 16	; 00000010H
  00007	72 0c		 jb	 SHORT $LN20@pair
  00009	8b 46 04	 mov	 eax, DWORD PTR [esi+4]
  0000c	50		 push	 eax
  0000d	e8 00 00 00 00	 call	 ??3@YAXPAX@Z		; operator delete
  00012	83 c4 04	 add	 esp, 4
$LN20@pair:
  00015	33 c0		 xor	 eax, eax
  00017	c7 46 18 0f 00
	00 00		 mov	 DWORD PTR [esi+24], 15	; 0000000fH
  0001e	89 46 14	 mov	 DWORD PTR [esi+20], eax
  00021	88 46 04	 mov	 BYTE PTR [esi+4], al
  00024	5e		 pop	 esi
  00025	c3		 ret	 0
??1?$pair@$$CBV?$basic_string@DU?$char_traits@D@std@@V?$allocator@D@2@@std@@PAUtagBillItem@CBillClient@@@std@@QAE@XZ ENDP ; std::pair<std::basic_string<char,std::char_traits<char>,std::allocator<char> > const ,CBillClient::tagBillItem *>::~pair<std::basic_string<char,std::char_traits<char>,std::allocator<char> > const ,CBillClient::tagBillItem *>
_TEXT	ENDS
PUBLIC	??R?$less@V?$basic_string@DU?$char_traits@D@std@@V?$allocator@D@2@@std@@@std@@QBE_NABV?$basic_string@DU?$char_traits@D@std@@V?$allocator@D@2@@1@0@Z ; std::less<std::basic_string<char,std::char_traits<char>,std::allocator<char> > >::operator()
; Function compile flags: /Ogtpy
; File d:\program files\microsoft visual studio 8\vc\include\functional
;	COMDAT ??R?$less@V?$basic_string@DU?$char_traits@D@std@@V?$allocator@D@2@@std@@@std@@QBE_NABV?$basic_string@DU?$char_traits@D@std@@V?$allocator@D@2@@1@0@Z
_TEXT	SEGMENT
__Left$ = 8						; size = 4
__Right$ = 12						; size = 4
??R?$less@V?$basic_string@DU?$char_traits@D@std@@V?$allocator@D@2@@std@@@std@@QBE_NABV?$basic_string@DU?$char_traits@D@std@@V?$allocator@D@2@@1@0@Z PROC ; std::less<std::basic_string<char,std::char_traits<char>,std::allocator<char> > >::operator(), COMDAT
; _this$ = ecx

; 143  : 		return (_Left < _Right);

  00000	8b 44 24 08	 mov	 eax, DWORD PTR __Right$[esp-4]
  00004	83 78 18 10	 cmp	 DWORD PTR [eax+24], 16	; 00000010H
  00008	8b 48 14	 mov	 ecx, DWORD PTR [eax+20]
  0000b	72 05		 jb	 SHORT $LN11@operator@7
  0000d	8b 40 04	 mov	 eax, DWORD PTR [eax+4]
  00010	eb 03		 jmp	 SHORT $LN12@operator@7
$LN11@operator@7:
  00012	83 c0 04	 add	 eax, 4
$LN12@operator@7:
  00015	51		 push	 ecx
  00016	8b 4c 24 08	 mov	 ecx, DWORD PTR __Left$[esp]
  0001a	50		 push	 eax
  0001b	8b 41 14	 mov	 eax, DWORD PTR [ecx+20]
  0001e	50		 push	 eax
  0001f	6a 00		 push	 0
  00021	e8 00 00 00 00	 call	 ?compare@?$basic_string@DU?$char_traits@D@std@@V?$allocator@D@2@@std@@QBEHIIPBDI@Z ; std::basic_string<char,std::char_traits<char>,std::allocator<char> >::compare
  00026	33 c9		 xor	 ecx, ecx
  00028	85 c0		 test	 eax, eax
  0002a	0f 9c c1	 setl	 cl
  0002d	8a c1		 mov	 al, cl

; 144  : 		}

  0002f	c2 08 00	 ret	 8
??R?$less@V?$basic_string@DU?$char_traits@D@std@@V?$allocator@D@2@@std@@@std@@QBE_NABV?$basic_string@DU?$char_traits@D@std@@V?$allocator@D@2@@1@0@Z ENDP ; std::less<std::basic_string<char,std::char_traits<char>,std::allocator<char> > >::operator()
_TEXT	ENDS
PUBLIC	?_Grow@?$basic_string@DU?$char_traits@D@std@@V?$allocator@D@2@@std@@IAE_NI_N@Z ; std::basic_string<char,std::char_traits<char>,std::allocator<char> >::_Grow
EXTRN	?_Xlen@_String_base@std@@SAXXZ:PROC		; std::_String_base::_Xlen
; Function compile flags: /Ogtpy
; File d:\program files\microsoft visual studio 8\vc\include\xstring
;	COMDAT ?_Grow@?$basic_string@DU?$char_traits@D@std@@V?$allocator@D@2@@std@@IAE_NI_N@Z
_TEXT	SEGMENT
__Newsize$ = 8						; size = 4
__Trim$ = 12						; size = 1
?_Grow@?$basic_string@DU?$char_traits@D@std@@V?$allocator@D@2@@std@@IAE_NI_N@Z PROC ; std::basic_string<char,std::char_traits<char>,std::allocator<char> >::_Grow, COMDAT
; _this$ = ecx

; 2036 : 		{	// ensure buffer is big enough, trim to size if _Trim is true

  00000	53		 push	 ebx

; 2037 : 			if (max_size() < _Newsize)

  00001	8b 5c 24 08	 mov	 ebx, DWORD PTR __Newsize$[esp]
  00005	83 fb fe	 cmp	 ebx, -2			; fffffffeH
  00008	56		 push	 esi
  00009	8b f1		 mov	 esi, ecx
  0000b	76 05		 jbe	 SHORT $LN6@Grow

; 2038 : 			_String_base::_Xlen();	// result too long

  0000d	e8 00 00 00 00	 call	 ?_Xlen@_String_base@std@@SAXXZ ; std::_String_base::_Xlen
$LN6@Grow:

; 2039 : 		if (_Myres < _Newsize)

  00012	8b 46 18	 mov	 eax, DWORD PTR [esi+24]
  00015	3b c3		 cmp	 eax, ebx
  00017	73 19		 jae	 SHORT $LN5@Grow

; 2040 : 			_Copy(_Newsize, _Mysize);	// reallocate to grow

  00019	8b 46 14	 mov	 eax, DWORD PTR [esi+20]
  0001c	50		 push	 eax
  0001d	53		 push	 ebx
  0001e	8b ce		 mov	 ecx, esi
  00020	e8 00 00 00 00	 call	 ?_Copy@?$basic_string@DU?$char_traits@D@std@@V?$allocator@D@2@@std@@IAEXII@Z ; std::basic_string<char,std::char_traits<char>,std::allocator<char> >::_Copy

; 2046 : 		return (0 < _Newsize);	// return true only if more work to do

  00025	33 c9		 xor	 ecx, ecx
  00027	3b cb		 cmp	 ecx, ebx
  00029	1b c0		 sbb	 eax, eax
  0002b	5e		 pop	 esi
  0002c	f7 d8		 neg	 eax
  0002e	5b		 pop	 ebx

; 2047 : 		}

  0002f	c2 08 00	 ret	 8
$LN5@Grow:

; 2041 : 		else if (_Trim && _Newsize < _BUF_SIZE)

  00032	80 7c 24 10 00	 cmp	 BYTE PTR __Trim$[esp+4], 0
  00037	74 52		 je	 SHORT $LN3@Grow
  00039	83 fb 10	 cmp	 ebx, 16			; 00000010H
  0003c	73 4d		 jae	 SHORT $LN3@Grow
  0003e	57		 push	 edi

; 2042 : 			_Tidy(true,	// copy and deallocate if trimming to small string
; 2043 : 				_Newsize < _Mysize ? _Newsize : _Mysize);

  0003f	8b 7e 14	 mov	 edi, DWORD PTR [esi+20]
  00042	3b df		 cmp	 ebx, edi
  00044	73 02		 jae	 SHORT $LN9@Grow
  00046	8b fb		 mov	 edi, ebx
$LN9@Grow:
  00048	83 f8 10	 cmp	 eax, 16			; 00000010H
  0004b	72 21		 jb	 SHORT $LN33@Grow
  0004d	85 ff		 test	 edi, edi
  0004f	8d 46 04	 lea	 eax, DWORD PTR [esi+4]
  00052	55		 push	 ebp
  00053	8b 28		 mov	 ebp, DWORD PTR [eax]
  00055	76 0d		 jbe	 SHORT $LN31@Grow
  00057	57		 push	 edi
  00058	55		 push	 ebp
  00059	6a 10		 push	 16			; 00000010H
  0005b	50		 push	 eax
  0005c	e8 00 00 00 00	 call	 _memcpy_s
  00061	83 c4 10	 add	 esp, 16			; 00000010H
$LN31@Grow:
  00064	55		 push	 ebp
  00065	e8 00 00 00 00	 call	 ??3@YAXPAX@Z		; operator delete
  0006a	83 c4 04	 add	 esp, 4
  0006d	5d		 pop	 ebp
$LN33@Grow:
  0006e	89 7e 14	 mov	 DWORD PTR [esi+20], edi
  00071	c7 46 18 0f 00
	00 00		 mov	 DWORD PTR [esi+24], 15	; 0000000fH

; 2046 : 		return (0 < _Newsize);	// return true only if more work to do

  00078	33 c9		 xor	 ecx, ecx
  0007a	c6 44 3e 04 00	 mov	 BYTE PTR [esi+edi+4], 0
  0007f	3b cb		 cmp	 ecx, ebx
  00081	5f		 pop	 edi
  00082	1b c0		 sbb	 eax, eax
  00084	5e		 pop	 esi
  00085	f7 d8		 neg	 eax
  00087	5b		 pop	 ebx

; 2047 : 		}

  00088	c2 08 00	 ret	 8
$LN3@Grow:

; 2044 : 		else if (_Newsize == 0)

  0008b	85 db		 test	 ebx, ebx
  0008d	75 20		 jne	 SHORT $LN49@Grow

; 2045 : 			_Eos(0);	// new size is zero, just null terminate

  0008f	83 f8 10	 cmp	 eax, 16			; 00000010H
  00092	89 5e 14	 mov	 DWORD PTR [esi+20], ebx
  00095	72 12		 jb	 SHORT $LN47@Grow
  00097	8b 76 04	 mov	 esi, DWORD PTR [esi+4]

; 2046 : 		return (0 < _Newsize);	// return true only if more work to do

  0009a	33 c9		 xor	 ecx, ecx
  0009c	3b cb		 cmp	 ecx, ebx
  0009e	88 1e		 mov	 BYTE PTR [esi], bl
  000a0	1b c0		 sbb	 eax, eax
  000a2	5e		 pop	 esi
  000a3	f7 d8		 neg	 eax
  000a5	5b		 pop	 ebx

; 2047 : 		}

  000a6	c2 08 00	 ret	 8

; 2045 : 			_Eos(0);	// new size is zero, just null terminate

$LN47@Grow:
  000a9	83 c6 04	 add	 esi, 4
  000ac	c6 06 00	 mov	 BYTE PTR [esi], 0
$LN49@Grow:

; 2046 : 		return (0 < _Newsize);	// return true only if more work to do

  000af	33 c9		 xor	 ecx, ecx
  000b1	3b cb		 cmp	 ecx, ebx
  000b3	1b c0		 sbb	 eax, eax
  000b5	5e		 pop	 esi
  000b6	f7 d8		 neg	 eax
  000b8	5b		 pop	 ebx

; 2047 : 		}

  000b9	c2 08 00	 ret	 8
?_Grow@?$basic_string@DU?$char_traits@D@std@@V?$allocator@D@2@@std@@IAE_NI_N@Z ENDP ; std::basic_string<char,std::char_traits<char>,std::allocator<char> >::_Grow
_TEXT	ENDS
PUBLIC	?_Init@?$_Tree@V?$_Tmap_traits@V?$basic_string@DU?$char_traits@D@std@@V?$allocator@D@2@@std@@PAUtagBillItem@CBillClient@@U?$less@V?$basic_string@DU?$char_traits@D@std@@V?$allocator@D@2@@std@@@2@V?$allocator@U?$pair@$$CBV?$basic_string@DU?$char_traits@D@std@@V?$allocator@D@2@@std@@PAUtagBillItem@CBillClient@@@std@@@2@$0A@@std@@@std@@IAEXXZ ; std::_Tree<std::_Tmap_traits<std::basic_string<char,std::char_traits<char>,std::allocator<char> >,CBillClient::tagBillItem *,std::less<std::basic_string<char,std::char_traits<char>,std::allocator<char> > >,std::allocator<std::pair<std::basic_string<char,std::char_traits<char>,std::allocator<char> > const ,CBillClient::tagBillItem *> >,0> >::_Init
; Function compile flags: /Ogtpy
; File d:\program files\microsoft visual studio 8\vc\include\xtree
;	COMDAT ?_Init@?$_Tree@V?$_Tmap_traits@V?$basic_string@DU?$char_traits@D@std@@V?$allocator@D@2@@std@@PAUtagBillItem@CBillClient@@U?$less@V?$basic_string@DU?$char_traits@D@std@@V?$allocator@D@2@@std@@@2@V?$allocator@U?$pair@$$CBV?$basic_string@DU?$char_traits@D@std@@V?$allocator@D@2@@std@@PAUtagBillItem@CBillClient@@@std@@@2@$0A@@std@@@std@@IAEXXZ
_TEXT	SEGMENT
?_Init@?$_Tree@V?$_Tmap_traits@V?$basic_string@DU?$char_traits@D@std@@V?$allocator@D@2@@std@@PAUtagBillItem@CBillClient@@U?$less@V?$basic_string@DU?$char_traits@D@std@@V?$allocator@D@2@@std@@@2@V?$allocator@U?$pair@$$CBV?$basic_string@DU?$char_traits@D@std@@V?$allocator@D@2@@std@@PAUtagBillItem@CBillClient@@@std@@@2@$0A@@std@@@std@@IAEXXZ PROC ; std::_Tree<std::_Tmap_traits<std::basic_string<char,std::char_traits<char>,std::allocator<char> >,CBillClient::tagBillItem *,std::less<std::basic_string<char,std::char_traits<char>,std::allocator<char> > >,std::allocator<std::pair<std::basic_string<char,std::char_traits<char>,std::allocator<char> > const ,CBillClient::tagBillItem *> >,0> >::_Init, COMDAT
; _this$ = ecx

; 1083 : 		{	// create head/nil node and make tree empty

  00000	56		 push	 esi
  00001	8b f1		 mov	 esi, ecx

; 1084 : 		_Myhead = _Buynode();

  00003	e8 00 00 00 00	 call	 ?_Buynode@?$_Tree@V?$_Tmap_traits@V?$basic_string@DU?$char_traits@D@std@@V?$allocator@D@2@@std@@PAUtagBillItem@CBillClient@@U?$less@V?$basic_string@DU?$char_traits@D@std@@V?$allocator@D@2@@std@@@2@V?$allocator@U?$pair@$$CBV?$basic_string@DU?$char_traits@D@std@@V?$allocator@D@2@@std@@PAUtagBillItem@CBillClient@@@std@@@2@$0A@@std@@@std@@IAEPAU_Node@?$_Tree_nod@V?$_Tmap_traits@V?$basic_string@DU?$char_traits@D@std@@V?$allocator@D@2@@std@@PAUtagBillItem@CBillClient@@U?$less@V?$basic_string@DU?$char_traits@D@std@@V?$allocator@D@2@@std@@@2@V?$allocator@U?$pair@$$CBV?$basic_string@DU?$char_traits@D@std@@V?$allocator@D@2@@std@@PAUtagBillItem@CBillClient@@@std@@@2@$0A@@std@@@2@XZ ; std::_Tree<std::_Tmap_traits<std::basic_string<char,std::char_traits<char>,std::allocator<char> >,CBillClient::tagBillItem *,std::less<std::basic_string<char,std::char_traits<char>,std::allocator<char> > >,std::allocator<std::pair<std::basic_string<char,std::char_traits<char>,std::allocator<char> > const ,CBillClient::tagBillItem *> >,0> >::_Buynode
  00008	89 46 04	 mov	 DWORD PTR [esi+4], eax

; 1085 : 		_Isnil(_Myhead) = true;

  0000b	c6 40 2d 01	 mov	 BYTE PTR [eax+45], 1

; 1086 : 		_Root() = _Myhead;

  0000f	8b 46 04	 mov	 eax, DWORD PTR [esi+4]
  00012	89 40 04	 mov	 DWORD PTR [eax+4], eax

; 1087 : 		_Lmost() = _Myhead, _Rmost() = _Myhead;

  00015	8b 46 04	 mov	 eax, DWORD PTR [esi+4]
  00018	89 00		 mov	 DWORD PTR [eax], eax
  0001a	8b 46 04	 mov	 eax, DWORD PTR [esi+4]
  0001d	89 40 08	 mov	 DWORD PTR [eax+8], eax

; 1088 : 		_Mysize = 0;

  00020	c7 46 08 00 00
	00 00		 mov	 DWORD PTR [esi+8], 0
  00027	5e		 pop	 esi

; 1089 : 		}

  00028	c3		 ret	 0
?_Init@?$_Tree@V?$_Tmap_traits@V?$basic_string@DU?$char_traits@D@std@@V?$allocator@D@2@@std@@PAUtagBillItem@CBillClient@@U?$less@V?$basic_string@DU?$char_traits@D@std@@V?$allocator@D@2@@std@@@2@V?$allocator@U?$pair@$$CBV?$basic_string@DU?$char_traits@D@std@@V?$allocator@D@2@@std@@PAUtagBillItem@CBillClient@@@std@@@2@$0A@@std@@@std@@IAEXXZ ENDP ; std::_Tree<std::_Tmap_traits<std::basic_string<char,std::char_traits<char>,std::allocator<char> >,CBillClient::tagBillItem *,std::less<std::basic_string<char,std::char_traits<char>,std::allocator<char> > >,std::allocator<std::pair<std::basic_string<char,std::char_traits<char>,std::allocator<char> > const ,CBillClient::tagBillItem *> >,0> >::_Init
_TEXT	ENDS
PUBLIC	?_Lbound@?$_Tree@V?$_Tmap_traits@V?$basic_string@DU?$char_traits@D@std@@V?$allocator@D@2@@std@@PAUtagBillItem@CBillClient@@U?$less@V?$basic_string@DU?$char_traits@D@std@@V?$allocator@D@2@@std@@@2@V?$allocator@U?$pair@$$CBV?$basic_string@DU?$char_traits@D@std@@V?$allocator@D@2@@std@@PAUtagBillItem@CBillClient@@@std@@@2@$0A@@std@@@std@@IBEPAU_Node@?$_Tree_nod@V?$_Tmap_traits@V?$basic_string@DU?$char_traits@D@std@@V?$allocator@D@2@@std@@PAUtagBillItem@CBillClient@@U?$less@V?$basic_string@DU?$char_traits@D@std@@V?$allocator@D@2@@std@@@2@V?$allocator@U?$pair@$$CBV?$basic_string@DU?$char_traits@D@std@@V?$allocator@D@2@@std@@PAUtagBillItem@CBillClient@@@std@@@2@$0A@@std@@@2@ABV?$basic_string@DU?$char_traits@D@std@@V?$allocator@D@2@@2@@Z ; std::_Tree<std::_Tmap_traits<std::basic_string<char,std::char_traits<char>,std::allocator<char> >,CBillClient::tagBillItem *,std::less<std::basic_string<char,std::char_traits<char>,std::allocator<char> > >,std::allocator<std::pair<std::basic_string<char,std::char_traits<char>,std::allocator<char> > const ,CBillClient::tagBillItem *> >,0> >::_Lbound
; Function compile flags: /Ogtpy
;	COMDAT ?_Lbound@?$_Tree@V?$_Tmap_traits@V?$basic_string@DU?$char_traits@D@std@@V?$allocator@D@2@@std@@PAUtagBillItem@CBillClient@@U?$less@V?$basic_string@DU?$char_traits@D@std@@V?$allocator@D@2@@std@@@2@V?$allocator@U?$pair@$$CBV?$basic_string@DU?$char_traits@D@std@@V?$allocator@D@2@@std@@PAUtagBillItem@CBillClient@@@std@@@2@$0A@@std@@@std@@IBEPAU_Node@?$_Tree_nod@V?$_Tmap_traits@V?$basic_string@DU?$char_traits@D@std@@V?$allocator@D@2@@std@@PAUtagBillItem@CBillClient@@U?$less@V?$basic_string@DU?$char_traits@D@std@@V?$allocator@D@2@@std@@@2@V?$allocator@U?$pair@$$CBV?$basic_string@DU?$char_traits@D@std@@V?$allocator@D@2@@std@@PAUtagBillItem@CBillClient@@@std@@@2@$0A@@std@@@2@ABV?$basic_string@DU?$char_traits@D@std@@V?$allocator@D@2@@2@@Z
_TEXT	SEGMENT
__Wherenode$ = -4					; size = 4
tv208 = 8						; size = 4
__Keyval$ = 8						; size = 4
?_Lbound@?$_Tree@V?$_Tmap_traits@V?$basic_string@DU?$char_traits@D@std@@V?$allocator@D@2@@std@@PAUtagBillItem@CBillClient@@U?$less@V?$basic_string@DU?$char_traits@D@std@@V?$allocator@D@2@@std@@@2@V?$allocator@U?$pair@$$CBV?$basic_string@DU?$char_traits@D@std@@V?$allocator@D@2@@std@@PAUtagBillItem@CBillClient@@@std@@@2@$0A@@std@@@std@@IBEPAU_Node@?$_Tree_nod@V?$_Tmap_traits@V?$basic_string@DU?$char_traits@D@std@@V?$allocator@D@2@@std@@PAUtagBillItem@CBillClient@@U?$less@V?$basic_string@DU?$char_traits@D@std@@V?$allocator@D@2@@std@@@2@V?$allocator@U?$pair@$$CBV?$basic_string@DU?$char_traits@D@std@@V?$allocator@D@2@@std@@PAUtagBillItem@CBillClient@@@std@@@2@$0A@@std@@@2@ABV?$basic_string@DU?$char_traits@D@std@@V?$allocator@D@2@@2@@Z PROC ; std::_Tree<std::_Tmap_traits<std::basic_string<char,std::char_traits<char>,std::allocator<char> >,CBillClient::tagBillItem *,std::less<std::basic_string<char,std::char_traits<char>,std::allocator<char> > >,std::allocator<std::pair<std::basic_string<char,std::char_traits<char>,std::allocator<char> > const ,CBillClient::tagBillItem *> >,0> >::_Lbound, COMDAT
; _this$ = ecx

; 1169 : 		{	// find leftmost node not less than _Keyval

  00000	51		 push	 ecx

; 1170 : 		_Nodeptr _Pnode = _Root();

  00001	8b 41 04	 mov	 eax, DWORD PTR [ecx+4]
  00004	56		 push	 esi
  00005	8b 70 04	 mov	 esi, DWORD PTR [eax+4]

; 1171 : 		_Nodeptr _Wherenode = _Myhead;	// end() if search fails
; 1172 : 
; 1173 : 		while (!_Isnil(_Pnode))

  00008	80 7e 2d 00	 cmp	 BYTE PTR [esi+45], 0
  0000c	89 44 24 04	 mov	 DWORD PTR __Wherenode$[esp+8], eax
  00010	75 76		 jne	 SHORT $LN3@Lbound

; 1174 : 			if (_DEBUG_LT_PRED(this->comp, _Key(_Pnode), _Keyval))

  00012	8b 44 24 0c	 mov	 eax, DWORD PTR __Keyval$[esp+4]
  00016	8b 48 18	 mov	 ecx, DWORD PTR [eax+24]
  00019	53		 push	 ebx
  0001a	8b 58 14	 mov	 ebx, DWORD PTR [eax+20]
  0001d	55		 push	 ebp
  0001e	57		 push	 edi
  0001f	89 4c 24 18	 mov	 DWORD PTR tv208[esp+16], ecx
  00023	8d 68 04	 lea	 ebp, DWORD PTR [eax+4]
$LL4@Lbound:
  00026	83 7c 24 18 10	 cmp	 DWORD PTR tv208[esp+16], 16 ; 00000010H
  0002b	72 05		 jb	 SHORT $LN29@Lbound
  0002d	8b 55 00	 mov	 edx, DWORD PTR [ebp]
  00030	eb 02		 jmp	 SHORT $LN30@Lbound
$LN29@Lbound:
  00032	8b d5		 mov	 edx, ebp
$LN30@Lbound:
  00034	8b 7e 20	 mov	 edi, DWORD PTR [esi+32]
  00037	8b c7		 mov	 eax, edi
  00039	3b c7		 cmp	 eax, edi
  0003b	0f 42 f8	 cmovb	 edi, eax
  0003e	3b fb		 cmp	 edi, ebx
  00040	8b cf		 mov	 ecx, edi
  00042	72 02		 jb	 SHORT $LN36@Lbound
  00044	8b cb		 mov	 ecx, ebx
$LN36@Lbound:
  00046	83 7e 24 10	 cmp	 DWORD PTR [esi+36], 16	; 00000010H
  0004a	72 05		 jb	 SHORT $LN43@Lbound
  0004c	8b 46 10	 mov	 eax, DWORD PTR [esi+16]
  0004f	eb 03		 jmp	 SHORT $LN44@Lbound
$LN43@Lbound:
  00051	8d 46 10	 lea	 eax, DWORD PTR [esi+16]
$LN44@Lbound:
  00054	51		 push	 ecx
  00055	52		 push	 edx
  00056	50		 push	 eax
  00057	e8 00 00 00 00	 call	 ?compare@?$char_traits@D@std@@SAHPBD0I@Z ; std::char_traits<char>::compare
  0005c	83 c4 0c	 add	 esp, 12			; 0000000cH
  0005f	85 c0		 test	 eax, eax
  00061	75 0b		 jne	 SHORT $LN53@Lbound
  00063	3b fb		 cmp	 edi, ebx
  00065	72 09		 jb	 SHORT $LN50@Lbound
  00067	3b fb		 cmp	 edi, ebx
  00069	0f 95 c0	 setne	 al
  0006c	85 c0		 test	 eax, eax
$LN53@Lbound:
  0006e	7d 05		 jge	 SHORT $LN2@Lbound
$LN50@Lbound:

; 1175 : 				_Pnode = _Right(_Pnode);	// descend right subtree

  00070	8b 76 08	 mov	 esi, DWORD PTR [esi+8]

; 1176 : 			else

  00073	eb 06		 jmp	 SHORT $LN1@Lbound
$LN2@Lbound:

; 1177 : 				{	// _Pnode not less than _Keyval, remember it
; 1178 : 				_Wherenode = _Pnode;

  00075	89 74 24 10	 mov	 DWORD PTR __Wherenode$[esp+20], esi

; 1179 : 				_Pnode = _Left(_Pnode);	// descend left subtree

  00079	8b 36		 mov	 esi, DWORD PTR [esi]
$LN1@Lbound:

; 1171 : 		_Nodeptr _Wherenode = _Myhead;	// end() if search fails
; 1172 : 
; 1173 : 		while (!_Isnil(_Pnode))

  0007b	80 7e 2d 00	 cmp	 BYTE PTR [esi+45], 0
  0007f	74 a5		 je	 SHORT $LL4@Lbound

; 1180 : 				}
; 1181 : 
; 1182 : 		return (_Wherenode);	// return best remembered candidate

  00081	8b 44 24 10	 mov	 eax, DWORD PTR __Wherenode$[esp+20]
  00085	5f		 pop	 edi
  00086	5d		 pop	 ebp
  00087	5b		 pop	 ebx
$LN3@Lbound:
  00088	5e		 pop	 esi

; 1183 : 		}

  00089	59		 pop	 ecx
  0008a	c2 04 00	 ret	 4
?_Lbound@?$_Tree@V?$_Tmap_traits@V?$basic_string@DU?$char_traits@D@std@@V?$allocator@D@2@@std@@PAUtagBillItem@CBillClient@@U?$less@V?$basic_string@DU?$char_traits@D@std@@V?$allocator@D@2@@std@@@2@V?$allocator@U?$pair@$$CBV?$basic_string@DU?$char_traits@D@std@@V?$allocator@D@2@@std@@PAUtagBillItem@CBillClient@@@std@@@2@$0A@@std@@@std@@IBEPAU_Node@?$_Tree_nod@V?$_Tmap_traits@V?$basic_string@DU?$char_traits@D@std@@V?$allocator@D@2@@std@@PAUtagBillItem@CBillClient@@U?$less@V?$basic_string@DU?$char_traits@D@std@@V?$allocator@D@2@@std@@@2@V?$allocator@U?$pair@$$CBV?$basic_string@DU?$char_traits@D@std@@V?$allocator@D@2@@std@@PAUtagBillItem@CBillClient@@@std@@@2@$0A@@std@@@2@ABV?$basic_string@DU?$char_traits@D@std@@V?$allocator@D@2@@2@@Z ENDP ; std::_Tree<std::_Tmap_traits<std::basic_string<char,std::char_traits<char>,std::allocator<char> >,CBillClient::tagBillItem *,std::less<std::basic_string<char,std::char_traits<char>,std::allocator<char> > >,std::allocator<std::pair<std::basic_string<char,std::char_traits<char>,std::allocator<char> > const ,CBillClient::tagBillItem *> >,0> >::_Lbound
_TEXT	ENDS
PUBLIC	??0?$_Tree_val@V?$_Tmap_traits@V?$basic_string@DU?$char_traits@D@std@@V?$allocator@D@2@@std@@PAUtagBillItem@CBillClient@@U?$less@V?$basic_string@DU?$char_traits@D@std@@V?$allocator@D@2@@std@@@2@V?$allocator@U?$pair@$$CBV?$basic_string@DU?$char_traits@D@std@@V?$allocator@D@2@@std@@PAUtagBillItem@CBillClient@@@std@@@2@$0A@@std@@@std@@IAE@ABU?$less@V?$basic_string@DU?$char_traits@D@std@@V?$allocator@D@2@@std@@@1@V?$allocator@U?$pair@$$CBV?$basic_string@DU?$char_traits@D@std@@V?$allocator@D@2@@std@@PAUtagBillItem@CBillClient@@@std@@@1@@Z ; std::_Tree_val<std::_Tmap_traits<std::basic_string<char,std::char_traits<char>,std::allocator<char> >,CBillClient::tagBillItem *,std::less<std::basic_string<char,std::char_traits<char>,std::allocator<char> > >,std::allocator<std::pair<std::basic_string<char,std::char_traits<char>,std::allocator<char> > const ,CBillClient::tagBillItem *> >,0> >::_Tree_val<std::_Tmap_traits<std::basic_string<char,std::char_traits<char>,std::allocator<char> >,CBillClient::tagBillItem *,std::less<std::basic_string<char,std::char_traits<char>,std::allocator<char> > >,std::allocator<std::pair<std::basic_string<char,std::char_traits<char>,std::allocator<char> > const ,CBillClient::tagBillItem *> >,0> >
; Function compile flags: /Ogtpy
;	COMDAT ??0?$_Tree_val@V?$_Tmap_traits@V?$basic_string@DU?$char_traits@D@std@@V?$allocator@D@2@@std@@PAUtagBillItem@CBillClient@@U?$less@V?$basic_string@DU?$char_traits@D@std@@V?$allocator@D@2@@std@@@2@V?$allocator@U?$pair@$$CBV?$basic_string@DU?$char_traits@D@std@@V?$allocator@D@2@@std@@PAUtagBillItem@CBillClient@@@std@@@2@$0A@@std@@@std@@IAE@ABU?$less@V?$basic_string@DU?$char_traits@D@std@@V?$allocator@D@2@@std@@@1@V?$allocator@U?$pair@$$CBV?$basic_string@DU?$char_traits@D@std@@V?$allocator@D@2@@std@@PAUtagBillItem@CBillClient@@@std@@@1@@Z
_TEXT	SEGMENT
__Parg$ = 8						; size = 4
__Al$ = 12						; size = 1
??0?$_Tree_val@V?$_Tmap_traits@V?$basic_string@DU?$char_traits@D@std@@V?$allocator@D@2@@std@@PAUtagBillItem@CBillClient@@U?$less@V?$basic_string@DU?$char_traits@D@std@@V?$allocator@D@2@@std@@@2@V?$allocator@U?$pair@$$CBV?$basic_string@DU?$char_traits@D@std@@V?$allocator@D@2@@std@@PAUtagBillItem@CBillClient@@@std@@@2@$0A@@std@@@std@@IAE@ABU?$less@V?$basic_string@DU?$char_traits@D@std@@V?$allocator@D@2@@std@@@1@V?$allocator@U?$pair@$$CBV?$basic_string@DU?$char_traits@D@std@@V?$allocator@D@2@@std@@PAUtagBillItem@CBillClient@@@std@@@1@@Z PROC ; std::_Tree_val<std::_Tmap_traits<std::basic_string<char,std::char_traits<char>,std::allocator<char> >,CBillClient::tagBillItem *,std::less<std::basic_string<char,std::char_traits<char>,std::allocator<char> > >,std::allocator<std::pair<std::basic_string<char,std::char_traits<char>,std::allocator<char> > const ,CBillClient::tagBillItem *> >,0> >::_Tree_val<std::_Tmap_traits<std::basic_string<char,std::char_traits<char>,std::allocator<char> >,CBillClient::tagBillItem *,std::less<std::basic_string<char,std::char_traits<char>,std::allocator<char> > >,std::allocator<std::pair<std::basic_string<char,std::char_traits<char>,std::allocator<char> > const ,CBillClient::tagBillItem *> >,0> >, COMDAT
; _this$ = ecx

; 102  : 		{	// construct base, and allocator from _Al

  00000	8b c1		 mov	 eax, ecx

; 103  : 		}

  00002	c2 08 00	 ret	 8
??0?$_Tree_val@V?$_Tmap_traits@V?$basic_string@DU?$char_traits@D@std@@V?$allocator@D@2@@std@@PAUtagBillItem@CBillClient@@U?$less@V?$basic_string@DU?$char_traits@D@std@@V?$allocator@D@2@@std@@@2@V?$allocator@U?$pair@$$CBV?$basic_string@DU?$char_traits@D@std@@V?$allocator@D@2@@std@@PAUtagBillItem@CBillClient@@@std@@@2@$0A@@std@@@std@@IAE@ABU?$less@V?$basic_string@DU?$char_traits@D@std@@V?$allocator@D@2@@std@@@1@V?$allocator@U?$pair@$$CBV?$basic_string@DU?$char_traits@D@std@@V?$allocator@D@2@@std@@PAUtagBillItem@CBillClient@@@std@@@1@@Z ENDP ; std::_Tree_val<std::_Tmap_traits<std::basic_string<char,std::char_traits<char>,std::allocator<char> >,CBillClient::tagBillItem *,std::less<std::basic_string<char,std::char_traits<char>,std::allocator<char> > >,std::allocator<std::pair<std::basic_string<char,std::char_traits<char>,std::allocator<char> > const ,CBillClient::tagBillItem *> >,0> >::_Tree_val<std::_Tmap_traits<std::basic_string<char,std::char_traits<char>,std::allocator<char> >,CBillClient::tagBillItem *,std::less<std::basic_string<char,std::char_traits<char>,std::allocator<char> > >,std::allocator<std::pair<std::basic_string<char,std::char_traits<char>,std::allocator<char> > const ,CBillClient::tagBillItem *> >,0> >
_TEXT	ENDS
PUBLIC	??1_Node@?$_Tree_nod@V?$_Tmap_traits@V?$basic_string@DU?$char_traits@D@std@@V?$allocator@D@2@@std@@PAUtagBillItem@CBillClient@@U?$less@V?$basic_string@DU?$char_traits@D@std@@V?$allocator@D@2@@std@@@2@V?$allocator@U?$pair@$$CBV?$basic_string@DU?$char_traits@D@std@@V?$allocator@D@2@@std@@PAUtagBillItem@CBillClient@@@std@@@2@$0A@@std@@@std@@QAE@XZ ; std::_Tree_nod<std::_Tmap_traits<std::basic_string<char,std::char_traits<char>,std::allocator<char> >,CBillClient::tagBillItem *,std::less<std::basic_string<char,std::char_traits<char>,std::allocator<char> > >,std::allocator<std::pair<std::basic_string<char,std::char_traits<char>,std::allocator<char> > const ,CBillClient::tagBillItem *> >,0> >::_Node::~_Node
; Function compile flags: /Ogtpy
;	COMDAT ??1_Node@?$_Tree_nod@V?$_Tmap_traits@V?$basic_string@DU?$char_traits@D@std@@V?$allocator@D@2@@std@@PAUtagBillItem@CBillClient@@U?$less@V?$basic_string@DU?$char_traits@D@std@@V?$allocator@D@2@@std@@@2@V?$allocator@U?$pair@$$CBV?$basic_string@DU?$char_traits@D@std@@V?$allocator@D@2@@std@@PAUtagBillItem@CBillClient@@@std@@@2@$0A@@std@@@std@@QAE@XZ
_TEXT	SEGMENT
??1_Node@?$_Tree_nod@V?$_Tmap_traits@V?$basic_string@DU?$char_traits@D@std@@V?$allocator@D@2@@std@@PAUtagBillItem@CBillClient@@U?$less@V?$basic_string@DU?$char_traits@D@std@@V?$allocator@D@2@@std@@@2@V?$allocator@U?$pair@$$CBV?$basic_string@DU?$char_traits@D@std@@V?$allocator@D@2@@std@@PAUtagBillItem@CBillClient@@@std@@@2@$0A@@std@@@std@@QAE@XZ PROC ; std::_Tree_nod<std::_Tmap_traits<std::basic_string<char,std::char_traits<char>,std::allocator<char> >,CBillClient::tagBillItem *,std::less<std::basic_string<char,std::char_traits<char>,std::allocator<char> > >,std::allocator<std::pair<std::basic_string<char,std::char_traits<char>,std::allocator<char> > const ,CBillClient::tagBillItem *> >,0> >::_Node::~_Node, COMDAT
; _this$ = ecx
  00000	56		 push	 esi
  00001	8b f1		 mov	 esi, ecx
  00003	83 7e 24 10	 cmp	 DWORD PTR [esi+36], 16	; 00000010H
  00007	72 0c		 jb	 SHORT $LN22@Node
  00009	8b 46 10	 mov	 eax, DWORD PTR [esi+16]
  0000c	50		 push	 eax
  0000d	e8 00 00 00 00	 call	 ??3@YAXPAX@Z		; operator delete
  00012	83 c4 04	 add	 esp, 4
$LN22@Node:
  00015	33 c0		 xor	 eax, eax
  00017	c7 46 24 0f 00
	00 00		 mov	 DWORD PTR [esi+36], 15	; 0000000fH
  0001e	89 46 20	 mov	 DWORD PTR [esi+32], eax
  00021	88 46 10	 mov	 BYTE PTR [esi+16], al
  00024	5e		 pop	 esi
  00025	c3		 ret	 0
??1_Node@?$_Tree_nod@V?$_Tmap_traits@V?$basic_string@DU?$char_traits@D@std@@V?$allocator@D@2@@std@@PAUtagBillItem@CBillClient@@U?$less@V?$basic_string@DU?$char_traits@D@std@@V?$allocator@D@2@@std@@@2@V?$allocator@U?$pair@$$CBV?$basic_string@DU?$char_traits@D@std@@V?$allocator@D@2@@std@@PAUtagBillItem@CBillClient@@@std@@@2@$0A@@std@@@std@@QAE@XZ ENDP ; std::_Tree_nod<std::_Tmap_traits<std::basic_string<char,std::char_traits<char>,std::allocator<char> >,CBillClient::tagBillItem *,std::less<std::basic_string<char,std::char_traits<char>,std::allocator<char> > >,std::allocator<std::pair<std::basic_string<char,std::char_traits<char>,std::allocator<char> > const ,CBillClient::tagBillItem *> >,0> >::_Node::~_Node
_TEXT	ENDS
PUBLIC	??_7logic_error@std@@6B@			; std::logic_error::`vftable'
PUBLIC	??1logic_error@std@@UAE@XZ			; std::logic_error::~logic_error
PUBLIC	??_R4logic_error@std@@6B@			; std::logic_error::`RTTI Complete Object Locator'
PUBLIC	??_R0?AVlogic_error@std@@@8			; std::logic_error `RTTI Type Descriptor'
PUBLIC	??_R3logic_error@std@@8				; std::logic_error::`RTTI Class Hierarchy Descriptor'
PUBLIC	??_R2logic_error@std@@8				; std::logic_error::`RTTI Base Class Array'
PUBLIC	??_R1A@?0A@EA@logic_error@std@@8		; std::logic_error::`RTTI Base Class Descriptor at (0,-1,0,64)'
PUBLIC	?what@logic_error@std@@UBEPBDXZ			; std::logic_error::what
EXTRN	??_Elogic_error@std@@UAEPAXI@Z:PROC		; std::logic_error::`vector deleting destructor'
;	COMDAT ??_R1A@?0A@EA@logic_error@std@@8
; File d:\program files\microsoft visual studio 8\vc\include\iosfwd
rdata$r	SEGMENT
??_R1A@?0A@EA@logic_error@std@@8 DD FLAT:??_R0?AVlogic_error@std@@@8 ; std::logic_error::`RTTI Base Class Descriptor at (0,-1,0,64)'
	DD	01H
	DD	00H
	DD	0ffffffffH
	DD	00H
	DD	040H
	DD	FLAT:??_R3logic_error@std@@8
rdata$r	ENDS
;	COMDAT ??_R2logic_error@std@@8
rdata$r	SEGMENT
??_R2logic_error@std@@8 DD FLAT:??_R1A@?0A@EA@logic_error@std@@8 ; std::logic_error::`RTTI Base Class Array'
	DD	FLAT:??_R1A@?0A@EA@exception@std@@8
rdata$r	ENDS
;	COMDAT ??_R3logic_error@std@@8
rdata$r	SEGMENT
??_R3logic_error@std@@8 DD 00H				; std::logic_error::`RTTI Class Hierarchy Descriptor'
	DD	00H
	DD	02H
	DD	FLAT:??_R2logic_error@std@@8
rdata$r	ENDS
;	COMDAT ??_R0?AVlogic_error@std@@@8
_DATA	SEGMENT
??_R0?AVlogic_error@std@@@8 DD FLAT:??_7type_info@@6B@	; std::logic_error `RTTI Type Descriptor'
	DD	00H
	DB	'.?AVlogic_error@std@@', 00H
_DATA	ENDS
;	COMDAT ??_R4logic_error@std@@6B@
rdata$r	SEGMENT
??_R4logic_error@std@@6B@ DD 00H			; std::logic_error::`RTTI Complete Object Locator'
	DD	00H
	DD	00H
	DD	FLAT:??_R0?AVlogic_error@std@@@8
	DD	FLAT:??_R3logic_error@std@@8
rdata$r	ENDS
;	COMDAT ??_7logic_error@std@@6B@
CONST	SEGMENT
??_7logic_error@std@@6B@ DD FLAT:??_R4logic_error@std@@6B@ ; std::logic_error::`vftable'
	DD	FLAT:??_Elogic_error@std@@UAEPAXI@Z
	DD	FLAT:?what@logic_error@std@@UBEPBDXZ
; Function compile flags: /Ogtpy
; File d:\program files\microsoft visual studio 8\vc\include\stdexcept
CONST	ENDS
;	COMDAT ??1logic_error@std@@UAE@XZ
_TEXT	SEGMENT
??1logic_error@std@@UAE@XZ PROC				; std::logic_error::~logic_error, COMDAT
; _this$ = ecx

; 31   : 		{	// destroy the object

  00000	56		 push	 esi
  00001	8b f1		 mov	 esi, ecx
  00003	c7 06 00 00 00
	00		 mov	 DWORD PTR [esi], OFFSET ??_7logic_error@std@@6B@

; 32   : 		}

  00009	83 7e 24 10	 cmp	 DWORD PTR [esi+36], 16	; 00000010H
  0000d	72 0c		 jb	 SHORT $LN19@logic_erro
  0000f	8b 46 10	 mov	 eax, DWORD PTR [esi+16]
  00012	50		 push	 eax
  00013	e8 00 00 00 00	 call	 ??3@YAXPAX@Z		; operator delete
  00018	83 c4 04	 add	 esp, 4
$LN19@logic_erro:
  0001b	33 c0		 xor	 eax, eax
  0001d	c7 46 24 0f 00
	00 00		 mov	 DWORD PTR [esi+36], 15	; 0000000fH
  00024	89 46 20	 mov	 DWORD PTR [esi+32], eax
  00027	88 46 10	 mov	 BYTE PTR [esi+16], al
  0002a	8b ce		 mov	 ecx, esi
  0002c	5e		 pop	 esi
  0002d	e9 00 00 00 00	 jmp	 ??1exception@std@@UAE@XZ ; std::exception::~exception
??1logic_error@std@@UAE@XZ ENDP				; std::logic_error::~logic_error
_TEXT	ENDS
PUBLIC	?c_str@?$basic_string@DU?$char_traits@D@std@@V?$allocator@D@2@@std@@QBEPBDXZ ; std::basic_string<char,std::char_traits<char>,std::allocator<char> >::c_str
; Function compile flags: /Ogtpy
; File d:\program files\microsoft visual studio 8\vc\include\xstring
;	COMDAT ?c_str@?$basic_string@DU?$char_traits@D@std@@V?$allocator@D@2@@std@@QBEPBDXZ
_TEXT	SEGMENT
?c_str@?$basic_string@DU?$char_traits@D@std@@V?$allocator@D@2@@std@@QBEPBDXZ PROC ; std::basic_string<char,std::char_traits<char>,std::allocator<char> >::c_str, COMDAT
; _this$ = ecx

; 1622 : 		return (_Myptr());

  00000	83 79 18 10	 cmp	 DWORD PTR [ecx+24], 16	; 00000010H
  00004	72 04		 jb	 SHORT $LN5@c_str
  00006	8b 41 04	 mov	 eax, DWORD PTR [ecx+4]

; 1623 : 		}

  00009	c3		 ret	 0

; 1622 : 		return (_Myptr());

$LN5@c_str:
  0000a	8d 41 04	 lea	 eax, DWORD PTR [ecx+4]

; 1623 : 		}

  0000d	c3		 ret	 0
?c_str@?$basic_string@DU?$char_traits@D@std@@V?$allocator@D@2@@std@@QBEPBDXZ ENDP ; std::basic_string<char,std::char_traits<char>,std::allocator<char> >::c_str
; Function compile flags: /Ogtpy
; File d:\program files\microsoft visual studio 8\vc\include\stdexcept
_TEXT	ENDS
;	COMDAT ?what@logic_error@std@@UBEPBDXZ
_TEXT	SEGMENT
?what@logic_error@std@@UBEPBDXZ PROC			; std::logic_error::what, COMDAT
; _this$ = ecx

; 36   : 		return (_Str.c_str());

  00000	83 79 24 10	 cmp	 DWORD PTR [ecx+36], 16	; 00000010H
  00004	72 04		 jb	 SHORT $LN7@what
  00006	8b 41 10	 mov	 eax, DWORD PTR [ecx+16]

; 37   : 		}

  00009	c3		 ret	 0

; 36   : 		return (_Str.c_str());

$LN7@what:
  0000a	8d 41 10	 lea	 eax, DWORD PTR [ecx+16]

; 37   : 		}

  0000d	c3		 ret	 0
?what@logic_error@std@@UBEPBDXZ ENDP			; std::logic_error::what
; Function compile flags: /Ogtpy
_TEXT	ENDS
;	COMDAT ??_Glogic_error@std@@UAEPAXI@Z
_TEXT	SEGMENT
___flags$ = 8						; size = 4
??_Glogic_error@std@@UAEPAXI@Z PROC			; std::logic_error::`scalar deleting destructor', COMDAT
; _this$ = ecx
  00000	56		 push	 esi
  00001	8b f1		 mov	 esi, ecx
  00003	c7 06 00 00 00
	00		 mov	 DWORD PTR [esi], OFFSET ??_7logic_error@std@@6B@
  00009	83 7e 24 10	 cmp	 DWORD PTR [esi+36], 16	; 00000010H
  0000d	72 0c		 jb	 SHORT $LN22@scalar@3
  0000f	8b 46 10	 mov	 eax, DWORD PTR [esi+16]
  00012	50		 push	 eax
  00013	e8 00 00 00 00	 call	 ??3@YAXPAX@Z		; operator delete
  00018	83 c4 04	 add	 esp, 4
$LN22@scalar@3:
  0001b	33 c0		 xor	 eax, eax
  0001d	c7 46 24 0f 00
	00 00		 mov	 DWORD PTR [esi+36], 15	; 0000000fH
  00024	89 46 20	 mov	 DWORD PTR [esi+32], eax
  00027	8b ce		 mov	 ecx, esi
  00029	88 46 10	 mov	 BYTE PTR [esi+16], al
  0002c	e8 00 00 00 00	 call	 ??1exception@std@@UAE@XZ ; std::exception::~exception
  00031	f6 44 24 08 01	 test	 BYTE PTR ___flags$[esp], 1
  00036	74 09		 je	 SHORT $LN32@scalar@3
  00038	56		 push	 esi
  00039	e8 00 00 00 00	 call	 ??3@YAXPAX@Z		; operator delete
  0003e	83 c4 04	 add	 esp, 4
$LN32@scalar@3:
  00041	8b c6		 mov	 eax, esi
  00043	5e		 pop	 esi
  00044	c2 04 00	 ret	 4
??_Glogic_error@std@@UAEPAXI@Z ENDP			; std::logic_error::`scalar deleting destructor'
_TEXT	ENDS
PUBLIC	??0?$_Tree@V?$_Tmap_traits@V?$basic_string@DU?$char_traits@D@std@@V?$allocator@D@2@@std@@PAUtagBillItem@CBillClient@@U?$less@V?$basic_string@DU?$char_traits@D@std@@V?$allocator@D@2@@std@@@2@V?$allocator@U?$pair@$$CBV?$basic_string@DU?$char_traits@D@std@@V?$allocator@D@2@@std@@PAUtagBillItem@CBillClient@@@std@@@2@$0A@@std@@@std@@QAE@ABU?$less@V?$basic_string@DU?$char_traits@D@std@@V?$allocator@D@2@@std@@@1@ABV?$allocator@U?$pair@$$CBV?$basic_string@DU?$char_traits@D@std@@V?$allocator@D@2@@std@@PAUtagBillItem@CBillClient@@@std@@@1@@Z ; std::_Tree<std::_Tmap_traits<std::basic_string<char,std::char_traits<char>,std::allocator<char> >,CBillClient::tagBillItem *,std::less<std::basic_string<char,std::char_traits<char>,std::allocator<char> > >,std::allocator<std::pair<std::basic_string<char,std::char_traits<char>,std::allocator<char> > const ,CBillClient::tagBillItem *> >,0> >::_Tree<std::_Tmap_traits<std::basic_string<char,std::char_traits<char>,std::allocator<char> >,CBillClient::tagBillItem *,std::less<std::basic_string<char,std::char_traits<char>,std::allocator<char> > >,std::allocator<std::pair<std::basic_string<char,std::char_traits<char>,std::allocator<char> > const ,CBillClient::tagBillItem *> >,0> >
; Function compile flags: /Ogtpy
; File d:\program files\microsoft visual studio 8\vc\include\xtree
;	COMDAT ??0?$_Tree@V?$_Tmap_traits@V?$basic_string@DU?$char_traits@D@std@@V?$allocator@D@2@@std@@PAUtagBillItem@CBillClient@@U?$less@V?$basic_string@DU?$char_traits@D@std@@V?$allocator@D@2@@std@@@2@V?$allocator@U?$pair@$$CBV?$basic_string@DU?$char_traits@D@std@@V?$allocator@D@2@@std@@PAUtagBillItem@CBillClient@@@std@@@2@$0A@@std@@@std@@QAE@ABU?$less@V?$basic_string@DU?$char_traits@D@std@@V?$allocator@D@2@@std@@@1@ABV?$allocator@U?$pair@$$CBV?$basic_string@DU?$char_traits@D@std@@V?$allocator@D@2@@std@@PAUtagBillItem@CBillClient@@@std@@@1@@Z
_TEXT	SEGMENT
__Parg$ = 8						; size = 4
__Al$ = 12						; size = 4
??0?$_Tree@V?$_Tmap_traits@V?$basic_string@DU?$char_traits@D@std@@V?$allocator@D@2@@std@@PAUtagBillItem@CBillClient@@U?$less@V?$basic_string@DU?$char_traits@D@std@@V?$allocator@D@2@@std@@@2@V?$allocator@U?$pair@$$CBV?$basic_string@DU?$char_traits@D@std@@V?$allocator@D@2@@std@@PAUtagBillItem@CBillClient@@@std@@@2@$0A@@std@@@std@@QAE@ABU?$less@V?$basic_string@DU?$char_traits@D@std@@V?$allocator@D@2@@std@@@1@ABV?$allocator@U?$pair@$$CBV?$basic_string@DU?$char_traits@D@std@@V?$allocator@D@2@@std@@PAUtagBillItem@CBillClient@@@std@@@1@@Z PROC ; std::_Tree<std::_Tmap_traits<std::basic_string<char,std::char_traits<char>,std::allocator<char> >,CBillClient::tagBillItem *,std::less<std::basic_string<char,std::char_traits<char>,std::allocator<char> > >,std::allocator<std::pair<std::basic_string<char,std::char_traits<char>,std::allocator<char> > const ,CBillClient::tagBillItem *> >,0> >::_Tree<std::_Tmap_traits<std::basic_string<char,std::char_traits<char>,std::allocator<char> >,CBillClient::tagBillItem *,std::less<std::basic_string<char,std::char_traits<char>,std::allocator<char> > >,std::allocator<std::pair<std::basic_string<char,std::char_traits<char>,std::allocator<char> > const ,CBillClient::tagBillItem *> >,0> >, COMDAT
; _this$ = ecx

; 495  : 		{	// construct empty tree

  00000	56		 push	 esi
  00001	8b f1		 mov	 esi, ecx

; 496  : 		_Init();

  00003	e8 00 00 00 00	 call	 ?_Buynode@?$_Tree@V?$_Tmap_traits@V?$basic_string@DU?$char_traits@D@std@@V?$allocator@D@2@@std@@PAUtagBillItem@CBillClient@@U?$less@V?$basic_string@DU?$char_traits@D@std@@V?$allocator@D@2@@std@@@2@V?$allocator@U?$pair@$$CBV?$basic_string@DU?$char_traits@D@std@@V?$allocator@D@2@@std@@PAUtagBillItem@CBillClient@@@std@@@2@$0A@@std@@@std@@IAEPAU_Node@?$_Tree_nod@V?$_Tmap_traits@V?$basic_string@DU?$char_traits@D@std@@V?$allocator@D@2@@std@@PAUtagBillItem@CBillClient@@U?$less@V?$basic_string@DU?$char_traits@D@std@@V?$allocator@D@2@@std@@@2@V?$allocator@U?$pair@$$CBV?$basic_string@DU?$char_traits@D@std@@V?$allocator@D@2@@std@@PAUtagBillItem@CBillClient@@@std@@@2@$0A@@std@@@2@XZ ; std::_Tree<std::_Tmap_traits<std::basic_string<char,std::char_traits<char>,std::allocator<char> >,CBillClient::tagBillItem *,std::less<std::basic_string<char,std::char_traits<char>,std::allocator<char> > >,std::allocator<std::pair<std::basic_string<char,std::char_traits<char>,std::allocator<char> > const ,CBillClient::tagBillItem *> >,0> >::_Buynode
  00008	89 46 04	 mov	 DWORD PTR [esi+4], eax
  0000b	c6 40 2d 01	 mov	 BYTE PTR [eax+45], 1
  0000f	8b 46 04	 mov	 eax, DWORD PTR [esi+4]
  00012	89 40 04	 mov	 DWORD PTR [eax+4], eax
  00015	8b 46 04	 mov	 eax, DWORD PTR [esi+4]
  00018	89 00		 mov	 DWORD PTR [eax], eax
  0001a	8b 46 04	 mov	 eax, DWORD PTR [esi+4]
  0001d	89 40 08	 mov	 DWORD PTR [eax+8], eax
  00020	c7 46 08 00 00
	00 00		 mov	 DWORD PTR [esi+8], 0

; 497  : 		}

  00027	8b c6		 mov	 eax, esi
  00029	5e		 pop	 esi
  0002a	c2 08 00	 ret	 8
??0?$_Tree@V?$_Tmap_traits@V?$basic_string@DU?$char_traits@D@std@@V?$allocator@D@2@@std@@PAUtagBillItem@CBillClient@@U?$less@V?$basic_string@DU?$char_traits@D@std@@V?$allocator@D@2@@std@@@2@V?$allocator@U?$pair@$$CBV?$basic_string@DU?$char_traits@D@std@@V?$allocator@D@2@@std@@PAUtagBillItem@CBillClient@@@std@@@2@$0A@@std@@@std@@QAE@ABU?$less@V?$basic_string@DU?$char_traits@D@std@@V?$allocator@D@2@@std@@@1@ABV?$allocator@U?$pair@$$CBV?$basic_string@DU?$char_traits@D@std@@V?$allocator@D@2@@std@@PAUtagBillItem@CBillClient@@@std@@@1@@Z ENDP ; std::_Tree<std::_Tmap_traits<std::basic_string<char,std::char_traits<char>,std::allocator<char> >,CBillClient::tagBillItem *,std::less<std::basic_string<char,std::char_traits<char>,std::allocator<char> > >,std::allocator<std::pair<std::basic_string<char,std::char_traits<char>,std::allocator<char> > const ,CBillClient::tagBillItem *> >,0> >::_Tree<std::_Tmap_traits<std::basic_string<char,std::char_traits<char>,std::allocator<char> >,CBillClient::tagBillItem *,std::less<std::basic_string<char,std::char_traits<char>,std::allocator<char> > >,std::allocator<std::pair<std::basic_string<char,std::char_traits<char>,std::allocator<char> > const ,CBillClient::tagBillItem *> >,0> >
_TEXT	ENDS
PUBLIC	?lower_bound@?$_Tree@V?$_Tmap_traits@V?$basic_string@DU?$char_traits@D@std@@V?$allocator@D@2@@std@@PAUtagBillItem@CBillClient@@U?$less@V?$basic_string@DU?$char_traits@D@std@@V?$allocator@D@2@@std@@@2@V?$allocator@U?$pair@$$CBV?$basic_string@DU?$char_traits@D@std@@V?$allocator@D@2@@std@@PAUtagBillItem@CBillClient@@@std@@@2@$0A@@std@@@std@@QAE?AViterator@12@ABV?$basic_string@DU?$char_traits@D@std@@V?$allocator@D@2@@2@@Z ; std::_Tree<std::_Tmap_traits<std::basic_string<char,std::char_traits<char>,std::allocator<char> >,CBillClient::tagBillItem *,std::less<std::basic_string<char,std::char_traits<char>,std::allocator<char> > >,std::allocator<std::pair<std::basic_string<char,std::char_traits<char>,std::allocator<char> > const ,CBillClient::tagBillItem *> >,0> >::lower_bound
; Function compile flags: /Ogtpy
;	COMDAT ?lower_bound@?$_Tree@V?$_Tmap_traits@V?$basic_string@DU?$char_traits@D@std@@V?$allocator@D@2@@std@@PAUtagBillItem@CBillClient@@U?$less@V?$basic_string@DU?$char_traits@D@std@@V?$allocator@D@2@@std@@@2@V?$allocator@U?$pair@$$CBV?$basic_string@DU?$char_traits@D@std@@V?$allocator@D@2@@std@@PAUtagBillItem@CBillClient@@@std@@@2@$0A@@std@@@std@@QAE?AViterator@12@ABV?$basic_string@DU?$char_traits@D@std@@V?$allocator@D@2@@2@@Z
_TEXT	SEGMENT
___$ReturnUdt$ = 8					; size = 4
__Keyval$ = 12						; size = 4
?lower_bound@?$_Tree@V?$_Tmap_traits@V?$basic_string@DU?$char_traits@D@std@@V?$allocator@D@2@@std@@PAUtagBillItem@CBillClient@@U?$less@V?$basic_string@DU?$char_traits@D@std@@V?$allocator@D@2@@std@@@2@V?$allocator@U?$pair@$$CBV?$basic_string@DU?$char_traits@D@std@@V?$allocator@D@2@@std@@PAUtagBillItem@CBillClient@@@std@@@2@$0A@@std@@@std@@QAE?AViterator@12@ABV?$basic_string@DU?$char_traits@D@std@@V?$allocator@D@2@@2@@Z PROC ; std::_Tree<std::_Tmap_traits<std::basic_string<char,std::char_traits<char>,std::allocator<char> >,CBillClient::tagBillItem *,std::less<std::basic_string<char,std::char_traits<char>,std::allocator<char> > >,std::allocator<std::pair<std::basic_string<char,std::char_traits<char>,std::allocator<char> > const ,CBillClient::tagBillItem *> >,0> >::lower_bound, COMDAT
; _this$ = ecx

; 987  : 		return (_TREE_ITERATOR(_Lbound(_Keyval)));

  00000	8b 44 24 08	 mov	 eax, DWORD PTR __Keyval$[esp-4]
  00004	56		 push	 esi
  00005	57		 push	 edi
  00006	50		 push	 eax
  00007	8b f1		 mov	 esi, ecx
  00009	e8 00 00 00 00	 call	 ?_Lbound@?$_Tree@V?$_Tmap_traits@V?$basic_string@DU?$char_traits@D@std@@V?$allocator@D@2@@std@@PAUtagBillItem@CBillClient@@U?$less@V?$basic_string@DU?$char_traits@D@std@@V?$allocator@D@2@@std@@@2@V?$allocator@U?$pair@$$CBV?$basic_string@DU?$char_traits@D@std@@V?$allocator@D@2@@std@@PAUtagBillItem@CBillClient@@@std@@@2@$0A@@std@@@std@@IBEPAU_Node@?$_Tree_nod@V?$_Tmap_traits@V?$basic_string@DU?$char_traits@D@std@@V?$allocator@D@2@@std@@PAUtagBillItem@CBillClient@@U?$less@V?$basic_string@DU?$char_traits@D@std@@V?$allocator@D@2@@std@@@2@V?$allocator@U?$pair@$$CBV?$basic_string@DU?$char_traits@D@std@@V?$allocator@D@2@@std@@PAUtagBillItem@CBillClient@@@std@@@2@$0A@@std@@@2@ABV?$basic_string@DU?$char_traits@D@std@@V?$allocator@D@2@@2@@Z ; std::_Tree<std::_Tmap_traits<std::basic_string<char,std::char_traits<char>,std::allocator<char> >,CBillClient::tagBillItem *,std::less<std::basic_string<char,std::char_traits<char>,std::allocator<char> > >,std::allocator<std::pair<std::basic_string<char,std::char_traits<char>,std::allocator<char> > const ,CBillClient::tagBillItem *> >,0> >::_Lbound
  0000e	85 f6		 test	 esi, esi
  00010	8b 7c 24 0c	 mov	 edi, DWORD PTR ___$ReturnUdt$[esp+4]
  00014	c7 07 00 00 00
	00		 mov	 DWORD PTR [edi], 0
  0001a	89 47 04	 mov	 DWORD PTR [edi+4], eax
  0001d	75 05		 jne	 SHORT $LN12@lower_boun
  0001f	e8 00 00 00 00	 call	 __invalid_parameter_noinfo
$LN12@lower_boun:
  00024	89 37		 mov	 DWORD PTR [edi], esi
  00026	8b c7		 mov	 eax, edi
  00028	5f		 pop	 edi
  00029	5e		 pop	 esi

; 988  : 		}

  0002a	c2 08 00	 ret	 8
?lower_bound@?$_Tree@V?$_Tmap_traits@V?$basic_string@DU?$char_traits@D@std@@V?$allocator@D@2@@std@@PAUtagBillItem@CBillClient@@U?$less@V?$basic_string@DU?$char_traits@D@std@@V?$allocator@D@2@@std@@@2@V?$allocator@U?$pair@$$CBV?$basic_string@DU?$char_traits@D@std@@V?$allocator@D@2@@std@@PAUtagBillItem@CBillClient@@@std@@@2@$0A@@std@@@std@@QAE?AViterator@12@ABV?$basic_string@DU?$char_traits@D@std@@V?$allocator@D@2@@2@@Z ENDP ; std::_Tree<std::_Tmap_traits<std::basic_string<char,std::char_traits<char>,std::allocator<char> >,CBillClient::tagBillItem *,std::less<std::basic_string<char,std::char_traits<char>,std::allocator<char> > >,std::allocator<std::pair<std::basic_string<char,std::char_traits<char>,std::allocator<char> > const ,CBillClient::tagBillItem *> >,0> >::lower_bound
_TEXT	ENDS
PUBLIC	?assign@?$basic_string@DU?$char_traits@D@std@@V?$allocator@D@2@@std@@QAEAAV12@ABV12@II@Z ; std::basic_string<char,std::char_traits<char>,std::allocator<char> >::assign
; Function compile flags: /Ogtpy
; File d:\program files\microsoft visual studio 8\vc\include\xstring
;	COMDAT ?assign@?$basic_string@DU?$char_traits@D@std@@V?$allocator@D@2@@std@@QAEAAV12@ABV12@II@Z
_TEXT	SEGMENT
__Right$ = 8						; size = 4
__Roff$ = 12						; size = 4
__Count$ = 16						; size = 4
?assign@?$basic_string@DU?$char_traits@D@std@@V?$allocator@D@2@@std@@QAEAAV12@ABV12@II@Z PROC ; std::basic_string<char,std::char_traits<char>,std::allocator<char> >::assign, COMDAT
; _this$ = ecx

; 1038 : 		{	// assign _Right [_Roff, _Roff + _Count)

  00000	53		 push	 ebx

; 1039 : 		if (_Right.size() < _Roff)

  00001	8b 5c 24 08	 mov	 ebx, DWORD PTR __Right$[esp]
  00005	55		 push	 ebp
  00006	8b 6c 24 10	 mov	 ebp, DWORD PTR __Roff$[esp+4]
  0000a	39 6b 14	 cmp	 DWORD PTR [ebx+20], ebp
  0000d	56		 push	 esi
  0000e	57		 push	 edi
  0000f	8b f1		 mov	 esi, ecx
  00011	73 05		 jae	 SHORT $LN5@assign

; 1040 : 			_String_base::_Xran();	// _Roff off end

  00013	e8 00 00 00 00	 call	 ?_Xran@_String_base@std@@SAXXZ ; std::_String_base::_Xran
$LN5@assign:

; 1041 : 		size_type _Num = _Right.size() - _Roff;

  00018	8b 7b 14	 mov	 edi, DWORD PTR [ebx+20]

; 1042 : 		if (_Count < _Num)

  0001b	8b 44 24 1c	 mov	 eax, DWORD PTR __Count$[esp+12]
  0001f	2b fd		 sub	 edi, ebp
  00021	3b c7		 cmp	 eax, edi

; 1043 : 			_Num = _Count;	// trim _Num to size

  00023	0f 42 f8	 cmovb	 edi, eax

; 1044 : 
; 1045 : 		if (this == &_Right)

  00026	3b f3		 cmp	 esi, ebx
  00028	75 1f		 jne	 SHORT $LN3@assign

; 1046 : 			erase((size_type)(_Roff + _Num)), erase(0, _Roff);	// substring

  0002a	6a ff		 push	 -1
  0002c	03 fd		 add	 edi, ebp
  0002e	57		 push	 edi
  0002f	8b ce		 mov	 ecx, esi
  00031	e8 00 00 00 00	 call	 ?erase@?$basic_string@DU?$char_traits@D@std@@V?$allocator@D@2@@std@@QAEAAV12@II@Z ; std::basic_string<char,std::char_traits<char>,std::allocator<char> >::erase
  00036	55		 push	 ebp
  00037	6a 00		 push	 0
  00039	8b ce		 mov	 ecx, esi
  0003b	e8 00 00 00 00	 call	 ?erase@?$basic_string@DU?$char_traits@D@std@@V?$allocator@D@2@@std@@QAEAAV12@II@Z ; std::basic_string<char,std::char_traits<char>,std::allocator<char> >::erase
  00040	5f		 pop	 edi

; 1051 : 			}
; 1052 : 		return (*this);

  00041	8b c6		 mov	 eax, esi
  00043	5e		 pop	 esi
  00044	5d		 pop	 ebp
  00045	5b		 pop	 ebx

; 1053 : 		}

  00046	c2 0c 00	 ret	 12			; 0000000cH
$LN3@assign:

; 1047 : 		else if (_Grow(_Num))

  00049	83 ff fe	 cmp	 edi, -2			; fffffffeH
  0004c	76 05		 jbe	 SHORT $LN17@assign
  0004e	e8 00 00 00 00	 call	 ?_Xlen@_String_base@std@@SAXXZ ; std::_String_base::_Xlen
$LN17@assign:
  00053	8b 46 18	 mov	 eax, DWORD PTR [esi+24]
  00056	3b c7		 cmp	 eax, edi
  00058	73 1b		 jae	 SHORT $LN16@assign
  0005a	8b 46 14	 mov	 eax, DWORD PTR [esi+20]
  0005d	50		 push	 eax
  0005e	57		 push	 edi
  0005f	8b ce		 mov	 ecx, esi
  00061	e8 00 00 00 00	 call	 ?_Copy@?$basic_string@DU?$char_traits@D@std@@V?$allocator@D@2@@std@@IAEXII@Z ; std::basic_string<char,std::char_traits<char>,std::allocator<char> >::_Copy
  00066	85 ff		 test	 edi, edi
$LN87@assign:
  00068	76 66		 jbe	 SHORT $LN86@assign

; 1048 : 			{	// make room and assign new stuff
; 1049 : 			_Traits_helper::copy_s<_Traits>(_Myptr(), _Myres, _Right._Myptr() + _Roff, _Num);

  0006a	83 7b 18 10	 cmp	 DWORD PTR [ebx+24], 16	; 00000010H
  0006e	72 2f		 jb	 SHORT $LN64@assign
  00070	8b 53 04	 mov	 edx, DWORD PTR [ebx+4]
  00073	eb 2d		 jmp	 SHORT $LN65@assign

; 1047 : 		else if (_Grow(_Num))

$LN16@assign:
  00075	85 ff		 test	 edi, edi
  00077	75 ef		 jne	 SHORT $LN87@assign
  00079	83 f8 10	 cmp	 eax, 16			; 00000010H
  0007c	89 7e 14	 mov	 DWORD PTR [esi+20], edi
  0007f	72 0f		 jb	 SHORT $LN58@assign
  00081	8b 46 04	 mov	 eax, DWORD PTR [esi+4]
  00084	5f		 pop	 edi
  00085	c6 00 00	 mov	 BYTE PTR [eax], 0

; 1051 : 			}
; 1052 : 		return (*this);

  00088	8b c6		 mov	 eax, esi
  0008a	5e		 pop	 esi
  0008b	5d		 pop	 ebp
  0008c	5b		 pop	 ebx

; 1053 : 		}

  0008d	c2 0c 00	 ret	 12			; 0000000cH

; 1047 : 		else if (_Grow(_Num))

$LN58@assign:
  00090	8d 46 04	 lea	 eax, DWORD PTR [esi+4]
  00093	5f		 pop	 edi
  00094	c6 00 00	 mov	 BYTE PTR [eax], 0

; 1051 : 			}
; 1052 : 		return (*this);

  00097	8b c6		 mov	 eax, esi
  00099	5e		 pop	 esi
  0009a	5d		 pop	 ebp
  0009b	5b		 pop	 ebx

; 1053 : 		}

  0009c	c2 0c 00	 ret	 12			; 0000000cH

; 1048 : 			{	// make room and assign new stuff
; 1049 : 			_Traits_helper::copy_s<_Traits>(_Myptr(), _Myres, _Right._Myptr() + _Roff, _Num);

$LN64@assign:
  0009f	8d 53 04	 lea	 edx, DWORD PTR [ebx+4]
$LN65@assign:
  000a2	8b 4e 18	 mov	 ecx, DWORD PTR [esi+24]
  000a5	83 f9 10	 cmp	 ecx, 16			; 00000010H
  000a8	8d 5e 04	 lea	 ebx, DWORD PTR [esi+4]
  000ab	72 04		 jb	 SHORT $LN68@assign
  000ad	8b 03		 mov	 eax, DWORD PTR [ebx]
  000af	eb 02		 jmp	 SHORT $LN69@assign
$LN68@assign:
  000b1	8b c3		 mov	 eax, ebx
$LN69@assign:
  000b3	57		 push	 edi
  000b4	03 d5		 add	 edx, ebp
  000b6	52		 push	 edx
  000b7	51		 push	 ecx
  000b8	50		 push	 eax
  000b9	e8 00 00 00 00	 call	 _memcpy_s
  000be	83 c4 10	 add	 esp, 16			; 00000010H

; 1050 : 			_Eos(_Num);

  000c1	83 7e 18 10	 cmp	 DWORD PTR [esi+24], 16	; 00000010H
  000c5	89 7e 14	 mov	 DWORD PTR [esi+20], edi
  000c8	72 02		 jb	 SHORT $LN82@assign
  000ca	8b 1b		 mov	 ebx, DWORD PTR [ebx]
$LN82@assign:
  000cc	c6 04 3b 00	 mov	 BYTE PTR [ebx+edi], 0
$LN86@assign:
  000d0	5f		 pop	 edi

; 1051 : 			}
; 1052 : 		return (*this);

  000d1	8b c6		 mov	 eax, esi
  000d3	5e		 pop	 esi
  000d4	5d		 pop	 ebp
  000d5	5b		 pop	 ebx

; 1053 : 		}

  000d6	c2 0c 00	 ret	 12			; 0000000cH
?assign@?$basic_string@DU?$char_traits@D@std@@V?$allocator@D@2@@std@@QAEAAV12@ABV12@II@Z ENDP ; std::basic_string<char,std::char_traits<char>,std::allocator<char> >::assign
_TEXT	ENDS
PUBLIC	?assign@?$basic_string@DU?$char_traits@D@std@@V?$allocator@D@2@@std@@QAEAAV12@PBDI@Z ; std::basic_string<char,std::char_traits<char>,std::allocator<char> >::assign
; Function compile flags: /Ogtpy
;	COMDAT ?assign@?$basic_string@DU?$char_traits@D@std@@V?$allocator@D@2@@std@@QAEAAV12@PBDI@Z
_TEXT	SEGMENT
__Ptr$ = 8						; size = 4
__Num$ = 12						; size = 4
?assign@?$basic_string@DU?$char_traits@D@std@@V?$allocator@D@2@@std@@QAEAAV12@PBDI@Z PROC ; std::basic_string<char,std::char_traits<char>,std::allocator<char> >::assign, COMDAT
; _this$ = ecx

; 1056 : 		{	// assign [_Ptr, _Ptr + _Num)

  00000	53		 push	 ebx
  00001	55		 push	 ebp
  00002	56		 push	 esi
  00003	8b f1		 mov	 esi, ecx

; 1057 : 		if (_Inside(_Ptr))

  00005	8b 4e 18	 mov	 ecx, DWORD PTR [esi+24]
  00008	83 f9 10	 cmp	 ecx, 16			; 00000010H
  0000b	8d 5e 04	 lea	 ebx, DWORD PTR [esi+4]
  0000e	72 04		 jb	 SHORT $LN12@assign@2
  00010	8b 03		 mov	 eax, DWORD PTR [ebx]
  00012	eb 02		 jmp	 SHORT $LN13@assign@2
$LN12@assign@2:
  00014	8b c3		 mov	 eax, ebx
$LN13@assign@2:
  00016	8b 6c 24 10	 mov	 ebp, DWORD PTR __Ptr$[esp+8]
  0001a	3b e8		 cmp	 ebp, eax
  0001c	72 31		 jb	 SHORT $LN2@assign@2
  0001e	83 f9 10	 cmp	 ecx, 16			; 00000010H
  00021	72 04		 jb	 SHORT $LN16@assign@2
  00023	8b 03		 mov	 eax, DWORD PTR [ebx]
  00025	eb 02		 jmp	 SHORT $LN17@assign@2
$LN16@assign@2:
  00027	8b c3		 mov	 eax, ebx
$LN17@assign@2:
  00029	8b 56 14	 mov	 edx, DWORD PTR [esi+20]
  0002c	03 d0		 add	 edx, eax
  0002e	3b d5		 cmp	 edx, ebp
  00030	76 1d		 jbe	 SHORT $LN2@assign@2

; 1058 : 			return (assign(*this, _Ptr - _Myptr(), _Num));	// substring

  00032	83 f9 10	 cmp	 ecx, 16			; 00000010H
  00035	72 02		 jb	 SHORT $LN20@assign@2
  00037	8b 1b		 mov	 ebx, DWORD PTR [ebx]
$LN20@assign@2:
  00039	8b 44 24 14	 mov	 eax, DWORD PTR __Num$[esp+8]
  0003d	50		 push	 eax
  0003e	2b eb		 sub	 ebp, ebx
  00040	55		 push	 ebp
  00041	56		 push	 esi
  00042	8b ce		 mov	 ecx, esi
  00044	e8 00 00 00 00	 call	 ?assign@?$basic_string@DU?$char_traits@D@std@@V?$allocator@D@2@@std@@QAEAAV12@ABV12@II@Z ; std::basic_string<char,std::char_traits<char>,std::allocator<char> >::assign
  00049	5e		 pop	 esi
  0004a	5d		 pop	 ebp
  0004b	5b		 pop	 ebx

; 1066 : 		}

  0004c	c2 08 00	 ret	 8
$LN2@assign@2:
  0004f	57		 push	 edi

; 1059 : 
; 1060 : 		if (_Grow(_Num))

  00050	8b 7c 24 18	 mov	 edi, DWORD PTR __Num$[esp+12]
  00054	83 ff fe	 cmp	 edi, -2			; fffffffeH
  00057	76 05		 jbe	 SHORT $LN27@assign@2
  00059	e8 00 00 00 00	 call	 ?_Xlen@_String_base@std@@SAXXZ ; std::_String_base::_Xlen
$LN27@assign@2:
  0005e	8b 46 18	 mov	 eax, DWORD PTR [esi+24]
  00061	3b c7		 cmp	 eax, edi
  00063	73 1c		 jae	 SHORT $LN26@assign@2
  00065	8b 4e 14	 mov	 ecx, DWORD PTR [esi+20]
  00068	51		 push	 ecx
  00069	57		 push	 edi
  0006a	8b ce		 mov	 ecx, esi
  0006c	e8 00 00 00 00	 call	 ?_Copy@?$basic_string@DU?$char_traits@D@std@@V?$allocator@D@2@@std@@IAEXII@Z ; std::basic_string<char,std::char_traits<char>,std::allocator<char> >::_Copy
  00071	85 ff		 test	 edi, edi
$LN93@assign@2:
  00073	76 43		 jbe	 SHORT $LN90@assign@2

; 1061 : 			{	// make room and assign new stuff
; 1062 : 			_Traits_helper::copy_s<_Traits>(_Myptr(), _Myres, _Ptr, _Num);

  00075	8b 4e 18	 mov	 ecx, DWORD PTR [esi+24]
  00078	83 f9 10	 cmp	 ecx, 16			; 00000010H
  0007b	72 1e		 jb	 SHORT $LN74@assign@2
  0007d	8b 03		 mov	 eax, DWORD PTR [ebx]
  0007f	eb 1c		 jmp	 SHORT $LN75@assign@2

; 1059 : 
; 1060 : 		if (_Grow(_Num))

$LN26@assign@2:
  00081	85 ff		 test	 edi, edi
  00083	75 ee		 jne	 SHORT $LN93@assign@2
  00085	83 f8 10	 cmp	 eax, 16			; 00000010H
  00088	89 7e 14	 mov	 DWORD PTR [esi+20], edi
  0008b	72 02		 jb	 SHORT $LN68@assign@2
  0008d	8b 1b		 mov	 ebx, DWORD PTR [ebx]
$LN68@assign@2:
  0008f	5f		 pop	 edi

; 1064 : 			}
; 1065 : 		return (*this);

  00090	8b c6		 mov	 eax, esi
  00092	5e		 pop	 esi
  00093	5d		 pop	 ebp
  00094	c6 03 00	 mov	 BYTE PTR [ebx], 0
  00097	5b		 pop	 ebx

; 1066 : 		}

  00098	c2 08 00	 ret	 8

; 1061 : 			{	// make room and assign new stuff
; 1062 : 			_Traits_helper::copy_s<_Traits>(_Myptr(), _Myres, _Ptr, _Num);

$LN74@assign@2:
  0009b	8b c3		 mov	 eax, ebx
$LN75@assign@2:
  0009d	57		 push	 edi
  0009e	55		 push	 ebp
  0009f	51		 push	 ecx
  000a0	50		 push	 eax
  000a1	e8 00 00 00 00	 call	 _memcpy_s
  000a6	83 c4 10	 add	 esp, 16			; 00000010H

; 1063 : 			_Eos(_Num);

  000a9	83 7e 18 10	 cmp	 DWORD PTR [esi+24], 16	; 00000010H
  000ad	89 7e 14	 mov	 DWORD PTR [esi+20], edi
  000b0	72 02		 jb	 SHORT $LN88@assign@2
  000b2	8b 1b		 mov	 ebx, DWORD PTR [ebx]
$LN88@assign@2:
  000b4	c6 04 3b 00	 mov	 BYTE PTR [ebx+edi], 0
$LN90@assign@2:
  000b8	5f		 pop	 edi

; 1064 : 			}
; 1065 : 		return (*this);

  000b9	8b c6		 mov	 eax, esi
  000bb	5e		 pop	 esi
  000bc	5d		 pop	 ebp
  000bd	5b		 pop	 ebx

; 1066 : 		}

  000be	c2 08 00	 ret	 8
?assign@?$basic_string@DU?$char_traits@D@std@@V?$allocator@D@2@@std@@QAEAAV12@PBDI@Z ENDP ; std::basic_string<char,std::char_traits<char>,std::allocator<char> >::assign
_TEXT	ENDS
PUBLIC	??_G_Node@?$_Tree_nod@V?$_Tmap_traits@V?$basic_string@DU?$char_traits@D@std@@V?$allocator@D@2@@std@@PAUtagBillItem@CBillClient@@U?$less@V?$basic_string@DU?$char_traits@D@std@@V?$allocator@D@2@@std@@@2@V?$allocator@U?$pair@$$CBV?$basic_string@DU?$char_traits@D@std@@V?$allocator@D@2@@std@@PAUtagBillItem@CBillClient@@@std@@@2@$0A@@std@@@std@@QAEPAXI@Z ; std::_Tree_nod<std::_Tmap_traits<std::basic_string<char,std::char_traits<char>,std::allocator<char> >,CBillClient::tagBillItem *,std::less<std::basic_string<char,std::char_traits<char>,std::allocator<char> > >,std::allocator<std::pair<std::basic_string<char,std::char_traits<char>,std::allocator<char> > const ,CBillClient::tagBillItem *> >,0> >::_Node::`scalar deleting destructor'
; Function compile flags: /Ogtpy
;	COMDAT ??_G_Node@?$_Tree_nod@V?$_Tmap_traits@V?$basic_string@DU?$char_traits@D@std@@V?$allocator@D@2@@std@@PAUtagBillItem@CBillClient@@U?$less@V?$basic_string@DU?$char_traits@D@std@@V?$allocator@D@2@@std@@@2@V?$allocator@U?$pair@$$CBV?$basic_string@DU?$char_traits@D@std@@V?$allocator@D@2@@std@@PAUtagBillItem@CBillClient@@@std@@@2@$0A@@std@@@std@@QAEPAXI@Z
_TEXT	SEGMENT
___flags$ = 8						; size = 4
??_G_Node@?$_Tree_nod@V?$_Tmap_traits@V?$basic_string@DU?$char_traits@D@std@@V?$allocator@D@2@@std@@PAUtagBillItem@CBillClient@@U?$less@V?$basic_string@DU?$char_traits@D@std@@V?$allocator@D@2@@std@@@2@V?$allocator@U?$pair@$$CBV?$basic_string@DU?$char_traits@D@std@@V?$allocator@D@2@@std@@PAUtagBillItem@CBillClient@@@std@@@2@$0A@@std@@@std@@QAEPAXI@Z PROC ; std::_Tree_nod<std::_Tmap_traits<std::basic_string<char,std::char_traits<char>,std::allocator<char> >,CBillClient::tagBillItem *,std::less<std::basic_string<char,std::char_traits<char>,std::allocator<char> > >,std::allocator<std::pair<std::basic_string<char,std::char_traits<char>,std::allocator<char> > const ,CBillClient::tagBillItem *> >,0> >::_Node::`scalar deleting destructor', COMDAT
; _this$ = ecx
  00000	56		 push	 esi
  00001	8b f1		 mov	 esi, ecx
  00003	83 7e 24 10	 cmp	 DWORD PTR [esi+36], 16	; 00000010H
  00007	72 0c		 jb	 SHORT $LN24@scalar@4
  00009	8b 46 10	 mov	 eax, DWORD PTR [esi+16]
  0000c	50		 push	 eax
  0000d	e8 00 00 00 00	 call	 ??3@YAXPAX@Z		; operator delete
  00012	83 c4 04	 add	 esp, 4
$LN24@scalar@4:
  00015	33 c0		 xor	 eax, eax
  00017	f6 44 24 08 01	 test	 BYTE PTR ___flags$[esp], 1
  0001c	c7 46 24 0f 00
	00 00		 mov	 DWORD PTR [esi+36], 15	; 0000000fH
  00023	89 46 20	 mov	 DWORD PTR [esi+32], eax
  00026	88 46 10	 mov	 BYTE PTR [esi+16], al
  00029	74 09		 je	 SHORT $LN34@scalar@4
  0002b	56		 push	 esi
  0002c	e8 00 00 00 00	 call	 ??3@YAXPAX@Z		; operator delete
  00031	83 c4 04	 add	 esp, 4
$LN34@scalar@4:
  00034	8b c6		 mov	 eax, esi
  00036	5e		 pop	 esi
  00037	c2 04 00	 ret	 4
??_G_Node@?$_Tree_nod@V?$_Tmap_traits@V?$basic_string@DU?$char_traits@D@std@@V?$allocator@D@2@@std@@PAUtagBillItem@CBillClient@@U?$less@V?$basic_string@DU?$char_traits@D@std@@V?$allocator@D@2@@std@@@2@V?$allocator@U?$pair@$$CBV?$basic_string@DU?$char_traits@D@std@@V?$allocator@D@2@@std@@PAUtagBillItem@CBillClient@@@std@@@2@$0A@@std@@@std@@QAEPAXI@Z ENDP ; std::_Tree_nod<std::_Tmap_traits<std::basic_string<char,std::char_traits<char>,std::allocator<char> >,CBillClient::tagBillItem *,std::less<std::basic_string<char,std::char_traits<char>,std::allocator<char> > >,std::allocator<std::pair<std::basic_string<char,std::char_traits<char>,std::allocator<char> > const ,CBillClient::tagBillItem *> >,0> >::_Node::`scalar deleting destructor'
_TEXT	ENDS
PUBLIC	?find@?$_Tree@V?$_Tmap_traits@V?$basic_string@DU?$char_traits@D@std@@V?$allocator@D@2@@std@@PAUtagBillItem@CBillClient@@U?$less@V?$basic_string@DU?$char_traits@D@std@@V?$allocator@D@2@@std@@@2@V?$allocator@U?$pair@$$CBV?$basic_string@DU?$char_traits@D@std@@V?$allocator@D@2@@std@@PAUtagBillItem@CBillClient@@@std@@@2@$0A@@std@@@std@@QAE?AViterator@12@ABV?$basic_string@DU?$char_traits@D@std@@V?$allocator@D@2@@2@@Z ; std::_Tree<std::_Tmap_traits<std::basic_string<char,std::char_traits<char>,std::allocator<char> >,CBillClient::tagBillItem *,std::less<std::basic_string<char,std::char_traits<char>,std::allocator<char> > >,std::allocator<std::pair<std::basic_string<char,std::char_traits<char>,std::allocator<char> > const ,CBillClient::tagBillItem *> >,0> >::find
; Function compile flags: /Ogtpy
; File d:\program files\microsoft visual studio 8\vc\include\xtree
;	COMDAT ?find@?$_Tree@V?$_Tmap_traits@V?$basic_string@DU?$char_traits@D@std@@V?$allocator@D@2@@std@@PAUtagBillItem@CBillClient@@U?$less@V?$basic_string@DU?$char_traits@D@std@@V?$allocator@D@2@@std@@@2@V?$allocator@U?$pair@$$CBV?$basic_string@DU?$char_traits@D@std@@V?$allocator@D@2@@std@@PAUtagBillItem@CBillClient@@@std@@@2@$0A@@std@@@std@@QAE?AViterator@12@ABV?$basic_string@DU?$char_traits@D@std@@V?$allocator@D@2@@2@@Z
_TEXT	SEGMENT
__Where$ = -16						; size = 8
$T264168 = -8						; size = 8
___$ReturnUdt$ = 8					; size = 4
__Keyval$ = 12						; size = 4
?find@?$_Tree@V?$_Tmap_traits@V?$basic_string@DU?$char_traits@D@std@@V?$allocator@D@2@@std@@PAUtagBillItem@CBillClient@@U?$less@V?$basic_string@DU?$char_traits@D@std@@V?$allocator@D@2@@std@@@2@V?$allocator@U?$pair@$$CBV?$basic_string@DU?$char_traits@D@std@@V?$allocator@D@2@@std@@PAUtagBillItem@CBillClient@@@std@@@2@$0A@@std@@@std@@QAE?AViterator@12@ABV?$basic_string@DU?$char_traits@D@std@@V?$allocator@D@2@@2@@Z PROC ; std::_Tree<std::_Tmap_traits<std::basic_string<char,std::char_traits<char>,std::allocator<char> >,CBillClient::tagBillItem *,std::less<std::basic_string<char,std::char_traits<char>,std::allocator<char> > >,std::allocator<std::pair<std::basic_string<char,std::char_traits<char>,std::allocator<char> > const ,CBillClient::tagBillItem *> >,0> >::find, COMDAT
; _this$ = ecx

; 960  : 		{	// find an element in mutable sequence that matches _Keyval

  00000	83 ec 10	 sub	 esp, 16			; 00000010H
  00003	53		 push	 ebx

; 961  : 		iterator _Where = lower_bound(_Keyval);

  00004	8b 5c 24 1c	 mov	 ebx, DWORD PTR __Keyval$[esp+16]
  00008	56		 push	 esi
  00009	57		 push	 edi
  0000a	53		 push	 ebx
  0000b	8b f1		 mov	 esi, ecx
  0000d	e8 00 00 00 00	 call	 ?_Lbound@?$_Tree@V?$_Tmap_traits@V?$basic_string@DU?$char_traits@D@std@@V?$allocator@D@2@@std@@PAUtagBillItem@CBillClient@@U?$less@V?$basic_string@DU?$char_traits@D@std@@V?$allocator@D@2@@std@@@2@V?$allocator@U?$pair@$$CBV?$basic_string@DU?$char_traits@D@std@@V?$allocator@D@2@@std@@PAUtagBillItem@CBillClient@@@std@@@2@$0A@@std@@@std@@IBEPAU_Node@?$_Tree_nod@V?$_Tmap_traits@V?$basic_string@DU?$char_traits@D@std@@V?$allocator@D@2@@std@@PAUtagBillItem@CBillClient@@U?$less@V?$basic_string@DU?$char_traits@D@std@@V?$allocator@D@2@@std@@@2@V?$allocator@U?$pair@$$CBV?$basic_string@DU?$char_traits@D@std@@V?$allocator@D@2@@std@@PAUtagBillItem@CBillClient@@@std@@@2@$0A@@std@@@2@ABV?$basic_string@DU?$char_traits@D@std@@V?$allocator@D@2@@2@@Z ; std::_Tree<std::_Tmap_traits<std::basic_string<char,std::char_traits<char>,std::allocator<char> >,CBillClient::tagBillItem *,std::less<std::basic_string<char,std::char_traits<char>,std::allocator<char> > >,std::allocator<std::pair<std::basic_string<char,std::char_traits<char>,std::allocator<char> > const ,CBillClient::tagBillItem *> >,0> >::_Lbound
  00012	85 f6		 test	 esi, esi
  00014	8b f8		 mov	 edi, eax
  00016	89 7c 24 10	 mov	 DWORD PTR __Where$[esp+32], edi
  0001a	75 05		 jne	 SHORT $LN9@find
  0001c	e8 00 00 00 00	 call	 __invalid_parameter_noinfo
$LN9@find:

; 962  : 		return (_Where == end()
; 963  : 			|| _DEBUG_LT_PRED(this->comp,
; 964  : 				_Keyval, _Key(_Where._Mynode()))
; 965  : 					? end() : _Where);

  00021	3b 7e 04	 cmp	 edi, DWORD PTR [esi+4]
  00024	89 74 24 0c	 mov	 DWORD PTR __Where$[esp+28], esi
  00028	74 2a		 je	 SHORT $LN3@find
  0002a	83 7f 24 10	 cmp	 DWORD PTR [edi+36], 16	; 00000010H
  0002e	8b 47 20	 mov	 eax, DWORD PTR [edi+32]
  00031	72 05		 jb	 SHORT $LN49@find
  00033	8b 7f 10	 mov	 edi, DWORD PTR [edi+16]
  00036	eb 03		 jmp	 SHORT $LN50@find
$LN49@find:
  00038	83 c7 10	 add	 edi, 16			; 00000010H
$LN50@find:
  0003b	50		 push	 eax
  0003c	8b 43 14	 mov	 eax, DWORD PTR [ebx+20]
  0003f	57		 push	 edi
  00040	50		 push	 eax
  00041	6a 00		 push	 0
  00043	8b cb		 mov	 ecx, ebx
  00045	e8 00 00 00 00	 call	 ?compare@?$basic_string@DU?$char_traits@D@std@@V?$allocator@D@2@@std@@QBEHIIPBDI@Z ; std::basic_string<char,std::char_traits<char>,std::allocator<char> >::compare
  0004a	85 c0		 test	 eax, eax
  0004c	7c 06		 jl	 SHORT $LN3@find
  0004e	8d 4c 24 0c	 lea	 ecx, DWORD PTR __Where$[esp+28]
  00052	eb 0f		 jmp	 SHORT $LN4@find
$LN3@find:
  00054	8b 4e 04	 mov	 ecx, DWORD PTR [esi+4]
  00057	89 4c 24 18	 mov	 DWORD PTR $T264168[esp+32], ecx
  0005b	89 74 24 14	 mov	 DWORD PTR $T264168[esp+28], esi
  0005f	8d 4c 24 14	 lea	 ecx, DWORD PTR $T264168[esp+28]
$LN4@find:
  00063	8b 11		 mov	 edx, DWORD PTR [ecx]
  00065	8b 44 24 20	 mov	 eax, DWORD PTR ___$ReturnUdt$[esp+24]
  00069	8b 49 04	 mov	 ecx, DWORD PTR [ecx+4]
  0006c	5f		 pop	 edi
  0006d	5e		 pop	 esi
  0006e	89 10		 mov	 DWORD PTR [eax], edx
  00070	89 48 04	 mov	 DWORD PTR [eax+4], ecx
  00073	5b		 pop	 ebx

; 966  : 		}

  00074	83 c4 10	 add	 esp, 16			; 00000010H
  00077	c2 08 00	 ret	 8
?find@?$_Tree@V?$_Tmap_traits@V?$basic_string@DU?$char_traits@D@std@@V?$allocator@D@2@@std@@PAUtagBillItem@CBillClient@@U?$less@V?$basic_string@DU?$char_traits@D@std@@V?$allocator@D@2@@std@@@2@V?$allocator@U?$pair@$$CBV?$basic_string@DU?$char_traits@D@std@@V?$allocator@D@2@@std@@PAUtagBillItem@CBillClient@@@std@@@2@$0A@@std@@@std@@QAE?AViterator@12@ABV?$basic_string@DU?$char_traits@D@std@@V?$allocator@D@2@@2@@Z ENDP ; std::_Tree<std::_Tmap_traits<std::basic_string<char,std::char_traits<char>,std::allocator<char> >,CBillClient::tagBillItem *,std::less<std::basic_string<char,std::char_traits<char>,std::allocator<char> > >,std::allocator<std::pair<std::basic_string<char,std::char_traits<char>,std::allocator<char> > const ,CBillClient::tagBillItem *> >,0> >::find
_TEXT	ENDS
PUBLIC	??0?$basic_string@DU?$char_traits@D@std@@V?$allocator@D@2@@std@@QAE@ABV01@@Z ; std::basic_string<char,std::char_traits<char>,std::allocator<char> >::basic_string<char,std::char_traits<char>,std::allocator<char> >
; Function compile flags: /Ogtpy
; File d:\program files\microsoft visual studio 8\vc\include\xstring
;	COMDAT ??0?$basic_string@DU?$char_traits@D@std@@V?$allocator@D@2@@std@@QAE@ABV01@@Z
_TEXT	SEGMENT
__Right$ = 8						; size = 4
??0?$basic_string@DU?$char_traits@D@std@@V?$allocator@D@2@@std@@QAE@ABV01@@Z PROC ; std::basic_string<char,std::char_traits<char>,std::allocator<char> >::basic_string<char,std::char_traits<char>,std::allocator<char> >, COMDAT
; _this$ = ecx

; 720  : 		{	// construct by copying _Right

  00000	56		 push	 esi

; 721  : 		_Tidy();

  00001	33 c0		 xor	 eax, eax
  00003	8b f1		 mov	 esi, ecx

; 722  : 		assign(_Right, 0, npos);

  00005	6a ff		 push	 -1
  00007	89 46 14	 mov	 DWORD PTR [esi+20], eax
  0000a	c7 46 18 0f 00
	00 00		 mov	 DWORD PTR [esi+24], 15	; 0000000fH
  00011	50		 push	 eax
  00012	88 46 04	 mov	 BYTE PTR [esi+4], al
  00015	8b 44 24 10	 mov	 eax, DWORD PTR __Right$[esp+8]
  00019	50		 push	 eax
  0001a	e8 00 00 00 00	 call	 ?assign@?$basic_string@DU?$char_traits@D@std@@V?$allocator@D@2@@std@@QAEAAV12@ABV12@II@Z ; std::basic_string<char,std::char_traits<char>,std::allocator<char> >::assign

; 723  : 		}

  0001f	8b c6		 mov	 eax, esi
  00021	5e		 pop	 esi
  00022	c2 04 00	 ret	 4
??0?$basic_string@DU?$char_traits@D@std@@V?$allocator@D@2@@std@@QAE@ABV01@@Z ENDP ; std::basic_string<char,std::char_traits<char>,std::allocator<char> >::basic_string<char,std::char_traits<char>,std::allocator<char> >
_TEXT	ENDS
PUBLIC	?assign@?$basic_string@DU?$char_traits@D@std@@V?$allocator@D@2@@std@@QAEAAV12@PBD@Z ; std::basic_string<char,std::char_traits<char>,std::allocator<char> >::assign
; Function compile flags: /Ogtpy
;	COMDAT ?assign@?$basic_string@DU?$char_traits@D@std@@V?$allocator@D@2@@std@@QAEAAV12@PBD@Z
_TEXT	SEGMENT
__Ptr$ = 8						; size = 4
?assign@?$basic_string@DU?$char_traits@D@std@@V?$allocator@D@2@@std@@QAEAAV12@PBD@Z PROC ; std::basic_string<char,std::char_traits<char>,std::allocator<char> >::assign, COMDAT
; _this$ = ecx

; 1069 : 		{	// assign [_Ptr, <null>)

  00000	56		 push	 esi

; 1070 : 		return (assign(_Ptr, _Traits::length(_Ptr)));

  00001	8b 74 24 08	 mov	 esi, DWORD PTR __Ptr$[esp]
  00005	8b c6		 mov	 eax, esi
  00007	57		 push	 edi
  00008	8d 78 01	 lea	 edi, DWORD PTR [eax+1]
  0000b	eb 03 8d 49 00	 npad	 5
$LL5@assign@3:
  00010	8a 10		 mov	 dl, BYTE PTR [eax]
  00012	83 c0 01	 add	 eax, 1
  00015	84 d2		 test	 dl, dl
  00017	75 f7		 jne	 SHORT $LL5@assign@3
  00019	2b c7		 sub	 eax, edi
  0001b	50		 push	 eax
  0001c	56		 push	 esi
  0001d	e8 00 00 00 00	 call	 ?assign@?$basic_string@DU?$char_traits@D@std@@V?$allocator@D@2@@std@@QAEAAV12@PBDI@Z ; std::basic_string<char,std::char_traits<char>,std::allocator<char> >::assign
  00022	5f		 pop	 edi
  00023	5e		 pop	 esi

; 1071 : 		}

  00024	c2 04 00	 ret	 4
?assign@?$basic_string@DU?$char_traits@D@std@@V?$allocator@D@2@@std@@QAEAAV12@PBD@Z ENDP ; std::basic_string<char,std::char_traits<char>,std::allocator<char> >::assign
_TEXT	ENDS
PUBLIC	??0?$pair@$$CBV?$basic_string@DU?$char_traits@D@std@@V?$allocator@D@2@@std@@PAUtagBillItem@CBillClient@@@std@@QAE@ABV?$basic_string@DU?$char_traits@D@std@@V?$allocator@D@2@@1@ABQAUtagBillItem@CBillClient@@@Z ; std::pair<std::basic_string<char,std::char_traits<char>,std::allocator<char> > const ,CBillClient::tagBillItem *>::pair<std::basic_string<char,std::char_traits<char>,std::allocator<char> > const ,CBillClient::tagBillItem *>
; Function compile flags: /Ogtpy
; File d:\program files\microsoft visual studio 8\vc\include\utility
;	COMDAT ??0?$pair@$$CBV?$basic_string@DU?$char_traits@D@std@@V?$allocator@D@2@@std@@PAUtagBillItem@CBillClient@@@std@@QAE@ABV?$basic_string@DU?$char_traits@D@std@@V?$allocator@D@2@@1@ABQAUtagBillItem@CBillClient@@@Z
_TEXT	SEGMENT
__Val1$ = 8						; size = 4
__Val2$ = 12						; size = 4
??0?$pair@$$CBV?$basic_string@DU?$char_traits@D@std@@V?$allocator@D@2@@std@@PAUtagBillItem@CBillClient@@@std@@QAE@ABV?$basic_string@DU?$char_traits@D@std@@V?$allocator@D@2@@1@ABQAUtagBillItem@CBillClient@@@Z PROC ; std::pair<std::basic_string<char,std::char_traits<char>,std::allocator<char> > const ,CBillClient::tagBillItem *>::pair<std::basic_string<char,std::char_traits<char>,std::allocator<char> > const ,CBillClient::tagBillItem *>, COMDAT
; _this$ = ecx

; 37   : 		{	// construct from specified values

  00000	56		 push	 esi
  00001	33 c0		 xor	 eax, eax
  00003	8b f1		 mov	 esi, ecx
  00005	6a ff		 push	 -1
  00007	89 46 14	 mov	 DWORD PTR [esi+20], eax
  0000a	c7 46 18 0f 00
	00 00		 mov	 DWORD PTR [esi+24], 15	; 0000000fH
  00011	50		 push	 eax
  00012	88 46 04	 mov	 BYTE PTR [esi+4], al
  00015	8b 44 24 10	 mov	 eax, DWORD PTR __Val1$[esp+8]
  00019	50		 push	 eax
  0001a	e8 00 00 00 00	 call	 ?assign@?$basic_string@DU?$char_traits@D@std@@V?$allocator@D@2@@std@@QAEAAV12@ABV12@II@Z ; std::basic_string<char,std::char_traits<char>,std::allocator<char> >::assign
  0001f	8b 4c 24 0c	 mov	 ecx, DWORD PTR __Val2$[esp]
  00023	8b 11		 mov	 edx, DWORD PTR [ecx]
  00025	89 56 1c	 mov	 DWORD PTR [esi+28], edx

; 38   : 		}

  00028	8b c6		 mov	 eax, esi
  0002a	5e		 pop	 esi
  0002b	c2 08 00	 ret	 8
??0?$pair@$$CBV?$basic_string@DU?$char_traits@D@std@@V?$allocator@D@2@@std@@PAUtagBillItem@CBillClient@@@std@@QAE@ABV?$basic_string@DU?$char_traits@D@std@@V?$allocator@D@2@@1@ABQAUtagBillItem@CBillClient@@@Z ENDP ; std::pair<std::basic_string<char,std::char_traits<char>,std::allocator<char> > const ,CBillClient::tagBillItem *>::pair<std::basic_string<char,std::char_traits<char>,std::allocator<char> > const ,CBillClient::tagBillItem *>
_TEXT	ENDS
PUBLIC	??0?$pair@$$CBV?$basic_string@DU?$char_traits@D@std@@V?$allocator@D@2@@std@@PAUtagBillItem@CBillClient@@@std@@QAE@ABU01@@Z ; std::pair<std::basic_string<char,std::char_traits<char>,std::allocator<char> > const ,CBillClient::tagBillItem *>::pair<std::basic_string<char,std::char_traits<char>,std::allocator<char> > const ,CBillClient::tagBillItem *>
; Function compile flags: /Ogtpy
;	COMDAT ??0?$pair@$$CBV?$basic_string@DU?$char_traits@D@std@@V?$allocator@D@2@@std@@PAUtagBillItem@CBillClient@@@std@@QAE@ABU01@@Z
_TEXT	SEGMENT
___that$ = 8						; size = 4
??0?$pair@$$CBV?$basic_string@DU?$char_traits@D@std@@V?$allocator@D@2@@std@@PAUtagBillItem@CBillClient@@@std@@QAE@ABU01@@Z PROC ; std::pair<std::basic_string<char,std::char_traits<char>,std::allocator<char> > const ,CBillClient::tagBillItem *>::pair<std::basic_string<char,std::char_traits<char>,std::allocator<char> > const ,CBillClient::tagBillItem *>, COMDAT
; _this$ = ecx
  00000	56		 push	 esi
  00001	57		 push	 edi
  00002	8b 7c 24 0c	 mov	 edi, DWORD PTR ___that$[esp+4]
  00006	33 c0		 xor	 eax, eax
  00008	6a ff		 push	 -1
  0000a	8b f1		 mov	 esi, ecx
  0000c	50		 push	 eax
  0000d	c7 46 18 0f 00
	00 00		 mov	 DWORD PTR [esi+24], 15	; 0000000fH
  00014	89 46 14	 mov	 DWORD PTR [esi+20], eax
  00017	57		 push	 edi
  00018	88 46 04	 mov	 BYTE PTR [esi+4], al
  0001b	e8 00 00 00 00	 call	 ?assign@?$basic_string@DU?$char_traits@D@std@@V?$allocator@D@2@@std@@QAEAAV12@ABV12@II@Z ; std::basic_string<char,std::char_traits<char>,std::allocator<char> >::assign
  00020	8b 47 1c	 mov	 eax, DWORD PTR [edi+28]
  00023	89 46 1c	 mov	 DWORD PTR [esi+28], eax
  00026	5f		 pop	 edi
  00027	8b c6		 mov	 eax, esi
  00029	5e		 pop	 esi
  0002a	c2 04 00	 ret	 4
??0?$pair@$$CBV?$basic_string@DU?$char_traits@D@std@@V?$allocator@D@2@@std@@PAUtagBillItem@CBillClient@@@std@@QAE@ABU01@@Z ENDP ; std::pair<std::basic_string<char,std::char_traits<char>,std::allocator<char> > const ,CBillClient::tagBillItem *>::pair<std::basic_string<char,std::char_traits<char>,std::allocator<char> > const ,CBillClient::tagBillItem *>
_TEXT	ENDS
PUBLIC	??$_Destroy@U_Node@?$_Tree_nod@V?$_Tmap_traits@V?$basic_string@DU?$char_traits@D@std@@V?$allocator@D@2@@std@@PAUtagBillItem@CBillClient@@U?$less@V?$basic_string@DU?$char_traits@D@std@@V?$allocator@D@2@@std@@@2@V?$allocator@U?$pair@$$CBV?$basic_string@DU?$char_traits@D@std@@V?$allocator@D@2@@std@@PAUtagBillItem@CBillClient@@@std@@@2@$0A@@std@@@std@@@std@@YAXPAU_Node@?$_Tree_nod@V?$_Tmap_traits@V?$basic_string@DU?$char_traits@D@std@@V?$allocator@D@2@@std@@PAUtagBillItem@CBillClient@@U?$less@V?$basic_string@DU?$char_traits@D@std@@V?$allocator@D@2@@std@@@2@V?$allocator@U?$pair@$$CBV?$basic_string@DU?$char_traits@D@std@@V?$allocator@D@2@@std@@PAUtagBillItem@CBillClient@@@std@@@2@$0A@@std@@@0@@Z ; std::_Destroy<std::_Tree_nod<std::_Tmap_traits<std::basic_string<char,std::char_traits<char>,std::allocator<char> >,CBillClient::tagBillItem *,std::less<std::basic_string<char,std::char_traits<char>,std::allocator<char> > >,std::allocator<std::pair<std::basic_string<char,std::char_traits<char>,std::allocator<char> > const ,CBillClient::tagBillItem *> >,0> >::_Node>
; Function compile flags: /Ogtpy
; File d:\program files\microsoft visual studio 8\vc\include\xmemory
;	COMDAT ??$_Destroy@U_Node@?$_Tree_nod@V?$_Tmap_traits@V?$basic_string@DU?$char_traits@D@std@@V?$allocator@D@2@@std@@PAUtagBillItem@CBillClient@@U?$less@V?$basic_string@DU?$char_traits@D@std@@V?$allocator@D@2@@std@@@2@V?$allocator@U?$pair@$$CBV?$basic_string@DU?$char_traits@D@std@@V?$allocator@D@2@@std@@PAUtagBillItem@CBillClient@@@std@@@2@$0A@@std@@@std@@@std@@YAXPAU_Node@?$_Tree_nod@V?$_Tmap_traits@V?$basic_string@DU?$char_traits@D@std@@V?$allocator@D@2@@std@@PAUtagBillItem@CBillClient@@U?$less@V?$basic_string@DU?$char_traits@D@std@@V?$allocator@D@2@@std@@@2@V?$allocator@U?$pair@$$CBV?$basic_string@DU?$char_traits@D@std@@V?$allocator@D@2@@std@@PAUtagBillItem@CBillClient@@@std@@@2@$0A@@std@@@0@@Z
_TEXT	SEGMENT
__Ptr$ = 8						; size = 4
??$_Destroy@U_Node@?$_Tree_nod@V?$_Tmap_traits@V?$basic_string@DU?$char_traits@D@std@@V?$allocator@D@2@@std@@PAUtagBillItem@CBillClient@@U?$less@V?$basic_string@DU?$char_traits@D@std@@V?$allocator@D@2@@std@@@2@V?$allocator@U?$pair@$$CBV?$basic_string@DU?$char_traits@D@std@@V?$allocator@D@2@@std@@PAUtagBillItem@CBillClient@@@std@@@2@$0A@@std@@@std@@@std@@YAXPAU_Node@?$_Tree_nod@V?$_Tmap_traits@V?$basic_string@DU?$char_traits@D@std@@V?$allocator@D@2@@std@@PAUtagBillItem@CBillClient@@U?$less@V?$basic_string@DU?$char_traits@D@std@@V?$allocator@D@2@@std@@@2@V?$allocator@U?$pair@$$CBV?$basic_string@DU?$char_traits@D@std@@V?$allocator@D@2@@std@@PAUtagBillItem@CBillClient@@@std@@@2@$0A@@std@@@0@@Z PROC ; std::_Destroy<std::_Tree_nod<std::_Tmap_traits<std::basic_string<char,std::char_traits<char>,std::allocator<char> >,CBillClient::tagBillItem *,std::less<std::basic_string<char,std::char_traits<char>,std::allocator<char> > >,std::allocator<std::pair<std::basic_string<char,std::char_traits<char>,std::allocator<char> > const ,CBillClient::tagBillItem *> >,0> >::_Node>, COMDAT

; 59   : 	{	// destroy object at _Ptr

  00000	56		 push	 esi

; 60   : 	_DESTRUCTOR(_Ty, _Ptr);

  00001	8b 74 24 08	 mov	 esi, DWORD PTR __Ptr$[esp]
  00005	83 7e 24 10	 cmp	 DWORD PTR [esi+36], 16	; 00000010H
  00009	72 0c		 jb	 SHORT $LN26@Destroy
  0000b	8b 46 10	 mov	 eax, DWORD PTR [esi+16]
  0000e	50		 push	 eax
  0000f	e8 00 00 00 00	 call	 ??3@YAXPAX@Z		; operator delete
  00014	83 c4 04	 add	 esp, 4
$LN26@Destroy:
  00017	33 c0		 xor	 eax, eax
  00019	c7 46 24 0f 00
	00 00		 mov	 DWORD PTR [esi+36], 15	; 0000000fH
  00020	89 46 20	 mov	 DWORD PTR [esi+32], eax
  00023	88 46 10	 mov	 BYTE PTR [esi+16], al
  00026	5e		 pop	 esi

; 61   : 	}

  00027	c3		 ret	 0
??$_Destroy@U_Node@?$_Tree_nod@V?$_Tmap_traits@V?$basic_string@DU?$char_traits@D@std@@V?$allocator@D@2@@std@@PAUtagBillItem@CBillClient@@U?$less@V?$basic_string@DU?$char_traits@D@std@@V?$allocator@D@2@@std@@@2@V?$allocator@U?$pair@$$CBV?$basic_string@DU?$char_traits@D@std@@V?$allocator@D@2@@std@@PAUtagBillItem@CBillClient@@@std@@@2@$0A@@std@@@std@@@std@@YAXPAU_Node@?$_Tree_nod@V?$_Tmap_traits@V?$basic_string@DU?$char_traits@D@std@@V?$allocator@D@2@@std@@PAUtagBillItem@CBillClient@@U?$less@V?$basic_string@DU?$char_traits@D@std@@V?$allocator@D@2@@std@@@2@V?$allocator@U?$pair@$$CBV?$basic_string@DU?$char_traits@D@std@@V?$allocator@D@2@@std@@PAUtagBillItem@CBillClient@@@std@@@2@$0A@@std@@@0@@Z ENDP ; std::_Destroy<std::_Tree_nod<std::_Tmap_traits<std::basic_string<char,std::char_traits<char>,std::allocator<char> >,CBillClient::tagBillItem *,std::less<std::basic_string<char,std::char_traits<char>,std::allocator<char> > >,std::allocator<std::pair<std::basic_string<char,std::char_traits<char>,std::allocator<char> > const ,CBillClient::tagBillItem *> >,0> >::_Node>
_TEXT	ENDS
PUBLIC	??0logic_error@std@@QAE@ABV?$basic_string@DU?$char_traits@D@std@@V?$allocator@D@2@@1@@Z ; std::logic_error::logic_error
EXTRN	??0exception@std@@QAE@XZ:PROC			; std::exception::exception
;	COMDAT xdata$x
; File d:\program files\microsoft visual studio 8\vc\include\iosfwd
xdata$x	SEGMENT
__unwindtable$??0logic_error@std@@QAE@ABV?$basic_string@DU?$char_traits@D@std@@V?$allocator@D@2@@1@@Z DD 0ffffffffH
	DD	FLAT:__unwindfunclet$??0logic_error@std@@QAE@ABV?$basic_string@DU?$char_traits@D@std@@V?$allocator@D@2@@1@@Z$0
__ehfuncinfo$??0logic_error@std@@QAE@ABV?$basic_string@DU?$char_traits@D@std@@V?$allocator@D@2@@1@@Z DD 019930522H
	DD	01H
	DD	FLAT:__unwindtable$??0logic_error@std@@QAE@ABV?$basic_string@DU?$char_traits@D@std@@V?$allocator@D@2@@1@@Z
	DD	2 DUP(00H)
	DD	2 DUP(00H)
	DD	00H
	DD	01H
; Function compile flags: /Ogtpy
; File d:\program files\microsoft visual studio 8\vc\include\stdexcept
xdata$x	ENDS
;	COMDAT ??0logic_error@std@@QAE@ABV?$basic_string@DU?$char_traits@D@std@@V?$allocator@D@2@@1@@Z
_TEXT	SEGMENT
_this$ = -16						; size = 4
__$EHRec$ = -12						; size = 12
__Message$ = 8						; size = 4
??0logic_error@std@@QAE@ABV?$basic_string@DU?$char_traits@D@std@@V?$allocator@D@2@@1@@Z PROC ; std::logic_error::logic_error, COMDAT
; _this$ = ecx

; 27   : 		{	// construct from message string

  00000	6a ff		 push	 -1
  00002	68 00 00 00 00	 push	 __ehhandler$??0logic_error@std@@QAE@ABV?$basic_string@DU?$char_traits@D@std@@V?$allocator@D@2@@1@@Z
  00007	64 a1 00 00 00
	00		 mov	 eax, DWORD PTR fs:0
  0000d	50		 push	 eax
  0000e	51		 push	 ecx
  0000f	56		 push	 esi
  00010	a1 00 00 00 00	 mov	 eax, DWORD PTR ___security_cookie
  00015	33 c4		 xor	 eax, esp
  00017	50		 push	 eax
  00018	8d 44 24 0c	 lea	 eax, DWORD PTR __$EHRec$[esp+24]
  0001c	64 a3 00 00 00
	00		 mov	 DWORD PTR fs:0, eax
  00022	8b f1		 mov	 esi, ecx
  00024	89 74 24 08	 mov	 DWORD PTR _this$[esp+24], esi
  00028	e8 00 00 00 00	 call	 ??0exception@std@@QAE@XZ ; std::exception::exception
  0002d	33 c0		 xor	 eax, eax
  0002f	8d 4e 0c	 lea	 ecx, DWORD PTR [esi+12]
  00032	c7 06 00 00 00
	00		 mov	 DWORD PTR [esi], OFFSET ??_7logic_error@std@@6B@
  00038	6a ff		 push	 -1
  0003a	89 41 14	 mov	 DWORD PTR [ecx+20], eax
  0003d	c7 41 18 0f 00
	00 00		 mov	 DWORD PTR [ecx+24], 15	; 0000000fH
  00044	50		 push	 eax
  00045	89 44 24 1c	 mov	 DWORD PTR __$EHRec$[esp+40], eax
  00049	88 41 04	 mov	 BYTE PTR [ecx+4], al
  0004c	8b 44 24 24	 mov	 eax, DWORD PTR __Message$[esp+28]
  00050	50		 push	 eax
  00051	e8 00 00 00 00	 call	 ?assign@?$basic_string@DU?$char_traits@D@std@@V?$allocator@D@2@@std@@QAEAAV12@ABV12@II@Z ; std::basic_string<char,std::char_traits<char>,std::allocator<char> >::assign

; 28   : 		}

  00056	8b c6		 mov	 eax, esi
  00058	8b 4c 24 0c	 mov	 ecx, DWORD PTR __$EHRec$[esp+24]
  0005c	64 89 0d 00 00
	00 00		 mov	 DWORD PTR fs:0, ecx
  00063	59		 pop	 ecx
  00064	5e		 pop	 esi
  00065	83 c4 10	 add	 esp, 16			; 00000010H
  00068	c2 04 00	 ret	 4
_TEXT	ENDS
;	COMDAT text$x
text$x	SEGMENT
__unwindfunclet$??0logic_error@std@@QAE@ABV?$basic_string@DU?$char_traits@D@std@@V?$allocator@D@2@@1@@Z$0:
  00000	8b 4d f0	 mov	 ecx, DWORD PTR _this$[ebp]
  00003	e9 00 00 00 00	 jmp	 ??1exception@std@@UAE@XZ ; std::exception::~exception
__ehhandler$??0logic_error@std@@QAE@ABV?$basic_string@DU?$char_traits@D@std@@V?$allocator@D@2@@1@@Z:
  00008	8b 54 24 08	 mov	 edx, DWORD PTR [esp+8]
  0000c	8d 42 f8	 lea	 eax, DWORD PTR [edx-8]
  0000f	8b 4a f4	 mov	 ecx, DWORD PTR [edx-12]
  00012	33 c8		 xor	 ecx, eax
  00014	e8 00 00 00 00	 call	 @__security_check_cookie@4
  00019	b8 00 00 00 00	 mov	 eax, OFFSET __ehfuncinfo$??0logic_error@std@@QAE@ABV?$basic_string@DU?$char_traits@D@std@@V?$allocator@D@2@@1@@Z
  0001e	e9 00 00 00 00	 jmp	 ___CxxFrameHandler3
text$x	ENDS
??0logic_error@std@@QAE@ABV?$basic_string@DU?$char_traits@D@std@@V?$allocator@D@2@@1@@Z ENDP ; std::logic_error::logic_error
PUBLIC	??_7length_error@std@@6B@			; std::length_error::`vftable'
PUBLIC	??0length_error@std@@QAE@ABV?$basic_string@DU?$char_traits@D@std@@V?$allocator@D@2@@1@@Z ; std::length_error::length_error
PUBLIC	??_R4length_error@std@@6B@			; std::length_error::`RTTI Complete Object Locator'
PUBLIC	??_R0?AVlength_error@std@@@8			; std::length_error `RTTI Type Descriptor'
PUBLIC	??_R3length_error@std@@8			; std::length_error::`RTTI Class Hierarchy Descriptor'
PUBLIC	??_R2length_error@std@@8			; std::length_error::`RTTI Base Class Array'
PUBLIC	??_R1A@?0A@EA@length_error@std@@8		; std::length_error::`RTTI Base Class Descriptor at (0,-1,0,64)'
EXTRN	??_Elength_error@std@@UAEPAXI@Z:PROC		; std::length_error::`vector deleting destructor'
;	COMDAT ??_R1A@?0A@EA@length_error@std@@8
rdata$r	SEGMENT
??_R1A@?0A@EA@length_error@std@@8 DD FLAT:??_R0?AVlength_error@std@@@8 ; std::length_error::`RTTI Base Class Descriptor at (0,-1,0,64)'
	DD	02H
	DD	00H
	DD	0ffffffffH
	DD	00H
	DD	040H
	DD	FLAT:??_R3length_error@std@@8
rdata$r	ENDS
;	COMDAT ??_R2length_error@std@@8
rdata$r	SEGMENT
??_R2length_error@std@@8 DD FLAT:??_R1A@?0A@EA@length_error@std@@8 ; std::length_error::`RTTI Base Class Array'
	DD	FLAT:??_R1A@?0A@EA@logic_error@std@@8
	DD	FLAT:??_R1A@?0A@EA@exception@std@@8
rdata$r	ENDS
;	COMDAT ??_R3length_error@std@@8
rdata$r	SEGMENT
??_R3length_error@std@@8 DD 00H				; std::length_error::`RTTI Class Hierarchy Descriptor'
	DD	00H
	DD	03H
	DD	FLAT:??_R2length_error@std@@8
rdata$r	ENDS
;	COMDAT ??_R0?AVlength_error@std@@@8
_DATA	SEGMENT
??_R0?AVlength_error@std@@@8 DD FLAT:??_7type_info@@6B@	; std::length_error `RTTI Type Descriptor'
	DD	00H
	DB	'.?AVlength_error@std@@', 00H
_DATA	ENDS
;	COMDAT ??_R4length_error@std@@6B@
rdata$r	SEGMENT
??_R4length_error@std@@6B@ DD 00H			; std::length_error::`RTTI Complete Object Locator'
	DD	00H
	DD	00H
	DD	FLAT:??_R0?AVlength_error@std@@@8
	DD	FLAT:??_R3length_error@std@@8
rdata$r	ENDS
;	COMDAT ??_7length_error@std@@6B@
CONST	SEGMENT
??_7length_error@std@@6B@ DD FLAT:??_R4length_error@std@@6B@ ; std::length_error::`vftable'
	DD	FLAT:??_Elength_error@std@@UAEPAXI@Z
	DD	FLAT:?what@logic_error@std@@UBEPBDXZ
; Function compile flags: /Ogtpy
CONST	ENDS
;	COMDAT ??0length_error@std@@QAE@ABV?$basic_string@DU?$char_traits@D@std@@V?$allocator@D@2@@1@@Z
_TEXT	SEGMENT
__Message$ = 8						; size = 4
??0length_error@std@@QAE@ABV?$basic_string@DU?$char_traits@D@std@@V?$allocator@D@2@@1@@Z PROC ; std::length_error::length_error, COMDAT
; _this$ = ecx

; 106  : 		{	// construct from message string

  00000	8b 44 24 04	 mov	 eax, DWORD PTR __Message$[esp-4]
  00004	56		 push	 esi
  00005	50		 push	 eax
  00006	8b f1		 mov	 esi, ecx
  00008	e8 00 00 00 00	 call	 ??0logic_error@std@@QAE@ABV?$basic_string@DU?$char_traits@D@std@@V?$allocator@D@2@@1@@Z ; std::logic_error::logic_error
  0000d	c7 06 00 00 00
	00		 mov	 DWORD PTR [esi], OFFSET ??_7length_error@std@@6B@

; 107  : 		}

  00013	8b c6		 mov	 eax, esi
  00015	5e		 pop	 esi
  00016	c2 04 00	 ret	 4
??0length_error@std@@QAE@ABV?$basic_string@DU?$char_traits@D@std@@V?$allocator@D@2@@1@@Z ENDP ; std::length_error::length_error
_TEXT	ENDS
PUBLIC	??1length_error@std@@UAE@XZ			; std::length_error::~length_error
; Function compile flags: /Ogtpy
;	COMDAT ??1length_error@std@@UAE@XZ
_TEXT	SEGMENT
??1length_error@std@@UAE@XZ PROC			; std::length_error::~length_error, COMDAT
; _this$ = ecx

; 110  : 		{	// destroy the object

  00000	56		 push	 esi
  00001	8b f1		 mov	 esi, ecx

; 111  : 		}

  00003	c7 06 00 00 00
	00		 mov	 DWORD PTR [esi], OFFSET ??_7logic_error@std@@6B@
  00009	83 7e 24 10	 cmp	 DWORD PTR [esi+36], 16	; 00000010H
  0000d	72 0c		 jb	 SHORT $LN21@length_err
  0000f	8b 46 10	 mov	 eax, DWORD PTR [esi+16]
  00012	50		 push	 eax
  00013	e8 00 00 00 00	 call	 ??3@YAXPAX@Z		; operator delete
  00018	83 c4 04	 add	 esp, 4
$LN21@length_err:
  0001b	33 c0		 xor	 eax, eax
  0001d	c7 46 24 0f 00
	00 00		 mov	 DWORD PTR [esi+36], 15	; 0000000fH
  00024	89 46 20	 mov	 DWORD PTR [esi+32], eax
  00027	88 46 10	 mov	 BYTE PTR [esi+16], al
  0002a	8b ce		 mov	 ecx, esi
  0002c	5e		 pop	 esi
  0002d	e9 00 00 00 00	 jmp	 ??1exception@std@@UAE@XZ ; std::exception::~exception
??1length_error@std@@UAE@XZ ENDP			; std::length_error::~length_error
; Function compile flags: /Ogtpy
_TEXT	ENDS
;	COMDAT ??_Glength_error@std@@UAEPAXI@Z
_TEXT	SEGMENT
___flags$ = 8						; size = 4
??_Glength_error@std@@UAEPAXI@Z PROC			; std::length_error::`scalar deleting destructor', COMDAT
; _this$ = ecx
  00000	56		 push	 esi
  00001	8b f1		 mov	 esi, ecx
  00003	c7 06 00 00 00
	00		 mov	 DWORD PTR [esi], OFFSET ??_7logic_error@std@@6B@
  00009	83 7e 24 10	 cmp	 DWORD PTR [esi+36], 16	; 00000010H
  0000d	72 0c		 jb	 SHORT $LN24@scalar@5
  0000f	8b 46 10	 mov	 eax, DWORD PTR [esi+16]
  00012	50		 push	 eax
  00013	e8 00 00 00 00	 call	 ??3@YAXPAX@Z		; operator delete
  00018	83 c4 04	 add	 esp, 4
$LN24@scalar@5:
  0001b	33 c0		 xor	 eax, eax
  0001d	c7 46 24 0f 00
	00 00		 mov	 DWORD PTR [esi+36], 15	; 0000000fH
  00024	89 46 20	 mov	 DWORD PTR [esi+32], eax
  00027	8b ce		 mov	 ecx, esi
  00029	88 46 10	 mov	 BYTE PTR [esi+16], al
  0002c	e8 00 00 00 00	 call	 ??1exception@std@@UAE@XZ ; std::exception::~exception
  00031	f6 44 24 08 01	 test	 BYTE PTR ___flags$[esp], 1
  00036	74 09		 je	 SHORT $LN34@scalar@5
  00038	56		 push	 esi
  00039	e8 00 00 00 00	 call	 ??3@YAXPAX@Z		; operator delete
  0003e	83 c4 04	 add	 esp, 4
$LN34@scalar@5:
  00041	8b c6		 mov	 eax, esi
  00043	5e		 pop	 esi
  00044	c2 04 00	 ret	 4
??_Glength_error@std@@UAEPAXI@Z ENDP			; std::length_error::`scalar deleting destructor'
_TEXT	ENDS
PUBLIC	??_7out_of_range@std@@6B@			; std::out_of_range::`vftable'
PUBLIC	??0out_of_range@std@@QAE@ABV?$basic_string@DU?$char_traits@D@std@@V?$allocator@D@2@@1@@Z ; std::out_of_range::out_of_range
PUBLIC	??_R4out_of_range@std@@6B@			; std::out_of_range::`RTTI Complete Object Locator'
PUBLIC	??_R0?AVout_of_range@std@@@8			; std::out_of_range `RTTI Type Descriptor'
PUBLIC	??_R3out_of_range@std@@8			; std::out_of_range::`RTTI Class Hierarchy Descriptor'
PUBLIC	??_R2out_of_range@std@@8			; std::out_of_range::`RTTI Base Class Array'
PUBLIC	??_R1A@?0A@EA@out_of_range@std@@8		; std::out_of_range::`RTTI Base Class Descriptor at (0,-1,0,64)'
EXTRN	??_Eout_of_range@std@@UAEPAXI@Z:PROC		; std::out_of_range::`vector deleting destructor'
;	COMDAT ??_R1A@?0A@EA@out_of_range@std@@8
rdata$r	SEGMENT
??_R1A@?0A@EA@out_of_range@std@@8 DD FLAT:??_R0?AVout_of_range@std@@@8 ; std::out_of_range::`RTTI Base Class Descriptor at (0,-1,0,64)'
	DD	02H
	DD	00H
	DD	0ffffffffH
	DD	00H
	DD	040H
	DD	FLAT:??_R3out_of_range@std@@8
rdata$r	ENDS
;	COMDAT ??_R2out_of_range@std@@8
rdata$r	SEGMENT
??_R2out_of_range@std@@8 DD FLAT:??_R1A@?0A@EA@out_of_range@std@@8 ; std::out_of_range::`RTTI Base Class Array'
	DD	FLAT:??_R1A@?0A@EA@logic_error@std@@8
	DD	FLAT:??_R1A@?0A@EA@exception@std@@8
rdata$r	ENDS
;	COMDAT ??_R3out_of_range@std@@8
rdata$r	SEGMENT
??_R3out_of_range@std@@8 DD 00H				; std::out_of_range::`RTTI Class Hierarchy Descriptor'
	DD	00H
	DD	03H
	DD	FLAT:??_R2out_of_range@std@@8
rdata$r	ENDS
;	COMDAT ??_R0?AVout_of_range@std@@@8
_DATA	SEGMENT
??_R0?AVout_of_range@std@@@8 DD FLAT:??_7type_info@@6B@	; std::out_of_range `RTTI Type Descriptor'
	DD	00H
	DB	'.?AVout_of_range@std@@', 00H
_DATA	ENDS
;	COMDAT ??_R4out_of_range@std@@6B@
rdata$r	SEGMENT
??_R4out_of_range@std@@6B@ DD 00H			; std::out_of_range::`RTTI Complete Object Locator'
	DD	00H
	DD	00H
	DD	FLAT:??_R0?AVout_of_range@std@@@8
	DD	FLAT:??_R3out_of_range@std@@8
rdata$r	ENDS
;	COMDAT ??_7out_of_range@std@@6B@
CONST	SEGMENT
??_7out_of_range@std@@6B@ DD FLAT:??_R4out_of_range@std@@6B@ ; std::out_of_range::`vftable'
	DD	FLAT:??_Eout_of_range@std@@UAEPAXI@Z
	DD	FLAT:?what@logic_error@std@@UBEPBDXZ
; Function compile flags: /Ogtpy
CONST	ENDS
;	COMDAT ??0out_of_range@std@@QAE@ABV?$basic_string@DU?$char_traits@D@std@@V?$allocator@D@2@@1@@Z
_TEXT	SEGMENT
__Message$ = 8						; size = 4
??0out_of_range@std@@QAE@ABV?$basic_string@DU?$char_traits@D@std@@V?$allocator@D@2@@1@@Z PROC ; std::out_of_range::out_of_range, COMDAT
; _this$ = ecx

; 130  : 		{	// construct from message string

  00000	8b 44 24 04	 mov	 eax, DWORD PTR __Message$[esp-4]
  00004	56		 push	 esi
  00005	50		 push	 eax
  00006	8b f1		 mov	 esi, ecx
  00008	e8 00 00 00 00	 call	 ??0logic_error@std@@QAE@ABV?$basic_string@DU?$char_traits@D@std@@V?$allocator@D@2@@1@@Z ; std::logic_error::logic_error
  0000d	c7 06 00 00 00
	00		 mov	 DWORD PTR [esi], OFFSET ??_7out_of_range@std@@6B@

; 131  : 		}

  00013	8b c6		 mov	 eax, esi
  00015	5e		 pop	 esi
  00016	c2 04 00	 ret	 4
??0out_of_range@std@@QAE@ABV?$basic_string@DU?$char_traits@D@std@@V?$allocator@D@2@@1@@Z ENDP ; std::out_of_range::out_of_range
_TEXT	ENDS
PUBLIC	??1out_of_range@std@@UAE@XZ			; std::out_of_range::~out_of_range
; Function compile flags: /Ogtpy
;	COMDAT ??1out_of_range@std@@UAE@XZ
_TEXT	SEGMENT
??1out_of_range@std@@UAE@XZ PROC			; std::out_of_range::~out_of_range, COMDAT
; _this$ = ecx

; 134  : 		{	// destroy the object

  00000	56		 push	 esi
  00001	8b f1		 mov	 esi, ecx

; 135  : 		}

  00003	c7 06 00 00 00
	00		 mov	 DWORD PTR [esi], OFFSET ??_7logic_error@std@@6B@
  00009	83 7e 24 10	 cmp	 DWORD PTR [esi+36], 16	; 00000010H
  0000d	72 0c		 jb	 SHORT $LN21@out_of_ran
  0000f	8b 46 10	 mov	 eax, DWORD PTR [esi+16]
  00012	50		 push	 eax
  00013	e8 00 00 00 00	 call	 ??3@YAXPAX@Z		; operator delete
  00018	83 c4 04	 add	 esp, 4
$LN21@out_of_ran:
  0001b	33 c0		 xor	 eax, eax
  0001d	c7 46 24 0f 00
	00 00		 mov	 DWORD PTR [esi+36], 15	; 0000000fH
  00024	89 46 20	 mov	 DWORD PTR [esi+32], eax
  00027	88 46 10	 mov	 BYTE PTR [esi+16], al
  0002a	8b ce		 mov	 ecx, esi
  0002c	5e		 pop	 esi
  0002d	e9 00 00 00 00	 jmp	 ??1exception@std@@UAE@XZ ; std::exception::~exception
??1out_of_range@std@@UAE@XZ ENDP			; std::out_of_range::~out_of_range
; Function compile flags: /Ogtpy
_TEXT	ENDS
;	COMDAT ??_Gout_of_range@std@@UAEPAXI@Z
_TEXT	SEGMENT
___flags$ = 8						; size = 4
??_Gout_of_range@std@@UAEPAXI@Z PROC			; std::out_of_range::`scalar deleting destructor', COMDAT
; _this$ = ecx
  00000	56		 push	 esi
  00001	8b f1		 mov	 esi, ecx
  00003	c7 06 00 00 00
	00		 mov	 DWORD PTR [esi], OFFSET ??_7logic_error@std@@6B@
  00009	83 7e 24 10	 cmp	 DWORD PTR [esi+36], 16	; 00000010H
  0000d	72 0c		 jb	 SHORT $LN24@scalar@6
  0000f	8b 46 10	 mov	 eax, DWORD PTR [esi+16]
  00012	50		 push	 eax
  00013	e8 00 00 00 00	 call	 ??3@YAXPAX@Z		; operator delete
  00018	83 c4 04	 add	 esp, 4
$LN24@scalar@6:
  0001b	33 c0		 xor	 eax, eax
  0001d	c7 46 24 0f 00
	00 00		 mov	 DWORD PTR [esi+36], 15	; 0000000fH
  00024	89 46 20	 mov	 DWORD PTR [esi+32], eax
  00027	8b ce		 mov	 ecx, esi
  00029	88 46 10	 mov	 BYTE PTR [esi+16], al
  0002c	e8 00 00 00 00	 call	 ??1exception@std@@UAE@XZ ; std::exception::~exception
  00031	f6 44 24 08 01	 test	 BYTE PTR ___flags$[esp], 1
  00036	74 09		 je	 SHORT $LN34@scalar@6
  00038	56		 push	 esi
  00039	e8 00 00 00 00	 call	 ??3@YAXPAX@Z		; operator delete
  0003e	83 c4 04	 add	 esp, 4
$LN34@scalar@6:
  00041	8b c6		 mov	 eax, esi
  00043	5e		 pop	 esi
  00044	c2 04 00	 ret	 4
??_Gout_of_range@std@@UAEPAXI@Z ENDP			; std::out_of_range::`scalar deleting destructor'
_TEXT	ENDS
PUBLIC	??0?$basic_string@DU?$char_traits@D@std@@V?$allocator@D@2@@std@@QAE@PBD@Z ; std::basic_string<char,std::char_traits<char>,std::allocator<char> >::basic_string<char,std::char_traits<char>,std::allocator<char> >
; Function compile flags: /Ogtpy
; File d:\program files\microsoft visual studio 8\vc\include\xstring
;	COMDAT ??0?$basic_string@DU?$char_traits@D@std@@V?$allocator@D@2@@std@@QAE@PBD@Z
_TEXT	SEGMENT
__Ptr$ = 8						; size = 4
??0?$basic_string@DU?$char_traits@D@std@@V?$allocator@D@2@@std@@QAE@PBD@Z PROC ; std::basic_string<char,std::char_traits<char>,std::allocator<char> >::basic_string<char,std::char_traits<char>,std::allocator<char> >, COMDAT
; _this$ = ecx

; 651  : 		_Tidy();
; 652  : 		assign(_Ptr);

  00000	8b 54 24 04	 mov	 edx, DWORD PTR __Ptr$[esp-4]
  00004	56		 push	 esi
  00005	8b f1		 mov	 esi, ecx
  00007	8b c2		 mov	 eax, edx
  00009	57		 push	 edi
  0000a	c7 46 18 0f 00
	00 00		 mov	 DWORD PTR [esi+24], 15	; 0000000fH
  00011	c7 46 14 00 00
	00 00		 mov	 DWORD PTR [esi+20], 0
  00018	c6 46 04 00	 mov	 BYTE PTR [esi+4], 0
  0001c	8d 78 01	 lea	 edi, DWORD PTR [eax+1]
  0001f	90		 npad	 1
$LL37@basic_stri@2:
  00020	8a 08		 mov	 cl, BYTE PTR [eax]
  00022	83 c0 01	 add	 eax, 1
  00025	84 c9		 test	 cl, cl
  00027	75 f7		 jne	 SHORT $LL37@basic_stri@2
  00029	2b c7		 sub	 eax, edi
  0002b	50		 push	 eax
  0002c	52		 push	 edx
  0002d	8b ce		 mov	 ecx, esi
  0002f	e8 00 00 00 00	 call	 ?assign@?$basic_string@DU?$char_traits@D@std@@V?$allocator@D@2@@std@@QAEAAV12@PBDI@Z ; std::basic_string<char,std::char_traits<char>,std::allocator<char> >::assign
  00034	5f		 pop	 edi

; 653  : 		}

  00035	8b c6		 mov	 eax, esi
  00037	5e		 pop	 esi
  00038	c2 04 00	 ret	 4
??0?$basic_string@DU?$char_traits@D@std@@V?$allocator@D@2@@std@@QAE@PBD@Z ENDP ; std::basic_string<char,std::char_traits<char>,std::allocator<char> >::basic_string<char,std::char_traits<char>,std::allocator<char> >
_TEXT	ENDS
PUBLIC	?destroy@?$allocator@U_Node@?$_Tree_nod@V?$_Tmap_traits@V?$basic_string@DU?$char_traits@D@std@@V?$allocator@D@2@@std@@PAUtagBillItem@CBillClient@@U?$less@V?$basic_string@DU?$char_traits@D@std@@V?$allocator@D@2@@std@@@2@V?$allocator@U?$pair@$$CBV?$basic_string@DU?$char_traits@D@std@@V?$allocator@D@2@@std@@PAUtagBillItem@CBillClient@@@std@@@2@$0A@@std@@@std@@@std@@QAEXPAU_Node@?$_Tree_nod@V?$_Tmap_traits@V?$basic_string@DU?$char_traits@D@std@@V?$allocator@D@2@@std@@PAUtagBillItem@CBillClient@@U?$less@V?$basic_string@DU?$char_traits@D@std@@V?$allocator@D@2@@std@@@2@V?$allocator@U?$pair@$$CBV?$basic_string@DU?$char_traits@D@std@@V?$allocator@D@2@@std@@PAUtagBillItem@CBillClient@@@std@@@2@$0A@@std@@@2@@Z ; std::allocator<std::_Tree_nod<std::_Tmap_traits<std::basic_string<char,std::char_traits<char>,std::allocator<char> >,CBillClient::tagBillItem *,std::less<std::basic_string<char,std::char_traits<char>,std::allocator<char> > >,std::allocator<std::pair<std::basic_string<char,std::char_traits<char>,std::allocator<char> > const ,CBillClient::tagBillItem *> >,0> >::_Node>::destroy
; Function compile flags: /Ogtpy
; File d:\program files\microsoft visual studio 8\vc\include\xmemory
;	COMDAT ?destroy@?$allocator@U_Node@?$_Tree_nod@V?$_Tmap_traits@V?$basic_string@DU?$char_traits@D@std@@V?$allocator@D@2@@std@@PAUtagBillItem@CBillClient@@U?$less@V?$basic_string@DU?$char_traits@D@std@@V?$allocator@D@2@@std@@@2@V?$allocator@U?$pair@$$CBV?$basic_string@DU?$char_traits@D@std@@V?$allocator@D@2@@std@@PAUtagBillItem@CBillClient@@@std@@@2@$0A@@std@@@std@@@std@@QAEXPAU_Node@?$_Tree_nod@V?$_Tmap_traits@V?$basic_string@DU?$char_traits@D@std@@V?$allocator@D@2@@std@@PAUtagBillItem@CBillClient@@U?$less@V?$basic_string@DU?$char_traits@D@std@@V?$allocator@D@2@@std@@@2@V?$allocator@U?$pair@$$CBV?$basic_string@DU?$char_traits@D@std@@V?$allocator@D@2@@std@@PAUtagBillItem@CBillClient@@@std@@@2@$0A@@std@@@2@@Z
_TEXT	SEGMENT
__Ptr$ = 8						; size = 4
?destroy@?$allocator@U_Node@?$_Tree_nod@V?$_Tmap_traits@V?$basic_string@DU?$char_traits@D@std@@V?$allocator@D@2@@std@@PAUtagBillItem@CBillClient@@U?$less@V?$basic_string@DU?$char_traits@D@std@@V?$allocator@D@2@@std@@@2@V?$allocator@U?$pair@$$CBV?$basic_string@DU?$char_traits@D@std@@V?$allocator@D@2@@std@@PAUtagBillItem@CBillClient@@@std@@@2@$0A@@std@@@std@@@std@@QAEXPAU_Node@?$_Tree_nod@V?$_Tmap_traits@V?$basic_string@DU?$char_traits@D@std@@V?$allocator@D@2@@std@@PAUtagBillItem@CBillClient@@U?$less@V?$basic_string@DU?$char_traits@D@std@@V?$allocator@D@2@@std@@@2@V?$allocator@U?$pair@$$CBV?$basic_string@DU?$char_traits@D@std@@V?$allocator@D@2@@std@@PAUtagBillItem@CBillClient@@@std@@@2@$0A@@std@@@2@@Z PROC ; std::allocator<std::_Tree_nod<std::_Tmap_traits<std::basic_string<char,std::char_traits<char>,std::allocator<char> >,CBillClient::tagBillItem *,std::less<std::basic_string<char,std::char_traits<char>,std::allocator<char> > >,std::allocator<std::pair<std::basic_string<char,std::char_traits<char>,std::allocator<char> > const ,CBillClient::tagBillItem *> >,0> >::_Node>::destroy, COMDAT
; _this$ = ecx

; 160  : 		{	// destroy object at _Ptr

  00000	56		 push	 esi

; 161  : 		_Destroy(_Ptr);

  00001	8b 74 24 08	 mov	 esi, DWORD PTR __Ptr$[esp]
  00005	83 7e 24 10	 cmp	 DWORD PTR [esi+36], 16	; 00000010H
  00009	72 0c		 jb	 SHORT $LN28@destroy
  0000b	8b 46 10	 mov	 eax, DWORD PTR [esi+16]
  0000e	50		 push	 eax
  0000f	e8 00 00 00 00	 call	 ??3@YAXPAX@Z		; operator delete
  00014	83 c4 04	 add	 esp, 4
$LN28@destroy:
  00017	33 c0		 xor	 eax, eax
  00019	c7 46 24 0f 00
	00 00		 mov	 DWORD PTR [esi+36], 15	; 0000000fH
  00020	89 46 20	 mov	 DWORD PTR [esi+32], eax
  00023	88 46 10	 mov	 BYTE PTR [esi+16], al
  00026	5e		 pop	 esi

; 162  : 		}

  00027	c2 04 00	 ret	 4
?destroy@?$allocator@U_Node@?$_Tree_nod@V?$_Tmap_traits@V?$basic_string@DU?$char_traits@D@std@@V?$allocator@D@2@@std@@PAUtagBillItem@CBillClient@@U?$less@V?$basic_string@DU?$char_traits@D@std@@V?$allocator@D@2@@std@@@2@V?$allocator@U?$pair@$$CBV?$basic_string@DU?$char_traits@D@std@@V?$allocator@D@2@@std@@PAUtagBillItem@CBillClient@@@std@@@2@$0A@@std@@@std@@@std@@QAEXPAU_Node@?$_Tree_nod@V?$_Tmap_traits@V?$basic_string@DU?$char_traits@D@std@@V?$allocator@D@2@@std@@PAUtagBillItem@CBillClient@@U?$less@V?$basic_string@DU?$char_traits@D@std@@V?$allocator@D@2@@std@@@2@V?$allocator@U?$pair@$$CBV?$basic_string@DU?$char_traits@D@std@@V?$allocator@D@2@@std@@PAUtagBillItem@CBillClient@@@std@@@2@$0A@@std@@@2@@Z ENDP ; std::allocator<std::_Tree_nod<std::_Tmap_traits<std::basic_string<char,std::char_traits<char>,std::allocator<char> >,CBillClient::tagBillItem *,std::less<std::basic_string<char,std::char_traits<char>,std::allocator<char> > >,std::allocator<std::pair<std::basic_string<char,std::char_traits<char>,std::allocator<char> > const ,CBillClient::tagBillItem *> >,0> >::_Node>::destroy
_TEXT	ENDS
PUBLIC	??0_Node@?$_Tree_nod@V?$_Tmap_traits@V?$basic_string@DU?$char_traits@D@std@@V?$allocator@D@2@@std@@PAUtagBillItem@CBillClient@@U?$less@V?$basic_string@DU?$char_traits@D@std@@V?$allocator@D@2@@std@@@2@V?$allocator@U?$pair@$$CBV?$basic_string@DU?$char_traits@D@std@@V?$allocator@D@2@@std@@PAUtagBillItem@CBillClient@@@std@@@2@$0A@@std@@@std@@QAE@PAU012@00ABU?$pair@$$CBV?$basic_string@DU?$char_traits@D@std@@V?$allocator@D@2@@std@@PAUtagBillItem@CBillClient@@@2@D@Z ; std::_Tree_nod<std::_Tmap_traits<std::basic_string<char,std::char_traits<char>,std::allocator<char> >,CBillClient::tagBillItem *,std::less<std::basic_string<char,std::char_traits<char>,std::allocator<char> > >,std::allocator<std::pair<std::basic_string<char,std::char_traits<char>,std::allocator<char> > const ,CBillClient::tagBillItem *> >,0> >::_Node::_Node
; Function compile flags: /Ogtpy
; File d:\program files\microsoft visual studio 8\vc\include\xtree
;	COMDAT ??0_Node@?$_Tree_nod@V?$_Tmap_traits@V?$basic_string@DU?$char_traits@D@std@@V?$allocator@D@2@@std@@PAUtagBillItem@CBillClient@@U?$less@V?$basic_string@DU?$char_traits@D@std@@V?$allocator@D@2@@std@@@2@V?$allocator@U?$pair@$$CBV?$basic_string@DU?$char_traits@D@std@@V?$allocator@D@2@@std@@PAUtagBillItem@CBillClient@@@std@@@2@$0A@@std@@@std@@QAE@PAU012@00ABU?$pair@$$CBV?$basic_string@DU?$char_traits@D@std@@V?$allocator@D@2@@std@@PAUtagBillItem@CBillClient@@@2@D@Z
_TEXT	SEGMENT
__Larg$ = 8						; size = 4
__Parg$ = 12						; size = 4
__Rarg$ = 16						; size = 4
__Val$ = 20						; size = 4
__Carg$ = 24						; size = 1
??0_Node@?$_Tree_nod@V?$_Tmap_traits@V?$basic_string@DU?$char_traits@D@std@@V?$allocator@D@2@@std@@PAUtagBillItem@CBillClient@@U?$less@V?$basic_string@DU?$char_traits@D@std@@V?$allocator@D@2@@std@@@2@V?$allocator@U?$pair@$$CBV?$basic_string@DU?$char_traits@D@std@@V?$allocator@D@2@@std@@PAUtagBillItem@CBillClient@@@std@@@2@$0A@@std@@@std@@QAE@PAU012@00ABU?$pair@$$CBV?$basic_string@DU?$char_traits@D@std@@V?$allocator@D@2@@std@@PAUtagBillItem@CBillClient@@@2@D@Z PROC ; std::_Tree_nod<std::_Tmap_traits<std::basic_string<char,std::char_traits<char>,std::allocator<char> >,CBillClient::tagBillItem *,std::less<std::basic_string<char,std::char_traits<char>,std::allocator<char> > >,std::allocator<std::pair<std::basic_string<char,std::char_traits<char>,std::allocator<char> > const ,CBillClient::tagBillItem *> >,0> >::_Node::_Node, COMDAT
; _this$ = ecx

; 43   : 			{	// construct a node with value

  00000	8b 44 24 04	 mov	 eax, DWORD PTR __Larg$[esp-4]
  00004	8b 54 24 0c	 mov	 edx, DWORD PTR __Rarg$[esp-4]
  00008	55		 push	 ebp
  00009	8b 6c 24 14	 mov	 ebp, DWORD PTR __Val$[esp]
  0000d	56		 push	 esi
  0000e	57		 push	 edi
  0000f	8b f1		 mov	 esi, ecx
  00011	8b 4c 24 14	 mov	 ecx, DWORD PTR __Parg$[esp+8]
  00015	6a ff		 push	 -1
  00017	89 4e 04	 mov	 DWORD PTR [esi+4], ecx
  0001a	8d 7e 0c	 lea	 edi, DWORD PTR [esi+12]
  0001d	89 06		 mov	 DWORD PTR [esi], eax
  0001f	89 56 08	 mov	 DWORD PTR [esi+8], edx
  00022	6a 00		 push	 0
  00024	c7 47 18 0f 00
	00 00		 mov	 DWORD PTR [edi+24], 15	; 0000000fH
  0002b	c7 47 14 00 00
	00 00		 mov	 DWORD PTR [edi+20], 0
  00032	55		 push	 ebp
  00033	8b cf		 mov	 ecx, edi
  00035	c6 47 04 00	 mov	 BYTE PTR [edi+4], 0
  00039	e8 00 00 00 00	 call	 ?assign@?$basic_string@DU?$char_traits@D@std@@V?$allocator@D@2@@std@@QAEAAV12@ABV12@II@Z ; std::basic_string<char,std::char_traits<char>,std::allocator<char> >::assign
  0003e	8b 45 1c	 mov	 eax, DWORD PTR [ebp+28]
  00041	8a 4c 24 20	 mov	 cl, BYTE PTR __Carg$[esp+8]
  00045	89 47 1c	 mov	 DWORD PTR [edi+28], eax
  00048	5f		 pop	 edi
  00049	88 4e 2c	 mov	 BYTE PTR [esi+44], cl
  0004c	c6 46 2d 00	 mov	 BYTE PTR [esi+45], 0

; 44   : 			}

  00050	8b c6		 mov	 eax, esi
  00052	5e		 pop	 esi
  00053	5d		 pop	 ebp
  00054	c2 14 00	 ret	 20			; 00000014H
??0_Node@?$_Tree_nod@V?$_Tmap_traits@V?$basic_string@DU?$char_traits@D@std@@V?$allocator@D@2@@std@@PAUtagBillItem@CBillClient@@U?$less@V?$basic_string@DU?$char_traits@D@std@@V?$allocator@D@2@@std@@@2@V?$allocator@U?$pair@$$CBV?$basic_string@DU?$char_traits@D@std@@V?$allocator@D@2@@std@@PAUtagBillItem@CBillClient@@@std@@@2@$0A@@std@@@std@@QAE@PAU012@00ABU?$pair@$$CBV?$basic_string@DU?$char_traits@D@std@@V?$allocator@D@2@@std@@PAUtagBillItem@CBillClient@@@2@D@Z ENDP ; std::_Tree_nod<std::_Tmap_traits<std::basic_string<char,std::char_traits<char>,std::allocator<char> >,CBillClient::tagBillItem *,std::less<std::basic_string<char,std::char_traits<char>,std::allocator<char> > >,std::allocator<std::pair<std::basic_string<char,std::char_traits<char>,std::allocator<char> > const ,CBillClient::tagBillItem *> >,0> >::_Node::_Node
_TEXT	ENDS
PUBLIC	__TI3?AVout_of_range@std@@
PUBLIC	??_C@_0BM@PAPJHAGI@invalid?5map?1set?$DMT?$DO?5iterator?$AA@ ; `string'
PUBLIC	?erase@?$_Tree@V?$_Tmap_traits@V?$basic_string@DU?$char_traits@D@std@@V?$allocator@D@2@@std@@PAUtagBillItem@CBillClient@@U?$less@V?$basic_string@DU?$char_traits@D@std@@V?$allocator@D@2@@std@@@2@V?$allocator@U?$pair@$$CBV?$basic_string@DU?$char_traits@D@std@@V?$allocator@D@2@@std@@PAUtagBillItem@CBillClient@@@std@@@2@$0A@@std@@@std@@QAE?AViterator@12@V312@@Z ; std::_Tree<std::_Tmap_traits<std::basic_string<char,std::char_traits<char>,std::allocator<char> >,CBillClient::tagBillItem *,std::less<std::basic_string<char,std::char_traits<char>,std::allocator<char> > >,std::allocator<std::pair<std::basic_string<char,std::char_traits<char>,std::allocator<char> > const ,CBillClient::tagBillItem *> >,0> >::erase
PUBLIC	__CTA3?AVout_of_range@std@@
PUBLIC	__CT??_R0?AVout_of_range@std@@@8??0out_of_range@std@@QAE@ABV01@@Z40
PUBLIC	??0out_of_range@std@@QAE@ABV01@@Z		; std::out_of_range::out_of_range
PUBLIC	__CT??_R0?AVlogic_error@std@@@8??0logic_error@std@@QAE@ABV01@@Z40
PUBLIC	??0logic_error@std@@QAE@ABV01@@Z		; std::logic_error::logic_error
;	COMDAT __CT??_R0?AVlogic_error@std@@@8??0logic_error@std@@QAE@ABV01@@Z40
; File d:\program files\microsoft visual studio 8\vc\include\xmemory
xdata$x	SEGMENT
__CT??_R0?AVlogic_error@std@@@8??0logic_error@std@@QAE@ABV01@@Z40 DD 00H
	DD	FLAT:??_R0?AVlogic_error@std@@@8
	DD	00H
	DD	0ffffffffH
	ORG $+4
	DD	028H
	DD	FLAT:??0logic_error@std@@QAE@ABV01@@Z
xdata$x	ENDS
;	COMDAT __CT??_R0?AVout_of_range@std@@@8??0out_of_range@std@@QAE@ABV01@@Z40
xdata$x	SEGMENT
__CT??_R0?AVout_of_range@std@@@8??0out_of_range@std@@QAE@ABV01@@Z40 DD 00H
	DD	FLAT:??_R0?AVout_of_range@std@@@8
	DD	00H
	DD	0ffffffffH
	ORG $+4
	DD	028H
	DD	FLAT:??0out_of_range@std@@QAE@ABV01@@Z
xdata$x	ENDS
;	COMDAT __CTA3?AVout_of_range@std@@
xdata$x	SEGMENT
__CTA3?AVout_of_range@std@@ DD 03H
	DD	FLAT:__CT??_R0?AVout_of_range@std@@@8??0out_of_range@std@@QAE@ABV01@@Z40
	DD	FLAT:__CT??_R0?AVlogic_error@std@@@8??0logic_error@std@@QAE@ABV01@@Z40
	DD	FLAT:__CT??_R0?AVexception@std@@@8??0exception@std@@QAE@ABV01@@Z12
xdata$x	ENDS
;	COMDAT __TI3?AVout_of_range@std@@
xdata$x	SEGMENT
__TI3?AVout_of_range@std@@ DD 00H
	DD	FLAT:??1out_of_range@std@@UAE@XZ
	DD	00H
	DD	FLAT:__CTA3?AVout_of_range@std@@
xdata$x	ENDS
;	COMDAT ??_C@_0BM@PAPJHAGI@invalid?5map?1set?$DMT?$DO?5iterator?$AA@
CONST	SEGMENT
??_C@_0BM@PAPJHAGI@invalid?5map?1set?$DMT?$DO?5iterator?$AA@ DB 'invalid '
	DB	'map/set<T> iterator', 00H			; `string'
CONST	ENDS
;	COMDAT xdata$x
xdata$x	SEGMENT
__unwindtable$?erase@?$_Tree@V?$_Tmap_traits@V?$basic_string@DU?$char_traits@D@std@@V?$allocator@D@2@@std@@PAUtagBillItem@CBillClient@@U?$less@V?$basic_string@DU?$char_traits@D@std@@V?$allocator@D@2@@std@@@2@V?$allocator@U?$pair@$$CBV?$basic_string@DU?$char_traits@D@std@@V?$allocator@D@2@@std@@PAUtagBillItem@CBillClient@@@std@@@2@$0A@@std@@@std@@QAE?AViterator@12@V312@@Z DD 0ffffffffH
	DD	FLAT:__unwindfunclet$?erase@?$_Tree@V?$_Tmap_traits@V?$basic_string@DU?$char_traits@D@std@@V?$allocator@D@2@@std@@PAUtagBillItem@CBillClient@@U?$less@V?$basic_string@DU?$char_traits@D@std@@V?$allocator@D@2@@std@@@2@V?$allocator@U?$pair@$$CBV?$basic_string@DU?$char_traits@D@std@@V?$allocator@D@2@@std@@PAUtagBillItem@CBillClient@@@std@@@2@$0A@@std@@@std@@QAE?AViterator@12@V312@@Z$0
__ehfuncinfo$?erase@?$_Tree@V?$_Tmap_traits@V?$basic_string@DU?$char_traits@D@std@@V?$allocator@D@2@@std@@PAUtagBillItem@CBillClient@@U?$less@V?$basic_string@DU?$char_traits@D@std@@V?$allocator@D@2@@std@@@2@V?$allocator@U?$pair@$$CBV?$basic_string@DU?$char_traits@D@std@@V?$allocator@D@2@@std@@PAUtagBillItem@CBillClient@@@std@@@2@$0A@@std@@@std@@QAE?AViterator@12@V312@@Z DD 019930522H
	DD	01H
	DD	FLAT:__unwindtable$?erase@?$_Tree@V?$_Tmap_traits@V?$basic_string@DU?$char_traits@D@std@@V?$allocator@D@2@@std@@PAUtagBillItem@CBillClient@@U?$less@V?$basic_string@DU?$char_traits@D@std@@V?$allocator@D@2@@std@@@2@V?$allocator@U?$pair@$$CBV?$basic_string@DU?$char_traits@D@std@@V?$allocator@D@2@@std@@PAUtagBillItem@CBillClient@@@std@@@2@$0A@@std@@@std@@QAE?AViterator@12@V312@@Z
	DD	2 DUP(00H)
	DD	2 DUP(00H)
	DD	00H
	DD	01H
; Function compile flags: /Ogtpy
; File d:\program files\microsoft visual studio 8\vc\include\xtree
xdata$x	ENDS
;	COMDAT ?erase@?$_Tree@V?$_Tmap_traits@V?$basic_string@DU?$char_traits@D@std@@V?$allocator@D@2@@std@@PAUtagBillItem@CBillClient@@U?$less@V?$basic_string@DU?$char_traits@D@std@@V?$allocator@D@2@@std@@@2@V?$allocator@U?$pair@$$CBV?$basic_string@DU?$char_traits@D@std@@V?$allocator@D@2@@std@@PAUtagBillItem@CBillClient@@@std@@@2@$0A@@std@@@std@@QAE?AViterator@12@V312@@Z
_TEXT	SEGMENT
_this$ = -84						; size = 4
$T266203 = -80						; size = 28
$T266202 = -52						; size = 40
__$EHRec$ = -12						; size = 12
___$ReturnUdt$ = 8					; size = 4
__Where$ = 12						; size = 8
?erase@?$_Tree@V?$_Tmap_traits@V?$basic_string@DU?$char_traits@D@std@@V?$allocator@D@2@@std@@PAUtagBillItem@CBillClient@@U?$less@V?$basic_string@DU?$char_traits@D@std@@V?$allocator@D@2@@std@@@2@V?$allocator@U?$pair@$$CBV?$basic_string@DU?$char_traits@D@std@@V?$allocator@D@2@@std@@PAUtagBillItem@CBillClient@@@std@@@2@$0A@@std@@@std@@QAE?AViterator@12@V312@@Z PROC ; std::_Tree<std::_Tmap_traits<std::basic_string<char,std::char_traits<char>,std::allocator<char> >,CBillClient::tagBillItem *,std::less<std::basic_string<char,std::char_traits<char>,std::allocator<char> > >,std::allocator<std::pair<std::basic_string<char,std::char_traits<char>,std::allocator<char> > const ,CBillClient::tagBillItem *> >,0> >::erase, COMDAT
; _this$ = ecx

; 747  : 		{	// erase element at _Where

  00000	6a ff		 push	 -1
  00002	68 00 00 00 00	 push	 __ehhandler$?erase@?$_Tree@V?$_Tmap_traits@V?$basic_string@DU?$char_traits@D@std@@V?$allocator@D@2@@std@@PAUtagBillItem@CBillClient@@U?$less@V?$basic_string@DU?$char_traits@D@std@@V?$allocator@D@2@@std@@@2@V?$allocator@U?$pair@$$CBV?$basic_string@DU?$char_traits@D@std@@V?$allocator@D@2@@std@@PAUtagBillItem@CBillClient@@@std@@@2@$0A@@std@@@std@@QAE?AViterator@12@V312@@Z
  00007	64 a1 00 00 00
	00		 mov	 eax, DWORD PTR fs:0
  0000d	50		 push	 eax
  0000e	83 ec 48	 sub	 esp, 72			; 00000048H
  00011	53		 push	 ebx
  00012	55		 push	 ebp
  00013	56		 push	 esi
  00014	57		 push	 edi
  00015	a1 00 00 00 00	 mov	 eax, DWORD PTR ___security_cookie
  0001a	33 c4		 xor	 eax, esp
  0001c	50		 push	 eax
  0001d	8d 44 24 5c	 lea	 eax, DWORD PTR __$EHRec$[esp+104]
  00021	64 a3 00 00 00
	00		 mov	 DWORD PTR fs:0, eax
  00027	8b d9		 mov	 ebx, ecx
  00029	89 5c 24 14	 mov	 DWORD PTR _this$[esp+104], ebx

; 748  : 
; 749  :  #if _HAS_ITERATOR_DEBUGGING
; 750  : 		if (_Where._Mycont != this || _Isnil(_Where._Mynode()))
; 751  : 			_DEBUG_ERROR("map/set erase iterator outside range");
; 752  : 		_Nodeptr _Erasednode = _Where._Mynode();	// node to erase
; 753  : 		++_Where;	// save successor iterator for return
; 754  : 		_Orphan_ptr(*this, _Erasednode);
; 755  : 
; 756  :  #else /* _HAS_ITERATOR_DEBUGGING */
; 757  : 		if (_Isnil(_Where._Mynode()))

  0002d	8b 44 24 74	 mov	 eax, DWORD PTR __Where$[esp+104]
  00031	80 78 2d 00	 cmp	 BYTE PTR [eax+45], 0
  00035	74 4c		 je	 SHORT $LN40@erase@2

; 758  : 			_THROW(out_of_range, "invalid map/set<T> iterator");

  00037	6a 1b		 push	 27			; 0000001bH
  00039	33 f6		 xor	 esi, esi
  0003b	68 00 00 00 00	 push	 OFFSET ??_C@_0BM@PAPJHAGI@invalid?5map?1set?$DMT?$DO?5iterator?$AA@
  00040	8d 4c 24 20	 lea	 ecx, DWORD PTR $T266203[esp+112]
  00044	c7 44 24 38 0f
	00 00 00	 mov	 DWORD PTR $T266203[esp+136], 15 ; 0000000fH
  0004c	89 74 24 34	 mov	 DWORD PTR $T266203[esp+132], esi
  00050	c6 44 24 24 00	 mov	 BYTE PTR $T266203[esp+116], 0
  00055	e8 00 00 00 00	 call	 ?assign@?$basic_string@DU?$char_traits@D@std@@V?$allocator@D@2@@std@@QAEAAV12@PBDI@Z ; std::basic_string<char,std::char_traits<char>,std::allocator<char> >::assign
  0005a	8d 44 24 18	 lea	 eax, DWORD PTR $T266203[esp+104]
  0005e	50		 push	 eax
  0005f	8d 4c 24 38	 lea	 ecx, DWORD PTR $T266202[esp+108]
  00063	89 74 24 68	 mov	 DWORD PTR __$EHRec$[esp+116], esi
  00067	e8 00 00 00 00	 call	 ??0logic_error@std@@QAE@ABV?$basic_string@DU?$char_traits@D@std@@V?$allocator@D@2@@1@@Z ; std::logic_error::logic_error
  0006c	68 00 00 00 00	 push	 OFFSET __TI3?AVout_of_range@std@@
  00071	8d 4c 24 38	 lea	 ecx, DWORD PTR $T266202[esp+108]
  00075	51		 push	 ecx
  00076	c7 44 24 3c 00
	00 00 00	 mov	 DWORD PTR $T266202[esp+112], OFFSET ??_7out_of_range@std@@6B@
  0007e	e8 00 00 00 00	 call	 __CxxThrowException@8
$LN357@erase@2:
$LN40@erase@2:

; 759  : 		_Nodeptr _Erasednode = _Where._Mynode();	// node to erase
; 760  : 		++_Where;	// save successor iterator for return

  00083	8d 4c 24 70	 lea	 ecx, DWORD PTR __Where$[esp+100]
  00087	8b e8		 mov	 ebp, eax
  00089	e8 00 00 00 00	 call	 ?_Inc@const_iterator@?$_Tree@V?$_Tmap_traits@V?$basic_string@DU?$char_traits@D@std@@V?$allocator@D@2@@std@@PAUtagBillItem@CBillClient@@U?$less@V?$basic_string@DU?$char_traits@D@std@@V?$allocator@D@2@@std@@@2@V?$allocator@U?$pair@$$CBV?$basic_string@DU?$char_traits@D@std@@V?$allocator@D@2@@std@@PAUtagBillItem@CBillClient@@@std@@@2@$0A@@std@@@std@@QAEXXZ ; std::_Tree<std::_Tmap_traits<std::basic_string<char,std::char_traits<char>,std::allocator<char> >,CBillClient::tagBillItem *,std::less<std::basic_string<char,std::char_traits<char>,std::allocator<char> > >,std::allocator<std::pair<std::basic_string<char,std::char_traits<char>,std::allocator<char> > const ,CBillClient::tagBillItem *> >,0> >::const_iterator::_Inc

; 761  :  #endif /* _HAS_ITERATOR_DEBUGGING */
; 762  : 
; 763  : 		_Nodeptr _Fixnode;	// the node to recolor as needed
; 764  : 		_Nodeptr _Fixnodeparent;	// parent of _Fixnode (which may be nil)
; 765  : 		_Nodeptr _Pnode = _Erasednode;
; 766  : 
; 767  : 		if (_Isnil(_Left(_Pnode)))

  0008e	8b 45 00	 mov	 eax, DWORD PTR [ebp]
  00091	80 78 2d 00	 cmp	 BYTE PTR [eax+45], 0
  00095	74 05		 je	 SHORT $LN39@erase@2

; 768  : 			_Fixnode = _Right(_Pnode);	// must stitch up right subtree

  00097	8b 7d 08	 mov	 edi, DWORD PTR [ebp+8]
  0009a	eb 18		 jmp	 SHORT $LN352@erase@2
$LN39@erase@2:

; 769  : 		else if (_Isnil(_Right(_Pnode)))

  0009c	8b 55 08	 mov	 edx, DWORD PTR [ebp+8]
  0009f	80 7a 2d 00	 cmp	 BYTE PTR [edx+45], 0
  000a3	74 04		 je	 SHORT $LN37@erase@2

; 770  : 			_Fixnode = _Left(_Pnode);	// must stitch up left subtree

  000a5	8b f8		 mov	 edi, eax

; 771  : 		else

  000a7	eb 0b		 jmp	 SHORT $LN352@erase@2
$LN37@erase@2:

; 772  : 			{	// two subtrees, must lift successor node to replace erased
; 773  : 			_Pnode = _Where._Mynode();	// _Pnode is successor node
; 774  : 			_Fixnode = _Right(_Pnode);	// _Fixnode is its only subtree

  000a9	8b 4c 24 74	 mov	 ecx, DWORD PTR __Where$[esp+104]

; 775  : 			}
; 776  : 
; 777  : 		if (_Pnode == _Erasednode)

  000ad	3b cd		 cmp	 ecx, ebp
  000af	8b 79 08	 mov	 edi, DWORD PTR [ecx+8]
  000b2	75 67		 jne	 SHORT $LN35@erase@2
$LN352@erase@2:

; 778  : 			{	// at most one subtree, relink it
; 779  : 			_Fixnodeparent = _Parent(_Erasednode);
; 780  : 			if (!_Isnil(_Fixnode))

  000b4	80 7f 2d 00	 cmp	 BYTE PTR [edi+45], 0
  000b8	8b 75 04	 mov	 esi, DWORD PTR [ebp+4]
  000bb	75 03		 jne	 SHORT $LN34@erase@2

; 781  : 				_Parent(_Fixnode) = _Fixnodeparent;	// link up

  000bd	89 77 04	 mov	 DWORD PTR [edi+4], esi
$LN34@erase@2:

; 782  : 
; 783  : 			if (_Root() == _Erasednode)

  000c0	8b 43 04	 mov	 eax, DWORD PTR [ebx+4]
  000c3	39 68 04	 cmp	 DWORD PTR [eax+4], ebp
  000c6	75 05		 jne	 SHORT $LN33@erase@2

; 784  : 				_Root() = _Fixnode;	// link down from root

  000c8	89 78 04	 mov	 DWORD PTR [eax+4], edi
  000cb	eb 0b		 jmp	 SHORT $LN30@erase@2
$LN33@erase@2:

; 785  : 			else if (_Left(_Fixnodeparent) == _Erasednode)

  000cd	39 2e		 cmp	 DWORD PTR [esi], ebp
  000cf	75 04		 jne	 SHORT $LN31@erase@2

; 786  : 				_Left(_Fixnodeparent) = _Fixnode;	// link down to left

  000d1	89 3e		 mov	 DWORD PTR [esi], edi

; 787  : 			else

  000d3	eb 03		 jmp	 SHORT $LN30@erase@2
$LN31@erase@2:

; 788  : 				_Right(_Fixnodeparent) = _Fixnode;	// link down to right

  000d5	89 7e 08	 mov	 DWORD PTR [esi+8], edi
$LN30@erase@2:

; 789  : 
; 790  : 			if (_Lmost() == _Erasednode)

  000d8	8b 5b 04	 mov	 ebx, DWORD PTR [ebx+4]
  000db	39 2b		 cmp	 DWORD PTR [ebx], ebp
  000dd	75 15		 jne	 SHORT $LN29@erase@2

; 791  : 				_Lmost() = _Isnil(_Fixnode)
; 792  : 					? _Fixnodeparent	// smallest is parent of erased node
; 793  : 					: _Min(_Fixnode);	// smallest in relinked subtree

  000df	80 7f 2d 00	 cmp	 BYTE PTR [edi+45], 0
  000e3	74 04		 je	 SHORT $LN43@erase@2
  000e5	8b c6		 mov	 eax, esi
  000e7	eb 09		 jmp	 SHORT $LN44@erase@2
$LN43@erase@2:
  000e9	57		 push	 edi
  000ea	e8 00 00 00 00	 call	 ?_Min@?$_Tree@V?$_Tmap_traits@V?$basic_string@DU?$char_traits@D@std@@V?$allocator@D@2@@std@@PAUtagBillItem@CBillClient@@U?$less@V?$basic_string@DU?$char_traits@D@std@@V?$allocator@D@2@@std@@@2@V?$allocator@U?$pair@$$CBV?$basic_string@DU?$char_traits@D@std@@V?$allocator@D@2@@std@@PAUtagBillItem@CBillClient@@@std@@@2@$0A@@std@@@std@@KAPAU_Node@?$_Tree_nod@V?$_Tmap_traits@V?$basic_string@DU?$char_traits@D@std@@V?$allocator@D@2@@std@@PAUtagBillItem@CBillClient@@U?$less@V?$basic_string@DU?$char_traits@D@std@@V?$allocator@D@2@@std@@@2@V?$allocator@U?$pair@$$CBV?$basic_string@DU?$char_traits@D@std@@V?$allocator@D@2@@std@@PAUtagBillItem@CBillClient@@@std@@@2@$0A@@std@@@2@PAU342@@Z ; std::_Tree<std::_Tmap_traits<std::basic_string<char,std::char_traits<char>,std::allocator<char> >,CBillClient::tagBillItem *,std::less<std::basic_string<char,std::char_traits<char>,std::allocator<char> > >,std::allocator<std::pair<std::basic_string<char,std::char_traits<char>,std::allocator<char> > const ,CBillClient::tagBillItem *> >,0> >::_Min
  000ef	83 c4 04	 add	 esp, 4
$LN44@erase@2:
  000f2	89 03		 mov	 DWORD PTR [ebx], eax
$LN29@erase@2:

; 794  : 
; 795  : 			if (_Rmost() == _Erasednode)

  000f4	8b 44 24 14	 mov	 eax, DWORD PTR _this$[esp+104]
  000f8	8b 58 04	 mov	 ebx, DWORD PTR [eax+4]
  000fb	39 6b 08	 cmp	 DWORD PTR [ebx+8], ebp
  000fe	75 73		 jne	 SHORT $LN207@erase@2

; 796  : 				_Rmost() = _Isnil(_Fixnode)
; 797  : 					? _Fixnodeparent	// largest is parent of erased node
; 798  : 					: _Max(_Fixnode);	// largest in relinked subtree

  00100	80 7f 2d 00	 cmp	 BYTE PTR [edi+45], 0
  00104	74 07		 je	 SHORT $LN45@erase@2
  00106	8b c6		 mov	 eax, esi
  00108	89 43 08	 mov	 DWORD PTR [ebx+8], eax

; 799  : 			}
; 800  : 		else

  0010b	eb 66		 jmp	 SHORT $LN207@erase@2
$LN45@erase@2:

; 796  : 				_Rmost() = _Isnil(_Fixnode)
; 797  : 					? _Fixnodeparent	// largest is parent of erased node
; 798  : 					: _Max(_Fixnode);	// largest in relinked subtree

  0010d	57		 push	 edi
  0010e	e8 00 00 00 00	 call	 ?_Max@?$_Tree@V?$_Tmap_traits@V?$basic_string@DU?$char_traits@D@std@@V?$allocator@D@2@@std@@PAUtagBillItem@CBillClient@@U?$less@V?$basic_string@DU?$char_traits@D@std@@V?$allocator@D@2@@std@@@2@V?$allocator@U?$pair@$$CBV?$basic_string@DU?$char_traits@D@std@@V?$allocator@D@2@@std@@PAUtagBillItem@CBillClient@@@std@@@2@$0A@@std@@@std@@KAPAU_Node@?$_Tree_nod@V?$_Tmap_traits@V?$basic_string@DU?$char_traits@D@std@@V?$allocator@D@2@@std@@PAUtagBillItem@CBillClient@@U?$less@V?$basic_string@DU?$char_traits@D@std@@V?$allocator@D@2@@std@@@2@V?$allocator@U?$pair@$$CBV?$basic_string@DU?$char_traits@D@std@@V?$allocator@D@2@@std@@PAUtagBillItem@CBillClient@@@std@@@2@$0A@@std@@@2@PAU342@@Z ; std::_Tree<std::_Tmap_traits<std::basic_string<char,std::char_traits<char>,std::allocator<char> >,CBillClient::tagBillItem *,std::less<std::basic_string<char,std::char_traits<char>,std::allocator<char> > >,std::allocator<std::pair<std::basic_string<char,std::char_traits<char>,std::allocator<char> > const ,CBillClient::tagBillItem *> >,0> >::_Max
  00113	83 c4 04	 add	 esp, 4
  00116	89 43 08	 mov	 DWORD PTR [ebx+8], eax

; 799  : 			}
; 800  : 		else

  00119	eb 58		 jmp	 SHORT $LN207@erase@2
$LN35@erase@2:

; 801  : 			{	// erased has two subtrees, _Pnode is successor to erased
; 802  : 			_Parent(_Left(_Erasednode)) = _Pnode;	// link left up

  0011b	89 48 04	 mov	 DWORD PTR [eax+4], ecx

; 803  : 			_Left(_Pnode) = _Left(_Erasednode);	// link successor down

  0011e	8b 55 00	 mov	 edx, DWORD PTR [ebp]
  00121	89 11		 mov	 DWORD PTR [ecx], edx

; 804  : 
; 805  : 			if (_Pnode == _Right(_Erasednode))

  00123	3b 4d 08	 cmp	 ecx, DWORD PTR [ebp+8]
  00126	75 04		 jne	 SHORT $LN26@erase@2

; 806  : 				_Fixnodeparent = _Pnode;	// successor is next to erased

  00128	8b f1		 mov	 esi, ecx

; 807  : 			else

  0012a	eb 1a		 jmp	 SHORT $LN25@erase@2
$LN26@erase@2:

; 808  : 				{	// successor further down, link in place of erased
; 809  : 				_Fixnodeparent = _Parent(_Pnode);	// parent is successor's
; 810  : 				if (!_Isnil(_Fixnode))

  0012c	80 7f 2d 00	 cmp	 BYTE PTR [edi+45], 0
  00130	8b 71 04	 mov	 esi, DWORD PTR [ecx+4]
  00133	75 03		 jne	 SHORT $LN24@erase@2

; 811  : 					_Parent(_Fixnode) = _Fixnodeparent;	// link fix up

  00135	89 77 04	 mov	 DWORD PTR [edi+4], esi
$LN24@erase@2:

; 812  : 				_Left(_Fixnodeparent) = _Fixnode;	// link fix down

  00138	89 3e		 mov	 DWORD PTR [esi], edi

; 813  : 				_Right(_Pnode) = _Right(_Erasednode);	// link successor down

  0013a	8b 45 08	 mov	 eax, DWORD PTR [ebp+8]
  0013d	89 41 08	 mov	 DWORD PTR [ecx+8], eax

; 814  : 				_Parent(_Right(_Erasednode)) = _Pnode;	// link right up

  00140	8b 55 08	 mov	 edx, DWORD PTR [ebp+8]
  00143	89 4a 04	 mov	 DWORD PTR [edx+4], ecx
$LN25@erase@2:

; 815  : 				}
; 816  : 
; 817  : 			if (_Root() == _Erasednode)

  00146	8b 43 04	 mov	 eax, DWORD PTR [ebx+4]
  00149	39 68 04	 cmp	 DWORD PTR [eax+4], ebp
  0014c	75 05		 jne	 SHORT $LN23@erase@2

; 818  : 				_Root() = _Pnode;	// link down from root

  0014e	89 48 04	 mov	 DWORD PTR [eax+4], ecx
  00151	eb 0e		 jmp	 SHORT $LN20@erase@2
$LN23@erase@2:

; 819  : 			else if (_Left(_Parent(_Erasednode)) == _Erasednode)

  00153	8b 45 04	 mov	 eax, DWORD PTR [ebp+4]
  00156	39 28		 cmp	 DWORD PTR [eax], ebp
  00158	75 04		 jne	 SHORT $LN21@erase@2

; 820  : 				_Left(_Parent(_Erasednode)) = _Pnode;	// link down to left

  0015a	89 08		 mov	 DWORD PTR [eax], ecx

; 821  : 			else

  0015c	eb 03		 jmp	 SHORT $LN20@erase@2
$LN21@erase@2:

; 822  : 				_Right(_Parent(_Erasednode)) = _Pnode;	// link down to right

  0015e	89 48 08	 mov	 DWORD PTR [eax+8], ecx
$LN20@erase@2:

; 823  : 
; 824  : 			_Parent(_Pnode) = _Parent(_Erasednode);	// link successor up

  00161	8b 45 04	 mov	 eax, DWORD PTR [ebp+4]
  00164	89 41 04	 mov	 DWORD PTR [ecx+4], eax

; 825  : 			std::swap(_Color(_Pnode), _Color(_Erasednode));	// recolor it

  00167	8a 55 2c	 mov	 dl, BYTE PTR [ebp+44]
  0016a	8a 41 2c	 mov	 al, BYTE PTR [ecx+44]
  0016d	88 51 2c	 mov	 BYTE PTR [ecx+44], dl
  00170	88 45 2c	 mov	 BYTE PTR [ebp+44], al
$LN207@erase@2:

; 826  : 			}
; 827  : 
; 828  : 		if (_Color(_Erasednode) == _Black)

  00173	b3 01		 mov	 bl, 1
  00175	38 5d 2c	 cmp	 BYTE PTR [ebp+44], bl
  00178	0f 85 01 01 00
	00		 jne	 $LN19@erase@2

; 829  : 			{	// erasing black link, must recolor/rebalance tree
; 830  : 			for (; _Fixnode != _Root() && _Color(_Fixnode) == _Black;
; 831  : 				_Fixnodeparent = _Parent(_Fixnode))

  0017e	8b 4c 24 14	 mov	 ecx, DWORD PTR _this$[esp+104]
  00182	8b 41 04	 mov	 eax, DWORD PTR [ecx+4]
  00185	3b 78 04	 cmp	 edi, DWORD PTR [eax+4]
  00188	0f 84 ee 00 00
	00		 je	 $LN16@erase@2
  0018e	8b ff		 npad	 2
$LL18@erase@2:
  00190	38 5f 2c	 cmp	 BYTE PTR [edi+44], bl
  00193	0f 85 e3 00 00
	00		 jne	 $LN16@erase@2

; 832  : 				if (_Fixnode == _Left(_Fixnodeparent))

  00199	8b 06		 mov	 eax, DWORD PTR [esi]
  0019b	3b f8		 cmp	 edi, eax
  0019d	75 67		 jne	 SHORT $LN15@erase@2

; 833  : 					{	// fixup left subtree
; 834  : 					_Pnode = _Right(_Fixnodeparent);

  0019f	8b 46 08	 mov	 eax, DWORD PTR [esi+8]

; 835  : 					if (_Color(_Pnode) == _Red)

  001a2	80 78 2c 00	 cmp	 BYTE PTR [eax+44], 0
  001a6	75 14		 jne	 SHORT $LN14@erase@2

; 836  : 						{	// rotate red up from right subtree
; 837  : 						_Color(_Pnode) = _Black;

  001a8	88 58 2c	 mov	 BYTE PTR [eax+44], bl

; 838  : 						_Color(_Fixnodeparent) = _Red;
; 839  : 						_Lrotate(_Fixnodeparent);

  001ab	56		 push	 esi
  001ac	c6 46 2c 00	 mov	 BYTE PTR [esi+44], 0
  001b0	e8 00 00 00 00	 call	 ?_Lrotate@?$_Tree@V?$_Tmap_traits@V?$basic_string@DU?$char_traits@D@std@@V?$allocator@D@2@@std@@PAUtagBillItem@CBillClient@@U?$less@V?$basic_string@DU?$char_traits@D@std@@V?$allocator@D@2@@std@@@2@V?$allocator@U?$pair@$$CBV?$basic_string@DU?$char_traits@D@std@@V?$allocator@D@2@@std@@PAUtagBillItem@CBillClient@@@std@@@2@$0A@@std@@@std@@IAEXPAU_Node@?$_Tree_nod@V?$_Tmap_traits@V?$basic_string@DU?$char_traits@D@std@@V?$allocator@D@2@@std@@PAUtagBillItem@CBillClient@@U?$less@V?$basic_string@DU?$char_traits@D@std@@V?$allocator@D@2@@std@@@2@V?$allocator@U?$pair@$$CBV?$basic_string@DU?$char_traits@D@std@@V?$allocator@D@2@@std@@PAUtagBillItem@CBillClient@@@std@@@2@$0A@@std@@@2@@Z ; std::_Tree<std::_Tmap_traits<std::basic_string<char,std::char_traits<char>,std::allocator<char> >,CBillClient::tagBillItem *,std::less<std::basic_string<char,std::char_traits<char>,std::allocator<char> > >,std::allocator<std::pair<std::basic_string<char,std::char_traits<char>,std::allocator<char> > const ,CBillClient::tagBillItem *> >,0> >::_Lrotate

; 840  : 						_Pnode = _Right(_Fixnodeparent);

  001b5	8b 46 08	 mov	 eax, DWORD PTR [esi+8]
  001b8	8b 4c 24 14	 mov	 ecx, DWORD PTR _this$[esp+104]
$LN14@erase@2:

; 841  : 						}
; 842  : 
; 843  : 					if (_Isnil(_Pnode))

  001bc	80 78 2d 00	 cmp	 BYTE PTR [eax+45], 0

; 844  : 						_Fixnode = _Fixnodeparent;	// shouldn't happen
; 845  : 					else if (_Color(_Left(_Pnode)) == _Black

  001c0	75 76		 jne	 SHORT $LN355@erase@2

; 846  : 						&& _Color(_Right(_Pnode)) == _Black)

  001c2	8b 10		 mov	 edx, DWORD PTR [eax]
  001c4	38 5a 2c	 cmp	 BYTE PTR [edx+44], bl
  001c7	75 08		 jne	 SHORT $LN11@erase@2
  001c9	8b 50 08	 mov	 edx, DWORD PTR [eax+8]
  001cc	38 5a 2c	 cmp	 BYTE PTR [edx+44], bl
  001cf	74 63		 je	 SHORT $LN356@erase@2
$LN11@erase@2:

; 847  : 						{	// redden right subtree with black children
; 848  : 						_Color(_Pnode) = _Red;
; 849  : 						_Fixnode = _Fixnodeparent;
; 850  : 						}
; 851  : 					else
; 852  : 						{	// must rearrange right subtree
; 853  : 						if (_Color(_Right(_Pnode)) == _Black)

  001d1	8b 50 08	 mov	 edx, DWORD PTR [eax+8]
  001d4	38 5a 2c	 cmp	 BYTE PTR [edx+44], bl
  001d7	75 16		 jne	 SHORT $LN9@erase@2

; 854  : 							{	// rotate red up from left sub-subtree
; 855  : 							_Color(_Left(_Pnode)) = _Black;

  001d9	8b 10		 mov	 edx, DWORD PTR [eax]
  001db	88 5a 2c	 mov	 BYTE PTR [edx+44], bl

; 856  : 							_Color(_Pnode) = _Red;
; 857  : 							_Rrotate(_Pnode);

  001de	50		 push	 eax
  001df	c6 40 2c 00	 mov	 BYTE PTR [eax+44], 0
  001e3	e8 00 00 00 00	 call	 ?_Rrotate@?$_Tree@V?$_Tmap_traits@V?$basic_string@DU?$char_traits@D@std@@V?$allocator@D@2@@std@@PAUtagBillItem@CBillClient@@U?$less@V?$basic_string@DU?$char_traits@D@std@@V?$allocator@D@2@@std@@@2@V?$allocator@U?$pair@$$CBV?$basic_string@DU?$char_traits@D@std@@V?$allocator@D@2@@std@@PAUtagBillItem@CBillClient@@@std@@@2@$0A@@std@@@std@@IAEXPAU_Node@?$_Tree_nod@V?$_Tmap_traits@V?$basic_string@DU?$char_traits@D@std@@V?$allocator@D@2@@std@@PAUtagBillItem@CBillClient@@U?$less@V?$basic_string@DU?$char_traits@D@std@@V?$allocator@D@2@@std@@@2@V?$allocator@U?$pair@$$CBV?$basic_string@DU?$char_traits@D@std@@V?$allocator@D@2@@std@@PAUtagBillItem@CBillClient@@@std@@@2@$0A@@std@@@2@@Z ; std::_Tree<std::_Tmap_traits<std::basic_string<char,std::char_traits<char>,std::allocator<char> >,CBillClient::tagBillItem *,std::less<std::basic_string<char,std::char_traits<char>,std::allocator<char> > >,std::allocator<std::pair<std::basic_string<char,std::char_traits<char>,std::allocator<char> > const ,CBillClient::tagBillItem *> >,0> >::_Rrotate

; 858  : 							_Pnode = _Right(_Fixnodeparent);

  001e8	8b 46 08	 mov	 eax, DWORD PTR [esi+8]
  001eb	8b 4c 24 14	 mov	 ecx, DWORD PTR _this$[esp+104]
$LN9@erase@2:

; 859  : 							}
; 860  : 
; 861  : 						_Color(_Pnode) = _Color(_Fixnodeparent);

  001ef	8a 56 2c	 mov	 dl, BYTE PTR [esi+44]
  001f2	88 50 2c	 mov	 BYTE PTR [eax+44], dl

; 862  : 						_Color(_Fixnodeparent) = _Black;

  001f5	88 5e 2c	 mov	 BYTE PTR [esi+44], bl

; 863  : 						_Color(_Right(_Pnode)) = _Black;

  001f8	8b 40 08	 mov	 eax, DWORD PTR [eax+8]

; 864  : 						_Lrotate(_Fixnodeparent);

  001fb	56		 push	 esi
  001fc	88 58 2c	 mov	 BYTE PTR [eax+44], bl
  001ff	e8 00 00 00 00	 call	 ?_Lrotate@?$_Tree@V?$_Tmap_traits@V?$basic_string@DU?$char_traits@D@std@@V?$allocator@D@2@@std@@PAUtagBillItem@CBillClient@@U?$less@V?$basic_string@DU?$char_traits@D@std@@V?$allocator@D@2@@std@@@2@V?$allocator@U?$pair@$$CBV?$basic_string@DU?$char_traits@D@std@@V?$allocator@D@2@@std@@PAUtagBillItem@CBillClient@@@std@@@2@$0A@@std@@@std@@IAEXPAU_Node@?$_Tree_nod@V?$_Tmap_traits@V?$basic_string@DU?$char_traits@D@std@@V?$allocator@D@2@@std@@PAUtagBillItem@CBillClient@@U?$less@V?$basic_string@DU?$char_traits@D@std@@V?$allocator@D@2@@std@@@2@V?$allocator@U?$pair@$$CBV?$basic_string@DU?$char_traits@D@std@@V?$allocator@D@2@@std@@PAUtagBillItem@CBillClient@@@std@@@2@$0A@@std@@@2@@Z ; std::_Tree<std::_Tmap_traits<std::basic_string<char,std::char_traits<char>,std::allocator<char> >,CBillClient::tagBillItem *,std::less<std::basic_string<char,std::char_traits<char>,std::allocator<char> > >,std::allocator<std::pair<std::basic_string<char,std::char_traits<char>,std::allocator<char> > const ,CBillClient::tagBillItem *> >,0> >::_Lrotate

; 865  : 						break;	// tree now recolored/rebalanced

  00204	eb 76		 jmp	 SHORT $LN16@erase@2
$LN15@erase@2:

; 866  : 						}
; 867  : 					}
; 868  : 				else
; 869  : 					{	// fixup right subtree
; 870  : 					_Pnode = _Left(_Fixnodeparent);
; 871  : 					if (_Color(_Pnode) == _Red)

  00206	80 78 2c 00	 cmp	 BYTE PTR [eax+44], 0
  0020a	75 13		 jne	 SHORT $LN7@erase@2

; 872  : 						{	// rotate red up from left subtree
; 873  : 						_Color(_Pnode) = _Black;

  0020c	88 58 2c	 mov	 BYTE PTR [eax+44], bl

; 874  : 						_Color(_Fixnodeparent) = _Red;
; 875  : 						_Rrotate(_Fixnodeparent);

  0020f	56		 push	 esi
  00210	c6 46 2c 00	 mov	 BYTE PTR [esi+44], 0
  00214	e8 00 00 00 00	 call	 ?_Rrotate@?$_Tree@V?$_Tmap_traits@V?$basic_string@DU?$char_traits@D@std@@V?$allocator@D@2@@std@@PAUtagBillItem@CBillClient@@U?$less@V?$basic_string@DU?$char_traits@D@std@@V?$allocator@D@2@@std@@@2@V?$allocator@U?$pair@$$CBV?$basic_string@DU?$char_traits@D@std@@V?$allocator@D@2@@std@@PAUtagBillItem@CBillClient@@@std@@@2@$0A@@std@@@std@@IAEXPAU_Node@?$_Tree_nod@V?$_Tmap_traits@V?$basic_string@DU?$char_traits@D@std@@V?$allocator@D@2@@std@@PAUtagBillItem@CBillClient@@U?$less@V?$basic_string@DU?$char_traits@D@std@@V?$allocator@D@2@@std@@@2@V?$allocator@U?$pair@$$CBV?$basic_string@DU?$char_traits@D@std@@V?$allocator@D@2@@std@@PAUtagBillItem@CBillClient@@@std@@@2@$0A@@std@@@2@@Z ; std::_Tree<std::_Tmap_traits<std::basic_string<char,std::char_traits<char>,std::allocator<char> >,CBillClient::tagBillItem *,std::less<std::basic_string<char,std::char_traits<char>,std::allocator<char> > >,std::allocator<std::pair<std::basic_string<char,std::char_traits<char>,std::allocator<char> > const ,CBillClient::tagBillItem *> >,0> >::_Rrotate

; 876  : 						_Pnode = _Left(_Fixnodeparent);

  00219	8b 06		 mov	 eax, DWORD PTR [esi]
  0021b	8b 4c 24 14	 mov	 ecx, DWORD PTR _this$[esp+104]
$LN7@erase@2:

; 877  : 						}
; 878  : 					if (_Isnil(_Pnode))

  0021f	80 78 2d 00	 cmp	 BYTE PTR [eax+45], 0

; 879  : 						_Fixnode = _Fixnodeparent;	// shouldn't happen
; 880  : 					else if (_Color(_Right(_Pnode)) == _Black

  00223	75 13		 jne	 SHORT $LN355@erase@2

; 881  : 						&& _Color(_Left(_Pnode)) == _Black)

  00225	8b 50 08	 mov	 edx, DWORD PTR [eax+8]
  00228	38 5a 2c	 cmp	 BYTE PTR [edx+44], bl
  0022b	75 1e		 jne	 SHORT $LN4@erase@2
  0022d	8b 10		 mov	 edx, DWORD PTR [eax]
  0022f	38 5a 2c	 cmp	 BYTE PTR [edx+44], bl
  00232	75 17		 jne	 SHORT $LN4@erase@2
$LN356@erase@2:

; 882  : 						{	// redden left subtree with black children
; 883  : 						_Color(_Pnode) = _Red;

  00234	c6 40 2c 00	 mov	 BYTE PTR [eax+44], 0
$LN355@erase@2:

; 829  : 			{	// erasing black link, must recolor/rebalance tree
; 830  : 			for (; _Fixnode != _Root() && _Color(_Fixnode) == _Black;
; 831  : 				_Fixnodeparent = _Parent(_Fixnode))

  00238	8b 41 04	 mov	 eax, DWORD PTR [ecx+4]

; 884  : 						_Fixnode = _Fixnodeparent;

  0023b	8b fe		 mov	 edi, esi
  0023d	3b 78 04	 cmp	 edi, DWORD PTR [eax+4]
  00240	8b 76 04	 mov	 esi, DWORD PTR [esi+4]
  00243	0f 85 47 ff ff
	ff		 jne	 $LL18@erase@2

; 829  : 			{	// erasing black link, must recolor/rebalance tree
; 830  : 			for (; _Fixnode != _Root() && _Color(_Fixnode) == _Black;
; 831  : 				_Fixnodeparent = _Parent(_Fixnode))

  00249	eb 31		 jmp	 SHORT $LN16@erase@2
$LN4@erase@2:

; 885  : 						}
; 886  : 					else
; 887  : 						{	// must rearrange left subtree
; 888  : 						if (_Color(_Left(_Pnode)) == _Black)

  0024b	8b 10		 mov	 edx, DWORD PTR [eax]
  0024d	38 5a 2c	 cmp	 BYTE PTR [edx+44], bl
  00250	75 16		 jne	 SHORT $LN2@erase@2

; 889  : 							{	// rotate red up from right sub-subtree
; 890  : 							_Color(_Right(_Pnode)) = _Black;

  00252	8b 50 08	 mov	 edx, DWORD PTR [eax+8]
  00255	88 5a 2c	 mov	 BYTE PTR [edx+44], bl

; 891  : 							_Color(_Pnode) = _Red;
; 892  : 							_Lrotate(_Pnode);

  00258	50		 push	 eax
  00259	c6 40 2c 00	 mov	 BYTE PTR [eax+44], 0
  0025d	e8 00 00 00 00	 call	 ?_Lrotate@?$_Tree@V?$_Tmap_traits@V?$basic_string@DU?$char_traits@D@std@@V?$allocator@D@2@@std@@PAUtagBillItem@CBillClient@@U?$less@V?$basic_string@DU?$char_traits@D@std@@V?$allocator@D@2@@std@@@2@V?$allocator@U?$pair@$$CBV?$basic_string@DU?$char_traits@D@std@@V?$allocator@D@2@@std@@PAUtagBillItem@CBillClient@@@std@@@2@$0A@@std@@@std@@IAEXPAU_Node@?$_Tree_nod@V?$_Tmap_traits@V?$basic_string@DU?$char_traits@D@std@@V?$allocator@D@2@@std@@PAUtagBillItem@CBillClient@@U?$less@V?$basic_string@DU?$char_traits@D@std@@V?$allocator@D@2@@std@@@2@V?$allocator@U?$pair@$$CBV?$basic_string@DU?$char_traits@D@std@@V?$allocator@D@2@@std@@PAUtagBillItem@CBillClient@@@std@@@2@$0A@@std@@@2@@Z ; std::_Tree<std::_Tmap_traits<std::basic_string<char,std::char_traits<char>,std::allocator<char> >,CBillClient::tagBillItem *,std::less<std::basic_string<char,std::char_traits<char>,std::allocator<char> > >,std::allocator<std::pair<std::basic_string<char,std::char_traits<char>,std::allocator<char> > const ,CBillClient::tagBillItem *> >,0> >::_Lrotate

; 893  : 							_Pnode = _Left(_Fixnodeparent);

  00262	8b 06		 mov	 eax, DWORD PTR [esi]
  00264	8b 4c 24 14	 mov	 ecx, DWORD PTR _this$[esp+104]
$LN2@erase@2:

; 894  : 							}
; 895  : 
; 896  : 						_Color(_Pnode) = _Color(_Fixnodeparent);

  00268	8a 56 2c	 mov	 dl, BYTE PTR [esi+44]
  0026b	88 50 2c	 mov	 BYTE PTR [eax+44], dl

; 897  : 						_Color(_Fixnodeparent) = _Black;

  0026e	88 5e 2c	 mov	 BYTE PTR [esi+44], bl

; 898  : 						_Color(_Left(_Pnode)) = _Black;

  00271	8b 00		 mov	 eax, DWORD PTR [eax]

; 899  : 						_Rrotate(_Fixnodeparent);

  00273	56		 push	 esi
  00274	88 58 2c	 mov	 BYTE PTR [eax+44], bl
  00277	e8 00 00 00 00	 call	 ?_Rrotate@?$_Tree@V?$_Tmap_traits@V?$basic_string@DU?$char_traits@D@std@@V?$allocator@D@2@@std@@PAUtagBillItem@CBillClient@@U?$less@V?$basic_string@DU?$char_traits@D@std@@V?$allocator@D@2@@std@@@2@V?$allocator@U?$pair@$$CBV?$basic_string@DU?$char_traits@D@std@@V?$allocator@D@2@@std@@PAUtagBillItem@CBillClient@@@std@@@2@$0A@@std@@@std@@IAEXPAU_Node@?$_Tree_nod@V?$_Tmap_traits@V?$basic_string@DU?$char_traits@D@std@@V?$allocator@D@2@@std@@PAUtagBillItem@CBillClient@@U?$less@V?$basic_string@DU?$char_traits@D@std@@V?$allocator@D@2@@std@@@2@V?$allocator@U?$pair@$$CBV?$basic_string@DU?$char_traits@D@std@@V?$allocator@D@2@@std@@PAUtagBillItem@CBillClient@@@std@@@2@$0A@@std@@@2@@Z ; std::_Tree<std::_Tmap_traits<std::basic_string<char,std::char_traits<char>,std::allocator<char> >,CBillClient::tagBillItem *,std::less<std::basic_string<char,std::char_traits<char>,std::allocator<char> > >,std::allocator<std::pair<std::basic_string<char,std::char_traits<char>,std::allocator<char> > const ,CBillClient::tagBillItem *> >,0> >::_Rrotate
$LN16@erase@2:

; 900  : 						break;	// tree now recolored/rebalanced
; 901  : 						}
; 902  : 					}
; 903  : 
; 904  : 			_Color(_Fixnode) = _Black;	// ensure stopping node is black

  0027c	88 5f 2c	 mov	 BYTE PTR [edi+44], bl
$LN19@erase@2:

; 905  : 			}
; 906  : 
; 907  : 		this->_Alnod.destroy(_Erasednode);	// destroy, free erased node

  0027f	83 7d 24 10	 cmp	 DWORD PTR [ebp+36], 16	; 00000010H
  00283	72 0c		 jb	 SHORT $LN338@erase@2
  00285	8b 4d 10	 mov	 ecx, DWORD PTR [ebp+16]
  00288	51		 push	 ecx
  00289	e8 00 00 00 00	 call	 ??3@YAXPAX@Z		; operator delete
  0028e	83 c4 04	 add	 esp, 4
$LN338@erase@2:
  00291	c7 45 24 0f 00
	00 00		 mov	 DWORD PTR [ebp+36], 15	; 0000000fH
  00298	c7 45 20 00 00
	00 00		 mov	 DWORD PTR [ebp+32], 0

; 908  : 		this->_Alnod.deallocate(_Erasednode, 1);

  0029f	55		 push	 ebp
  002a0	c6 45 10 00	 mov	 BYTE PTR [ebp+16], 0
  002a4	e8 00 00 00 00	 call	 ??3@YAXPAX@Z		; operator delete

; 909  : 
; 910  : 		if (0 < _Mysize)

  002a9	8b 4c 24 18	 mov	 ecx, DWORD PTR _this$[esp+108]
  002ad	8b 41 08	 mov	 eax, DWORD PTR [ecx+8]
  002b0	83 c4 04	 add	 esp, 4
  002b3	85 c0		 test	 eax, eax
  002b5	76 06		 jbe	 SHORT $LN1@erase@2

; 911  : 			--_Mysize;

  002b7	83 c0 ff	 add	 eax, -1
  002ba	89 41 08	 mov	 DWORD PTR [ecx+8], eax
$LN1@erase@2:

; 912  : 
; 913  : 		return (_Where);	// return successor iterator

  002bd	8b 44 24 6c	 mov	 eax, DWORD PTR ___$ReturnUdt$[esp+100]
  002c1	8b 54 24 70	 mov	 edx, DWORD PTR __Where$[esp+100]
  002c5	8b 4c 24 74	 mov	 ecx, DWORD PTR __Where$[esp+104]
  002c9	89 10		 mov	 DWORD PTR [eax], edx
  002cb	89 48 04	 mov	 DWORD PTR [eax+4], ecx

; 914  : 		}

  002ce	8b 4c 24 5c	 mov	 ecx, DWORD PTR __$EHRec$[esp+104]
  002d2	64 89 0d 00 00
	00 00		 mov	 DWORD PTR fs:0, ecx
  002d9	59		 pop	 ecx
  002da	5f		 pop	 edi
  002db	5e		 pop	 esi
  002dc	5d		 pop	 ebp
  002dd	5b		 pop	 ebx
  002de	83 c4 54	 add	 esp, 84			; 00000054H
  002e1	c2 0c 00	 ret	 12			; 0000000cH
$LN354@erase@2:
_TEXT	ENDS
;	COMDAT text$x
text$x	SEGMENT
__unwindfunclet$?erase@?$_Tree@V?$_Tmap_traits@V?$basic_string@DU?$char_traits@D@std@@V?$allocator@D@2@@std@@PAUtagBillItem@CBillClient@@U?$less@V?$basic_string@DU?$char_traits@D@std@@V?$allocator@D@2@@std@@@2@V?$allocator@U?$pair@$$CBV?$basic_string@DU?$char_traits@D@std@@V?$allocator@D@2@@std@@PAUtagBillItem@CBillClient@@@std@@@2@$0A@@std@@@std@@QAE?AViterator@12@V312@@Z$0:
  00000	8d 4d b0	 lea	 ecx, DWORD PTR $T266203[ebp]
  00003	e9 00 00 00 00	 jmp	 ??1?$basic_string@DU?$char_traits@D@std@@V?$allocator@D@2@@std@@QAE@XZ ; std::basic_string<char,std::char_traits<char>,std::allocator<char> >::~basic_string<char,std::char_traits<char>,std::allocator<char> >
__ehhandler$?erase@?$_Tree@V?$_Tmap_traits@V?$basic_string@DU?$char_traits@D@std@@V?$allocator@D@2@@std@@PAUtagBillItem@CBillClient@@U?$less@V?$basic_string@DU?$char_traits@D@std@@V?$allocator@D@2@@std@@@2@V?$allocator@U?$pair@$$CBV?$basic_string@DU?$char_traits@D@std@@V?$allocator@D@2@@std@@PAUtagBillItem@CBillClient@@@std@@@2@$0A@@std@@@std@@QAE?AViterator@12@V312@@Z:
  00008	8b 54 24 08	 mov	 edx, DWORD PTR [esp+8]
  0000c	8d 42 a8	 lea	 eax, DWORD PTR [edx-88]
  0000f	8b 4a a4	 mov	 ecx, DWORD PTR [edx-92]
  00012	33 c8		 xor	 ecx, eax
  00014	e8 00 00 00 00	 call	 @__security_check_cookie@4
  00019	b8 00 00 00 00	 mov	 eax, OFFSET __ehfuncinfo$?erase@?$_Tree@V?$_Tmap_traits@V?$basic_string@DU?$char_traits@D@std@@V?$allocator@D@2@@std@@PAUtagBillItem@CBillClient@@U?$less@V?$basic_string@DU?$char_traits@D@std@@V?$allocator@D@2@@std@@@2@V?$allocator@U?$pair@$$CBV?$basic_string@DU?$char_traits@D@std@@V?$allocator@D@2@@std@@PAUtagBillItem@CBillClient@@@std@@@2@$0A@@std@@@std@@QAE?AViterator@12@V312@@Z
  0001e	e9 00 00 00 00	 jmp	 ___CxxFrameHandler3
text$x	ENDS
?erase@?$_Tree@V?$_Tmap_traits@V?$basic_string@DU?$char_traits@D@std@@V?$allocator@D@2@@std@@PAUtagBillItem@CBillClient@@U?$less@V?$basic_string@DU?$char_traits@D@std@@V?$allocator@D@2@@std@@@2@V?$allocator@U?$pair@$$CBV?$basic_string@DU?$char_traits@D@std@@V?$allocator@D@2@@std@@PAUtagBillItem@CBillClient@@@std@@@2@$0A@@std@@@std@@QAE?AViterator@12@V312@@Z ENDP ; std::_Tree<std::_Tmap_traits<std::basic_string<char,std::char_traits<char>,std::allocator<char> >,CBillClient::tagBillItem *,std::less<std::basic_string<char,std::char_traits<char>,std::allocator<char> > >,std::allocator<std::pair<std::basic_string<char,std::char_traits<char>,std::allocator<char> > const ,CBillClient::tagBillItem *> >,0> >::erase
;	COMDAT xdata$x
xdata$x	SEGMENT
__unwindtable$??0logic_error@std@@QAE@ABV01@@Z DD 0ffffffffH
	DD	FLAT:__unwindfunclet$??0logic_error@std@@QAE@ABV01@@Z$0
__ehfuncinfo$??0logic_error@std@@QAE@ABV01@@Z DD 019930522H
	DD	01H
	DD	FLAT:__unwindtable$??0logic_error@std@@QAE@ABV01@@Z
	DD	2 DUP(00H)
	DD	2 DUP(00H)
	DD	00H
	DD	01H
; Function compile flags: /Ogtpy
xdata$x	ENDS
;	COMDAT ??0logic_error@std@@QAE@ABV01@@Z
_TEXT	SEGMENT
_this$ = -16						; size = 4
__$EHRec$ = -12						; size = 12
___that$ = 8						; size = 4
??0logic_error@std@@QAE@ABV01@@Z PROC			; std::logic_error::logic_error, COMDAT
; _this$ = ecx
  00000	6a ff		 push	 -1
  00002	68 00 00 00 00	 push	 __ehhandler$??0logic_error@std@@QAE@ABV01@@Z
  00007	64 a1 00 00 00
	00		 mov	 eax, DWORD PTR fs:0
  0000d	50		 push	 eax
  0000e	51		 push	 ecx
  0000f	56		 push	 esi
  00010	57		 push	 edi
  00011	a1 00 00 00 00	 mov	 eax, DWORD PTR ___security_cookie
  00016	33 c4		 xor	 eax, esp
  00018	50		 push	 eax
  00019	8d 44 24 10	 lea	 eax, DWORD PTR __$EHRec$[esp+28]
  0001d	64 a3 00 00 00
	00		 mov	 DWORD PTR fs:0, eax
  00023	8b f1		 mov	 esi, ecx
  00025	89 74 24 0c	 mov	 DWORD PTR _this$[esp+28], esi
  00029	8b 7c 24 20	 mov	 edi, DWORD PTR ___that$[esp+24]
  0002d	57		 push	 edi
  0002e	e8 00 00 00 00	 call	 ??0exception@std@@QAE@ABV01@@Z ; std::exception::exception
  00033	33 d2		 xor	 edx, edx
  00035	6a ff		 push	 -1
  00037	8d 4e 0c	 lea	 ecx, DWORD PTR [esi+12]
  0003a	c7 06 00 00 00
	00		 mov	 DWORD PTR [esi], OFFSET ??_7logic_error@std@@6B@
  00040	8d 47 0c	 lea	 eax, DWORD PTR [edi+12]
  00043	52		 push	 edx
  00044	c7 41 18 0f 00
	00 00		 mov	 DWORD PTR [ecx+24], 15	; 0000000fH
  0004b	89 51 14	 mov	 DWORD PTR [ecx+20], edx
  0004e	50		 push	 eax
  0004f	89 54 24 24	 mov	 DWORD PTR __$EHRec$[esp+48], edx
  00053	88 51 04	 mov	 BYTE PTR [ecx+4], dl
  00056	e8 00 00 00 00	 call	 ?assign@?$basic_string@DU?$char_traits@D@std@@V?$allocator@D@2@@std@@QAEAAV12@ABV12@II@Z ; std::basic_string<char,std::char_traits<char>,std::allocator<char> >::assign
  0005b	8b c6		 mov	 eax, esi
  0005d	8b 4c 24 10	 mov	 ecx, DWORD PTR __$EHRec$[esp+28]
  00061	64 89 0d 00 00
	00 00		 mov	 DWORD PTR fs:0, ecx
  00068	59		 pop	 ecx
  00069	5f		 pop	 edi
  0006a	5e		 pop	 esi
  0006b	83 c4 10	 add	 esp, 16			; 00000010H
  0006e	c2 04 00	 ret	 4
_TEXT	ENDS
;	COMDAT text$x
text$x	SEGMENT
__unwindfunclet$??0logic_error@std@@QAE@ABV01@@Z$0:
  00000	8b 4d f0	 mov	 ecx, DWORD PTR _this$[ebp]
  00003	e9 00 00 00 00	 jmp	 ??1exception@std@@UAE@XZ ; std::exception::~exception
__ehhandler$??0logic_error@std@@QAE@ABV01@@Z:
  00008	8b 54 24 08	 mov	 edx, DWORD PTR [esp+8]
  0000c	8d 42 f4	 lea	 eax, DWORD PTR [edx-12]
  0000f	8b 4a f0	 mov	 ecx, DWORD PTR [edx-16]
  00012	33 c8		 xor	 ecx, eax
  00014	e8 00 00 00 00	 call	 @__security_check_cookie@4
  00019	b8 00 00 00 00	 mov	 eax, OFFSET __ehfuncinfo$??0logic_error@std@@QAE@ABV01@@Z
  0001e	e9 00 00 00 00	 jmp	 ___CxxFrameHandler3
text$x	ENDS
??0logic_error@std@@QAE@ABV01@@Z ENDP			; std::logic_error::logic_error
; Function compile flags: /Ogtpy
;	COMDAT ??0out_of_range@std@@QAE@ABV01@@Z
_TEXT	SEGMENT
___that$ = 8						; size = 4
??0out_of_range@std@@QAE@ABV01@@Z PROC			; std::out_of_range::out_of_range, COMDAT
; _this$ = ecx
  00000	8b 44 24 04	 mov	 eax, DWORD PTR ___that$[esp-4]
  00004	56		 push	 esi
  00005	50		 push	 eax
  00006	8b f1		 mov	 esi, ecx
  00008	e8 00 00 00 00	 call	 ??0logic_error@std@@QAE@ABV01@@Z
  0000d	c7 06 00 00 00
	00		 mov	 DWORD PTR [esi], OFFSET ??_7out_of_range@std@@6B@
  00013	8b c6		 mov	 eax, esi
  00015	5e		 pop	 esi
  00016	c2 04 00	 ret	 4
??0out_of_range@std@@QAE@ABV01@@Z ENDP			; std::out_of_range::out_of_range
_TEXT	ENDS
PUBLIC	?_Erase@?$_Tree@V?$_Tmap_traits@V?$basic_string@DU?$char_traits@D@std@@V?$allocator@D@2@@std@@PAUtagBillItem@CBillClient@@U?$less@V?$basic_string@DU?$char_traits@D@std@@V?$allocator@D@2@@std@@@2@V?$allocator@U?$pair@$$CBV?$basic_string@DU?$char_traits@D@std@@V?$allocator@D@2@@std@@PAUtagBillItem@CBillClient@@@std@@@2@$0A@@std@@@std@@IAEXPAU_Node@?$_Tree_nod@V?$_Tmap_traits@V?$basic_string@DU?$char_traits@D@std@@V?$allocator@D@2@@std@@PAUtagBillItem@CBillClient@@U?$less@V?$basic_string@DU?$char_traits@D@std@@V?$allocator@D@2@@std@@@2@V?$allocator@U?$pair@$$CBV?$basic_string@DU?$char_traits@D@std@@V?$allocator@D@2@@std@@PAUtagBillItem@CBillClient@@@std@@@2@$0A@@std@@@2@@Z ; std::_Tree<std::_Tmap_traits<std::basic_string<char,std::char_traits<char>,std::allocator<char> >,CBillClient::tagBillItem *,std::less<std::basic_string<char,std::char_traits<char>,std::allocator<char> > >,std::allocator<std::pair<std::basic_string<char,std::char_traits<char>,std::allocator<char> > const ,CBillClient::tagBillItem *> >,0> >::_Erase
; Function compile flags: /Ogtpy
;	COMDAT ?_Erase@?$_Tree@V?$_Tmap_traits@V?$basic_string@DU?$char_traits@D@std@@V?$allocator@D@2@@std@@PAUtagBillItem@CBillClient@@U?$less@V?$basic_string@DU?$char_traits@D@std@@V?$allocator@D@2@@std@@@2@V?$allocator@U?$pair@$$CBV?$basic_string@DU?$char_traits@D@std@@V?$allocator@D@2@@std@@PAUtagBillItem@CBillClient@@@std@@@2@$0A@@std@@@std@@IAEXPAU_Node@?$_Tree_nod@V?$_Tmap_traits@V?$basic_string@DU?$char_traits@D@std@@V?$allocator@D@2@@std@@PAUtagBillItem@CBillClient@@U?$less@V?$basic_string@DU?$char_traits@D@std@@V?$allocator@D@2@@std@@@2@V?$allocator@U?$pair@$$CBV?$basic_string@DU?$char_traits@D@std@@V?$allocator@D@2@@std@@PAUtagBillItem@CBillClient@@@std@@@2@$0A@@std@@@2@@Z
_TEXT	SEGMENT
__Rootnode$ = 8						; size = 4
?_Erase@?$_Tree@V?$_Tmap_traits@V?$basic_string@DU?$char_traits@D@std@@V?$allocator@D@2@@std@@PAUtagBillItem@CBillClient@@U?$less@V?$basic_string@DU?$char_traits@D@std@@V?$allocator@D@2@@std@@@2@V?$allocator@U?$pair@$$CBV?$basic_string@DU?$char_traits@D@std@@V?$allocator@D@2@@std@@PAUtagBillItem@CBillClient@@@std@@@2@$0A@@std@@@std@@IAEXPAU_Node@?$_Tree_nod@V?$_Tmap_traits@V?$basic_string@DU?$char_traits@D@std@@V?$allocator@D@2@@std@@PAUtagBillItem@CBillClient@@U?$less@V?$basic_string@DU?$char_traits@D@std@@V?$allocator@D@2@@std@@@2@V?$allocator@U?$pair@$$CBV?$basic_string@DU?$char_traits@D@std@@V?$allocator@D@2@@std@@PAUtagBillItem@CBillClient@@@std@@@2@$0A@@std@@@2@@Z PROC ; std::_Tree<std::_Tmap_traits<std::basic_string<char,std::char_traits<char>,std::allocator<char> >,CBillClient::tagBillItem *,std::less<std::basic_string<char,std::char_traits<char>,std::allocator<char> > >,std::allocator<std::pair<std::basic_string<char,std::char_traits<char>,std::allocator<char> > const ,CBillClient::tagBillItem *> >,0> >::_Erase, COMDAT
; _this$ = ecx

; 1072 : 		{	// free entire subtree, recursively

  00000	53		 push	 ebx
  00001	55		 push	 ebp
  00002	56		 push	 esi

; 1073 : 		for (_Nodeptr _Pnode = _Rootnode; !_Isnil(_Pnode); _Rootnode = _Pnode)

  00003	8b 74 24 10	 mov	 esi, DWORD PTR __Rootnode$[esp+8]
  00007	33 db		 xor	 ebx, ebx
  00009	38 5e 2d	 cmp	 BYTE PTR [esi+45], bl
  0000c	57		 push	 edi
  0000d	8b e9		 mov	 ebp, ecx
  0000f	8b fe		 mov	 edi, esi
  00011	75 3c		 jne	 SHORT $LN1@Erase
$LL3@Erase:

; 1074 : 			{	// free subtrees, then node
; 1075 : 			_Erase(_Right(_Pnode));

  00013	8b 47 08	 mov	 eax, DWORD PTR [edi+8]
  00016	50		 push	 eax
  00017	8b cd		 mov	 ecx, ebp
  00019	e8 00 00 00 00	 call	 ?_Erase@?$_Tree@V?$_Tmap_traits@V?$basic_string@DU?$char_traits@D@std@@V?$allocator@D@2@@std@@PAUtagBillItem@CBillClient@@U?$less@V?$basic_string@DU?$char_traits@D@std@@V?$allocator@D@2@@std@@@2@V?$allocator@U?$pair@$$CBV?$basic_string@DU?$char_traits@D@std@@V?$allocator@D@2@@std@@PAUtagBillItem@CBillClient@@@std@@@2@$0A@@std@@@std@@IAEXPAU_Node@?$_Tree_nod@V?$_Tmap_traits@V?$basic_string@DU?$char_traits@D@std@@V?$allocator@D@2@@std@@PAUtagBillItem@CBillClient@@U?$less@V?$basic_string@DU?$char_traits@D@std@@V?$allocator@D@2@@std@@@2@V?$allocator@U?$pair@$$CBV?$basic_string@DU?$char_traits@D@std@@V?$allocator@D@2@@std@@PAUtagBillItem@CBillClient@@@std@@@2@$0A@@std@@@2@@Z ; std::_Tree<std::_Tmap_traits<std::basic_string<char,std::char_traits<char>,std::allocator<char> >,CBillClient::tagBillItem *,std::less<std::basic_string<char,std::char_traits<char>,std::allocator<char> > >,std::allocator<std::pair<std::basic_string<char,std::char_traits<char>,std::allocator<char> > const ,CBillClient::tagBillItem *> >,0> >::_Erase

; 1076 : 			_Pnode = _Left(_Pnode);
; 1077 : 			this->_Alnod.destroy(_Rootnode);	// destroy, free erased node

  0001e	83 7e 24 10	 cmp	 DWORD PTR [esi+36], 16	; 00000010H
  00022	8b 3f		 mov	 edi, DWORD PTR [edi]
  00024	72 0c		 jb	 SHORT $LN39@Erase
  00026	8b 4e 10	 mov	 ecx, DWORD PTR [esi+16]
  00029	51		 push	 ecx
  0002a	e8 00 00 00 00	 call	 ??3@YAXPAX@Z		; operator delete
  0002f	83 c4 04	 add	 esp, 4
$LN39@Erase:
  00032	c7 46 24 0f 00
	00 00		 mov	 DWORD PTR [esi+36], 15	; 0000000fH
  00039	89 5e 20	 mov	 DWORD PTR [esi+32], ebx

; 1078 : 			this->_Alnod.deallocate(_Rootnode, 1);

  0003c	56		 push	 esi
  0003d	88 5e 10	 mov	 BYTE PTR [esi+16], bl
  00040	e8 00 00 00 00	 call	 ??3@YAXPAX@Z		; operator delete
  00045	83 c4 04	 add	 esp, 4
  00048	38 5f 2d	 cmp	 BYTE PTR [edi+45], bl
  0004b	8b f7		 mov	 esi, edi
  0004d	74 c4		 je	 SHORT $LL3@Erase
$LN1@Erase:
  0004f	5f		 pop	 edi
  00050	5e		 pop	 esi
  00051	5d		 pop	 ebp
  00052	5b		 pop	 ebx

; 1079 : 			}
; 1080 : 		}

  00053	c2 04 00	 ret	 4
?_Erase@?$_Tree@V?$_Tmap_traits@V?$basic_string@DU?$char_traits@D@std@@V?$allocator@D@2@@std@@PAUtagBillItem@CBillClient@@U?$less@V?$basic_string@DU?$char_traits@D@std@@V?$allocator@D@2@@std@@@2@V?$allocator@U?$pair@$$CBV?$basic_string@DU?$char_traits@D@std@@V?$allocator@D@2@@std@@PAUtagBillItem@CBillClient@@@std@@@2@$0A@@std@@@std@@IAEXPAU_Node@?$_Tree_nod@V?$_Tmap_traits@V?$basic_string@DU?$char_traits@D@std@@V?$allocator@D@2@@std@@PAUtagBillItem@CBillClient@@U?$less@V?$basic_string@DU?$char_traits@D@std@@V?$allocator@D@2@@std@@@2@V?$allocator@U?$pair@$$CBV?$basic_string@DU?$char_traits@D@std@@V?$allocator@D@2@@std@@PAUtagBillItem@CBillClient@@@std@@@2@$0A@@std@@@2@@Z ENDP ; std::_Tree<std::_Tmap_traits<std::basic_string<char,std::char_traits<char>,std::allocator<char> >,CBillClient::tagBillItem *,std::less<std::basic_string<char,std::char_traits<char>,std::allocator<char> > >,std::allocator<std::pair<std::basic_string<char,std::char_traits<char>,std::allocator<char> > const ,CBillClient::tagBillItem *> >,0> >::_Erase
_TEXT	ENDS
PUBLIC	?_Buynode@?$_Tree@V?$_Tmap_traits@V?$basic_string@DU?$char_traits@D@std@@V?$allocator@D@2@@std@@PAUtagBillItem@CBillClient@@U?$less@V?$basic_string@DU?$char_traits@D@std@@V?$allocator@D@2@@std@@@2@V?$allocator@U?$pair@$$CBV?$basic_string@DU?$char_traits@D@std@@V?$allocator@D@2@@std@@PAUtagBillItem@CBillClient@@@std@@@2@$0A@@std@@@std@@IAEPAU_Node@?$_Tree_nod@V?$_Tmap_traits@V?$basic_string@DU?$char_traits@D@std@@V?$allocator@D@2@@std@@PAUtagBillItem@CBillClient@@U?$less@V?$basic_string@DU?$char_traits@D@std@@V?$allocator@D@2@@std@@@2@V?$allocator@U?$pair@$$CBV?$basic_string@DU?$char_traits@D@std@@V?$allocator@D@2@@std@@PAUtagBillItem@CBillClient@@@std@@@2@$0A@@std@@@2@PAU342@00ABU?$pair@$$CBV?$basic_string@DU?$char_traits@D@std@@V?$allocator@D@2@@std@@PAUtagBillItem@CBillClient@@@2@D@Z ; std::_Tree<std::_Tmap_traits<std::basic_string<char,std::char_traits<char>,std::allocator<char> >,CBillClient::tagBillItem *,std::less<std::basic_string<char,std::char_traits<char>,std::allocator<char> > >,std::allocator<std::pair<std::basic_string<char,std::char_traits<char>,std::allocator<char> > const ,CBillClient::tagBillItem *> >,0> >::_Buynode
;	COMDAT xdata$x
; File d:\program files\microsoft visual studio 8\vc\include\xmemory
xdata$x	SEGMENT
__catchsym$?_Buynode@?$_Tree@V?$_Tmap_traits@V?$basic_string@DU?$char_traits@D@std@@V?$allocator@D@2@@std@@PAUtagBillItem@CBillClient@@U?$less@V?$basic_string@DU?$char_traits@D@std@@V?$allocator@D@2@@std@@@2@V?$allocator@U?$pair@$$CBV?$basic_string@DU?$char_traits@D@std@@V?$allocator@D@2@@std@@PAUtagBillItem@CBillClient@@@std@@@2@$0A@@std@@@std@@IAEPAU_Node@?$_Tree_nod@V?$_Tmap_traits@V?$basic_string@DU?$char_traits@D@std@@V?$allocator@D@2@@std@@PAUtagBillItem@CBillClient@@U?$less@V?$basic_string@DU?$char_traits@D@std@@V?$allocator@D@2@@std@@@2@V?$allocator@U?$pair@$$CBV?$basic_string@DU?$char_traits@D@std@@V?$allocator@D@2@@std@@PAUtagBillItem@CBillClient@@@std@@@2@$0A@@std@@@2@PAU342@00ABU?$pair@$$CBV?$basic_string@DU?$char_traits@D@std@@V?$allocator@D@2@@std@@PAUtagBillItem@CBillClient@@@2@D@Z$3 DD 040H
	DD	00H
	DD	00H
	DD	FLAT:__catch$?_Buynode@?$_Tree@V?$_Tmap_traits@V?$basic_string@DU?$char_traits@D@std@@V?$allocator@D@2@@std@@PAUtagBillItem@CBillClient@@U?$less@V?$basic_string@DU?$char_traits@D@std@@V?$allocator@D@2@@std@@@2@V?$allocator@U?$pair@$$CBV?$basic_string@DU?$char_traits@D@std@@V?$allocator@D@2@@std@@PAUtagBillItem@CBillClient@@@std@@@2@$0A@@std@@@std@@IAEPAU_Node@?$_Tree_nod@V?$_Tmap_traits@V?$basic_string@DU?$char_traits@D@std@@V?$allocator@D@2@@std@@PAUtagBillItem@CBillClient@@U?$less@V?$basic_string@DU?$char_traits@D@std@@V?$allocator@D@2@@std@@@2@V?$allocator@U?$pair@$$CBV?$basic_string@DU?$char_traits@D@std@@V?$allocator@D@2@@std@@PAUtagBillItem@CBillClient@@@std@@@2@$0A@@std@@@2@PAU342@00ABU?$pair@$$CBV?$basic_string@DU?$char_traits@D@std@@V?$allocator@D@2@@std@@PAUtagBillItem@CBillClient@@@2@D@Z$0
__tryblocktable$?_Buynode@?$_Tree@V?$_Tmap_traits@V?$basic_string@DU?$char_traits@D@std@@V?$allocator@D@2@@std@@PAUtagBillItem@CBillClient@@U?$less@V?$basic_string@DU?$char_traits@D@std@@V?$allocator@D@2@@std@@@2@V?$allocator@U?$pair@$$CBV?$basic_string@DU?$char_traits@D@std@@V?$allocator@D@2@@std@@PAUtagBillItem@CBillClient@@@std@@@2@$0A@@std@@@std@@IAEPAU_Node@?$_Tree_nod@V?$_Tmap_traits@V?$basic_string@DU?$char_traits@D@std@@V?$allocator@D@2@@std@@PAUtagBillItem@CBillClient@@U?$less@V?$basic_string@DU?$char_traits@D@std@@V?$allocator@D@2@@std@@@2@V?$allocator@U?$pair@$$CBV?$basic_string@DU?$char_traits@D@std@@V?$allocator@D@2@@std@@PAUtagBillItem@CBillClient@@@std@@@2@$0A@@std@@@2@PAU342@00ABU?$pair@$$CBV?$basic_string@DU?$char_traits@D@std@@V?$allocator@D@2@@std@@PAUtagBillItem@CBillClient@@@2@D@Z DD 00H
	DD	01H
	DD	02H
	DD	01H
	DD	FLAT:__catchsym$?_Buynode@?$_Tree@V?$_Tmap_traits@V?$basic_string@DU?$char_traits@D@std@@V?$allocator@D@2@@std@@PAUtagBillItem@CBillClient@@U?$less@V?$basic_string@DU?$char_traits@D@std@@V?$allocator@D@2@@std@@@2@V?$allocator@U?$pair@$$CBV?$basic_string@DU?$char_traits@D@std@@V?$allocator@D@2@@std@@PAUtagBillItem@CBillClient@@@std@@@2@$0A@@std@@@std@@IAEPAU_Node@?$_Tree_nod@V?$_Tmap_traits@V?$basic_string@DU?$char_traits@D@std@@V?$allocator@D@2@@std@@PAUtagBillItem@CBillClient@@U?$less@V?$basic_string@DU?$char_traits@D@std@@V?$allocator@D@2@@std@@@2@V?$allocator@U?$pair@$$CBV?$basic_string@DU?$char_traits@D@std@@V?$allocator@D@2@@std@@PAUtagBillItem@CBillClient@@@std@@@2@$0A@@std@@@2@PAU342@00ABU?$pair@$$CBV?$basic_string@DU?$char_traits@D@std@@V?$allocator@D@2@@std@@PAUtagBillItem@CBillClient@@@2@D@Z$3
__unwindtable$?_Buynode@?$_Tree@V?$_Tmap_traits@V?$basic_string@DU?$char_traits@D@std@@V?$allocator@D@2@@std@@PAUtagBillItem@CBillClient@@U?$less@V?$basic_string@DU?$char_traits@D@std@@V?$allocator@D@2@@std@@@2@V?$allocator@U?$pair@$$CBV?$basic_string@DU?$char_traits@D@std@@V?$allocator@D@2@@std@@PAUtagBillItem@CBillClient@@@std@@@2@$0A@@std@@@std@@IAEPAU_Node@?$_Tree_nod@V?$_Tmap_traits@V?$basic_string@DU?$char_traits@D@std@@V?$allocator@D@2@@std@@PAUtagBillItem@CBillClient@@U?$less@V?$basic_string@DU?$char_traits@D@std@@V?$allocator@D@2@@std@@@2@V?$allocator@U?$pair@$$CBV?$basic_string@DU?$char_traits@D@std@@V?$allocator@D@2@@std@@PAUtagBillItem@CBillClient@@@std@@@2@$0A@@std@@@2@PAU342@00ABU?$pair@$$CBV?$basic_string@DU?$char_traits@D@std@@V?$allocator@D@2@@std@@PAUtagBillItem@CBillClient@@@2@D@Z DD 0ffffffffH
	DD	00H
	DD	00H
	DD	FLAT:__unwindfunclet$?_Buynode@?$_Tree@V?$_Tmap_traits@V?$basic_string@DU?$char_traits@D@std@@V?$allocator@D@2@@std@@PAUtagBillItem@CBillClient@@U?$less@V?$basic_string@DU?$char_traits@D@std@@V?$allocator@D@2@@std@@@2@V?$allocator@U?$pair@$$CBV?$basic_string@DU?$char_traits@D@std@@V?$allocator@D@2@@std@@PAUtagBillItem@CBillClient@@@std@@@2@$0A@@std@@@std@@IAEPAU_Node@?$_Tree_nod@V?$_Tmap_traits@V?$basic_string@DU?$char_traits@D@std@@V?$allocator@D@2@@std@@PAUtagBillItem@CBillClient@@U?$less@V?$basic_string@DU?$char_traits@D@std@@V?$allocator@D@2@@std@@@2@V?$allocator@U?$pair@$$CBV?$basic_string@DU?$char_traits@D@std@@V?$allocator@D@2@@std@@PAUtagBillItem@CBillClient@@@std@@@2@$0A@@std@@@2@PAU342@00ABU?$pair@$$CBV?$basic_string@DU?$char_traits@D@std@@V?$allocator@D@2@@std@@PAUtagBillItem@CBillClient@@@2@D@Z$2
	DD	0ffffffffH
	DD	00H
__ehfuncinfo$?_Buynode@?$_Tree@V?$_Tmap_traits@V?$basic_string@DU?$char_traits@D@std@@V?$allocator@D@2@@std@@PAUtagBillItem@CBillClient@@U?$less@V?$basic_string@DU?$char_traits@D@std@@V?$allocator@D@2@@std@@@2@V?$allocator@U?$pair@$$CBV?$basic_string@DU?$char_traits@D@std@@V?$allocator@D@2@@std@@PAUtagBillItem@CBillClient@@@std@@@2@$0A@@std@@@std@@IAEPAU_Node@?$_Tree_nod@V?$_Tmap_traits@V?$basic_string@DU?$char_traits@D@std@@V?$allocator@D@2@@std@@PAUtagBillItem@CBillClient@@U?$less@V?$basic_string@DU?$char_traits@D@std@@V?$allocator@D@2@@std@@@2@V?$allocator@U?$pair@$$CBV?$basic_string@DU?$char_traits@D@std@@V?$allocator@D@2@@std@@PAUtagBillItem@CBillClient@@@std@@@2@$0A@@std@@@2@PAU342@00ABU?$pair@$$CBV?$basic_string@DU?$char_traits@D@std@@V?$allocator@D@2@@std@@PAUtagBillItem@CBillClient@@@2@D@Z DD 019930522H
	DD	03H
	DD	FLAT:__unwindtable$?_Buynode@?$_Tree@V?$_Tmap_traits@V?$basic_string@DU?$char_traits@D@std@@V?$allocator@D@2@@std@@PAUtagBillItem@CBillClient@@U?$less@V?$basic_string@DU?$char_traits@D@std@@V?$allocator@D@2@@std@@@2@V?$allocator@U?$pair@$$CBV?$basic_string@DU?$char_traits@D@std@@V?$allocator@D@2@@std@@PAUtagBillItem@CBillClient@@@std@@@2@$0A@@std@@@std@@IAEPAU_Node@?$_Tree_nod@V?$_Tmap_traits@V?$basic_string@DU?$char_traits@D@std@@V?$allocator@D@2@@std@@PAUtagBillItem@CBillClient@@U?$less@V?$basic_string@DU?$char_traits@D@std@@V?$allocator@D@2@@std@@@2@V?$allocator@U?$pair@$$CBV?$basic_string@DU?$char_traits@D@std@@V?$allocator@D@2@@std@@PAUtagBillItem@CBillClient@@@std@@@2@$0A@@std@@@2@PAU342@00ABU?$pair@$$CBV?$basic_string@DU?$char_traits@D@std@@V?$allocator@D@2@@std@@PAUtagBillItem@CBillClient@@@2@D@Z
	DD	01H
	DD	FLAT:__tryblocktable$?_Buynode@?$_Tree@V?$_Tmap_traits@V?$basic_string@DU?$char_traits@D@std@@V?$allocator@D@2@@std@@PAUtagBillItem@CBillClient@@U?$less@V?$basic_string@DU?$char_traits@D@std@@V?$allocator@D@2@@std@@@2@V?$allocator@U?$pair@$$CBV?$basic_string@DU?$char_traits@D@std@@V?$allocator@D@2@@std@@PAUtagBillItem@CBillClient@@@std@@@2@$0A@@std@@@std@@IAEPAU_Node@?$_Tree_nod@V?$_Tmap_traits@V?$basic_string@DU?$char_traits@D@std@@V?$allocator@D@2@@std@@PAUtagBillItem@CBillClient@@U?$less@V?$basic_string@DU?$char_traits@D@std@@V?$allocator@D@2@@std@@@2@V?$allocator@U?$pair@$$CBV?$basic_string@DU?$char_traits@D@std@@V?$allocator@D@2@@std@@PAUtagBillItem@CBillClient@@@std@@@2@$0A@@std@@@2@PAU342@00ABU?$pair@$$CBV?$basic_string@DU?$char_traits@D@std@@V?$allocator@D@2@@std@@PAUtagBillItem@CBillClient@@@2@D@Z
	DD	2 DUP(00H)
	DD	00H
	DD	01H
; Function compile flags: /Ogtpy
; File d:\program files\microsoft visual studio 8\vc\include\xtree
xdata$x	ENDS
;	COMDAT ?_Buynode@?$_Tree@V?$_Tmap_traits@V?$basic_string@DU?$char_traits@D@std@@V?$allocator@D@2@@std@@PAUtagBillItem@CBillClient@@U?$less@V?$basic_string@DU?$char_traits@D@std@@V?$allocator@D@2@@std@@@2@V?$allocator@U?$pair@$$CBV?$basic_string@DU?$char_traits@D@std@@V?$allocator@D@2@@std@@PAUtagBillItem@CBillClient@@@std@@@2@$0A@@std@@@std@@IAEPAU_Node@?$_Tree_nod@V?$_Tmap_traits@V?$basic_string@DU?$char_traits@D@std@@V?$allocator@D@2@@std@@PAUtagBillItem@CBillClient@@U?$less@V?$basic_string@DU?$char_traits@D@std@@V?$allocator@D@2@@std@@@2@V?$allocator@U?$pair@$$CBV?$basic_string@DU?$char_traits@D@std@@V?$allocator@D@2@@std@@PAUtagBillItem@CBillClient@@@std@@@2@$0A@@std@@@2@PAU342@00ABU?$pair@$$CBV?$basic_string@DU?$char_traits@D@std@@V?$allocator@D@2@@std@@PAUtagBillItem@CBillClient@@@2@D@Z
_TEXT	SEGMENT
$T267482 = -24						; size = 4
__Wherenode$ = -20					; size = 4
__$EHRec$ = -16						; size = 16
__Larg$ = 8						; size = 4
__Parg$ = 12						; size = 4
__Rarg$ = 16						; size = 4
__Val$ = 20						; size = 4
__Carg$ = 24						; size = 1
?_Buynode@?$_Tree@V?$_Tmap_traits@V?$basic_string@DU?$char_traits@D@std@@V?$allocator@D@2@@std@@PAUtagBillItem@CBillClient@@U?$less@V?$basic_string@DU?$char_traits@D@std@@V?$allocator@D@2@@std@@@2@V?$allocator@U?$pair@$$CBV?$basic_string@DU?$char_traits@D@std@@V?$allocator@D@2@@std@@PAUtagBillItem@CBillClient@@@std@@@2@$0A@@std@@@std@@IAEPAU_Node@?$_Tree_nod@V?$_Tmap_traits@V?$basic_string@DU?$char_traits@D@std@@V?$allocator@D@2@@std@@PAUtagBillItem@CBillClient@@U?$less@V?$basic_string@DU?$char_traits@D@std@@V?$allocator@D@2@@std@@@2@V?$allocator@U?$pair@$$CBV?$basic_string@DU?$char_traits@D@std@@V?$allocator@D@2@@std@@PAUtagBillItem@CBillClient@@@std@@@2@$0A@@std@@@2@PAU342@00ABU?$pair@$$CBV?$basic_string@DU?$char_traits@D@std@@V?$allocator@D@2@@std@@PAUtagBillItem@CBillClient@@@2@D@Z PROC ; std::_Tree<std::_Tmap_traits<std::basic_string<char,std::char_traits<char>,std::allocator<char> >,CBillClient::tagBillItem *,std::less<std::basic_string<char,std::char_traits<char>,std::allocator<char> > >,std::allocator<std::pair<std::basic_string<char,std::char_traits<char>,std::allocator<char> > const ,CBillClient::tagBillItem *> >,0> >::_Buynode, COMDAT
; _this$ = ecx

; 1314 : 		{	// allocate a node with pointers, value, and color

  00000	55		 push	 ebp
  00001	8b ec		 mov	 ebp, esp
  00003	6a ff		 push	 -1
  00005	68 00 00 00 00	 push	 __ehhandler$?_Buynode@?$_Tree@V?$_Tmap_traits@V?$basic_string@DU?$char_traits@D@std@@V?$allocator@D@2@@std@@PAUtagBillItem@CBillClient@@U?$less@V?$basic_string@DU?$char_traits@D@std@@V?$allocator@D@2@@std@@@2@V?$allocator@U?$pair@$$CBV?$basic_string@DU?$char_traits@D@std@@V?$allocator@D@2@@std@@PAUtagBillItem@CBillClient@@@std@@@2@$0A@@std@@@std@@IAEPAU_Node@?$_Tree_nod@V?$_Tmap_traits@V?$basic_string@DU?$char_traits@D@std@@V?$allocator@D@2@@std@@PAUtagBillItem@CBillClient@@U?$less@V?$basic_string@DU?$char_traits@D@std@@V?$allocator@D@2@@std@@@2@V?$allocator@U?$pair@$$CBV?$basic_string@DU?$char_traits@D@std@@V?$allocator@D@2@@std@@PAUtagBillItem@CBillClient@@@std@@@2@$0A@@std@@@2@PAU342@00ABU?$pair@$$CBV?$basic_string@DU?$char_traits@D@std@@V?$allocator@D@2@@std@@PAUtagBillItem@CBillClient@@@2@D@Z
  0000a	64 a1 00 00 00
	00		 mov	 eax, DWORD PTR fs:0
  00010	50		 push	 eax
  00011	83 ec 0c	 sub	 esp, 12			; 0000000cH
  00014	53		 push	 ebx
  00015	56		 push	 esi
  00016	57		 push	 edi
  00017	a1 00 00 00 00	 mov	 eax, DWORD PTR ___security_cookie
  0001c	33 c5		 xor	 eax, ebp
  0001e	50		 push	 eax
  0001f	8d 45 f4	 lea	 eax, DWORD PTR __$EHRec$[ebp+4]
  00022	64 a3 00 00 00
	00		 mov	 DWORD PTR fs:0, eax
  00028	89 65 f0	 mov	 DWORD PTR __$EHRec$[ebp], esp

; 1315 : 		_Nodeptr _Wherenode = this->_Alnod.allocate(1);

  0002b	6a 30		 push	 48			; 00000030H
  0002d	e8 00 00 00 00	 call	 ??2@YAPAXI@Z		; operator new
  00032	8b f0		 mov	 esi, eax
  00034	83 c4 04	 add	 esp, 4
  00037	89 75 ec	 mov	 DWORD PTR __Wherenode$[ebp], esi

; 1316 : 		_TRY_BEGIN

  0003a	c7 45 fc 00 00
	00 00		 mov	 DWORD PTR __$EHRec$[ebp+12], 0

; 1317 : 		new (_Wherenode) _Node(_Larg, _Parg, _Rarg, _Val, _Carg);

  00041	89 75 e8	 mov	 DWORD PTR $T267482[ebp], esi
  00044	85 f6		 test	 esi, esi
  00046	c6 45 fc 01	 mov	 BYTE PTR __$EHRec$[ebp+12], 1
  0004a	74 1b		 je	 SHORT $LN4@Buynode@2
  0004c	8b 45 18	 mov	 eax, DWORD PTR __Carg$[ebp]
  0004f	8b 4d 14	 mov	 ecx, DWORD PTR __Val$[ebp]
  00052	8b 55 10	 mov	 edx, DWORD PTR __Rarg$[ebp]
  00055	50		 push	 eax
  00056	8b 45 0c	 mov	 eax, DWORD PTR __Parg$[ebp]
  00059	51		 push	 ecx
  0005a	8b 4d 08	 mov	 ecx, DWORD PTR __Larg$[ebp]
  0005d	52		 push	 edx
  0005e	50		 push	 eax
  0005f	51		 push	 ecx
  00060	8b ce		 mov	 ecx, esi
  00062	e8 00 00 00 00	 call	 ??0_Node@?$_Tree_nod@V?$_Tmap_traits@V?$basic_string@DU?$char_traits@D@std@@V?$allocator@D@2@@std@@PAUtagBillItem@CBillClient@@U?$less@V?$basic_string@DU?$char_traits@D@std@@V?$allocator@D@2@@std@@@2@V?$allocator@U?$pair@$$CBV?$basic_string@DU?$char_traits@D@std@@V?$allocator@D@2@@std@@PAUtagBillItem@CBillClient@@@std@@@2@$0A@@std@@@std@@QAE@PAU012@00ABU?$pair@$$CBV?$basic_string@DU?$char_traits@D@std@@V?$allocator@D@2@@std@@PAUtagBillItem@CBillClient@@@2@D@Z ; std::_Tree_nod<std::_Tmap_traits<std::basic_string<char,std::char_traits<char>,std::allocator<char> >,CBillClient::tagBillItem *,std::less<std::basic_string<char,std::char_traits<char>,std::allocator<char> > >,std::allocator<std::pair<std::basic_string<char,std::char_traits<char>,std::allocator<char> > const ,CBillClient::tagBillItem *> >,0> >::_Node::_Node
$LN4@Buynode@2:

; 1321 : 		_CATCH_END
; 1322 : 		return (_Wherenode);

  00067	8b c6		 mov	 eax, esi

; 1323 : 		}

  00069	8b 4d f4	 mov	 ecx, DWORD PTR __$EHRec$[ebp+4]
  0006c	64 89 0d 00 00
	00 00		 mov	 DWORD PTR fs:0, ecx
  00073	59		 pop	 ecx
  00074	5f		 pop	 edi
  00075	5e		 pop	 esi
  00076	5b		 pop	 ebx
  00077	8b e5		 mov	 esp, ebp
  00079	5d		 pop	 ebp
  0007a	c2 14 00	 ret	 20			; 00000014H
__catch$?_Buynode@?$_Tree@V?$_Tmap_traits@V?$basic_string@DU?$char_traits@D@std@@V?$allocator@D@2@@std@@PAUtagBillItem@CBillClient@@U?$less@V?$basic_string@DU?$char_traits@D@std@@V?$allocator@D@2@@std@@@2@V?$allocator@U?$pair@$$CBV?$basic_string@DU?$char_traits@D@std@@V?$allocator@D@2@@std@@PAUtagBillItem@CBillClient@@@std@@@2@$0A@@std@@@std@@IAEPAU_Node@?$_Tree_nod@V?$_Tmap_traits@V?$basic_string@DU?$char_traits@D@std@@V?$allocator@D@2@@std@@PAUtagBillItem@CBillClient@@U?$less@V?$basic_string@DU?$char_traits@D@std@@V?$allocator@D@2@@std@@@2@V?$allocator@U?$pair@$$CBV?$basic_string@DU?$char_traits@D@std@@V?$allocator@D@2@@std@@PAUtagBillItem@CBillClient@@@std@@@2@$0A@@std@@@2@PAU342@00ABU?$pair@$$CBV?$basic_string@DU?$char_traits@D@std@@V?$allocator@D@2@@std@@PAUtagBillItem@CBillClient@@@2@D@Z$0:

; 1318 : 		_CATCH_ALL
; 1319 : 		this->_Alnod.deallocate(_Wherenode, 1);

  0007d	8b 55 ec	 mov	 edx, DWORD PTR __Wherenode$[ebp]
  00080	52		 push	 edx
  00081	e8 00 00 00 00	 call	 ??3@YAXPAX@Z		; operator delete
  00086	83 c4 04	 add	 esp, 4

; 1320 : 		_RERAISE;

  00089	6a 00		 push	 0
  0008b	6a 00		 push	 0
  0008d	e8 00 00 00 00	 call	 __CxxThrowException@8
$LN29@Buynode@2:
$LN28@Buynode@2:
  00092	cc		 int	 3
_TEXT	ENDS
;	COMDAT text$x
text$x	SEGMENT
__unwindfunclet$?_Buynode@?$_Tree@V?$_Tmap_traits@V?$basic_string@DU?$char_traits@D@std@@V?$allocator@D@2@@std@@PAUtagBillItem@CBillClient@@U?$less@V?$basic_string@DU?$char_traits@D@std@@V?$allocator@D@2@@std@@@2@V?$allocator@U?$pair@$$CBV?$basic_string@DU?$char_traits@D@std@@V?$allocator@D@2@@std@@PAUtagBillItem@CBillClient@@@std@@@2@$0A@@std@@@std@@IAEPAU_Node@?$_Tree_nod@V?$_Tmap_traits@V?$basic_string@DU?$char_traits@D@std@@V?$allocator@D@2@@std@@PAUtagBillItem@CBillClient@@U?$less@V?$basic_string@DU?$char_traits@D@std@@V?$allocator@D@2@@std@@@2@V?$allocator@U?$pair@$$CBV?$basic_string@DU?$char_traits@D@std@@V?$allocator@D@2@@std@@PAUtagBillItem@CBillClient@@@std@@@2@$0A@@std@@@2@PAU342@00ABU?$pair@$$CBV?$basic_string@DU?$char_traits@D@std@@V?$allocator@D@2@@std@@PAUtagBillItem@CBillClient@@@2@D@Z$2:
  00000	8b 45 ec	 mov	 eax, DWORD PTR __Wherenode$[ebp]
  00003	50		 push	 eax
  00004	8b 4d e8	 mov	 ecx, DWORD PTR $T267482[ebp]
  00007	51		 push	 ecx
  00008	e8 00 00 00 00	 call	 ??3@YAXPAX0@Z		; operator delete
  0000d	83 c4 08	 add	 esp, 8
  00010	c3		 ret	 0
__ehhandler$?_Buynode@?$_Tree@V?$_Tmap_traits@V?$basic_string@DU?$char_traits@D@std@@V?$allocator@D@2@@std@@PAUtagBillItem@CBillClient@@U?$less@V?$basic_string@DU?$char_traits@D@std@@V?$allocator@D@2@@std@@@2@V?$allocator@U?$pair@$$CBV?$basic_string@DU?$char_traits@D@std@@V?$allocator@D@2@@std@@PAUtagBillItem@CBillClient@@@std@@@2@$0A@@std@@@std@@IAEPAU_Node@?$_Tree_nod@V?$_Tmap_traits@V?$basic_string@DU?$char_traits@D@std@@V?$allocator@D@2@@std@@PAUtagBillItem@CBillClient@@U?$less@V?$basic_string@DU?$char_traits@D@std@@V?$allocator@D@2@@std@@@2@V?$allocator@U?$pair@$$CBV?$basic_string@DU?$char_traits@D@std@@V?$allocator@D@2@@std@@PAUtagBillItem@CBillClient@@@std@@@2@$0A@@std@@@2@PAU342@00ABU?$pair@$$CBV?$basic_string@DU?$char_traits@D@std@@V?$allocator@D@2@@std@@PAUtagBillItem@CBillClient@@@2@D@Z:
  00011	8b 54 24 08	 mov	 edx, DWORD PTR [esp+8]
  00015	8d 42 0c	 lea	 eax, DWORD PTR [edx+12]
  00018	8b 4a e4	 mov	 ecx, DWORD PTR [edx-28]
  0001b	33 c8		 xor	 ecx, eax
  0001d	e8 00 00 00 00	 call	 @__security_check_cookie@4
  00022	b8 00 00 00 00	 mov	 eax, OFFSET __ehfuncinfo$?_Buynode@?$_Tree@V?$_Tmap_traits@V?$basic_string@DU?$char_traits@D@std@@V?$allocator@D@2@@std@@PAUtagBillItem@CBillClient@@U?$less@V?$basic_string@DU?$char_traits@D@std@@V?$allocator@D@2@@std@@@2@V?$allocator@U?$pair@$$CBV?$basic_string@DU?$char_traits@D@std@@V?$allocator@D@2@@std@@PAUtagBillItem@CBillClient@@@std@@@2@$0A@@std@@@std@@IAEPAU_Node@?$_Tree_nod@V?$_Tmap_traits@V?$basic_string@DU?$char_traits@D@std@@V?$allocator@D@2@@std@@PAUtagBillItem@CBillClient@@U?$less@V?$basic_string@DU?$char_traits@D@std@@V?$allocator@D@2@@std@@@2@V?$allocator@U?$pair@$$CBV?$basic_string@DU?$char_traits@D@std@@V?$allocator@D@2@@std@@PAUtagBillItem@CBillClient@@@std@@@2@$0A@@std@@@2@PAU342@00ABU?$pair@$$CBV?$basic_string@DU?$char_traits@D@std@@V?$allocator@D@2@@std@@PAUtagBillItem@CBillClient@@@2@D@Z
  00027	e9 00 00 00 00	 jmp	 ___CxxFrameHandler3
text$x	ENDS
?_Buynode@?$_Tree@V?$_Tmap_traits@V?$basic_string@DU?$char_traits@D@std@@V?$allocator@D@2@@std@@PAUtagBillItem@CBillClient@@U?$less@V?$basic_string@DU?$char_traits@D@std@@V?$allocator@D@2@@std@@@2@V?$allocator@U?$pair@$$CBV?$basic_string@DU?$char_traits@D@std@@V?$allocator@D@2@@std@@PAUtagBillItem@CBillClient@@@std@@@2@$0A@@std@@@std@@IAEPAU_Node@?$_Tree_nod@V?$_Tmap_traits@V?$basic_string@DU?$char_traits@D@std@@V?$allocator@D@2@@std@@PAUtagBillItem@CBillClient@@U?$less@V?$basic_string@DU?$char_traits@D@std@@V?$allocator@D@2@@std@@@2@V?$allocator@U?$pair@$$CBV?$basic_string@DU?$char_traits@D@std@@V?$allocator@D@2@@std@@PAUtagBillItem@CBillClient@@@std@@@2@$0A@@std@@@2@PAU342@00ABU?$pair@$$CBV?$basic_string@DU?$char_traits@D@std@@V?$allocator@D@2@@std@@PAUtagBillItem@CBillClient@@@2@D@Z ENDP ; std::_Tree<std::_Tmap_traits<std::basic_string<char,std::char_traits<char>,std::allocator<char> >,CBillClient::tagBillItem *,std::less<std::basic_string<char,std::char_traits<char>,std::allocator<char> > >,std::allocator<std::pair<std::basic_string<char,std::char_traits<char>,std::allocator<char> > const ,CBillClient::tagBillItem *> >,0> >::_Buynode
PUBLIC	?clear@?$_Tree@V?$_Tmap_traits@V?$basic_string@DU?$char_traits@D@std@@V?$allocator@D@2@@std@@PAUtagBillItem@CBillClient@@U?$less@V?$basic_string@DU?$char_traits@D@std@@V?$allocator@D@2@@std@@@2@V?$allocator@U?$pair@$$CBV?$basic_string@DU?$char_traits@D@std@@V?$allocator@D@2@@std@@PAUtagBillItem@CBillClient@@@std@@@2@$0A@@std@@@std@@QAEXXZ ; std::_Tree<std::_Tmap_traits<std::basic_string<char,std::char_traits<char>,std::allocator<char> >,CBillClient::tagBillItem *,std::less<std::basic_string<char,std::char_traits<char>,std::allocator<char> > >,std::allocator<std::pair<std::basic_string<char,std::char_traits<char>,std::allocator<char> > const ,CBillClient::tagBillItem *> >,0> >::clear
; Function compile flags: /Ogtpy
;	COMDAT ?clear@?$_Tree@V?$_Tmap_traits@V?$basic_string@DU?$char_traits@D@std@@V?$allocator@D@2@@std@@PAUtagBillItem@CBillClient@@U?$less@V?$basic_string@DU?$char_traits@D@std@@V?$allocator@D@2@@std@@@2@V?$allocator@U?$pair@$$CBV?$basic_string@DU?$char_traits@D@std@@V?$allocator@D@2@@std@@PAUtagBillItem@CBillClient@@@std@@@2@$0A@@std@@@std@@QAEXXZ
_TEXT	SEGMENT
?clear@?$_Tree@V?$_Tmap_traits@V?$basic_string@DU?$char_traits@D@std@@V?$allocator@D@2@@std@@PAUtagBillItem@CBillClient@@U?$less@V?$basic_string@DU?$char_traits@D@std@@V?$allocator@D@2@@std@@@2@V?$allocator@U?$pair@$$CBV?$basic_string@DU?$char_traits@D@std@@V?$allocator@D@2@@std@@PAUtagBillItem@CBillClient@@@std@@@2@$0A@@std@@@std@@QAEXXZ PROC ; std::_Tree<std::_Tmap_traits<std::basic_string<char,std::char_traits<char>,std::allocator<char> >,CBillClient::tagBillItem *,std::less<std::basic_string<char,std::char_traits<char>,std::allocator<char> > >,std::allocator<std::pair<std::basic_string<char,std::char_traits<char>,std::allocator<char> > const ,CBillClient::tagBillItem *> >,0> >::clear, COMDAT
; _this$ = ecx

; 948  : 		{	// erase all

  00000	56		 push	 esi
  00001	8b f1		 mov	 esi, ecx

; 949  : 
; 950  :  #if _HAS_ITERATOR_DEBUGGING
; 951  : 		this->_Orphan_ptr(*this, 0);
; 952  :  #endif /* _HAS_ITERATOR_DEBUGGING */
; 953  : 
; 954  : 		_Erase(_Root());

  00003	8b 46 04	 mov	 eax, DWORD PTR [esi+4]
  00006	8b 48 04	 mov	 ecx, DWORD PTR [eax+4]
  00009	51		 push	 ecx
  0000a	8b ce		 mov	 ecx, esi
  0000c	e8 00 00 00 00	 call	 ?_Erase@?$_Tree@V?$_Tmap_traits@V?$basic_string@DU?$char_traits@D@std@@V?$allocator@D@2@@std@@PAUtagBillItem@CBillClient@@U?$less@V?$basic_string@DU?$char_traits@D@std@@V?$allocator@D@2@@std@@@2@V?$allocator@U?$pair@$$CBV?$basic_string@DU?$char_traits@D@std@@V?$allocator@D@2@@std@@PAUtagBillItem@CBillClient@@@std@@@2@$0A@@std@@@std@@IAEXPAU_Node@?$_Tree_nod@V?$_Tmap_traits@V?$basic_string@DU?$char_traits@D@std@@V?$allocator@D@2@@std@@PAUtagBillItem@CBillClient@@U?$less@V?$basic_string@DU?$char_traits@D@std@@V?$allocator@D@2@@std@@@2@V?$allocator@U?$pair@$$CBV?$basic_string@DU?$char_traits@D@std@@V?$allocator@D@2@@std@@PAUtagBillItem@CBillClient@@@std@@@2@$0A@@std@@@2@@Z ; std::_Tree<std::_Tmap_traits<std::basic_string<char,std::char_traits<char>,std::allocator<char> >,CBillClient::tagBillItem *,std::less<std::basic_string<char,std::char_traits<char>,std::allocator<char> > >,std::allocator<std::pair<std::basic_string<char,std::char_traits<char>,std::allocator<char> > const ,CBillClient::tagBillItem *> >,0> >::_Erase

; 955  : 		_Root() = _Myhead, _Mysize = 0;

  00011	8b 46 04	 mov	 eax, DWORD PTR [esi+4]
  00014	89 40 04	 mov	 DWORD PTR [eax+4], eax

; 956  : 		_Lmost() = _Myhead, _Rmost() = _Myhead;

  00017	8b 46 04	 mov	 eax, DWORD PTR [esi+4]
  0001a	c7 46 08 00 00
	00 00		 mov	 DWORD PTR [esi+8], 0
  00021	89 00		 mov	 DWORD PTR [eax], eax
  00023	8b 76 04	 mov	 esi, DWORD PTR [esi+4]
  00026	89 76 08	 mov	 DWORD PTR [esi+8], esi
  00029	5e		 pop	 esi

; 957  : 		}

  0002a	c3		 ret	 0
?clear@?$_Tree@V?$_Tmap_traits@V?$basic_string@DU?$char_traits@D@std@@V?$allocator@D@2@@std@@PAUtagBillItem@CBillClient@@U?$less@V?$basic_string@DU?$char_traits@D@std@@V?$allocator@D@2@@std@@@2@V?$allocator@U?$pair@$$CBV?$basic_string@DU?$char_traits@D@std@@V?$allocator@D@2@@std@@PAUtagBillItem@CBillClient@@@std@@@2@$0A@@std@@@std@@QAEXXZ ENDP ; std::_Tree<std::_Tmap_traits<std::basic_string<char,std::char_traits<char>,std::allocator<char> >,CBillClient::tagBillItem *,std::less<std::basic_string<char,std::char_traits<char>,std::allocator<char> > >,std::allocator<std::pair<std::basic_string<char,std::char_traits<char>,std::allocator<char> > const ,CBillClient::tagBillItem *> >,0> >::clear
_TEXT	ENDS
PUBLIC	?erase@?$_Tree@V?$_Tmap_traits@V?$basic_string@DU?$char_traits@D@std@@V?$allocator@D@2@@std@@PAUtagBillItem@CBillClient@@U?$less@V?$basic_string@DU?$char_traits@D@std@@V?$allocator@D@2@@std@@@2@V?$allocator@U?$pair@$$CBV?$basic_string@DU?$char_traits@D@std@@V?$allocator@D@2@@std@@PAUtagBillItem@CBillClient@@@std@@@2@$0A@@std@@@std@@QAE?AViterator@12@V312@0@Z ; std::_Tree<std::_Tmap_traits<std::basic_string<char,std::char_traits<char>,std::allocator<char> >,CBillClient::tagBillItem *,std::less<std::basic_string<char,std::char_traits<char>,std::allocator<char> > >,std::allocator<std::pair<std::basic_string<char,std::char_traits<char>,std::allocator<char> > const ,CBillClient::tagBillItem *> >,0> >::erase
; Function compile flags: /Ogtpy
;	COMDAT ?erase@?$_Tree@V?$_Tmap_traits@V?$basic_string@DU?$char_traits@D@std@@V?$allocator@D@2@@std@@PAUtagBillItem@CBillClient@@U?$less@V?$basic_string@DU?$char_traits@D@std@@V?$allocator@D@2@@std@@@2@V?$allocator@U?$pair@$$CBV?$basic_string@DU?$char_traits@D@std@@V?$allocator@D@2@@std@@PAUtagBillItem@CBillClient@@@std@@@2@$0A@@std@@@std@@QAE?AViterator@12@V312@0@Z
_TEXT	SEGMENT
$T267577 = -8						; size = 8
___$ReturnUdt$ = 8					; size = 4
__First$ = 12						; size = 8
__Last$ = 20						; size = 8
?erase@?$_Tree@V?$_Tmap_traits@V?$basic_string@DU?$char_traits@D@std@@V?$allocator@D@2@@std@@PAUtagBillItem@CBillClient@@U?$less@V?$basic_string@DU?$char_traits@D@std@@V?$allocator@D@2@@std@@@2@V?$allocator@U?$pair@$$CBV?$basic_string@DU?$char_traits@D@std@@V?$allocator@D@2@@std@@PAUtagBillItem@CBillClient@@@std@@@2@$0A@@std@@@std@@QAE?AViterator@12@V312@0@Z PROC ; std::_Tree<std::_Tmap_traits<std::basic_string<char,std::char_traits<char>,std::allocator<char> >,CBillClient::tagBillItem *,std::less<std::basic_string<char,std::char_traits<char>,std::allocator<char> > >,std::allocator<std::pair<std::basic_string<char,std::char_traits<char>,std::allocator<char> > const ,CBillClient::tagBillItem *> >,0> >::erase, COMDAT
; _this$ = ecx

; 917  : 		{	// erase [_First, _Last)

  00000	83 ec 08	 sub	 esp, 8
  00003	53		 push	 ebx
  00004	55		 push	 ebp
  00005	56		 push	 esi
  00006	57		 push	 edi

; 918  : 		if (_First == begin() && _Last == end())

  00007	8b 7c 24 20	 mov	 edi, DWORD PTR __First$[esp+20]
  0000b	85 ff		 test	 edi, edi
  0000d	8b f1		 mov	 esi, ecx
  0000f	8b 46 04	 mov	 eax, DWORD PTR [esi+4]
  00012	8b 28		 mov	 ebp, DWORD PTR [eax]
  00014	74 04		 je	 SHORT $LN22@erase@3
  00016	3b fe		 cmp	 edi, esi
  00018	74 05		 je	 SHORT $LN23@erase@3
$LN22@erase@3:
  0001a	e8 00 00 00 00	 call	 __invalid_parameter_noinfo
$LN23@erase@3:
  0001f	8b 5c 24 24	 mov	 ebx, DWORD PTR __First$[esp+24]
  00023	3b dd		 cmp	 ebx, ebp
  00025	75 59		 jne	 SHORT $LL2@erase@3
  00027	8b 44 24 28	 mov	 eax, DWORD PTR __Last$[esp+20]
  0002b	85 c0		 test	 eax, eax
  0002d	8b 6e 04	 mov	 ebp, DWORD PTR [esi+4]
  00030	74 04		 je	 SHORT $LN37@erase@3
  00032	3b c6		 cmp	 eax, esi
  00034	74 05		 je	 SHORT $LN38@erase@3
$LN37@erase@3:
  00036	e8 00 00 00 00	 call	 __invalid_parameter_noinfo
$LN38@erase@3:
  0003b	39 6c 24 2c	 cmp	 DWORD PTR __Last$[esp+24], ebp
  0003f	75 3f		 jne	 SHORT $LL2@erase@3

; 919  : 			{	// erase all
; 920  : 			clear();

  00041	8b 4e 04	 mov	 ecx, DWORD PTR [esi+4]
  00044	8b 51 04	 mov	 edx, DWORD PTR [ecx+4]
  00047	52		 push	 edx
  00048	8b ce		 mov	 ecx, esi
  0004a	e8 00 00 00 00	 call	 ?_Erase@?$_Tree@V?$_Tmap_traits@V?$basic_string@DU?$char_traits@D@std@@V?$allocator@D@2@@std@@PAUtagBillItem@CBillClient@@U?$less@V?$basic_string@DU?$char_traits@D@std@@V?$allocator@D@2@@std@@@2@V?$allocator@U?$pair@$$CBV?$basic_string@DU?$char_traits@D@std@@V?$allocator@D@2@@std@@PAUtagBillItem@CBillClient@@@std@@@2@$0A@@std@@@std@@IAEXPAU_Node@?$_Tree_nod@V?$_Tmap_traits@V?$basic_string@DU?$char_traits@D@std@@V?$allocator@D@2@@std@@PAUtagBillItem@CBillClient@@U?$less@V?$basic_string@DU?$char_traits@D@std@@V?$allocator@D@2@@std@@@2@V?$allocator@U?$pair@$$CBV?$basic_string@DU?$char_traits@D@std@@V?$allocator@D@2@@std@@PAUtagBillItem@CBillClient@@@std@@@2@$0A@@std@@@2@@Z ; std::_Tree<std::_Tmap_traits<std::basic_string<char,std::char_traits<char>,std::allocator<char> >,CBillClient::tagBillItem *,std::less<std::basic_string<char,std::char_traits<char>,std::allocator<char> > >,std::allocator<std::pair<std::basic_string<char,std::char_traits<char>,std::allocator<char> > const ,CBillClient::tagBillItem *> >,0> >::_Erase
  0004f	8b 46 04	 mov	 eax, DWORD PTR [esi+4]
  00052	89 40 04	 mov	 DWORD PTR [eax+4], eax
  00055	8b 46 04	 mov	 eax, DWORD PTR [esi+4]
  00058	c7 46 08 00 00
	00 00		 mov	 DWORD PTR [esi+8], 0
  0005f	89 00		 mov	 DWORD PTR [eax], eax
  00061	8b 46 04	 mov	 eax, DWORD PTR [esi+4]
  00064	89 40 08	 mov	 DWORD PTR [eax+8], eax

; 921  : 			return (begin());

  00067	8b 46 04	 mov	 eax, DWORD PTR [esi+4]
  0006a	8b 08		 mov	 ecx, DWORD PTR [eax]
  0006c	8b 44 24 1c	 mov	 eax, DWORD PTR ___$ReturnUdt$[esp+20]
  00070	5f		 pop	 edi
  00071	89 30		 mov	 DWORD PTR [eax], esi
  00073	5e		 pop	 esi
  00074	5d		 pop	 ebp
  00075	89 48 04	 mov	 DWORD PTR [eax+4], ecx
  00078	5b		 pop	 ebx

; 928  : 			}
; 929  : 		}

  00079	83 c4 08	 add	 esp, 8
  0007c	c2 14 00	 ret	 20			; 00000014H
  0007f	90		 npad	 1
$LL2@erase@3:

; 922  : 			}
; 923  : 		else
; 924  : 			{	// partial erase, one at a time
; 925  : 			while (_First != _Last)

  00080	85 ff		 test	 edi, edi
  00082	74 06		 je	 SHORT $LN76@erase@3
  00084	3b 7c 24 28	 cmp	 edi, DWORD PTR __Last$[esp+20]
  00088	74 05		 je	 SHORT $LN77@erase@3
$LN76@erase@3:
  0008a	e8 00 00 00 00	 call	 __invalid_parameter_noinfo
$LN77@erase@3:
  0008f	3b 5c 24 2c	 cmp	 ebx, DWORD PTR __Last$[esp+24]
  00093	74 21		 je	 SHORT $LN1@erase@3

; 926  : 				erase(_First++);

  00095	8d 4c 24 20	 lea	 ecx, DWORD PTR __First$[esp+20]
  00099	e8 00 00 00 00	 call	 ?_Inc@const_iterator@?$_Tree@V?$_Tmap_traits@V?$basic_string@DU?$char_traits@D@std@@V?$allocator@D@2@@std@@PAUtagBillItem@CBillClient@@U?$less@V?$basic_string@DU?$char_traits@D@std@@V?$allocator@D@2@@std@@@2@V?$allocator@U?$pair@$$CBV?$basic_string@DU?$char_traits@D@std@@V?$allocator@D@2@@std@@PAUtagBillItem@CBillClient@@@std@@@2@$0A@@std@@@std@@QAEXXZ ; std::_Tree<std::_Tmap_traits<std::basic_string<char,std::char_traits<char>,std::allocator<char> >,CBillClient::tagBillItem *,std::less<std::basic_string<char,std::char_traits<char>,std::allocator<char> > >,std::allocator<std::pair<std::basic_string<char,std::char_traits<char>,std::allocator<char> > const ,CBillClient::tagBillItem *> >,0> >::const_iterator::_Inc
  0009e	53		 push	 ebx
  0009f	57		 push	 edi
  000a0	8d 54 24 18	 lea	 edx, DWORD PTR $T267577[esp+32]
  000a4	52		 push	 edx
  000a5	8b ce		 mov	 ecx, esi
  000a7	e8 00 00 00 00	 call	 ?erase@?$_Tree@V?$_Tmap_traits@V?$basic_string@DU?$char_traits@D@std@@V?$allocator@D@2@@std@@PAUtagBillItem@CBillClient@@U?$less@V?$basic_string@DU?$char_traits@D@std@@V?$allocator@D@2@@std@@@2@V?$allocator@U?$pair@$$CBV?$basic_string@DU?$char_traits@D@std@@V?$allocator@D@2@@std@@PAUtagBillItem@CBillClient@@@std@@@2@$0A@@std@@@std@@QAE?AViterator@12@V312@@Z ; std::_Tree<std::_Tmap_traits<std::basic_string<char,std::char_traits<char>,std::allocator<char> >,CBillClient::tagBillItem *,std::less<std::basic_string<char,std::char_traits<char>,std::allocator<char> > >,std::allocator<std::pair<std::basic_string<char,std::char_traits<char>,std::allocator<char> > const ,CBillClient::tagBillItem *> >,0> >::erase
  000ac	8b 5c 24 24	 mov	 ebx, DWORD PTR __First$[esp+24]
  000b0	8b 7c 24 20	 mov	 edi, DWORD PTR __First$[esp+20]
  000b4	eb ca		 jmp	 SHORT $LL2@erase@3
$LN1@erase@3:

; 927  : 			return (_First);

  000b6	8b 44 24 1c	 mov	 eax, DWORD PTR ___$ReturnUdt$[esp+20]
  000ba	89 38		 mov	 DWORD PTR [eax], edi
  000bc	5f		 pop	 edi
  000bd	5e		 pop	 esi
  000be	5d		 pop	 ebp
  000bf	89 58 04	 mov	 DWORD PTR [eax+4], ebx
  000c2	5b		 pop	 ebx

; 928  : 			}
; 929  : 		}

  000c3	83 c4 08	 add	 esp, 8
  000c6	c2 14 00	 ret	 20			; 00000014H
?erase@?$_Tree@V?$_Tmap_traits@V?$basic_string@DU?$char_traits@D@std@@V?$allocator@D@2@@std@@PAUtagBillItem@CBillClient@@U?$less@V?$basic_string@DU?$char_traits@D@std@@V?$allocator@D@2@@std@@@2@V?$allocator@U?$pair@$$CBV?$basic_string@DU?$char_traits@D@std@@V?$allocator@D@2@@std@@PAUtagBillItem@CBillClient@@@std@@@2@$0A@@std@@@std@@QAE?AViterator@12@V312@0@Z ENDP ; std::_Tree<std::_Tmap_traits<std::basic_string<char,std::char_traits<char>,std::allocator<char> >,CBillClient::tagBillItem *,std::less<std::basic_string<char,std::char_traits<char>,std::allocator<char> > >,std::allocator<std::pair<std::basic_string<char,std::char_traits<char>,std::allocator<char> > const ,CBillClient::tagBillItem *> >,0> >::erase
_TEXT	ENDS
PUBLIC	?_Tidy@?$_Tree@V?$_Tmap_traits@V?$basic_string@DU?$char_traits@D@std@@V?$allocator@D@2@@std@@PAUtagBillItem@CBillClient@@U?$less@V?$basic_string@DU?$char_traits@D@std@@V?$allocator@D@2@@std@@@2@V?$allocator@U?$pair@$$CBV?$basic_string@DU?$char_traits@D@std@@V?$allocator@D@2@@std@@PAUtagBillItem@CBillClient@@@std@@@2@$0A@@std@@@std@@IAEXXZ ; std::_Tree<std::_Tmap_traits<std::basic_string<char,std::char_traits<char>,std::allocator<char> >,CBillClient::tagBillItem *,std::less<std::basic_string<char,std::char_traits<char>,std::allocator<char> > >,std::allocator<std::pair<std::basic_string<char,std::char_traits<char>,std::allocator<char> > const ,CBillClient::tagBillItem *> >,0> >::_Tidy
; Function compile flags: /Ogtpy
;	COMDAT ?_Tidy@?$_Tree@V?$_Tmap_traits@V?$basic_string@DU?$char_traits@D@std@@V?$allocator@D@2@@std@@PAUtagBillItem@CBillClient@@U?$less@V?$basic_string@DU?$char_traits@D@std@@V?$allocator@D@2@@std@@@2@V?$allocator@U?$pair@$$CBV?$basic_string@DU?$char_traits@D@std@@V?$allocator@D@2@@std@@PAUtagBillItem@CBillClient@@@std@@@2@$0A@@std@@@std@@IAEXXZ
_TEXT	SEGMENT
$T267821 = -8						; size = 8
?_Tidy@?$_Tree@V?$_Tmap_traits@V?$basic_string@DU?$char_traits@D@std@@V?$allocator@D@2@@std@@PAUtagBillItem@CBillClient@@U?$less@V?$basic_string@DU?$char_traits@D@std@@V?$allocator@D@2@@std@@@2@V?$allocator@U?$pair@$$CBV?$basic_string@DU?$char_traits@D@std@@V?$allocator@D@2@@std@@PAUtagBillItem@CBillClient@@@std@@@2@$0A@@std@@@std@@IAEXXZ PROC ; std::_Tree<std::_Tmap_traits<std::basic_string<char,std::char_traits<char>,std::allocator<char> >,CBillClient::tagBillItem *,std::less<std::basic_string<char,std::char_traits<char>,std::allocator<char> > >,std::allocator<std::pair<std::basic_string<char,std::char_traits<char>,std::allocator<char> > const ,CBillClient::tagBillItem *> >,0> >::_Tidy, COMDAT
; _this$ = ecx

; 1326 : 		{	// free all storage

  00000	83 ec 08	 sub	 esp, 8
  00003	56		 push	 esi
  00004	8b f1		 mov	 esi, ecx

; 1327 : 		erase(begin(), end());

  00006	8b 46 04	 mov	 eax, DWORD PTR [esi+4]
  00009	8b 08		 mov	 ecx, DWORD PTR [eax]
  0000b	50		 push	 eax
  0000c	56		 push	 esi
  0000d	51		 push	 ecx
  0000e	56		 push	 esi
  0000f	8d 44 24 14	 lea	 eax, DWORD PTR $T267821[esp+28]
  00013	50		 push	 eax
  00014	8b ce		 mov	 ecx, esi
  00016	e8 00 00 00 00	 call	 ?erase@?$_Tree@V?$_Tmap_traits@V?$basic_string@DU?$char_traits@D@std@@V?$allocator@D@2@@std@@PAUtagBillItem@CBillClient@@U?$less@V?$basic_string@DU?$char_traits@D@std@@V?$allocator@D@2@@std@@@2@V?$allocator@U?$pair@$$CBV?$basic_string@DU?$char_traits@D@std@@V?$allocator@D@2@@std@@PAUtagBillItem@CBillClient@@@std@@@2@$0A@@std@@@std@@QAE?AViterator@12@V312@0@Z ; std::_Tree<std::_Tmap_traits<std::basic_string<char,std::char_traits<char>,std::allocator<char> >,CBillClient::tagBillItem *,std::less<std::basic_string<char,std::char_traits<char>,std::allocator<char> > >,std::allocator<std::pair<std::basic_string<char,std::char_traits<char>,std::allocator<char> > const ,CBillClient::tagBillItem *> >,0> >::erase

; 1328 : 		this->_Alptr.destroy(&_Left(_Myhead));
; 1329 : 		this->_Alptr.destroy(&_Parent(_Myhead));
; 1330 : 		this->_Alptr.destroy(&_Right(_Myhead));
; 1331 : 		this->_Alnod.deallocate(_Myhead, 1);

  0001b	8b 4e 04	 mov	 ecx, DWORD PTR [esi+4]
  0001e	51		 push	 ecx
  0001f	e8 00 00 00 00	 call	 ??3@YAXPAX@Z		; operator delete
  00024	83 c4 04	 add	 esp, 4

; 1332 : 		_Myhead = 0, _Mysize = 0;

  00027	33 c0		 xor	 eax, eax
  00029	89 46 04	 mov	 DWORD PTR [esi+4], eax
  0002c	89 46 08	 mov	 DWORD PTR [esi+8], eax
  0002f	5e		 pop	 esi

; 1333 : 		}

  00030	83 c4 08	 add	 esp, 8
  00033	c3		 ret	 0
?_Tidy@?$_Tree@V?$_Tmap_traits@V?$basic_string@DU?$char_traits@D@std@@V?$allocator@D@2@@std@@PAUtagBillItem@CBillClient@@U?$less@V?$basic_string@DU?$char_traits@D@std@@V?$allocator@D@2@@std@@@2@V?$allocator@U?$pair@$$CBV?$basic_string@DU?$char_traits@D@std@@V?$allocator@D@2@@std@@PAUtagBillItem@CBillClient@@@std@@@2@$0A@@std@@@std@@IAEXXZ ENDP ; std::_Tree<std::_Tmap_traits<std::basic_string<char,std::char_traits<char>,std::allocator<char> >,CBillClient::tagBillItem *,std::less<std::basic_string<char,std::char_traits<char>,std::allocator<char> > >,std::allocator<std::pair<std::basic_string<char,std::char_traits<char>,std::allocator<char> > const ,CBillClient::tagBillItem *> >,0> >::_Tidy
_TEXT	ENDS
PUBLIC	?_Copy@?$_Tree@V?$_Tmap_traits@V?$basic_string@DU?$char_traits@D@std@@V?$allocator@D@2@@std@@PAUtagBillItem@CBillClient@@U?$less@V?$basic_string@DU?$char_traits@D@std@@V?$allocator@D@2@@std@@@2@V?$allocator@U?$pair@$$CBV?$basic_string@DU?$char_traits@D@std@@V?$allocator@D@2@@std@@PAUtagBillItem@CBillClient@@@std@@@2@$0A@@std@@@std@@IAEPAU_Node@?$_Tree_nod@V?$_Tmap_traits@V?$basic_string@DU?$char_traits@D@std@@V?$allocator@D@2@@std@@PAUtagBillItem@CBillClient@@U?$less@V?$basic_string@DU?$char_traits@D@std@@V?$allocator@D@2@@std@@@2@V?$allocator@U?$pair@$$CBV?$basic_string@DU?$char_traits@D@std@@V?$allocator@D@2@@std@@PAUtagBillItem@CBillClient@@@std@@@2@$0A@@std@@@2@PAU342@0@Z ; std::_Tree<std::_Tmap_traits<std::basic_string<char,std::char_traits<char>,std::allocator<char> >,CBillClient::tagBillItem *,std::less<std::basic_string<char,std::char_traits<char>,std::allocator<char> > >,std::allocator<std::pair<std::basic_string<char,std::char_traits<char>,std::allocator<char> > const ,CBillClient::tagBillItem *> >,0> >::_Copy
;	COMDAT xdata$x
xdata$x	SEGMENT
__catchsym$?_Copy@?$_Tree@V?$_Tmap_traits@V?$basic_string@DU?$char_traits@D@std@@V?$allocator@D@2@@std@@PAUtagBillItem@CBillClient@@U?$less@V?$basic_string@DU?$char_traits@D@std@@V?$allocator@D@2@@std@@@2@V?$allocator@U?$pair@$$CBV?$basic_string@DU?$char_traits@D@std@@V?$allocator@D@2@@std@@PAUtagBillItem@CBillClient@@@std@@@2@$0A@@std@@@std@@IAEPAU_Node@?$_Tree_nod@V?$_Tmap_traits@V?$basic_string@DU?$char_traits@D@std@@V?$allocator@D@2@@std@@PAUtagBillItem@CBillClient@@U?$less@V?$basic_string@DU?$char_traits@D@std@@V?$allocator@D@2@@std@@@2@V?$allocator@U?$pair@$$CBV?$basic_string@DU?$char_traits@D@std@@V?$allocator@D@2@@std@@PAUtagBillItem@CBillClient@@@std@@@2@$0A@@std@@@2@PAU342@0@Z$2 DD 040H
	DD	00H
	DD	00H
	DD	FLAT:__catch$?_Copy@?$_Tree@V?$_Tmap_traits@V?$basic_string@DU?$char_traits@D@std@@V?$allocator@D@2@@std@@PAUtagBillItem@CBillClient@@U?$less@V?$basic_string@DU?$char_traits@D@std@@V?$allocator@D@2@@std@@@2@V?$allocator@U?$pair@$$CBV?$basic_string@DU?$char_traits@D@std@@V?$allocator@D@2@@std@@PAUtagBillItem@CBillClient@@@std@@@2@$0A@@std@@@std@@IAEPAU_Node@?$_Tree_nod@V?$_Tmap_traits@V?$basic_string@DU?$char_traits@D@std@@V?$allocator@D@2@@std@@PAUtagBillItem@CBillClient@@U?$less@V?$basic_string@DU?$char_traits@D@std@@V?$allocator@D@2@@std@@@2@V?$allocator@U?$pair@$$CBV?$basic_string@DU?$char_traits@D@std@@V?$allocator@D@2@@std@@PAUtagBillItem@CBillClient@@@std@@@2@$0A@@std@@@2@PAU342@0@Z$0
__unwindtable$?_Copy@?$_Tree@V?$_Tmap_traits@V?$basic_string@DU?$char_traits@D@std@@V?$allocator@D@2@@std@@PAUtagBillItem@CBillClient@@U?$less@V?$basic_string@DU?$char_traits@D@std@@V?$allocator@D@2@@std@@@2@V?$allocator@U?$pair@$$CBV?$basic_string@DU?$char_traits@D@std@@V?$allocator@D@2@@std@@PAUtagBillItem@CBillClient@@@std@@@2@$0A@@std@@@std@@IAEPAU_Node@?$_Tree_nod@V?$_Tmap_traits@V?$basic_string@DU?$char_traits@D@std@@V?$allocator@D@2@@std@@PAUtagBillItem@CBillClient@@U?$less@V?$basic_string@DU?$char_traits@D@std@@V?$allocator@D@2@@std@@@2@V?$allocator@U?$pair@$$CBV?$basic_string@DU?$char_traits@D@std@@V?$allocator@D@2@@std@@PAUtagBillItem@CBillClient@@@std@@@2@$0A@@std@@@2@PAU342@0@Z DD 0ffffffffH
	DD	00H
	DD	0ffffffffH
	DD	00H
__tryblocktable$?_Copy@?$_Tree@V?$_Tmap_traits@V?$basic_string@DU?$char_traits@D@std@@V?$allocator@D@2@@std@@PAUtagBillItem@CBillClient@@U?$less@V?$basic_string@DU?$char_traits@D@std@@V?$allocator@D@2@@std@@@2@V?$allocator@U?$pair@$$CBV?$basic_string@DU?$char_traits@D@std@@V?$allocator@D@2@@std@@PAUtagBillItem@CBillClient@@@std@@@2@$0A@@std@@@std@@IAEPAU_Node@?$_Tree_nod@V?$_Tmap_traits@V?$basic_string@DU?$char_traits@D@std@@V?$allocator@D@2@@std@@PAUtagBillItem@CBillClient@@U?$less@V?$basic_string@DU?$char_traits@D@std@@V?$allocator@D@2@@std@@@2@V?$allocator@U?$pair@$$CBV?$basic_string@DU?$char_traits@D@std@@V?$allocator@D@2@@std@@PAUtagBillItem@CBillClient@@@std@@@2@$0A@@std@@@2@PAU342@0@Z DD 00H
	DD	00H
	DD	01H
	DD	01H
	DD	FLAT:__catchsym$?_Copy@?$_Tree@V?$_Tmap_traits@V?$basic_string@DU?$char_traits@D@std@@V?$allocator@D@2@@std@@PAUtagBillItem@CBillClient@@U?$less@V?$basic_string@DU?$char_traits@D@std@@V?$allocator@D@2@@std@@@2@V?$allocator@U?$pair@$$CBV?$basic_string@DU?$char_traits@D@std@@V?$allocator@D@2@@std@@PAUtagBillItem@CBillClient@@@std@@@2@$0A@@std@@@std@@IAEPAU_Node@?$_Tree_nod@V?$_Tmap_traits@V?$basic_string@DU?$char_traits@D@std@@V?$allocator@D@2@@std@@PAUtagBillItem@CBillClient@@U?$less@V?$basic_string@DU?$char_traits@D@std@@V?$allocator@D@2@@std@@@2@V?$allocator@U?$pair@$$CBV?$basic_string@DU?$char_traits@D@std@@V?$allocator@D@2@@std@@PAUtagBillItem@CBillClient@@@std@@@2@$0A@@std@@@2@PAU342@0@Z$2
__ehfuncinfo$?_Copy@?$_Tree@V?$_Tmap_traits@V?$basic_string@DU?$char_traits@D@std@@V?$allocator@D@2@@std@@PAUtagBillItem@CBillClient@@U?$less@V?$basic_string@DU?$char_traits@D@std@@V?$allocator@D@2@@std@@@2@V?$allocator@U?$pair@$$CBV?$basic_string@DU?$char_traits@D@std@@V?$allocator@D@2@@std@@PAUtagBillItem@CBillClient@@@std@@@2@$0A@@std@@@std@@IAEPAU_Node@?$_Tree_nod@V?$_Tmap_traits@V?$basic_string@DU?$char_traits@D@std@@V?$allocator@D@2@@std@@PAUtagBillItem@CBillClient@@U?$less@V?$basic_string@DU?$char_traits@D@std@@V?$allocator@D@2@@std@@@2@V?$allocator@U?$pair@$$CBV?$basic_string@DU?$char_traits@D@std@@V?$allocator@D@2@@std@@PAUtagBillItem@CBillClient@@@std@@@2@$0A@@std@@@2@PAU342@0@Z DD 019930522H
	DD	02H
	DD	FLAT:__unwindtable$?_Copy@?$_Tree@V?$_Tmap_traits@V?$basic_string@DU?$char_traits@D@std@@V?$allocator@D@2@@std@@PAUtagBillItem@CBillClient@@U?$less@V?$basic_string@DU?$char_traits@D@std@@V?$allocator@D@2@@std@@@2@V?$allocator@U?$pair@$$CBV?$basic_string@DU?$char_traits@D@std@@V?$allocator@D@2@@std@@PAUtagBillItem@CBillClient@@@std@@@2@$0A@@std@@@std@@IAEPAU_Node@?$_Tree_nod@V?$_Tmap_traits@V?$basic_string@DU?$char_traits@D@std@@V?$allocator@D@2@@std@@PAUtagBillItem@CBillClient@@U?$less@V?$basic_string@DU?$char_traits@D@std@@V?$allocator@D@2@@std@@@2@V?$allocator@U?$pair@$$CBV?$basic_string@DU?$char_traits@D@std@@V?$allocator@D@2@@std@@PAUtagBillItem@CBillClient@@@std@@@2@$0A@@std@@@2@PAU342@0@Z
	DD	01H
	DD	FLAT:__tryblocktable$?_Copy@?$_Tree@V?$_Tmap_traits@V?$basic_string@DU?$char_traits@D@std@@V?$allocator@D@2@@std@@PAUtagBillItem@CBillClient@@U?$less@V?$basic_string@DU?$char_traits@D@std@@V?$allocator@D@2@@std@@@2@V?$allocator@U?$pair@$$CBV?$basic_string@DU?$char_traits@D@std@@V?$allocator@D@2@@std@@PAUtagBillItem@CBillClient@@@std@@@2@$0A@@std@@@std@@IAEPAU_Node@?$_Tree_nod@V?$_Tmap_traits@V?$basic_string@DU?$char_traits@D@std@@V?$allocator@D@2@@std@@PAUtagBillItem@CBillClient@@U?$less@V?$basic_string@DU?$char_traits@D@std@@V?$allocator@D@2@@std@@@2@V?$allocator@U?$pair@$$CBV?$basic_string@DU?$char_traits@D@std@@V?$allocator@D@2@@std@@PAUtagBillItem@CBillClient@@@std@@@2@$0A@@std@@@2@PAU342@0@Z
	DD	2 DUP(00H)
	DD	00H
	DD	01H
; Function compile flags: /Ogtpy
xdata$x	ENDS
;	COMDAT ?_Copy@?$_Tree@V?$_Tmap_traits@V?$basic_string@DU?$char_traits@D@std@@V?$allocator@D@2@@std@@PAUtagBillItem@CBillClient@@U?$less@V?$basic_string@DU?$char_traits@D@std@@V?$allocator@D@2@@std@@@2@V?$allocator@U?$pair@$$CBV?$basic_string@DU?$char_traits@D@std@@V?$allocator@D@2@@std@@PAUtagBillItem@CBillClient@@@std@@@2@$0A@@std@@@std@@IAEPAU_Node@?$_Tree_nod@V?$_Tmap_traits@V?$basic_string@DU?$char_traits@D@std@@V?$allocator@D@2@@std@@PAUtagBillItem@CBillClient@@U?$less@V?$basic_string@DU?$char_traits@D@std@@V?$allocator@D@2@@std@@@2@V?$allocator@U?$pair@$$CBV?$basic_string@DU?$char_traits@D@std@@V?$allocator@D@2@@std@@PAUtagBillItem@CBillClient@@@std@@@2@$0A@@std@@@2@PAU342@0@Z
_TEXT	SEGMENT
_this$ = -24						; size = 4
__Newroot$ = -20					; size = 4
__$EHRec$ = -16						; size = 16
__Rootnode$ = 8						; size = 4
__Wherenode$ = 12					; size = 4
?_Copy@?$_Tree@V?$_Tmap_traits@V?$basic_string@DU?$char_traits@D@std@@V?$allocator@D@2@@std@@PAUtagBillItem@CBillClient@@U?$less@V?$basic_string@DU?$char_traits@D@std@@V?$allocator@D@2@@std@@@2@V?$allocator@U?$pair@$$CBV?$basic_string@DU?$char_traits@D@std@@V?$allocator@D@2@@std@@PAUtagBillItem@CBillClient@@@std@@@2@$0A@@std@@@std@@IAEPAU_Node@?$_Tree_nod@V?$_Tmap_traits@V?$basic_string@DU?$char_traits@D@std@@V?$allocator@D@2@@std@@PAUtagBillItem@CBillClient@@U?$less@V?$basic_string@DU?$char_traits@D@std@@V?$allocator@D@2@@std@@@2@V?$allocator@U?$pair@$$CBV?$basic_string@DU?$char_traits@D@std@@V?$allocator@D@2@@std@@PAUtagBillItem@CBillClient@@@std@@@2@$0A@@std@@@2@PAU342@0@Z PROC ; std::_Tree<std::_Tmap_traits<std::basic_string<char,std::char_traits<char>,std::allocator<char> >,CBillClient::tagBillItem *,std::less<std::basic_string<char,std::char_traits<char>,std::allocator<char> > >,std::allocator<std::pair<std::basic_string<char,std::char_traits<char>,std::allocator<char> > const ,CBillClient::tagBillItem *> >,0> >::_Copy, COMDAT
; _this$ = ecx

; 1049 : 		{	// copy entire subtree, recursively

  00000	55		 push	 ebp
  00001	8b ec		 mov	 ebp, esp
  00003	6a ff		 push	 -1
  00005	68 00 00 00 00	 push	 __ehhandler$?_Copy@?$_Tree@V?$_Tmap_traits@V?$basic_string@DU?$char_traits@D@std@@V?$allocator@D@2@@std@@PAUtagBillItem@CBillClient@@U?$less@V?$basic_string@DU?$char_traits@D@std@@V?$allocator@D@2@@std@@@2@V?$allocator@U?$pair@$$CBV?$basic_string@DU?$char_traits@D@std@@V?$allocator@D@2@@std@@PAUtagBillItem@CBillClient@@@std@@@2@$0A@@std@@@std@@IAEPAU_Node@?$_Tree_nod@V?$_Tmap_traits@V?$basic_string@DU?$char_traits@D@std@@V?$allocator@D@2@@std@@PAUtagBillItem@CBillClient@@U?$less@V?$basic_string@DU?$char_traits@D@std@@V?$allocator@D@2@@std@@@2@V?$allocator@U?$pair@$$CBV?$basic_string@DU?$char_traits@D@std@@V?$allocator@D@2@@std@@PAUtagBillItem@CBillClient@@@std@@@2@$0A@@std@@@2@PAU342@0@Z
  0000a	64 a1 00 00 00
	00		 mov	 eax, DWORD PTR fs:0
  00010	50		 push	 eax
  00011	83 ec 0c	 sub	 esp, 12			; 0000000cH
  00014	53		 push	 ebx
  00015	56		 push	 esi
  00016	57		 push	 edi
  00017	a1 00 00 00 00	 mov	 eax, DWORD PTR ___security_cookie
  0001c	33 c5		 xor	 eax, ebp
  0001e	50		 push	 eax
  0001f	8d 45 f4	 lea	 eax, DWORD PTR __$EHRec$[ebp+4]
  00022	64 a3 00 00 00
	00		 mov	 DWORD PTR fs:0, eax
  00028	89 65 f0	 mov	 DWORD PTR __$EHRec$[ebp], esp
  0002b	8b f1		 mov	 esi, ecx
  0002d	89 75 e8	 mov	 DWORD PTR _this$[ebp], esi

; 1050 : 		_Nodeptr _Newroot = _Myhead;	// point at nil node
; 1051 : 
; 1052 : 		if (!_Isnil(_Rootnode))

  00030	8b 5d 08	 mov	 ebx, DWORD PTR __Rootnode$[ebp]
  00033	80 7b 2d 00	 cmp	 BYTE PTR [ebx+45], 0
  00037	8b 46 04	 mov	 eax, DWORD PTR [esi+4]
  0003a	89 45 ec	 mov	 DWORD PTR __Newroot$[ebp], eax
  0003d	75 47		 jne	 SHORT $LN8@Copy@2

; 1053 : 			{	// copy a node, then any subtrees
; 1054 : 			_Nodeptr _Pnode = _Buynode(_Myhead, _Wherenode, _Myhead,
; 1055 : 				_Myval(_Rootnode), _Color(_Rootnode));

  0003f	0f b6 4b 2c	 movzx	 ecx, BYTE PTR [ebx+44]
  00043	51		 push	 ecx
  00044	8b 4d 0c	 mov	 ecx, DWORD PTR __Wherenode$[ebp]
  00047	8d 53 0c	 lea	 edx, DWORD PTR [ebx+12]
  0004a	52		 push	 edx
  0004b	50		 push	 eax
  0004c	51		 push	 ecx
  0004d	50		 push	 eax
  0004e	8b ce		 mov	 ecx, esi
  00050	e8 00 00 00 00	 call	 ?_Buynode@?$_Tree@V?$_Tmap_traits@V?$basic_string@DU?$char_traits@D@std@@V?$allocator@D@2@@std@@PAUtagBillItem@CBillClient@@U?$less@V?$basic_string@DU?$char_traits@D@std@@V?$allocator@D@2@@std@@@2@V?$allocator@U?$pair@$$CBV?$basic_string@DU?$char_traits@D@std@@V?$allocator@D@2@@std@@PAUtagBillItem@CBillClient@@@std@@@2@$0A@@std@@@std@@IAEPAU_Node@?$_Tree_nod@V?$_Tmap_traits@V?$basic_string@DU?$char_traits@D@std@@V?$allocator@D@2@@std@@PAUtagBillItem@CBillClient@@U?$less@V?$basic_string@DU?$char_traits@D@std@@V?$allocator@D@2@@std@@@2@V?$allocator@U?$pair@$$CBV?$basic_string@DU?$char_traits@D@std@@V?$allocator@D@2@@std@@PAUtagBillItem@CBillClient@@@std@@@2@$0A@@std@@@2@PAU342@00ABU?$pair@$$CBV?$basic_string@DU?$char_traits@D@std@@V?$allocator@D@2@@std@@PAUtagBillItem@CBillClient@@@2@D@Z ; std::_Tree<std::_Tmap_traits<std::basic_string<char,std::char_traits<char>,std::allocator<char> >,CBillClient::tagBillItem *,std::less<std::basic_string<char,std::char_traits<char>,std::allocator<char> > >,std::allocator<std::pair<std::basic_string<char,std::char_traits<char>,std::allocator<char> > const ,CBillClient::tagBillItem *> >,0> >::_Buynode

; 1056 : 			if (_Isnil(_Newroot))

  00055	8b 55 ec	 mov	 edx, DWORD PTR __Newroot$[ebp]
  00058	80 7a 2d 00	 cmp	 BYTE PTR [edx+45], 0
  0005c	8b f8		 mov	 edi, eax
  0005e	74 03		 je	 SHORT $LN2@Copy@2

; 1057 : 				_Newroot = _Pnode;	// memorize new root

  00060	89 7d ec	 mov	 DWORD PTR __Newroot$[ebp], edi
$LN2@Copy@2:

; 1058 : 
; 1059 : 			_TRY_BEGIN
; 1060 : 			_Left(_Pnode) = _Copy(_Left(_Rootnode), _Pnode);

  00063	8b 03		 mov	 eax, DWORD PTR [ebx]
  00065	57		 push	 edi
  00066	50		 push	 eax
  00067	8b ce		 mov	 ecx, esi
  00069	c7 45 fc 00 00
	00 00		 mov	 DWORD PTR __$EHRec$[ebp+12], 0
  00070	e8 00 00 00 00	 call	 ?_Copy@?$_Tree@V?$_Tmap_traits@V?$basic_string@DU?$char_traits@D@std@@V?$allocator@D@2@@std@@PAUtagBillItem@CBillClient@@U?$less@V?$basic_string@DU?$char_traits@D@std@@V?$allocator@D@2@@std@@@2@V?$allocator@U?$pair@$$CBV?$basic_string@DU?$char_traits@D@std@@V?$allocator@D@2@@std@@PAUtagBillItem@CBillClient@@@std@@@2@$0A@@std@@@std@@IAEPAU_Node@?$_Tree_nod@V?$_Tmap_traits@V?$basic_string@DU?$char_traits@D@std@@V?$allocator@D@2@@std@@PAUtagBillItem@CBillClient@@U?$less@V?$basic_string@DU?$char_traits@D@std@@V?$allocator@D@2@@std@@@2@V?$allocator@U?$pair@$$CBV?$basic_string@DU?$char_traits@D@std@@V?$allocator@D@2@@std@@PAUtagBillItem@CBillClient@@@std@@@2@$0A@@std@@@2@PAU342@0@Z ; std::_Tree<std::_Tmap_traits<std::basic_string<char,std::char_traits<char>,std::allocator<char> >,CBillClient::tagBillItem *,std::less<std::basic_string<char,std::char_traits<char>,std::allocator<char> > >,std::allocator<std::pair<std::basic_string<char,std::char_traits<char>,std::allocator<char> > const ,CBillClient::tagBillItem *> >,0> >::_Copy
  00075	89 07		 mov	 DWORD PTR [edi], eax

; 1061 : 			_Right(_Pnode) = _Copy(_Right(_Rootnode), _Pnode);

  00077	8b 4b 08	 mov	 ecx, DWORD PTR [ebx+8]
  0007a	57		 push	 edi
  0007b	51		 push	 ecx
  0007c	8b ce		 mov	 ecx, esi
  0007e	e8 00 00 00 00	 call	 ?_Copy@?$_Tree@V?$_Tmap_traits@V?$basic_string@DU?$char_traits@D@std@@V?$allocator@D@2@@std@@PAUtagBillItem@CBillClient@@U?$less@V?$basic_string@DU?$char_traits@D@std@@V?$allocator@D@2@@std@@@2@V?$allocator@U?$pair@$$CBV?$basic_string@DU?$char_traits@D@std@@V?$allocator@D@2@@std@@PAUtagBillItem@CBillClient@@@std@@@2@$0A@@std@@@std@@IAEPAU_Node@?$_Tree_nod@V?$_Tmap_traits@V?$basic_string@DU?$char_traits@D@std@@V?$allocator@D@2@@std@@PAUtagBillItem@CBillClient@@U?$less@V?$basic_string@DU?$char_traits@D@std@@V?$allocator@D@2@@std@@@2@V?$allocator@U?$pair@$$CBV?$basic_string@DU?$char_traits@D@std@@V?$allocator@D@2@@std@@PAUtagBillItem@CBillClient@@@std@@@2@$0A@@std@@@2@PAU342@0@Z ; std::_Tree<std::_Tmap_traits<std::basic_string<char,std::char_traits<char>,std::allocator<char> >,CBillClient::tagBillItem *,std::less<std::basic_string<char,std::char_traits<char>,std::allocator<char> > >,std::allocator<std::pair<std::basic_string<char,std::char_traits<char>,std::allocator<char> > const ,CBillClient::tagBillItem *> >,0> >::_Copy
  00083	89 47 08	 mov	 DWORD PTR [edi+8], eax
$LN8@Copy@2:

; 1065 : 			_CATCH_END
; 1066 : 			}
; 1067 : 
; 1068 : 		return (_Newroot);	// return newly constructed tree

  00086	8b 45 ec	 mov	 eax, DWORD PTR __Newroot$[ebp]

; 1069 : 		}

  00089	8b 4d f4	 mov	 ecx, DWORD PTR __$EHRec$[ebp+4]
  0008c	64 89 0d 00 00
	00 00		 mov	 DWORD PTR fs:0, ecx
  00093	59		 pop	 ecx
  00094	5f		 pop	 edi
  00095	5e		 pop	 esi
  00096	5b		 pop	 ebx
  00097	8b e5		 mov	 esp, ebp
  00099	5d		 pop	 ebp
  0009a	c2 08 00	 ret	 8
__catch$?_Copy@?$_Tree@V?$_Tmap_traits@V?$basic_string@DU?$char_traits@D@std@@V?$allocator@D@2@@std@@PAUtagBillItem@CBillClient@@U?$less@V?$basic_string@DU?$char_traits@D@std@@V?$allocator@D@2@@std@@@2@V?$allocator@U?$pair@$$CBV?$basic_string@DU?$char_traits@D@std@@V?$allocator@D@2@@std@@PAUtagBillItem@CBillClient@@@std@@@2@$0A@@std@@@std@@IAEPAU_Node@?$_Tree_nod@V?$_Tmap_traits@V?$basic_string@DU?$char_traits@D@std@@V?$allocator@D@2@@std@@PAUtagBillItem@CBillClient@@U?$less@V?$basic_string@DU?$char_traits@D@std@@V?$allocator@D@2@@std@@@2@V?$allocator@U?$pair@$$CBV?$basic_string@DU?$char_traits@D@std@@V?$allocator@D@2@@std@@PAUtagBillItem@CBillClient@@@std@@@2@$0A@@std@@@2@PAU342@0@Z$0:

; 1062 : 			_CATCH_ALL
; 1063 : 			_Erase(_Newroot);	// subtree copy failed, bail out

  0009d	8b 55 ec	 mov	 edx, DWORD PTR __Newroot$[ebp]
  000a0	8b 4d e8	 mov	 ecx, DWORD PTR _this$[ebp]
  000a3	52		 push	 edx
  000a4	e8 00 00 00 00	 call	 ?_Erase@?$_Tree@V?$_Tmap_traits@V?$basic_string@DU?$char_traits@D@std@@V?$allocator@D@2@@std@@PAUtagBillItem@CBillClient@@U?$less@V?$basic_string@DU?$char_traits@D@std@@V?$allocator@D@2@@std@@@2@V?$allocator@U?$pair@$$CBV?$basic_string@DU?$char_traits@D@std@@V?$allocator@D@2@@std@@PAUtagBillItem@CBillClient@@@std@@@2@$0A@@std@@@std@@IAEXPAU_Node@?$_Tree_nod@V?$_Tmap_traits@V?$basic_string@DU?$char_traits@D@std@@V?$allocator@D@2@@std@@PAUtagBillItem@CBillClient@@U?$less@V?$basic_string@DU?$char_traits@D@std@@V?$allocator@D@2@@std@@@2@V?$allocator@U?$pair@$$CBV?$basic_string@DU?$char_traits@D@std@@V?$allocator@D@2@@std@@PAUtagBillItem@CBillClient@@@std@@@2@$0A@@std@@@2@@Z ; std::_Tree<std::_Tmap_traits<std::basic_string<char,std::char_traits<char>,std::allocator<char> >,CBillClient::tagBillItem *,std::less<std::basic_string<char,std::char_traits<char>,std::allocator<char> > >,std::allocator<std::pair<std::basic_string<char,std::char_traits<char>,std::allocator<char> > const ,CBillClient::tagBillItem *> >,0> >::_Erase

; 1064 : 			_RERAISE;

  000a9	6a 00		 push	 0
  000ab	6a 00		 push	 0
  000ad	e8 00 00 00 00	 call	 __CxxThrowException@8
$LN29@Copy@2:
$LN28@Copy@2:
  000b2	cc		 int	 3
_TEXT	ENDS
;	COMDAT text$x
text$x	SEGMENT
__ehhandler$?_Copy@?$_Tree@V?$_Tmap_traits@V?$basic_string@DU?$char_traits@D@std@@V?$allocator@D@2@@std@@PAUtagBillItem@CBillClient@@U?$less@V?$basic_string@DU?$char_traits@D@std@@V?$allocator@D@2@@std@@@2@V?$allocator@U?$pair@$$CBV?$basic_string@DU?$char_traits@D@std@@V?$allocator@D@2@@std@@PAUtagBillItem@CBillClient@@@std@@@2@$0A@@std@@@std@@IAEPAU_Node@?$_Tree_nod@V?$_Tmap_traits@V?$basic_string@DU?$char_traits@D@std@@V?$allocator@D@2@@std@@PAUtagBillItem@CBillClient@@U?$less@V?$basic_string@DU?$char_traits@D@std@@V?$allocator@D@2@@std@@@2@V?$allocator@U?$pair@$$CBV?$basic_string@DU?$char_traits@D@std@@V?$allocator@D@2@@std@@PAUtagBillItem@CBillClient@@@std@@@2@$0A@@std@@@2@PAU342@0@Z:
  00000	8b 54 24 08	 mov	 edx, DWORD PTR [esp+8]
  00004	8d 42 0c	 lea	 eax, DWORD PTR [edx+12]
  00007	8b 4a e4	 mov	 ecx, DWORD PTR [edx-28]
  0000a	33 c8		 xor	 ecx, eax
  0000c	e8 00 00 00 00	 call	 @__security_check_cookie@4
  00011	b8 00 00 00 00	 mov	 eax, OFFSET __ehfuncinfo$?_Copy@?$_Tree@V?$_Tmap_traits@V?$basic_string@DU?$char_traits@D@std@@V?$allocator@D@2@@std@@PAUtagBillItem@CBillClient@@U?$less@V?$basic_string@DU?$char_traits@D@std@@V?$allocator@D@2@@std@@@2@V?$allocator@U?$pair@$$CBV?$basic_string@DU?$char_traits@D@std@@V?$allocator@D@2@@std@@PAUtagBillItem@CBillClient@@@std@@@2@$0A@@std@@@std@@IAEPAU_Node@?$_Tree_nod@V?$_Tmap_traits@V?$basic_string@DU?$char_traits@D@std@@V?$allocator@D@2@@std@@PAUtagBillItem@CBillClient@@U?$less@V?$basic_string@DU?$char_traits@D@std@@V?$allocator@D@2@@std@@@2@V?$allocator@U?$pair@$$CBV?$basic_string@DU?$char_traits@D@std@@V?$allocator@D@2@@std@@PAUtagBillItem@CBillClient@@@std@@@2@$0A@@std@@@2@PAU342@0@Z
  00016	e9 00 00 00 00	 jmp	 ___CxxFrameHandler3
text$x	ENDS
?_Copy@?$_Tree@V?$_Tmap_traits@V?$basic_string@DU?$char_traits@D@std@@V?$allocator@D@2@@std@@PAUtagBillItem@CBillClient@@U?$less@V?$basic_string@DU?$char_traits@D@std@@V?$allocator@D@2@@std@@@2@V?$allocator@U?$pair@$$CBV?$basic_string@DU?$char_traits@D@std@@V?$allocator@D@2@@std@@PAUtagBillItem@CBillClient@@@std@@@2@$0A@@std@@@std@@IAEPAU_Node@?$_Tree_nod@V?$_Tmap_traits@V?$basic_string@DU?$char_traits@D@std@@V?$allocator@D@2@@std@@PAUtagBillItem@CBillClient@@U?$less@V?$basic_string@DU?$char_traits@D@std@@V?$allocator@D@2@@std@@@2@V?$allocator@U?$pair@$$CBV?$basic_string@DU?$char_traits@D@std@@V?$allocator@D@2@@std@@PAUtagBillItem@CBillClient@@@std@@@2@$0A@@std@@@2@PAU342@0@Z ENDP ; std::_Tree<std::_Tmap_traits<std::basic_string<char,std::char_traits<char>,std::allocator<char> >,CBillClient::tagBillItem *,std::less<std::basic_string<char,std::char_traits<char>,std::allocator<char> > >,std::allocator<std::pair<std::basic_string<char,std::char_traits<char>,std::allocator<char> > const ,CBillClient::tagBillItem *> >,0> >::_Copy
PUBLIC	__TI3?AVlength_error@std@@
PUBLIC	??_C@_0BE@JONHPENG@map?1set?$DMT?$DO?5too?5long?$AA@ ; `string'
PUBLIC	?_Insert@?$_Tree@V?$_Tmap_traits@V?$basic_string@DU?$char_traits@D@std@@V?$allocator@D@2@@std@@PAUtagBillItem@CBillClient@@U?$less@V?$basic_string@DU?$char_traits@D@std@@V?$allocator@D@2@@std@@@2@V?$allocator@U?$pair@$$CBV?$basic_string@DU?$char_traits@D@std@@V?$allocator@D@2@@std@@PAUtagBillItem@CBillClient@@@std@@@2@$0A@@std@@@std@@IAE?AViterator@12@_NPAU_Node@?$_Tree_nod@V?$_Tmap_traits@V?$basic_string@DU?$char_traits@D@std@@V?$allocator@D@2@@std@@PAUtagBillItem@CBillClient@@U?$less@V?$basic_string@DU?$char_traits@D@std@@V?$allocator@D@2@@std@@@2@V?$allocator@U?$pair@$$CBV?$basic_string@DU?$char_traits@D@std@@V?$allocator@D@2@@std@@PAUtagBillItem@CBillClient@@@std@@@2@$0A@@std@@@2@ABU?$pair@$$CBV?$basic_string@DU?$char_traits@D@std@@V?$allocator@D@2@@std@@PAUtagBillItem@CBillClient@@@2@@Z ; std::_Tree<std::_Tmap_traits<std::basic_string<char,std::char_traits<char>,std::allocator<char> >,CBillClient::tagBillItem *,std::less<std::basic_string<char,std::char_traits<char>,std::allocator<char> > >,std::allocator<std::pair<std::basic_string<char,std::char_traits<char>,std::allocator<char> > const ,CBillClient::tagBillItem *> >,0> >::_Insert
PUBLIC	__CTA3?AVlength_error@std@@
PUBLIC	__CT??_R0?AVlength_error@std@@@8??0length_error@std@@QAE@ABV01@@Z40
PUBLIC	??0length_error@std@@QAE@ABV01@@Z		; std::length_error::length_error
;	COMDAT __CT??_R0?AVlength_error@std@@@8??0length_error@std@@QAE@ABV01@@Z40
; File d:\program files\microsoft visual studio 8\vc\include\xutility
xdata$x	SEGMENT
__CT??_R0?AVlength_error@std@@@8??0length_error@std@@QAE@ABV01@@Z40 DD 00H
	DD	FLAT:??_R0?AVlength_error@std@@@8
	DD	00H
	DD	0ffffffffH
	ORG $+4
	DD	028H
	DD	FLAT:??0length_error@std@@QAE@ABV01@@Z
xdata$x	ENDS
;	COMDAT __CTA3?AVlength_error@std@@
xdata$x	SEGMENT
__CTA3?AVlength_error@std@@ DD 03H
	DD	FLAT:__CT??_R0?AVlength_error@std@@@8??0length_error@std@@QAE@ABV01@@Z40
	DD	FLAT:__CT??_R0?AVlogic_error@std@@@8??0logic_error@std@@QAE@ABV01@@Z40
	DD	FLAT:__CT??_R0?AVexception@std@@@8??0exception@std@@QAE@ABV01@@Z12
xdata$x	ENDS
;	COMDAT __TI3?AVlength_error@std@@
xdata$x	SEGMENT
__TI3?AVlength_error@std@@ DD 00H
	DD	FLAT:??1length_error@std@@UAE@XZ
	DD	00H
	DD	FLAT:__CTA3?AVlength_error@std@@
xdata$x	ENDS
;	COMDAT ??_C@_0BE@JONHPENG@map?1set?$DMT?$DO?5too?5long?$AA@
CONST	SEGMENT
??_C@_0BE@JONHPENG@map?1set?$DMT?$DO?5too?5long?$AA@ DB 'map/set<T> too l'
	DB	'ong', 00H					; `string'
CONST	ENDS
;	COMDAT xdata$x
xdata$x	SEGMENT
__unwindtable$?_Insert@?$_Tree@V?$_Tmap_traits@V?$basic_string@DU?$char_traits@D@std@@V?$allocator@D@2@@std@@PAUtagBillItem@CBillClient@@U?$less@V?$basic_string@DU?$char_traits@D@std@@V?$allocator@D@2@@std@@@2@V?$allocator@U?$pair@$$CBV?$basic_string@DU?$char_traits@D@std@@V?$allocator@D@2@@std@@PAUtagBillItem@CBillClient@@@std@@@2@$0A@@std@@@std@@IAE?AViterator@12@_NPAU_Node@?$_Tree_nod@V?$_Tmap_traits@V?$basic_string@DU?$char_traits@D@std@@V?$allocator@D@2@@std@@PAUtagBillItem@CBillClient@@U?$less@V?$basic_string@DU?$char_traits@D@std@@V?$allocator@D@2@@std@@@2@V?$allocator@U?$pair@$$CBV?$basic_string@DU?$char_traits@D@std@@V?$allocator@D@2@@std@@PAUtagBillItem@CBillClient@@@std@@@2@$0A@@std@@@2@ABU?$pair@$$CBV?$basic_string@DU?$char_traits@D@std@@V?$allocator@D@2@@std@@PAUtagBillItem@CBillClient@@@2@@Z DD 0ffffffffH
	DD	FLAT:__unwindfunclet$?_Insert@?$_Tree@V?$_Tmap_traits@V?$basic_string@DU?$char_traits@D@std@@V?$allocator@D@2@@std@@PAUtagBillItem@CBillClient@@U?$less@V?$basic_string@DU?$char_traits@D@std@@V?$allocator@D@2@@std@@@2@V?$allocator@U?$pair@$$CBV?$basic_string@DU?$char_traits@D@std@@V?$allocator@D@2@@std@@PAUtagBillItem@CBillClient@@@std@@@2@$0A@@std@@@std@@IAE?AViterator@12@_NPAU_Node@?$_Tree_nod@V?$_Tmap_traits@V?$basic_string@DU?$char_traits@D@std@@V?$allocator@D@2@@std@@PAUtagBillItem@CBillClient@@U?$less@V?$basic_string@DU?$char_traits@D@std@@V?$allocator@D@2@@std@@@2@V?$allocator@U?$pair@$$CBV?$basic_string@DU?$char_traits@D@std@@V?$allocator@D@2@@std@@PAUtagBillItem@CBillClient@@@std@@@2@$0A@@std@@@2@ABU?$pair@$$CBV?$basic_string@DU?$char_traits@D@std@@V?$allocator@D@2@@std@@PAUtagBillItem@CBillClient@@@2@@Z$0
__ehfuncinfo$?_Insert@?$_Tree@V?$_Tmap_traits@V?$basic_string@DU?$char_traits@D@std@@V?$allocator@D@2@@std@@PAUtagBillItem@CBillClient@@U?$less@V?$basic_string@DU?$char_traits@D@std@@V?$allocator@D@2@@std@@@2@V?$allocator@U?$pair@$$CBV?$basic_string@DU?$char_traits@D@std@@V?$allocator@D@2@@std@@PAUtagBillItem@CBillClient@@@std@@@2@$0A@@std@@@std@@IAE?AViterator@12@_NPAU_Node@?$_Tree_nod@V?$_Tmap_traits@V?$basic_string@DU?$char_traits@D@std@@V?$allocator@D@2@@std@@PAUtagBillItem@CBillClient@@U?$less@V?$basic_string@DU?$char_traits@D@std@@V?$allocator@D@2@@std@@@2@V?$allocator@U?$pair@$$CBV?$basic_string@DU?$char_traits@D@std@@V?$allocator@D@2@@std@@PAUtagBillItem@CBillClient@@@std@@@2@$0A@@std@@@2@ABU?$pair@$$CBV?$basic_string@DU?$char_traits@D@std@@V?$allocator@D@2@@std@@PAUtagBillItem@CBillClient@@@2@@Z DD 019930522H
	DD	01H
	DD	FLAT:__unwindtable$?_Insert@?$_Tree@V?$_Tmap_traits@V?$basic_string@DU?$char_traits@D@std@@V?$allocator@D@2@@std@@PAUtagBillItem@CBillClient@@U?$less@V?$basic_string@DU?$char_traits@D@std@@V?$allocator@D@2@@std@@@2@V?$allocator@U?$pair@$$CBV?$basic_string@DU?$char_traits@D@std@@V?$allocator@D@2@@std@@PAUtagBillItem@CBillClient@@@std@@@2@$0A@@std@@@std@@IAE?AViterator@12@_NPAU_Node@?$_Tree_nod@V?$_Tmap_traits@V?$basic_string@DU?$char_traits@D@std@@V?$allocator@D@2@@std@@PAUtagBillItem@CBillClient@@U?$less@V?$basic_string@DU?$char_traits@D@std@@V?$allocator@D@2@@std@@@2@V?$allocator@U?$pair@$$CBV?$basic_string@DU?$char_traits@D@std@@V?$allocator@D@2@@std@@PAUtagBillItem@CBillClient@@@std@@@2@$0A@@std@@@2@ABU?$pair@$$CBV?$basic_string@DU?$char_traits@D@std@@V?$allocator@D@2@@std@@PAUtagBillItem@CBillClient@@@2@@Z
	DD	2 DUP(00H)
	DD	2 DUP(00H)
	DD	00H
	DD	01H
; Function compile flags: /Ogtpy
; File d:\program files\microsoft visual studio 8\vc\include\xtree
xdata$x	ENDS
;	COMDAT ?_Insert@?$_Tree@V?$_Tmap_traits@V?$basic_string@DU?$char_traits@D@std@@V?$allocator@D@2@@std@@PAUtagBillItem@CBillClient@@U?$less@V?$basic_string@DU?$char_traits@D@std@@V?$allocator@D@2@@std@@@2@V?$allocator@U?$pair@$$CBV?$basic_string@DU?$char_traits@D@std@@V?$allocator@D@2@@std@@PAUtagBillItem@CBillClient@@@std@@@2@$0A@@std@@@std@@IAE?AViterator@12@_NPAU_Node@?$_Tree_nod@V?$_Tmap_traits@V?$basic_string@DU?$char_traits@D@std@@V?$allocator@D@2@@std@@PAUtagBillItem@CBillClient@@U?$less@V?$basic_string@DU?$char_traits@D@std@@V?$allocator@D@2@@std@@@2@V?$allocator@U?$pair@$$CBV?$basic_string@DU?$char_traits@D@std@@V?$allocator@D@2@@std@@PAUtagBillItem@CBillClient@@@std@@@2@$0A@@std@@@2@ABU?$pair@$$CBV?$basic_string@DU?$char_traits@D@std@@V?$allocator@D@2@@std@@PAUtagBillItem@CBillClient@@@2@@Z
_TEXT	SEGMENT
$T267972 = -80						; size = 28
$T267971 = -52						; size = 40
__$EHRec$ = -12						; size = 12
___$ReturnUdt$ = 8					; size = 4
__Addleft$ = 12						; size = 1
__Wherenode$ = 16					; size = 4
__Val$ = 20						; size = 4
?_Insert@?$_Tree@V?$_Tmap_traits@V?$basic_string@DU?$char_traits@D@std@@V?$allocator@D@2@@std@@PAUtagBillItem@CBillClient@@U?$less@V?$basic_string@DU?$char_traits@D@std@@V?$allocator@D@2@@std@@@2@V?$allocator@U?$pair@$$CBV?$basic_string@DU?$char_traits@D@std@@V?$allocator@D@2@@std@@PAUtagBillItem@CBillClient@@@std@@@2@$0A@@std@@@std@@IAE?AViterator@12@_NPAU_Node@?$_Tree_nod@V?$_Tmap_traits@V?$basic_string@DU?$char_traits@D@std@@V?$allocator@D@2@@std@@PAUtagBillItem@CBillClient@@U?$less@V?$basic_string@DU?$char_traits@D@std@@V?$allocator@D@2@@std@@@2@V?$allocator@U?$pair@$$CBV?$basic_string@DU?$char_traits@D@std@@V?$allocator@D@2@@std@@PAUtagBillItem@CBillClient@@@std@@@2@$0A@@std@@@2@ABU?$pair@$$CBV?$basic_string@DU?$char_traits@D@std@@V?$allocator@D@2@@std@@PAUtagBillItem@CBillClient@@@2@@Z PROC ; std::_Tree<std::_Tmap_traits<std::basic_string<char,std::char_traits<char>,std::allocator<char> >,CBillClient::tagBillItem *,std::less<std::basic_string<char,std::char_traits<char>,std::allocator<char> > >,std::allocator<std::pair<std::basic_string<char,std::char_traits<char>,std::allocator<char> > const ,CBillClient::tagBillItem *> >,0> >::_Insert, COMDAT
; _this$ = ecx

; 1093 : 		{	// add node with value next to _Wherenode, to left if _Addnode

  00000	6a ff		 push	 -1
  00002	68 00 00 00 00	 push	 __ehhandler$?_Insert@?$_Tree@V?$_Tmap_traits@V?$basic_string@DU?$char_traits@D@std@@V?$allocator@D@2@@std@@PAUtagBillItem@CBillClient@@U?$less@V?$basic_string@DU?$char_traits@D@std@@V?$allocator@D@2@@std@@@2@V?$allocator@U?$pair@$$CBV?$basic_string@DU?$char_traits@D@std@@V?$allocator@D@2@@std@@PAUtagBillItem@CBillClient@@@std@@@2@$0A@@std@@@std@@IAE?AViterator@12@_NPAU_Node@?$_Tree_nod@V?$_Tmap_traits@V?$basic_string@DU?$char_traits@D@std@@V?$allocator@D@2@@std@@PAUtagBillItem@CBillClient@@U?$less@V?$basic_string@DU?$char_traits@D@std@@V?$allocator@D@2@@std@@@2@V?$allocator@U?$pair@$$CBV?$basic_string@DU?$char_traits@D@std@@V?$allocator@D@2@@std@@PAUtagBillItem@CBillClient@@@std@@@2@$0A@@std@@@2@ABU?$pair@$$CBV?$basic_string@DU?$char_traits@D@std@@V?$allocator@D@2@@std@@PAUtagBillItem@CBillClient@@@2@@Z
  00007	64 a1 00 00 00
	00		 mov	 eax, DWORD PTR fs:0
  0000d	50		 push	 eax
  0000e	83 ec 44	 sub	 esp, 68			; 00000044H
  00011	53		 push	 ebx
  00012	55		 push	 ebp
  00013	56		 push	 esi
  00014	57		 push	 edi
  00015	a1 00 00 00 00	 mov	 eax, DWORD PTR ___security_cookie
  0001a	33 c4		 xor	 eax, esp
  0001c	50		 push	 eax
  0001d	8d 44 24 58	 lea	 eax, DWORD PTR __$EHRec$[esp+100]
  00021	64 a3 00 00 00
	00		 mov	 DWORD PTR fs:0, eax
  00027	8b f9		 mov	 edi, ecx

; 1094 : 		if (max_size() - 1 <= _Mysize)

  00029	81 7f 08 fe ff
	ff 07		 cmp	 DWORD PTR [edi+8], 134217726 ; 07fffffeH
  00030	72 4c		 jb	 SHORT $LN17@Insert

; 1095 : 			_THROW(length_error, "map/set<T> too long");

  00032	6a 13		 push	 19			; 00000013H
  00034	33 f6		 xor	 esi, esi
  00036	68 00 00 00 00	 push	 OFFSET ??_C@_0BE@JONHPENG@map?1set?$DMT?$DO?5too?5long?$AA@
  0003b	8d 4c 24 1c	 lea	 ecx, DWORD PTR $T267972[esp+108]
  0003f	c7 44 24 34 0f
	00 00 00	 mov	 DWORD PTR $T267972[esp+132], 15 ; 0000000fH
  00047	89 74 24 30	 mov	 DWORD PTR $T267972[esp+128], esi
  0004b	c6 44 24 20 00	 mov	 BYTE PTR $T267972[esp+112], 0
  00050	e8 00 00 00 00	 call	 ?assign@?$basic_string@DU?$char_traits@D@std@@V?$allocator@D@2@@std@@QAEAAV12@PBDI@Z ; std::basic_string<char,std::char_traits<char>,std::allocator<char> >::assign
  00055	8d 44 24 14	 lea	 eax, DWORD PTR $T267972[esp+100]
  00059	50		 push	 eax
  0005a	8d 4c 24 34	 lea	 ecx, DWORD PTR $T267971[esp+104]
  0005e	89 74 24 64	 mov	 DWORD PTR __$EHRec$[esp+112], esi
  00062	e8 00 00 00 00	 call	 ??0logic_error@std@@QAE@ABV?$basic_string@DU?$char_traits@D@std@@V?$allocator@D@2@@1@@Z ; std::logic_error::logic_error
  00067	68 00 00 00 00	 push	 OFFSET __TI3?AVlength_error@std@@
  0006c	8d 4c 24 34	 lea	 ecx, DWORD PTR $T267971[esp+104]
  00070	51		 push	 ecx
  00071	c7 44 24 38 00
	00 00 00	 mov	 DWORD PTR $T267971[esp+108], OFFSET ??_7length_error@std@@6B@
  00079	e8 00 00 00 00	 call	 __CxxThrowException@8
$LN265@Insert:
$LN17@Insert:

; 1096 : 		_Nodeptr _Newnode = _Buynode(_Myhead, _Wherenode, _Myhead,
; 1097 : 			_Val, _Red);

  0007e	8b 54 24 74	 mov	 edx, DWORD PTR __Val$[esp+96]
  00082	8b 47 04	 mov	 eax, DWORD PTR [edi+4]
  00085	8b 74 24 70	 mov	 esi, DWORD PTR __Wherenode$[esp+96]
  00089	6a 00		 push	 0
  0008b	52		 push	 edx
  0008c	50		 push	 eax
  0008d	56		 push	 esi
  0008e	50		 push	 eax
  0008f	e8 00 00 00 00	 call	 ?_Buynode@?$_Tree@V?$_Tmap_traits@V?$basic_string@DU?$char_traits@D@std@@V?$allocator@D@2@@std@@PAUtagBillItem@CBillClient@@U?$less@V?$basic_string@DU?$char_traits@D@std@@V?$allocator@D@2@@std@@@2@V?$allocator@U?$pair@$$CBV?$basic_string@DU?$char_traits@D@std@@V?$allocator@D@2@@std@@PAUtagBillItem@CBillClient@@@std@@@2@$0A@@std@@@std@@IAEPAU_Node@?$_Tree_nod@V?$_Tmap_traits@V?$basic_string@DU?$char_traits@D@std@@V?$allocator@D@2@@std@@PAUtagBillItem@CBillClient@@U?$less@V?$basic_string@DU?$char_traits@D@std@@V?$allocator@D@2@@std@@@2@V?$allocator@U?$pair@$$CBV?$basic_string@DU?$char_traits@D@std@@V?$allocator@D@2@@std@@PAUtagBillItem@CBillClient@@@std@@@2@$0A@@std@@@2@PAU342@00ABU?$pair@$$CBV?$basic_string@DU?$char_traits@D@std@@V?$allocator@D@2@@std@@PAUtagBillItem@CBillClient@@@2@D@Z ; std::_Tree<std::_Tmap_traits<std::basic_string<char,std::char_traits<char>,std::allocator<char> >,CBillClient::tagBillItem *,std::less<std::basic_string<char,std::char_traits<char>,std::allocator<char> > >,std::allocator<std::pair<std::basic_string<char,std::char_traits<char>,std::allocator<char> > const ,CBillClient::tagBillItem *> >,0> >::_Buynode
  00094	8b e8		 mov	 ebp, eax

; 1098 : 
; 1099 : 		++_Mysize;
; 1100 : 		if (_Wherenode == _Myhead)

  00096	8b 47 04	 mov	 eax, DWORD PTR [edi+4]
  00099	bb 01 00 00 00	 mov	 ebx, 1
  0009e	01 5f 08	 add	 DWORD PTR [edi+8], ebx
  000a1	3b f0		 cmp	 esi, eax
  000a3	75 10		 jne	 SHORT $LN16@Insert

; 1101 : 			{	// first node in tree, just set head values
; 1102 : 			_Root() = _Newnode;

  000a5	89 68 04	 mov	 DWORD PTR [eax+4], ebp

; 1103 : 			_Lmost() = _Newnode, _Rmost() = _Newnode;

  000a8	8b 47 04	 mov	 eax, DWORD PTR [edi+4]
  000ab	89 28		 mov	 DWORD PTR [eax], ebp
  000ad	8b 4f 04	 mov	 ecx, DWORD PTR [edi+4]
  000b0	89 69 08	 mov	 DWORD PTR [ecx+8], ebp
  000b3	eb 22		 jmp	 SHORT $LN11@Insert
$LN16@Insert:

; 1104 : 			}
; 1105 : 		else if (_Addleft)

  000b5	80 7c 24 6c 00	 cmp	 BYTE PTR __Addleft$[esp+96], 0
  000ba	74 0d		 je	 SHORT $LN14@Insert

; 1106 : 			{	// add to left of _Wherenode
; 1107 : 			_Left(_Wherenode) = _Newnode;

  000bc	89 2e		 mov	 DWORD PTR [esi], ebp

; 1108 : 			if (_Wherenode == _Lmost())

  000be	8b 47 04	 mov	 eax, DWORD PTR [edi+4]
  000c1	3b 30		 cmp	 esi, DWORD PTR [eax]
  000c3	75 12		 jne	 SHORT $LN11@Insert

; 1109 : 				_Lmost() = _Newnode;

  000c5	89 28		 mov	 DWORD PTR [eax], ebp

; 1110 : 			}
; 1111 : 		else

  000c7	eb 0e		 jmp	 SHORT $LN11@Insert
$LN14@Insert:

; 1112 : 			{	// add to right of _Wherenode
; 1113 : 			_Right(_Wherenode) = _Newnode;

  000c9	89 6e 08	 mov	 DWORD PTR [esi+8], ebp

; 1114 : 			if (_Wherenode == _Rmost())

  000cc	8b 47 04	 mov	 eax, DWORD PTR [edi+4]
  000cf	3b 70 08	 cmp	 esi, DWORD PTR [eax+8]
  000d2	75 03		 jne	 SHORT $LN11@Insert

; 1115 : 				_Rmost() = _Newnode;

  000d4	89 68 08	 mov	 DWORD PTR [eax+8], ebp
$LN11@Insert:

; 1116 : 			}
; 1117 : 
; 1118 : 		for (_Nodeptr _Pnode = _Newnode; _Color(_Parent(_Pnode)) == _Red; )

  000d7	8b 55 04	 mov	 edx, DWORD PTR [ebp+4]
  000da	80 7a 2c 00	 cmp	 BYTE PTR [edx+44], 0
  000de	8d 45 04	 lea	 eax, DWORD PTR [ebp+4]
  000e1	8b f5		 mov	 esi, ebp
  000e3	0f 85 ec 00 00
	00		 jne	 $LN9@Insert
  000e9	8d a4 24 00 00
	00 00		 npad	 7
$LL10@Insert:

; 1119 : 			if (_Parent(_Pnode) == _Left(_Parent(_Parent(_Pnode))))

  000f0	8b 08		 mov	 ecx, DWORD PTR [eax]
  000f2	8b 51 04	 mov	 edx, DWORD PTR [ecx+4]
  000f5	3b 0a		 cmp	 ecx, DWORD PTR [edx]
  000f7	75 51		 jne	 SHORT $LN8@Insert

; 1120 : 				{	// fixup red-red in left subtree
; 1121 : 				_Wherenode = _Right(_Parent(_Parent(_Pnode)));

  000f9	8b 52 08	 mov	 edx, DWORD PTR [edx+8]

; 1122 : 				if (_Color(_Wherenode) == _Red)

  000fc	80 7a 2c 00	 cmp	 BYTE PTR [edx+44], 0
  00100	75 19		 jne	 SHORT $LN7@Insert

; 1123 : 					{	// parent has two red children, blacken both
; 1124 : 					_Color(_Parent(_Pnode)) = _Black;

  00102	88 59 2c	 mov	 BYTE PTR [ecx+44], bl

; 1125 : 					_Color(_Wherenode) = _Black;

  00105	88 5a 2c	 mov	 BYTE PTR [edx+44], bl

; 1126 : 					_Color(_Parent(_Parent(_Pnode))) = _Red;

  00108	8b 10		 mov	 edx, DWORD PTR [eax]
  0010a	8b 4a 04	 mov	 ecx, DWORD PTR [edx+4]
  0010d	c6 41 2c 00	 mov	 BYTE PTR [ecx+44], 0

; 1127 : 					_Pnode = _Parent(_Parent(_Pnode));

  00111	8b 10		 mov	 edx, DWORD PTR [eax]
  00113	8b 72 04	 mov	 esi, DWORD PTR [edx+4]

; 1128 : 					}
; 1129 : 				else

  00116	e9 aa 00 00 00	 jmp	 $LN203@Insert
$LN7@Insert:

; 1130 : 					{	// parent has red and black children
; 1131 : 					if (_Pnode == _Right(_Parent(_Pnode)))

  0011b	3b 71 08	 cmp	 esi, DWORD PTR [ecx+8]
  0011e	75 0a		 jne	 SHORT $LN5@Insert

; 1132 : 						{	// rotate right child to left
; 1133 : 						_Pnode = _Parent(_Pnode);

  00120	8b f1		 mov	 esi, ecx

; 1134 : 						_Lrotate(_Pnode);

  00122	56		 push	 esi
  00123	8b cf		 mov	 ecx, edi
  00125	e8 00 00 00 00	 call	 ?_Lrotate@?$_Tree@V?$_Tmap_traits@V?$basic_string@DU?$char_traits@D@std@@V?$allocator@D@2@@std@@PAUtagBillItem@CBillClient@@U?$less@V?$basic_string@DU?$char_traits@D@std@@V?$allocator@D@2@@std@@@2@V?$allocator@U?$pair@$$CBV?$basic_string@DU?$char_traits@D@std@@V?$allocator@D@2@@std@@PAUtagBillItem@CBillClient@@@std@@@2@$0A@@std@@@std@@IAEXPAU_Node@?$_Tree_nod@V?$_Tmap_traits@V?$basic_string@DU?$char_traits@D@std@@V?$allocator@D@2@@std@@PAUtagBillItem@CBillClient@@U?$less@V?$basic_string@DU?$char_traits@D@std@@V?$allocator@D@2@@std@@@2@V?$allocator@U?$pair@$$CBV?$basic_string@DU?$char_traits@D@std@@V?$allocator@D@2@@std@@PAUtagBillItem@CBillClient@@@std@@@2@$0A@@std@@@2@@Z ; std::_Tree<std::_Tmap_traits<std::basic_string<char,std::char_traits<char>,std::allocator<char> >,CBillClient::tagBillItem *,std::less<std::basic_string<char,std::char_traits<char>,std::allocator<char> > >,std::allocator<std::pair<std::basic_string<char,std::char_traits<char>,std::allocator<char> > const ,CBillClient::tagBillItem *> >,0> >::_Lrotate
$LN5@Insert:

; 1135 : 						}
; 1136 : 					_Color(_Parent(_Pnode)) = _Black;	// propagate red up

  0012a	8b 46 04	 mov	 eax, DWORD PTR [esi+4]
  0012d	88 58 2c	 mov	 BYTE PTR [eax+44], bl

; 1137 : 					_Color(_Parent(_Parent(_Pnode))) = _Red;

  00130	8b 4e 04	 mov	 ecx, DWORD PTR [esi+4]
  00133	8b 51 04	 mov	 edx, DWORD PTR [ecx+4]
  00136	c6 42 2c 00	 mov	 BYTE PTR [edx+44], 0

; 1138 : 					_Rrotate(_Parent(_Parent(_Pnode)));

  0013a	8b 46 04	 mov	 eax, DWORD PTR [esi+4]
  0013d	8b 48 04	 mov	 ecx, DWORD PTR [eax+4]
  00140	51		 push	 ecx
  00141	8b cf		 mov	 ecx, edi
  00143	e8 00 00 00 00	 call	 ?_Rrotate@?$_Tree@V?$_Tmap_traits@V?$basic_string@DU?$char_traits@D@std@@V?$allocator@D@2@@std@@PAUtagBillItem@CBillClient@@U?$less@V?$basic_string@DU?$char_traits@D@std@@V?$allocator@D@2@@std@@@2@V?$allocator@U?$pair@$$CBV?$basic_string@DU?$char_traits@D@std@@V?$allocator@D@2@@std@@PAUtagBillItem@CBillClient@@@std@@@2@$0A@@std@@@std@@IAEXPAU_Node@?$_Tree_nod@V?$_Tmap_traits@V?$basic_string@DU?$char_traits@D@std@@V?$allocator@D@2@@std@@PAUtagBillItem@CBillClient@@U?$less@V?$basic_string@DU?$char_traits@D@std@@V?$allocator@D@2@@std@@@2@V?$allocator@U?$pair@$$CBV?$basic_string@DU?$char_traits@D@std@@V?$allocator@D@2@@std@@PAUtagBillItem@CBillClient@@@std@@@2@$0A@@std@@@2@@Z ; std::_Tree<std::_Tmap_traits<std::basic_string<char,std::char_traits<char>,std::allocator<char> >,CBillClient::tagBillItem *,std::less<std::basic_string<char,std::char_traits<char>,std::allocator<char> > >,std::allocator<std::pair<std::basic_string<char,std::char_traits<char>,std::allocator<char> > const ,CBillClient::tagBillItem *> >,0> >::_Rrotate

; 1139 : 					}
; 1140 : 				}
; 1141 : 			else

  00148	eb 7b		 jmp	 SHORT $LN203@Insert
$LN8@Insert:

; 1142 : 				{	// fixup red-red in right subtree
; 1143 : 				_Wherenode = _Left(_Parent(_Parent(_Pnode)));

  0014a	8b 12		 mov	 edx, DWORD PTR [edx]

; 1144 : 				if (_Color(_Wherenode) == _Red)

  0014c	80 7a 2c 00	 cmp	 BYTE PTR [edx+44], 0
  00150	75 16		 jne	 SHORT $LN3@Insert

; 1145 : 					{	// parent has two red children, blacken both
; 1146 : 					_Color(_Parent(_Pnode)) = _Black;

  00152	88 59 2c	 mov	 BYTE PTR [ecx+44], bl

; 1147 : 					_Color(_Wherenode) = _Black;

  00155	88 5a 2c	 mov	 BYTE PTR [edx+44], bl

; 1148 : 					_Color(_Parent(_Parent(_Pnode))) = _Red;

  00158	8b 10		 mov	 edx, DWORD PTR [eax]
  0015a	8b 4a 04	 mov	 ecx, DWORD PTR [edx+4]
  0015d	c6 41 2c 00	 mov	 BYTE PTR [ecx+44], 0

; 1149 : 					_Pnode = _Parent(_Parent(_Pnode));

  00161	8b 10		 mov	 edx, DWORD PTR [eax]
  00163	8b 72 04	 mov	 esi, DWORD PTR [edx+4]

; 1150 : 					}
; 1151 : 				else

  00166	eb 5d		 jmp	 SHORT $LN203@Insert
$LN3@Insert:

; 1152 : 					{	// parent has red and black children
; 1153 : 					if (_Pnode == _Left(_Parent(_Pnode)))

  00168	3b 31		 cmp	 esi, DWORD PTR [ecx]
  0016a	75 0a		 jne	 SHORT $LN1@Insert

; 1154 : 						{	// rotate left child to right
; 1155 : 						_Pnode = _Parent(_Pnode);

  0016c	8b f1		 mov	 esi, ecx

; 1156 : 						_Rrotate(_Pnode);

  0016e	56		 push	 esi
  0016f	8b cf		 mov	 ecx, edi
  00171	e8 00 00 00 00	 call	 ?_Rrotate@?$_Tree@V?$_Tmap_traits@V?$basic_string@DU?$char_traits@D@std@@V?$allocator@D@2@@std@@PAUtagBillItem@CBillClient@@U?$less@V?$basic_string@DU?$char_traits@D@std@@V?$allocator@D@2@@std@@@2@V?$allocator@U?$pair@$$CBV?$basic_string@DU?$char_traits@D@std@@V?$allocator@D@2@@std@@PAUtagBillItem@CBillClient@@@std@@@2@$0A@@std@@@std@@IAEXPAU_Node@?$_Tree_nod@V?$_Tmap_traits@V?$basic_string@DU?$char_traits@D@std@@V?$allocator@D@2@@std@@PAUtagBillItem@CBillClient@@U?$less@V?$basic_string@DU?$char_traits@D@std@@V?$allocator@D@2@@std@@@2@V?$allocator@U?$pair@$$CBV?$basic_string@DU?$char_traits@D@std@@V?$allocator@D@2@@std@@PAUtagBillItem@CBillClient@@@std@@@2@$0A@@std@@@2@@Z ; std::_Tree<std::_Tmap_traits<std::basic_string<char,std::char_traits<char>,std::allocator<char> >,CBillClient::tagBillItem *,std::less<std::basic_string<char,std::char_traits<char>,std::allocator<char> > >,std::allocator<std::pair<std::basic_string<char,std::char_traits<char>,std::allocator<char> > const ,CBillClient::tagBillItem *> >,0> >::_Rrotate
$LN1@Insert:

; 1157 : 						}
; 1158 : 					_Color(_Parent(_Pnode)) = _Black;	// propagate red up

  00176	8b 46 04	 mov	 eax, DWORD PTR [esi+4]
  00179	88 58 2c	 mov	 BYTE PTR [eax+44], bl

; 1159 : 					_Color(_Parent(_Parent(_Pnode))) = _Red;

  0017c	8b 4e 04	 mov	 ecx, DWORD PTR [esi+4]
  0017f	8b 51 04	 mov	 edx, DWORD PTR [ecx+4]
  00182	c6 42 2c 00	 mov	 BYTE PTR [edx+44], 0

; 1160 : 					_Lrotate(_Parent(_Parent(_Pnode)));

  00186	8b 46 04	 mov	 eax, DWORD PTR [esi+4]
  00189	8b 40 04	 mov	 eax, DWORD PTR [eax+4]
  0018c	8b 48 08	 mov	 ecx, DWORD PTR [eax+8]
  0018f	8b 11		 mov	 edx, DWORD PTR [ecx]
  00191	89 50 08	 mov	 DWORD PTR [eax+8], edx
  00194	8b 11		 mov	 edx, DWORD PTR [ecx]
  00196	80 7a 2d 00	 cmp	 BYTE PTR [edx+45], 0
  0019a	75 03		 jne	 SHORT $LN202@Insert
  0019c	89 42 04	 mov	 DWORD PTR [edx+4], eax
$LN202@Insert:
  0019f	8b 50 04	 mov	 edx, DWORD PTR [eax+4]
  001a2	89 51 04	 mov	 DWORD PTR [ecx+4], edx
  001a5	8b 57 04	 mov	 edx, DWORD PTR [edi+4]
  001a8	3b 42 04	 cmp	 eax, DWORD PTR [edx+4]
  001ab	75 05		 jne	 SHORT $LN201@Insert
  001ad	89 4a 04	 mov	 DWORD PTR [edx+4], ecx
  001b0	eb 0e		 jmp	 SHORT $LN198@Insert
$LN201@Insert:
  001b2	8b 50 04	 mov	 edx, DWORD PTR [eax+4]
  001b5	3b 02		 cmp	 eax, DWORD PTR [edx]
  001b7	75 04		 jne	 SHORT $LN199@Insert
  001b9	89 0a		 mov	 DWORD PTR [edx], ecx
  001bb	eb 03		 jmp	 SHORT $LN198@Insert
$LN199@Insert:
  001bd	89 4a 08	 mov	 DWORD PTR [edx+8], ecx
$LN198@Insert:
  001c0	89 01		 mov	 DWORD PTR [ecx], eax
  001c2	89 48 04	 mov	 DWORD PTR [eax+4], ecx
$LN203@Insert:
  001c5	8b 4e 04	 mov	 ecx, DWORD PTR [esi+4]
  001c8	80 79 2c 00	 cmp	 BYTE PTR [ecx+44], 0
  001cc	8d 46 04	 lea	 eax, DWORD PTR [esi+4]
  001cf	0f 84 1b ff ff
	ff		 je	 $LL10@Insert
$LN9@Insert:

; 1161 : 					}
; 1162 : 				}
; 1163 : 
; 1164 : 		_Color(_Root()) = _Black;	// root is always black

  001d5	8b 57 04	 mov	 edx, DWORD PTR [edi+4]
  001d8	8b 42 04	 mov	 eax, DWORD PTR [edx+4]
  001db	88 58 2c	 mov	 BYTE PTR [eax+44], bl

; 1165 : 		return (_TREE_ITERATOR(_Newnode));

  001de	8b 44 24 68	 mov	 eax, DWORD PTR ___$ReturnUdt$[esp+96]
  001e2	89 68 04	 mov	 DWORD PTR [eax+4], ebp
  001e5	89 38		 mov	 DWORD PTR [eax], edi

; 1166 : 		}

  001e7	8b 4c 24 58	 mov	 ecx, DWORD PTR __$EHRec$[esp+100]
  001eb	64 89 0d 00 00
	00 00		 mov	 DWORD PTR fs:0, ecx
  001f2	59		 pop	 ecx
  001f3	5f		 pop	 edi
  001f4	5e		 pop	 esi
  001f5	5d		 pop	 ebp
  001f6	5b		 pop	 ebx
  001f7	83 c4 50	 add	 esp, 80			; 00000050H
  001fa	c2 10 00	 ret	 16			; 00000010H
$LN264@Insert:
_TEXT	ENDS
;	COMDAT text$x
text$x	SEGMENT
__unwindfunclet$?_Insert@?$_Tree@V?$_Tmap_traits@V?$basic_string@DU?$char_traits@D@std@@V?$allocator@D@2@@std@@PAUtagBillItem@CBillClient@@U?$less@V?$basic_string@DU?$char_traits@D@std@@V?$allocator@D@2@@std@@@2@V?$allocator@U?$pair@$$CBV?$basic_string@DU?$char_traits@D@std@@V?$allocator@D@2@@std@@PAUtagBillItem@CBillClient@@@std@@@2@$0A@@std@@@std@@IAE?AViterator@12@_NPAU_Node@?$_Tree_nod@V?$_Tmap_traits@V?$basic_string@DU?$char_traits@D@std@@V?$allocator@D@2@@std@@PAUtagBillItem@CBillClient@@U?$less@V?$basic_string@DU?$char_traits@D@std@@V?$allocator@D@2@@std@@@2@V?$allocator@U?$pair@$$CBV?$basic_string@DU?$char_traits@D@std@@V?$allocator@D@2@@std@@PAUtagBillItem@CBillClient@@@std@@@2@$0A@@std@@@2@ABU?$pair@$$CBV?$basic_string@DU?$char_traits@D@std@@V?$allocator@D@2@@std@@PAUtagBillItem@CBillClient@@@2@@Z$0:
  00000	8d 4d b0	 lea	 ecx, DWORD PTR $T267972[ebp]
  00003	e9 00 00 00 00	 jmp	 ??1?$basic_string@DU?$char_traits@D@std@@V?$allocator@D@2@@std@@QAE@XZ ; std::basic_string<char,std::char_traits<char>,std::allocator<char> >::~basic_string<char,std::char_traits<char>,std::allocator<char> >
__ehhandler$?_Insert@?$_Tree@V?$_Tmap_traits@V?$basic_string@DU?$char_traits@D@std@@V?$allocator@D@2@@std@@PAUtagBillItem@CBillClient@@U?$less@V?$basic_string@DU?$char_traits@D@std@@V?$allocator@D@2@@std@@@2@V?$allocator@U?$pair@$$CBV?$basic_string@DU?$char_traits@D@std@@V?$allocator@D@2@@std@@PAUtagBillItem@CBillClient@@@std@@@2@$0A@@std@@@std@@IAE?AViterator@12@_NPAU_Node@?$_Tree_nod@V?$_Tmap_traits@V?$basic_string@DU?$char_traits@D@std@@V?$allocator@D@2@@std@@PAUtagBillItem@CBillClient@@U?$less@V?$basic_string@DU?$char_traits@D@std@@V?$allocator@D@2@@std@@@2@V?$allocator@U?$pair@$$CBV?$basic_string@DU?$char_traits@D@std@@V?$allocator@D@2@@std@@PAUtagBillItem@CBillClient@@@std@@@2@$0A@@std@@@2@ABU?$pair@$$CBV?$basic_string@DU?$char_traits@D@std@@V?$allocator@D@2@@std@@PAUtagBillItem@CBillClient@@@2@@Z:
  00008	8b 54 24 08	 mov	 edx, DWORD PTR [esp+8]
  0000c	8d 42 ac	 lea	 eax, DWORD PTR [edx-84]
  0000f	8b 4a a8	 mov	 ecx, DWORD PTR [edx-88]
  00012	33 c8		 xor	 ecx, eax
  00014	e8 00 00 00 00	 call	 @__security_check_cookie@4
  00019	b8 00 00 00 00	 mov	 eax, OFFSET __ehfuncinfo$?_Insert@?$_Tree@V?$_Tmap_traits@V?$basic_string@DU?$char_traits@D@std@@V?$allocator@D@2@@std@@PAUtagBillItem@CBillClient@@U?$less@V?$basic_string@DU?$char_traits@D@std@@V?$allocator@D@2@@std@@@2@V?$allocator@U?$pair@$$CBV?$basic_string@DU?$char_traits@D@std@@V?$allocator@D@2@@std@@PAUtagBillItem@CBillClient@@@std@@@2@$0A@@std@@@std@@IAE?AViterator@12@_NPAU_Node@?$_Tree_nod@V?$_Tmap_traits@V?$basic_string@DU?$char_traits@D@std@@V?$allocator@D@2@@std@@PAUtagBillItem@CBillClient@@U?$less@V?$basic_string@DU?$char_traits@D@std@@V?$allocator@D@2@@std@@@2@V?$allocator@U?$pair@$$CBV?$basic_string@DU?$char_traits@D@std@@V?$allocator@D@2@@std@@PAUtagBillItem@CBillClient@@@std@@@2@$0A@@std@@@2@ABU?$pair@$$CBV?$basic_string@DU?$char_traits@D@std@@V?$allocator@D@2@@std@@PAUtagBillItem@CBillClient@@@2@@Z
  0001e	e9 00 00 00 00	 jmp	 ___CxxFrameHandler3
text$x	ENDS
?_Insert@?$_Tree@V?$_Tmap_traits@V?$basic_string@DU?$char_traits@D@std@@V?$allocator@D@2@@std@@PAUtagBillItem@CBillClient@@U?$less@V?$basic_string@DU?$char_traits@D@std@@V?$allocator@D@2@@std@@@2@V?$allocator@U?$pair@$$CBV?$basic_string@DU?$char_traits@D@std@@V?$allocator@D@2@@std@@PAUtagBillItem@CBillClient@@@std@@@2@$0A@@std@@@std@@IAE?AViterator@12@_NPAU_Node@?$_Tree_nod@V?$_Tmap_traits@V?$basic_string@DU?$char_traits@D@std@@V?$allocator@D@2@@std@@PAUtagBillItem@CBillClient@@U?$less@V?$basic_string@DU?$char_traits@D@std@@V?$allocator@D@2@@std@@@2@V?$allocator@U?$pair@$$CBV?$basic_string@DU?$char_traits@D@std@@V?$allocator@D@2@@std@@PAUtagBillItem@CBillClient@@@std@@@2@$0A@@std@@@2@ABU?$pair@$$CBV?$basic_string@DU?$char_traits@D@std@@V?$allocator@D@2@@std@@PAUtagBillItem@CBillClient@@@2@@Z ENDP ; std::_Tree<std::_Tmap_traits<std::basic_string<char,std::char_traits<char>,std::allocator<char> >,CBillClient::tagBillItem *,std::less<std::basic_string<char,std::char_traits<char>,std::allocator<char> > >,std::allocator<std::pair<std::basic_string<char,std::char_traits<char>,std::allocator<char> > const ,CBillClient::tagBillItem *> >,0> >::_Insert
; Function compile flags: /Ogtpy
;	COMDAT ??0length_error@std@@QAE@ABV01@@Z
_TEXT	SEGMENT
___that$ = 8						; size = 4
??0length_error@std@@QAE@ABV01@@Z PROC			; std::length_error::length_error, COMDAT
; _this$ = ecx
  00000	8b 44 24 04	 mov	 eax, DWORD PTR ___that$[esp-4]
  00004	56		 push	 esi
  00005	50		 push	 eax
  00006	8b f1		 mov	 esi, ecx
  00008	e8 00 00 00 00	 call	 ??0logic_error@std@@QAE@ABV01@@Z
  0000d	c7 06 00 00 00
	00		 mov	 DWORD PTR [esi], OFFSET ??_7length_error@std@@6B@
  00013	8b c6		 mov	 eax, esi
  00015	5e		 pop	 esi
  00016	c2 04 00	 ret	 4
??0length_error@std@@QAE@ABV01@@Z ENDP			; std::length_error::length_error
_TEXT	ENDS
PUBLIC	?Release@CBillClient@@QAEXXZ			; CBillClient::Release
; Function compile flags: /Ogtpy
; File d:\project_p6\trunk\server\gameserver\server\billclient.cpp
;	COMDAT ?Release@CBillClient@@QAEXXZ
_TEXT	SEGMENT
_itCaller$ = -8						; size = 8
_itCallback$ = -8					; size = 8
?Release@CBillClient@@QAEXXZ PROC			; CBillClient::Release, COMDAT
; _this$ = ecx

; 29   : {

  00000	55		 push	 ebp
  00001	8b ec		 mov	 ebp, esp
  00003	83 e4 f8	 and	 esp, -8			; fffffff8H
  00006	83 ec 08	 sub	 esp, 8

; 30   : 	funUninitialize(0);

  00009	8b 41 40	 mov	 eax, DWORD PTR [ecx+64]
  0000c	53		 push	 ebx
  0000d	55		 push	 ebp
  0000e	56		 push	 esi
  0000f	57		 push	 edi
  00010	33 ed		 xor	 ebp, ebp
  00012	55		 push	 ebp
  00013	ff d0		 call	 eax

; 31   : 	itrBill itCallback = m_CallbackQueue.begin();

  00015	8b 0d 04 00 00
	00		 mov	 ecx, DWORD PTR ?m_CallbackQueue@CBillClient@@0V?$MulTiThMap@V?$basic_string@DU?$char_traits@D@std@@V?$allocator@D@2@@std@@PAUtagBillItem@CBillClient@@@@A+4
  0001b	8b 39		 mov	 edi, DWORD PTR [ecx]
  0001d	be 00 00 00 00	 mov	 esi, OFFSET ?m_CallbackQueue@CBillClient@@0V?$MulTiThMap@V?$basic_string@DU?$char_traits@D@std@@V?$allocator@D@2@@std@@PAUtagBillItem@CBillClient@@@@A ; CBillClient::m_CallbackQueue
  00022	83 c4 04	 add	 esp, 4
  00025	89 7c 24 14	 mov	 DWORD PTR _itCallback$[esp+28], edi
  00029	89 74 24 10	 mov	 DWORD PTR _itCallback$[esp+24], esi
  0002d	8d 49 00	 npad	 3

; 32   : 	for( ; itCallback!=m_CallbackQueue.end(); itCallback++ )

$LL40@Release:
  00030	3b f5		 cmp	 esi, ebp
  00032	8b 1d 04 00 00
	00		 mov	 ebx, DWORD PTR ?m_CallbackQueue@CBillClient@@0V?$MulTiThMap@V?$basic_string@DU?$char_traits@D@std@@V?$allocator@D@2@@std@@PAUtagBillItem@CBillClient@@@@A+4
  00038	74 08		 je	 SHORT $LN55@Release
  0003a	81 fe 00 00 00
	00		 cmp	 esi, OFFSET ?m_CallbackQueue@CBillClient@@0V?$MulTiThMap@V?$basic_string@DU?$char_traits@D@std@@V?$allocator@D@2@@std@@PAUtagBillItem@CBillClient@@@@A ; CBillClient::m_CallbackQueue
  00040	74 05		 je	 SHORT $LN56@Release
$LN55@Release:
  00042	e8 00 00 00 00	 call	 __invalid_parameter_noinfo
$LN56@Release:
  00047	3b fb		 cmp	 edi, ebx
  00049	74 3f		 je	 SHORT $LN14@Release

; 33   : 	{
; 34   : 		SAFE_DELETE(itCallback->second);

  0004b	3b f5		 cmp	 esi, ebp
  0004d	75 05		 jne	 SHORT $LN64@Release
  0004f	e8 00 00 00 00	 call	 __invalid_parameter_noinfo
$LN64@Release:
  00054	3b 7e 04	 cmp	 edi, DWORD PTR [esi+4]
  00057	75 05		 jne	 SHORT $LN63@Release
  00059	e8 00 00 00 00	 call	 __invalid_parameter_noinfo
$LN63@Release:
  0005e	8b 57 28	 mov	 edx, DWORD PTR [edi+40]
  00061	52		 push	 edx
  00062	e8 00 00 00 00	 call	 ??3@YAXPAX@Z		; operator delete
  00067	83 c4 04	 add	 esp, 4
  0006a	3b 7e 04	 cmp	 edi, DWORD PTR [esi+4]
  0006d	75 05		 jne	 SHORT $LN73@Release
  0006f	e8 00 00 00 00	 call	 __invalid_parameter_noinfo
$LN73@Release:
  00074	8d 4c 24 10	 lea	 ecx, DWORD PTR _itCallback$[esp+24]
  00078	89 6f 28	 mov	 DWORD PTR [edi+40], ebp
  0007b	e8 00 00 00 00	 call	 ?_Inc@const_iterator@?$_Tree@V?$_Tmap_traits@V?$basic_string@DU?$char_traits@D@std@@V?$allocator@D@2@@std@@PAUtagBillItem@CBillClient@@U?$less@V?$basic_string@DU?$char_traits@D@std@@V?$allocator@D@2@@std@@@2@V?$allocator@U?$pair@$$CBV?$basic_string@DU?$char_traits@D@std@@V?$allocator@D@2@@std@@PAUtagBillItem@CBillClient@@@std@@@2@$0A@@std@@@std@@QAEXXZ ; std::_Tree<std::_Tmap_traits<std::basic_string<char,std::char_traits<char>,std::allocator<char> >,CBillClient::tagBillItem *,std::less<std::basic_string<char,std::char_traits<char>,std::allocator<char> > >,std::allocator<std::pair<std::basic_string<char,std::char_traits<char>,std::allocator<char> > const ,CBillClient::tagBillItem *> >,0> >::const_iterator::_Inc
  00080	8b 7c 24 14	 mov	 edi, DWORD PTR _itCallback$[esp+28]
  00084	8b 74 24 10	 mov	 esi, DWORD PTR _itCallback$[esp+24]
  00088	eb a6		 jmp	 SHORT $LL40@Release
$LN14@Release:

; 35   : 	}
; 36   : 	m_CallbackQueue.clear();

  0008a	a1 04 00 00 00	 mov	 eax, DWORD PTR ?m_CallbackQueue@CBillClient@@0V?$MulTiThMap@V?$basic_string@DU?$char_traits@D@std@@V?$allocator@D@2@@std@@PAUtagBillItem@CBillClient@@@@A+4
  0008f	8b 48 04	 mov	 ecx, DWORD PTR [eax+4]
  00092	51		 push	 ecx
  00093	b9 00 00 00 00	 mov	 ecx, OFFSET ?m_CallbackQueue@CBillClient@@0V?$MulTiThMap@V?$basic_string@DU?$char_traits@D@std@@V?$allocator@D@2@@std@@PAUtagBillItem@CBillClient@@@@A ; CBillClient::m_CallbackQueue
  00098	e8 00 00 00 00	 call	 ?_Erase@?$_Tree@V?$_Tmap_traits@V?$basic_string@DU?$char_traits@D@std@@V?$allocator@D@2@@std@@PAUtagBillItem@CBillClient@@U?$less@V?$basic_string@DU?$char_traits@D@std@@V?$allocator@D@2@@std@@@2@V?$allocator@U?$pair@$$CBV?$basic_string@DU?$char_traits@D@std@@V?$allocator@D@2@@std@@PAUtagBillItem@CBillClient@@@std@@@2@$0A@@std@@@std@@IAEXPAU_Node@?$_Tree_nod@V?$_Tmap_traits@V?$basic_string@DU?$char_traits@D@std@@V?$allocator@D@2@@std@@PAUtagBillItem@CBillClient@@U?$less@V?$basic_string@DU?$char_traits@D@std@@V?$allocator@D@2@@std@@@2@V?$allocator@U?$pair@$$CBV?$basic_string@DU?$char_traits@D@std@@V?$allocator@D@2@@std@@PAUtagBillItem@CBillClient@@@std@@@2@$0A@@std@@@2@@Z ; std::_Tree<std::_Tmap_traits<std::basic_string<char,std::char_traits<char>,std::allocator<char> >,CBillClient::tagBillItem *,std::less<std::basic_string<char,std::char_traits<char>,std::allocator<char> > >,std::allocator<std::pair<std::basic_string<char,std::char_traits<char>,std::allocator<char> > const ,CBillClient::tagBillItem *> >,0> >::_Erase
  0009d	a1 04 00 00 00	 mov	 eax, DWORD PTR ?m_CallbackQueue@CBillClient@@0V?$MulTiThMap@V?$basic_string@DU?$char_traits@D@std@@V?$allocator@D@2@@std@@PAUtagBillItem@CBillClient@@@@A+4
  000a2	89 40 04	 mov	 DWORD PTR [eax+4], eax
  000a5	a1 04 00 00 00	 mov	 eax, DWORD PTR ?m_CallbackQueue@CBillClient@@0V?$MulTiThMap@V?$basic_string@DU?$char_traits@D@std@@V?$allocator@D@2@@std@@PAUtagBillItem@CBillClient@@@@A+4
  000aa	89 2d 08 00 00
	00		 mov	 DWORD PTR ?m_CallbackQueue@CBillClient@@0V?$MulTiThMap@V?$basic_string@DU?$char_traits@D@std@@V?$allocator@D@2@@std@@PAUtagBillItem@CBillClient@@@@A+8, ebp
  000b0	89 00		 mov	 DWORD PTR [eax], eax
  000b2	a1 04 00 00 00	 mov	 eax, DWORD PTR ?m_CallbackQueue@CBillClient@@0V?$MulTiThMap@V?$basic_string@DU?$char_traits@D@std@@V?$allocator@D@2@@std@@PAUtagBillItem@CBillClient@@@@A+4
  000b7	89 40 08	 mov	 DWORD PTR [eax+8], eax

; 37   : 
; 38   : 	itrBill itCaller = m_CallerQueue.begin();

  000ba	8b 15 04 00 00
	00		 mov	 edx, DWORD PTR ?m_CallerQueue@CBillClient@@0V?$MulTiThMap@V?$basic_string@DU?$char_traits@D@std@@V?$allocator@D@2@@std@@PAUtagBillItem@CBillClient@@@@A+4
  000c0	8b 3a		 mov	 edi, DWORD PTR [edx]
  000c2	be 00 00 00 00	 mov	 esi, OFFSET ?m_CallerQueue@CBillClient@@0V?$MulTiThMap@V?$basic_string@DU?$char_traits@D@std@@V?$allocator@D@2@@std@@PAUtagBillItem@CBillClient@@@@A ; CBillClient::m_CallerQueue
  000c7	89 7c 24 14	 mov	 DWORD PTR _itCaller$[esp+28], edi
  000cb	89 74 24 10	 mov	 DWORD PTR _itCaller$[esp+24], esi
  000cf	90		 npad	 1

; 39   : 	for( ; itCaller!=m_CallerQueue.end(); itCaller++ )

$LL116@Release:
  000d0	3b f5		 cmp	 esi, ebp
  000d2	8b 1d 04 00 00
	00		 mov	 ebx, DWORD PTR ?m_CallerQueue@CBillClient@@0V?$MulTiThMap@V?$basic_string@DU?$char_traits@D@std@@V?$allocator@D@2@@std@@PAUtagBillItem@CBillClient@@@@A+4
  000d8	74 08		 je	 SHORT $LN131@Release
  000da	81 fe 00 00 00
	00		 cmp	 esi, OFFSET ?m_CallerQueue@CBillClient@@0V?$MulTiThMap@V?$basic_string@DU?$char_traits@D@std@@V?$allocator@D@2@@std@@PAUtagBillItem@CBillClient@@@@A ; CBillClient::m_CallerQueue
  000e0	74 05		 je	 SHORT $LN132@Release
$LN131@Release:
  000e2	e8 00 00 00 00	 call	 __invalid_parameter_noinfo
$LN132@Release:
  000e7	3b fb		 cmp	 edi, ebx
  000e9	74 3f		 je	 SHORT $LN8@Release

; 40   : 	{
; 41   : 		SAFE_DELETE(itCaller->second);

  000eb	3b f5		 cmp	 esi, ebp
  000ed	75 05		 jne	 SHORT $LN140@Release
  000ef	e8 00 00 00 00	 call	 __invalid_parameter_noinfo
$LN140@Release:
  000f4	3b 7e 04	 cmp	 edi, DWORD PTR [esi+4]
  000f7	75 05		 jne	 SHORT $LN139@Release
  000f9	e8 00 00 00 00	 call	 __invalid_parameter_noinfo
$LN139@Release:
  000fe	8b 47 28	 mov	 eax, DWORD PTR [edi+40]
  00101	50		 push	 eax
  00102	e8 00 00 00 00	 call	 ??3@YAXPAX@Z		; operator delete
  00107	83 c4 04	 add	 esp, 4
  0010a	3b 7e 04	 cmp	 edi, DWORD PTR [esi+4]
  0010d	75 05		 jne	 SHORT $LN149@Release
  0010f	e8 00 00 00 00	 call	 __invalid_parameter_noinfo
$LN149@Release:
  00114	8d 4c 24 10	 lea	 ecx, DWORD PTR _itCaller$[esp+24]
  00118	89 6f 28	 mov	 DWORD PTR [edi+40], ebp
  0011b	e8 00 00 00 00	 call	 ?_Inc@const_iterator@?$_Tree@V?$_Tmap_traits@V?$basic_string@DU?$char_traits@D@std@@V?$allocator@D@2@@std@@PAUtagBillItem@CBillClient@@U?$less@V?$basic_string@DU?$char_traits@D@std@@V?$allocator@D@2@@std@@@2@V?$allocator@U?$pair@$$CBV?$basic_string@DU?$char_traits@D@std@@V?$allocator@D@2@@std@@PAUtagBillItem@CBillClient@@@std@@@2@$0A@@std@@@std@@QAEXXZ ; std::_Tree<std::_Tmap_traits<std::basic_string<char,std::char_traits<char>,std::allocator<char> >,CBillClient::tagBillItem *,std::less<std::basic_string<char,std::char_traits<char>,std::allocator<char> > >,std::allocator<std::pair<std::basic_string<char,std::char_traits<char>,std::allocator<char> > const ,CBillClient::tagBillItem *> >,0> >::const_iterator::_Inc
  00120	8b 7c 24 14	 mov	 edi, DWORD PTR _itCaller$[esp+28]
  00124	8b 74 24 10	 mov	 esi, DWORD PTR _itCaller$[esp+24]
  00128	eb a6		 jmp	 SHORT $LL116@Release
$LN8@Release:

; 42   : 	}
; 43   : 	m_CallerQueue.clear();

  0012a	8b 0d 04 00 00
	00		 mov	 ecx, DWORD PTR ?m_CallerQueue@CBillClient@@0V?$MulTiThMap@V?$basic_string@DU?$char_traits@D@std@@V?$allocator@D@2@@std@@PAUtagBillItem@CBillClient@@@@A+4
  00130	8b 51 04	 mov	 edx, DWORD PTR [ecx+4]
  00133	52		 push	 edx
  00134	b9 00 00 00 00	 mov	 ecx, OFFSET ?m_CallerQueue@CBillClient@@0V?$MulTiThMap@V?$basic_string@DU?$char_traits@D@std@@V?$allocator@D@2@@std@@PAUtagBillItem@CBillClient@@@@A ; CBillClient::m_CallerQueue
  00139	e8 00 00 00 00	 call	 ?_Erase@?$_Tree@V?$_Tmap_traits@V?$basic_string@DU?$char_traits@D@std@@V?$allocator@D@2@@std@@PAUtagBillItem@CBillClient@@U?$less@V?$basic_string@DU?$char_traits@D@std@@V?$allocator@D@2@@std@@@2@V?$allocator@U?$pair@$$CBV?$basic_string@DU?$char_traits@D@std@@V?$allocator@D@2@@std@@PAUtagBillItem@CBillClient@@@std@@@2@$0A@@std@@@std@@IAEXPAU_Node@?$_Tree_nod@V?$_Tmap_traits@V?$basic_string@DU?$char_traits@D@std@@V?$allocator@D@2@@std@@PAUtagBillItem@CBillClient@@U?$less@V?$basic_string@DU?$char_traits@D@std@@V?$allocator@D@2@@std@@@2@V?$allocator@U?$pair@$$CBV?$basic_string@DU?$char_traits@D@std@@V?$allocator@D@2@@std@@PAUtagBillItem@CBillClient@@@std@@@2@$0A@@std@@@2@@Z ; std::_Tree<std::_Tmap_traits<std::basic_string<char,std::char_traits<char>,std::allocator<char> >,CBillClient::tagBillItem *,std::less<std::basic_string<char,std::char_traits<char>,std::allocator<char> > >,std::allocator<std::pair<std::basic_string<char,std::char_traits<char>,std::allocator<char> > const ,CBillClient::tagBillItem *> >,0> >::_Erase
  0013e	a1 04 00 00 00	 mov	 eax, DWORD PTR ?m_CallerQueue@CBillClient@@0V?$MulTiThMap@V?$basic_string@DU?$char_traits@D@std@@V?$allocator@D@2@@std@@PAUtagBillItem@CBillClient@@@@A+4
  00143	89 40 04	 mov	 DWORD PTR [eax+4], eax
  00146	a1 04 00 00 00	 mov	 eax, DWORD PTR ?m_CallerQueue@CBillClient@@0V?$MulTiThMap@V?$basic_string@DU?$char_traits@D@std@@V?$allocator@D@2@@std@@PAUtagBillItem@CBillClient@@@@A+4
  0014b	89 2d 08 00 00
	00		 mov	 DWORD PTR ?m_CallerQueue@CBillClient@@0V?$MulTiThMap@V?$basic_string@DU?$char_traits@D@std@@V?$allocator@D@2@@std@@PAUtagBillItem@CBillClient@@@@A+8, ebp
  00151	89 00		 mov	 DWORD PTR [eax], eax
  00153	a1 04 00 00 00	 mov	 eax, DWORD PTR ?m_CallerQueue@CBillClient@@0V?$MulTiThMap@V?$basic_string@DU?$char_traits@D@std@@V?$allocator@D@2@@std@@PAUtagBillItem@CBillClient@@@@A+4
  00158	89 40 08	 mov	 DWORD PTR [eax+8], eax

; 44   : 
; 45   : 	if(s_pInstance != NULL)

  0015b	a1 00 00 00 00	 mov	 eax, DWORD PTR ?s_pInstance@CBillClient@@0PAV1@A ; CBillClient::s_pInstance
  00160	3b c5		 cmp	 eax, ebp
  00162	74 0f		 je	 SHORT $LN1@Release

; 46   : 	{
; 47   : 		SAFE_DELETE(s_pInstance);

  00164	50		 push	 eax
  00165	e8 00 00 00 00	 call	 ??3@YAXPAX@Z		; operator delete
  0016a	83 c4 04	 add	 esp, 4
  0016d	89 2d 00 00 00
	00		 mov	 DWORD PTR ?s_pInstance@CBillClient@@0PAV1@A, ebp ; CBillClient::s_pInstance
$LN1@Release:

; 48   : 	}
; 49   : }

  00173	5f		 pop	 edi
  00174	5e		 pop	 esi
  00175	5d		 pop	 ebp
  00176	5b		 pop	 ebx
  00177	8b e5		 mov	 esp, ebp
  00179	5d		 pop	 ebp
  0017a	c3		 ret	 0
?Release@CBillClient@@QAEXXZ ENDP			; CBillClient::Release
_TEXT	ENDS
PUBLIC	??1?$_Tree@V?$_Tmap_traits@V?$basic_string@DU?$char_traits@D@std@@V?$allocator@D@2@@std@@PAUtagBillItem@CBillClient@@U?$less@V?$basic_string@DU?$char_traits@D@std@@V?$allocator@D@2@@std@@@2@V?$allocator@U?$pair@$$CBV?$basic_string@DU?$char_traits@D@std@@V?$allocator@D@2@@std@@PAUtagBillItem@CBillClient@@@std@@@2@$0A@@std@@@std@@QAE@XZ ; std::_Tree<std::_Tmap_traits<std::basic_string<char,std::char_traits<char>,std::allocator<char> >,CBillClient::tagBillItem *,std::less<std::basic_string<char,std::char_traits<char>,std::allocator<char> > >,std::allocator<std::pair<std::basic_string<char,std::char_traits<char>,std::allocator<char> > const ,CBillClient::tagBillItem *> >,0> >::~_Tree<std::_Tmap_traits<std::basic_string<char,std::char_traits<char>,std::allocator<char> >,CBillClient::tagBillItem *,std::less<std::basic_string<char,std::char_traits<char>,std::allocator<char> > >,std::allocator<std::pair<std::basic_string<char,std::char_traits<char>,std::allocator<char> > const ,CBillClient::tagBillItem *> >,0> >
; Function compile flags: /Ogtpy
; File d:\program files\microsoft visual studio 8\vc\include\xtree
;	COMDAT ??1?$_Tree@V?$_Tmap_traits@V?$basic_string@DU?$char_traits@D@std@@V?$allocator@D@2@@std@@PAUtagBillItem@CBillClient@@U?$less@V?$basic_string@DU?$char_traits@D@std@@V?$allocator@D@2@@std@@@2@V?$allocator@U?$pair@$$CBV?$basic_string@DU?$char_traits@D@std@@V?$allocator@D@2@@std@@PAUtagBillItem@CBillClient@@@std@@@2@$0A@@std@@@std@@QAE@XZ
_TEXT	SEGMENT
$T269126 = -8						; size = 8
??1?$_Tree@V?$_Tmap_traits@V?$basic_string@DU?$char_traits@D@std@@V?$allocator@D@2@@std@@PAUtagBillItem@CBillClient@@U?$less@V?$basic_string@DU?$char_traits@D@std@@V?$allocator@D@2@@std@@@2@V?$allocator@U?$pair@$$CBV?$basic_string@DU?$char_traits@D@std@@V?$allocator@D@2@@std@@PAUtagBillItem@CBillClient@@@std@@@2@$0A@@std@@@std@@QAE@XZ PROC ; std::_Tree<std::_Tmap_traits<std::basic_string<char,std::char_traits<char>,std::allocator<char> >,CBillClient::tagBillItem *,std::less<std::basic_string<char,std::char_traits<char>,std::allocator<char> > >,std::allocator<std::pair<std::basic_string<char,std::char_traits<char>,std::allocator<char> > const ,CBillClient::tagBillItem *> >,0> >::~_Tree<std::_Tmap_traits<std::basic_string<char,std::char_traits<char>,std::allocator<char> >,CBillClient::tagBillItem *,std::less<std::basic_string<char,std::char_traits<char>,std::allocator<char> > >,std::allocator<std::pair<std::basic_string<char,std::char_traits<char>,std::allocator<char> > const ,CBillClient::tagBillItem *> >,0> >, COMDAT
; _this$ = ecx

; 525  : 		{	// destroy tree

  00000	83 ec 08	 sub	 esp, 8
  00003	56		 push	 esi
  00004	8b f1		 mov	 esi, ecx

; 526  : 		_Tidy();

  00006	8b 46 04	 mov	 eax, DWORD PTR [esi+4]
  00009	8b 08		 mov	 ecx, DWORD PTR [eax]
  0000b	50		 push	 eax
  0000c	56		 push	 esi
  0000d	51		 push	 ecx
  0000e	56		 push	 esi
  0000f	8d 44 24 14	 lea	 eax, DWORD PTR $T269126[esp+28]
  00013	50		 push	 eax
  00014	8b ce		 mov	 ecx, esi
  00016	e8 00 00 00 00	 call	 ?erase@?$_Tree@V?$_Tmap_traits@V?$basic_string@DU?$char_traits@D@std@@V?$allocator@D@2@@std@@PAUtagBillItem@CBillClient@@U?$less@V?$basic_string@DU?$char_traits@D@std@@V?$allocator@D@2@@std@@@2@V?$allocator@U?$pair@$$CBV?$basic_string@DU?$char_traits@D@std@@V?$allocator@D@2@@std@@PAUtagBillItem@CBillClient@@@std@@@2@$0A@@std@@@std@@QAE?AViterator@12@V312@0@Z ; std::_Tree<std::_Tmap_traits<std::basic_string<char,std::char_traits<char>,std::allocator<char> >,CBillClient::tagBillItem *,std::less<std::basic_string<char,std::char_traits<char>,std::allocator<char> > >,std::allocator<std::pair<std::basic_string<char,std::char_traits<char>,std::allocator<char> > const ,CBillClient::tagBillItem *> >,0> >::erase
  0001b	8b 4e 04	 mov	 ecx, DWORD PTR [esi+4]
  0001e	51		 push	 ecx
  0001f	e8 00 00 00 00	 call	 ??3@YAXPAX@Z		; operator delete
  00024	83 c4 04	 add	 esp, 4
  00027	33 c0		 xor	 eax, eax
  00029	89 46 04	 mov	 DWORD PTR [esi+4], eax
  0002c	89 46 08	 mov	 DWORD PTR [esi+8], eax
  0002f	5e		 pop	 esi

; 527  : 		}

  00030	83 c4 08	 add	 esp, 8
  00033	c3		 ret	 0
??1?$_Tree@V?$_Tmap_traits@V?$basic_string@DU?$char_traits@D@std@@V?$allocator@D@2@@std@@PAUtagBillItem@CBillClient@@U?$less@V?$basic_string@DU?$char_traits@D@std@@V?$allocator@D@2@@std@@@2@V?$allocator@U?$pair@$$CBV?$basic_string@DU?$char_traits@D@std@@V?$allocator@D@2@@std@@PAUtagBillItem@CBillClient@@@std@@@2@$0A@@std@@@std@@QAE@XZ ENDP ; std::_Tree<std::_Tmap_traits<std::basic_string<char,std::char_traits<char>,std::allocator<char> >,CBillClient::tagBillItem *,std::less<std::basic_string<char,std::char_traits<char>,std::allocator<char> > >,std::allocator<std::pair<std::basic_string<char,std::char_traits<char>,std::allocator<char> > const ,CBillClient::tagBillItem *> >,0> >::~_Tree<std::_Tmap_traits<std::basic_string<char,std::char_traits<char>,std::allocator<char> >,CBillClient::tagBillItem *,std::less<std::basic_string<char,std::char_traits<char>,std::allocator<char> > >,std::allocator<std::pair<std::basic_string<char,std::char_traits<char>,std::allocator<char> > const ,CBillClient::tagBillItem *> >,0> >
_TEXT	ENDS
PUBLIC	?_Copy@?$_Tree@V?$_Tmap_traits@V?$basic_string@DU?$char_traits@D@std@@V?$allocator@D@2@@std@@PAUtagBillItem@CBillClient@@U?$less@V?$basic_string@DU?$char_traits@D@std@@V?$allocator@D@2@@std@@@2@V?$allocator@U?$pair@$$CBV?$basic_string@DU?$char_traits@D@std@@V?$allocator@D@2@@std@@PAUtagBillItem@CBillClient@@@std@@@2@$0A@@std@@@std@@IAEXABV12@@Z ; std::_Tree<std::_Tmap_traits<std::basic_string<char,std::char_traits<char>,std::allocator<char> >,CBillClient::tagBillItem *,std::less<std::basic_string<char,std::char_traits<char>,std::allocator<char> > >,std::allocator<std::pair<std::basic_string<char,std::char_traits<char>,std::allocator<char> > const ,CBillClient::tagBillItem *> >,0> >::_Copy
; Function compile flags: /Ogtpy
;	COMDAT ?_Copy@?$_Tree@V?$_Tmap_traits@V?$basic_string@DU?$char_traits@D@std@@V?$allocator@D@2@@std@@PAUtagBillItem@CBillClient@@U?$less@V?$basic_string@DU?$char_traits@D@std@@V?$allocator@D@2@@std@@@2@V?$allocator@U?$pair@$$CBV?$basic_string@DU?$char_traits@D@std@@V?$allocator@D@2@@std@@PAUtagBillItem@CBillClient@@@std@@@2@$0A@@std@@@std@@IAEXABV12@@Z
_TEXT	SEGMENT
__Right$ = 8						; size = 4
?_Copy@?$_Tree@V?$_Tmap_traits@V?$basic_string@DU?$char_traits@D@std@@V?$allocator@D@2@@std@@PAUtagBillItem@CBillClient@@U?$less@V?$basic_string@DU?$char_traits@D@std@@V?$allocator@D@2@@std@@@2@V?$allocator@U?$pair@$$CBV?$basic_string@DU?$char_traits@D@std@@V?$allocator@D@2@@std@@PAUtagBillItem@CBillClient@@@std@@@2@$0A@@std@@@std@@IAEXABV12@@Z PROC ; std::_Tree<std::_Tmap_traits<std::basic_string<char,std::char_traits<char>,std::allocator<char> >,CBillClient::tagBillItem *,std::less<std::basic_string<char,std::char_traits<char>,std::allocator<char> > >,std::allocator<std::pair<std::basic_string<char,std::char_traits<char>,std::allocator<char> > const ,CBillClient::tagBillItem *> >,0> >::_Copy, COMDAT
; _this$ = ecx

; 1036 : 		{	// copy entire tree from _Right

  00000	53		 push	 ebx

; 1037 : 		_Root() = _Copy(_Right._Root(), _Myhead);

  00001	8b 5c 24 08	 mov	 ebx, DWORD PTR __Right$[esp]
  00005	8b 43 04	 mov	 eax, DWORD PTR [ebx+4]
  00008	56		 push	 esi
  00009	57		 push	 edi
  0000a	8b f1		 mov	 esi, ecx
  0000c	8b 7e 04	 mov	 edi, DWORD PTR [esi+4]
  0000f	83 c0 04	 add	 eax, 4
  00012	8b 00		 mov	 eax, DWORD PTR [eax]
  00014	57		 push	 edi
  00015	50		 push	 eax
  00016	e8 00 00 00 00	 call	 ?_Copy@?$_Tree@V?$_Tmap_traits@V?$basic_string@DU?$char_traits@D@std@@V?$allocator@D@2@@std@@PAUtagBillItem@CBillClient@@U?$less@V?$basic_string@DU?$char_traits@D@std@@V?$allocator@D@2@@std@@@2@V?$allocator@U?$pair@$$CBV?$basic_string@DU?$char_traits@D@std@@V?$allocator@D@2@@std@@PAUtagBillItem@CBillClient@@@std@@@2@$0A@@std@@@std@@IAEPAU_Node@?$_Tree_nod@V?$_Tmap_traits@V?$basic_string@DU?$char_traits@D@std@@V?$allocator@D@2@@std@@PAUtagBillItem@CBillClient@@U?$less@V?$basic_string@DU?$char_traits@D@std@@V?$allocator@D@2@@std@@@2@V?$allocator@U?$pair@$$CBV?$basic_string@DU?$char_traits@D@std@@V?$allocator@D@2@@std@@PAUtagBillItem@CBillClient@@@std@@@2@$0A@@std@@@2@PAU342@0@Z ; std::_Tree<std::_Tmap_traits<std::basic_string<char,std::char_traits<char>,std::allocator<char> >,CBillClient::tagBillItem *,std::less<std::basic_string<char,std::char_traits<char>,std::allocator<char> > >,std::allocator<std::pair<std::basic_string<char,std::char_traits<char>,std::allocator<char> > const ,CBillClient::tagBillItem *> >,0> >::_Copy
  0001b	89 47 04	 mov	 DWORD PTR [edi+4], eax

; 1038 : 		_Mysize = _Right.size();

  0001e	8b 4b 08	 mov	 ecx, DWORD PTR [ebx+8]

; 1039 : 		if (!_Isnil(_Root()))

  00021	8b 56 04	 mov	 edx, DWORD PTR [esi+4]
  00024	89 4e 08	 mov	 DWORD PTR [esi+8], ecx
  00027	8b 42 04	 mov	 eax, DWORD PTR [edx+4]
  0002a	80 78 2d 00	 cmp	 BYTE PTR [eax+45], 0
  0002e	75 37		 jne	 SHORT $LN2@Copy@3

; 1040 : 			{	// nonempty tree, look for new smallest and largest
; 1041 : 			_Lmost() = _Min(_Root());

  00030	8b 08		 mov	 ecx, DWORD PTR [eax]
  00032	80 79 2d 00	 cmp	 BYTE PTR [ecx+45], 0
  00036	75 0a		 jne	 SHORT $LN25@Copy@3
$LL26@Copy@3:
  00038	8b c1		 mov	 eax, ecx
  0003a	8b 08		 mov	 ecx, DWORD PTR [eax]
  0003c	80 79 2d 00	 cmp	 BYTE PTR [ecx+45], 0
  00040	74 f6		 je	 SHORT $LL26@Copy@3
$LN25@Copy@3:
  00042	89 02		 mov	 DWORD PTR [edx], eax

; 1042 : 			_Rmost() = _Max(_Root());

  00044	8b 76 04	 mov	 esi, DWORD PTR [esi+4]
  00047	8b 4e 04	 mov	 ecx, DWORD PTR [esi+4]
  0004a	8b 41 08	 mov	 eax, DWORD PTR [ecx+8]
  0004d	80 78 2d 00	 cmp	 BYTE PTR [eax+45], 0
  00051	75 0b		 jne	 SHORT $LN43@Copy@3
$LL44@Copy@3:
  00053	8b c8		 mov	 ecx, eax
  00055	8b 41 08	 mov	 eax, DWORD PTR [ecx+8]
  00058	80 78 2d 00	 cmp	 BYTE PTR [eax+45], 0
  0005c	74 f5		 je	 SHORT $LL44@Copy@3
$LN43@Copy@3:
  0005e	5f		 pop	 edi
  0005f	89 4e 08	 mov	 DWORD PTR [esi+8], ecx
  00062	5e		 pop	 esi
  00063	5b		 pop	 ebx

; 1046 : 		}

  00064	c2 04 00	 ret	 4
$LN2@Copy@3:

; 1043 : 			}
; 1044 : 		else
; 1045 : 			_Lmost() = _Myhead, _Rmost() = _Myhead;	// empty tree

  00067	89 12		 mov	 DWORD PTR [edx], edx
  00069	8b 76 04	 mov	 esi, DWORD PTR [esi+4]
  0006c	5f		 pop	 edi
  0006d	89 76 08	 mov	 DWORD PTR [esi+8], esi
  00070	5e		 pop	 esi
  00071	5b		 pop	 ebx

; 1046 : 		}

  00072	c2 04 00	 ret	 4
?_Copy@?$_Tree@V?$_Tmap_traits@V?$basic_string@DU?$char_traits@D@std@@V?$allocator@D@2@@std@@PAUtagBillItem@CBillClient@@U?$less@V?$basic_string@DU?$char_traits@D@std@@V?$allocator@D@2@@std@@@2@V?$allocator@U?$pair@$$CBV?$basic_string@DU?$char_traits@D@std@@V?$allocator@D@2@@std@@PAUtagBillItem@CBillClient@@@std@@@2@$0A@@std@@@std@@IAEXABV12@@Z ENDP ; std::_Tree<std::_Tmap_traits<std::basic_string<char,std::char_traits<char>,std::allocator<char> >,CBillClient::tagBillItem *,std::less<std::basic_string<char,std::char_traits<char>,std::allocator<char> > >,std::allocator<std::pair<std::basic_string<char,std::char_traits<char>,std::allocator<char> > const ,CBillClient::tagBillItem *> >,0> >::_Copy
_TEXT	ENDS
PUBLIC	?insert@?$_Tree@V?$_Tmap_traits@V?$basic_string@DU?$char_traits@D@std@@V?$allocator@D@2@@std@@PAUtagBillItem@CBillClient@@U?$less@V?$basic_string@DU?$char_traits@D@std@@V?$allocator@D@2@@std@@@2@V?$allocator@U?$pair@$$CBV?$basic_string@DU?$char_traits@D@std@@V?$allocator@D@2@@std@@PAUtagBillItem@CBillClient@@@std@@@2@$0A@@std@@@std@@QAE?AU?$pair@Viterator@?$_Tree@V?$_Tmap_traits@V?$basic_string@DU?$char_traits@D@std@@V?$allocator@D@2@@std@@PAUtagBillItem@CBillClient@@U?$less@V?$basic_string@DU?$char_traits@D@std@@V?$allocator@D@2@@std@@@2@V?$allocator@U?$pair@$$CBV?$basic_string@DU?$char_traits@D@std@@V?$allocator@D@2@@std@@PAUtagBillItem@CBillClient@@@std@@@2@$0A@@std@@@std@@_N@2@ABU?$pair@$$CBV?$basic_string@DU?$char_traits@D@std@@V?$allocator@D@2@@std@@PAUtagBillItem@CBillClient@@@2@@Z ; std::_Tree<std::_Tmap_traits<std::basic_string<char,std::char_traits<char>,std::allocator<char> >,CBillClient::tagBillItem *,std::less<std::basic_string<char,std::char_traits<char>,std::allocator<char> > >,std::allocator<std::pair<std::basic_string<char,std::char_traits<char>,std::allocator<char> > const ,CBillClient::tagBillItem *> >,0> >::insert
; Function compile flags: /Ogtpy
;	COMDAT ?insert@?$_Tree@V?$_Tmap_traits@V?$basic_string@DU?$char_traits@D@std@@V?$allocator@D@2@@std@@PAUtagBillItem@CBillClient@@U?$less@V?$basic_string@DU?$char_traits@D@std@@V?$allocator@D@2@@std@@@2@V?$allocator@U?$pair@$$CBV?$basic_string@DU?$char_traits@D@std@@V?$allocator@D@2@@std@@PAUtagBillItem@CBillClient@@@std@@@2@$0A@@std@@@std@@QAE?AU?$pair@Viterator@?$_Tree@V?$_Tmap_traits@V?$basic_string@DU?$char_traits@D@std@@V?$allocator@D@2@@std@@PAUtagBillItem@CBillClient@@U?$less@V?$basic_string@DU?$char_traits@D@std@@V?$allocator@D@2@@std@@@2@V?$allocator@U?$pair@$$CBV?$basic_string@DU?$char_traits@D@std@@V?$allocator@D@2@@std@@PAUtagBillItem@CBillClient@@@std@@@2@$0A@@std@@@std@@_N@2@ABU?$pair@$$CBV?$basic_string@DU?$char_traits@D@std@@V?$allocator@D@2@@std@@PAUtagBillItem@CBillClient@@@2@@Z
_TEXT	SEGMENT
__Addleft$ = -12					; size = 1
$T269305 = -8						; size = 8
$T269303 = -8						; size = 8
__Where$246363 = -8					; size = 8
_this$ = -8						; size = 4
___$ReturnUdt$ = 8					; size = 4
__Wherenode$ = 12					; size = 4
__Val$ = 12						; size = 4
?insert@?$_Tree@V?$_Tmap_traits@V?$basic_string@DU?$char_traits@D@std@@V?$allocator@D@2@@std@@PAUtagBillItem@CBillClient@@U?$less@V?$basic_string@DU?$char_traits@D@std@@V?$allocator@D@2@@std@@@2@V?$allocator@U?$pair@$$CBV?$basic_string@DU?$char_traits@D@std@@V?$allocator@D@2@@std@@PAUtagBillItem@CBillClient@@@std@@@2@$0A@@std@@@std@@QAE?AU?$pair@Viterator@?$_Tree@V?$_Tmap_traits@V?$basic_string@DU?$char_traits@D@std@@V?$allocator@D@2@@std@@PAUtagBillItem@CBillClient@@U?$less@V?$basic_string@DU?$char_traits@D@std@@V?$allocator@D@2@@std@@@2@V?$allocator@U?$pair@$$CBV?$basic_string@DU?$char_traits@D@std@@V?$allocator@D@2@@std@@PAUtagBillItem@CBillClient@@@std@@@2@$0A@@std@@@std@@_N@2@ABU?$pair@$$CBV?$basic_string@DU?$char_traits@D@std@@V?$allocator@D@2@@std@@PAUtagBillItem@CBillClient@@@2@@Z PROC ; std::_Tree<std::_Tmap_traits<std::basic_string<char,std::char_traits<char>,std::allocator<char> >,CBillClient::tagBillItem *,std::less<std::basic_string<char,std::char_traits<char>,std::allocator<char> > >,std::allocator<std::pair<std::basic_string<char,std::char_traits<char>,std::allocator<char> > const ,CBillClient::tagBillItem *> >,0> >::insert, COMDAT
; _this$ = ecx

; 611  : 		{	// try to insert node with value _Val

  00000	83 ec 0c	 sub	 esp, 12			; 0000000cH
  00003	53		 push	 ebx

; 612  : 		_Nodeptr _Trynode = _Root();
; 613  : 		_Nodeptr _Wherenode = _Myhead;
; 614  : 		bool _Addleft = true;	// add to left of head if tree empty
; 615  : 		while (!_Isnil(_Trynode))

  00004	8b 5c 24 18	 mov	 ebx, DWORD PTR __Val$[esp+12]
  00008	55		 push	 ebp
  00009	56		 push	 esi
  0000a	57		 push	 edi
  0000b	8b f9		 mov	 edi, ecx
  0000d	8b 47 04	 mov	 eax, DWORD PTR [edi+4]
  00010	8b 70 04	 mov	 esi, DWORD PTR [eax+4]
  00013	80 7e 2d 00	 cmp	 BYTE PTR [esi+45], 0
  00017	8b e8		 mov	 ebp, eax
  00019	b0 01		 mov	 al, 1
  0001b	89 7c 24 14	 mov	 DWORD PTR _this$[esp+28], edi
  0001f	88 44 24 10	 mov	 BYTE PTR __Addleft$[esp+28], al
  00023	75 76		 jne	 SHORT $LN9@insert
$LL10@insert:

; 616  : 			{	// look for leaf to insert before (_Addleft) or after
; 617  : 			_Wherenode = _Trynode;
; 618  : 			_Addleft = _DEBUG_LT_PRED(this->comp,

  00025	83 7e 24 10	 cmp	 DWORD PTR [esi+36], 16	; 00000010H
  00029	8b 6e 20	 mov	 ebp, DWORD PTR [esi+32]
  0002c	89 74 24 24	 mov	 DWORD PTR __Wherenode$[esp+24], esi
  00030	72 05		 jb	 SHORT $LN39@insert
  00032	8b 56 10	 mov	 edx, DWORD PTR [esi+16]
  00035	eb 03		 jmp	 SHORT $LN40@insert
$LN39@insert:
  00037	8d 56 10	 lea	 edx, DWORD PTR [esi+16]
$LN40@insert:
  0003a	8b 7b 14	 mov	 edi, DWORD PTR [ebx+20]
  0003d	8b c7		 mov	 eax, edi
  0003f	3b c7		 cmp	 eax, edi
  00041	0f 42 f8	 cmovb	 edi, eax
  00044	3b fd		 cmp	 edi, ebp
  00046	8b cf		 mov	 ecx, edi
  00048	72 02		 jb	 SHORT $LN46@insert
  0004a	8b cd		 mov	 ecx, ebp
$LN46@insert:
  0004c	83 7b 18 10	 cmp	 DWORD PTR [ebx+24], 16	; 00000010H
  00050	72 05		 jb	 SHORT $LN53@insert
  00052	8b 43 04	 mov	 eax, DWORD PTR [ebx+4]
  00055	eb 03		 jmp	 SHORT $LN54@insert
$LN53@insert:
  00057	8d 43 04	 lea	 eax, DWORD PTR [ebx+4]
$LN54@insert:
  0005a	51		 push	 ecx
  0005b	52		 push	 edx
  0005c	50		 push	 eax
  0005d	e8 00 00 00 00	 call	 ?compare@?$char_traits@D@std@@SAHPBD0I@Z ; std::char_traits<char>::compare
  00062	83 c4 0c	 add	 esp, 12			; 0000000cH
  00065	85 c0		 test	 eax, eax
  00067	75 12		 jne	 SHORT $LN123@insert
  00069	3b fd		 cmp	 edi, ebp
  0006b	73 05		 jae	 SHORT $LN47@insert
  0006d	83 c8 ff	 or	 eax, -1
  00070	eb 07		 jmp	 SHORT $LN48@insert
$LN47@insert:
  00072	33 c0		 xor	 eax, eax
  00074	3b fd		 cmp	 edi, ebp
  00076	0f 95 c0	 setne	 al
$LN48@insert:
  00079	85 c0		 test	 eax, eax
$LN123@insert:
  0007b	0f 9c c0	 setl	 al

; 619  : 				this->_Kfn(_Val), _Key(_Trynode));
; 620  : 			_Trynode = _Addleft ? _Left(_Trynode) : _Right(_Trynode);

  0007e	84 c0		 test	 al, al
  00080	88 44 24 10	 mov	 BYTE PTR __Addleft$[esp+28], al
  00084	74 04		 je	 SHORT $LN13@insert
  00086	8b 36		 mov	 esi, DWORD PTR [esi]
  00088	eb 03		 jmp	 SHORT $LN14@insert
$LN13@insert:
  0008a	8b 76 08	 mov	 esi, DWORD PTR [esi+8]
$LN14@insert:

; 612  : 		_Nodeptr _Trynode = _Root();
; 613  : 		_Nodeptr _Wherenode = _Myhead;
; 614  : 		bool _Addleft = true;	// add to left of head if tree empty
; 615  : 		while (!_Isnil(_Trynode))

  0008d	80 7e 2d 00	 cmp	 BYTE PTR [esi+45], 0
  00091	74 92		 je	 SHORT $LL10@insert
  00093	8b 7c 24 14	 mov	 edi, DWORD PTR _this$[esp+28]
  00097	8b 6c 24 24	 mov	 ebp, DWORD PTR __Wherenode$[esp+24]
$LN9@insert:

; 621  : 			}
; 622  : 
; 623  : 		if (this->_Multi)
; 624  : 			return (_Pairib(_Insert(_Addleft, _Wherenode, _Val), true));
; 625  : 		else
; 626  : 			{	// insert only if unique
; 627  : 			iterator _Where = _TREE_ITERATOR(_Wherenode);
; 628  : 			if (!_Addleft)

  0009b	84 c0		 test	 al, al
  0009d	8b f5		 mov	 esi, ebp
  0009f	89 74 24 18	 mov	 DWORD PTR __Where$246363[esp+32], esi
  000a3	89 7c 24 14	 mov	 DWORD PTR __Where$246363[esp+28], edi
  000a7	74 3e		 je	 SHORT $LN93@insert

; 629  : 				;	// need to test if insert after is okay
; 630  : 			else if (_Where == begin())

  000a9	8b 47 04	 mov	 eax, DWORD PTR [edi+4]
  000ac	3b 28		 cmp	 ebp, DWORD PTR [eax]

; 631  : 				return (_Pairib(_Insert(true, _Wherenode, _Val), true));

  000ae	8d 4c 24 14	 lea	 ecx, DWORD PTR $T269303[esp+28]
  000b2	75 2a		 jne	 SHORT $LN4@insert
  000b4	53		 push	 ebx
  000b5	55		 push	 ebp
  000b6	6a 01		 push	 1
$LN125@insert:
  000b8	51		 push	 ecx
  000b9	8b cf		 mov	 ecx, edi
  000bb	e8 00 00 00 00	 call	 ?_Insert@?$_Tree@V?$_Tmap_traits@V?$basic_string@DU?$char_traits@D@std@@V?$allocator@D@2@@std@@PAUtagBillItem@CBillClient@@U?$less@V?$basic_string@DU?$char_traits@D@std@@V?$allocator@D@2@@std@@@2@V?$allocator@U?$pair@$$CBV?$basic_string@DU?$char_traits@D@std@@V?$allocator@D@2@@std@@PAUtagBillItem@CBillClient@@@std@@@2@$0A@@std@@@std@@IAE?AViterator@12@_NPAU_Node@?$_Tree_nod@V?$_Tmap_traits@V?$basic_string@DU?$char_traits@D@std@@V?$allocator@D@2@@std@@PAUtagBillItem@CBillClient@@U?$less@V?$basic_string@DU?$char_traits@D@std@@V?$allocator@D@2@@std@@@2@V?$allocator@U?$pair@$$CBV?$basic_string@DU?$char_traits@D@std@@V?$allocator@D@2@@std@@PAUtagBillItem@CBillClient@@@std@@@2@$0A@@std@@@2@ABU?$pair@$$CBV?$basic_string@DU?$char_traits@D@std@@V?$allocator@D@2@@std@@PAUtagBillItem@CBillClient@@@2@@Z ; std::_Tree<std::_Tmap_traits<std::basic_string<char,std::char_traits<char>,std::allocator<char> >,CBillClient::tagBillItem *,std::less<std::basic_string<char,std::char_traits<char>,std::allocator<char> > >,std::allocator<std::pair<std::basic_string<char,std::char_traits<char>,std::allocator<char> > const ,CBillClient::tagBillItem *> >,0> >::_Insert
  000c0	5f		 pop	 edi
  000c1	8b c8		 mov	 ecx, eax
  000c3	8b 11		 mov	 edx, DWORD PTR [ecx]
  000c5	8b 44 24 1c	 mov	 eax, DWORD PTR ___$ReturnUdt$[esp+20]
  000c9	8b 49 04	 mov	 ecx, DWORD PTR [ecx+4]
  000cc	5e		 pop	 esi
  000cd	5d		 pop	 ebp
  000ce	89 48 04	 mov	 DWORD PTR [eax+4], ecx
  000d1	c6 40 08 01	 mov	 BYTE PTR [eax+8], 1

; 638  : 			else
; 639  : 				return (_Pairib(_Where, false));

  000d5	89 10		 mov	 DWORD PTR [eax], edx
  000d7	5b		 pop	 ebx

; 640  : 			}
; 641  : 		}

  000d8	83 c4 0c	 add	 esp, 12			; 0000000cH
  000db	c2 08 00	 ret	 8
$LN4@insert:

; 632  : 			else
; 633  : 				--_Where;	// need to test if insert before is okay

  000de	e8 00 00 00 00	 call	 ?_Dec@const_iterator@?$_Tree@V?$_Tmap_traits@V?$basic_string@DU?$char_traits@D@std@@V?$allocator@D@2@@std@@PAUtagBillItem@CBillClient@@U?$less@V?$basic_string@DU?$char_traits@D@std@@V?$allocator@D@2@@std@@@2@V?$allocator@U?$pair@$$CBV?$basic_string@DU?$char_traits@D@std@@V?$allocator@D@2@@std@@PAUtagBillItem@CBillClient@@@std@@@2@$0A@@std@@@std@@QAEXXZ ; std::_Tree<std::_Tmap_traits<std::basic_string<char,std::char_traits<char>,std::allocator<char> >,CBillClient::tagBillItem *,std::less<std::basic_string<char,std::char_traits<char>,std::allocator<char> > >,std::allocator<std::pair<std::basic_string<char,std::char_traits<char>,std::allocator<char> > const ,CBillClient::tagBillItem *> >,0> >::const_iterator::_Dec
  000e3	8b 74 24 18	 mov	 esi, DWORD PTR __Where$246363[esp+32]
$LN93@insert:

; 634  : 
; 635  : 			if (_DEBUG_LT_PRED(this->comp,

  000e7	83 7b 18 10	 cmp	 DWORD PTR [ebx+24], 16	; 00000010H
  000eb	8b 53 14	 mov	 edx, DWORD PTR [ebx+20]
  000ee	8d 4e 0c	 lea	 ecx, DWORD PTR [esi+12]
  000f1	72 05		 jb	 SHORT $LN115@insert
  000f3	8b 43 04	 mov	 eax, DWORD PTR [ebx+4]
  000f6	eb 03		 jmp	 SHORT $LN116@insert
$LN115@insert:
  000f8	8d 43 04	 lea	 eax, DWORD PTR [ebx+4]
$LN116@insert:
  000fb	52		 push	 edx
  000fc	8b 51 14	 mov	 edx, DWORD PTR [ecx+20]
  000ff	50		 push	 eax
  00100	52		 push	 edx
  00101	6a 00		 push	 0
  00103	e8 00 00 00 00	 call	 ?compare@?$basic_string@DU?$char_traits@D@std@@V?$allocator@D@2@@std@@QBEHIIPBDI@Z ; std::basic_string<char,std::char_traits<char>,std::allocator<char> >::compare
  00108	85 c0		 test	 eax, eax
  0010a	7d 0d		 jge	 SHORT $LN2@insert

; 636  : 				_Key(_Where._Mynode()), this->_Kfn(_Val)))
; 637  : 				return (_Pairib(_Insert(_Addleft, _Wherenode, _Val), true));

  0010c	8b 44 24 10	 mov	 eax, DWORD PTR __Addleft$[esp+28]
  00110	53		 push	 ebx
  00111	55		 push	 ebp
  00112	50		 push	 eax
  00113	8d 4c 24 20	 lea	 ecx, DWORD PTR $T269305[esp+40]
  00117	eb 9f		 jmp	 SHORT $LN125@insert
$LN2@insert:

; 638  : 			else
; 639  : 				return (_Pairib(_Where, false));

  00119	8b 44 24 20	 mov	 eax, DWORD PTR ___$ReturnUdt$[esp+24]
  0011d	8b 54 24 14	 mov	 edx, DWORD PTR __Where$246363[esp+28]
  00121	5f		 pop	 edi
  00122	89 70 04	 mov	 DWORD PTR [eax+4], esi
  00125	5e		 pop	 esi
  00126	5d		 pop	 ebp
  00127	c6 40 08 00	 mov	 BYTE PTR [eax+8], 0
  0012b	89 10		 mov	 DWORD PTR [eax], edx
  0012d	5b		 pop	 ebx

; 640  : 			}
; 641  : 		}

  0012e	83 c4 0c	 add	 esp, 12			; 0000000cH
  00131	c2 08 00	 ret	 8
?insert@?$_Tree@V?$_Tmap_traits@V?$basic_string@DU?$char_traits@D@std@@V?$allocator@D@2@@std@@PAUtagBillItem@CBillClient@@U?$less@V?$basic_string@DU?$char_traits@D@std@@V?$allocator@D@2@@std@@@2@V?$allocator@U?$pair@$$CBV?$basic_string@DU?$char_traits@D@std@@V?$allocator@D@2@@std@@PAUtagBillItem@CBillClient@@@std@@@2@$0A@@std@@@std@@QAE?AU?$pair@Viterator@?$_Tree@V?$_Tmap_traits@V?$basic_string@DU?$char_traits@D@std@@V?$allocator@D@2@@std@@PAUtagBillItem@CBillClient@@U?$less@V?$basic_string@DU?$char_traits@D@std@@V?$allocator@D@2@@std@@@2@V?$allocator@U?$pair@$$CBV?$basic_string@DU?$char_traits@D@std@@V?$allocator@D@2@@std@@PAUtagBillItem@CBillClient@@@std@@@2@$0A@@std@@@std@@_N@2@ABU?$pair@$$CBV?$basic_string@DU?$char_traits@D@std@@V?$allocator@D@2@@std@@PAUtagBillItem@CBillClient@@@2@@Z ENDP ; std::_Tree<std::_Tmap_traits<std::basic_string<char,std::char_traits<char>,std::allocator<char> >,CBillClient::tagBillItem *,std::less<std::basic_string<char,std::char_traits<char>,std::allocator<char> > >,std::allocator<std::pair<std::basic_string<char,std::char_traits<char>,std::allocator<char> > const ,CBillClient::tagBillItem *> >,0> >::insert
_TEXT	ENDS
PUBLIC	??1?$map@V?$basic_string@DU?$char_traits@D@std@@V?$allocator@D@2@@std@@PAUtagBillItem@CBillClient@@U?$less@V?$basic_string@DU?$char_traits@D@std@@V?$allocator@D@2@@std@@@2@V?$allocator@U?$pair@$$CBV?$basic_string@DU?$char_traits@D@std@@V?$allocator@D@2@@std@@PAUtagBillItem@CBillClient@@@std@@@2@@std@@QAE@XZ ; std::map<std::basic_string<char,std::char_traits<char>,std::allocator<char> >,CBillClient::tagBillItem *,std::less<std::basic_string<char,std::char_traits<char>,std::allocator<char> > >,std::allocator<std::pair<std::basic_string<char,std::char_traits<char>,std::allocator<char> > const ,CBillClient::tagBillItem *> > >::~map<std::basic_string<char,std::char_traits<char>,std::allocator<char> >,CBillClient::tagBillItem *,std::less<std::basic_string<char,std::char_traits<char>,std::allocator<char> > >,std::allocator<std::pair<std::basic_string<char,std::char_traits<char>,std::allocator<char> > const ,CBillClient::tagBillItem *> > >
; Function compile flags: /Ogtpy
;	COMDAT ??1?$map@V?$basic_string@DU?$char_traits@D@std@@V?$allocator@D@2@@std@@PAUtagBillItem@CBillClient@@U?$less@V?$basic_string@DU?$char_traits@D@std@@V?$allocator@D@2@@std@@@2@V?$allocator@U?$pair@$$CBV?$basic_string@DU?$char_traits@D@std@@V?$allocator@D@2@@std@@PAUtagBillItem@CBillClient@@@std@@@2@@std@@QAE@XZ
_TEXT	SEGMENT
$T269794 = -8						; size = 8
??1?$map@V?$basic_string@DU?$char_traits@D@std@@V?$allocator@D@2@@std@@PAUtagBillItem@CBillClient@@U?$less@V?$basic_string@DU?$char_traits@D@std@@V?$allocator@D@2@@std@@@2@V?$allocator@U?$pair@$$CBV?$basic_string@DU?$char_traits@D@std@@V?$allocator@D@2@@std@@PAUtagBillItem@CBillClient@@@std@@@2@@std@@QAE@XZ PROC ; std::map<std::basic_string<char,std::char_traits<char>,std::allocator<char> >,CBillClient::tagBillItem *,std::less<std::basic_string<char,std::char_traits<char>,std::allocator<char> > >,std::allocator<std::pair<std::basic_string<char,std::char_traits<char>,std::allocator<char> > const ,CBillClient::tagBillItem *> > >::~map<std::basic_string<char,std::char_traits<char>,std::allocator<char> >,CBillClient::tagBillItem *,std::less<std::basic_string<char,std::char_traits<char>,std::allocator<char> > >,std::allocator<std::pair<std::basic_string<char,std::char_traits<char>,std::allocator<char> > const ,CBillClient::tagBillItem *> > >, COMDAT
; _this$ = ecx
  00000	83 ec 08	 sub	 esp, 8
  00003	56		 push	 esi
  00004	8b f1		 mov	 esi, ecx
  00006	8b 46 04	 mov	 eax, DWORD PTR [esi+4]
  00009	8b 08		 mov	 ecx, DWORD PTR [eax]
  0000b	50		 push	 eax
  0000c	56		 push	 esi
  0000d	51		 push	 ecx
  0000e	56		 push	 esi
  0000f	8d 44 24 14	 lea	 eax, DWORD PTR $T269794[esp+28]
  00013	50		 push	 eax
  00014	8b ce		 mov	 ecx, esi
  00016	e8 00 00 00 00	 call	 ?erase@?$_Tree@V?$_Tmap_traits@V?$basic_string@DU?$char_traits@D@std@@V?$allocator@D@2@@std@@PAUtagBillItem@CBillClient@@U?$less@V?$basic_string@DU?$char_traits@D@std@@V?$allocator@D@2@@std@@@2@V?$allocator@U?$pair@$$CBV?$basic_string@DU?$char_traits@D@std@@V?$allocator@D@2@@std@@PAUtagBillItem@CBillClient@@@std@@@2@$0A@@std@@@std@@QAE?AViterator@12@V312@0@Z ; std::_Tree<std::_Tmap_traits<std::basic_string<char,std::char_traits<char>,std::allocator<char> >,CBillClient::tagBillItem *,std::less<std::basic_string<char,std::char_traits<char>,std::allocator<char> > >,std::allocator<std::pair<std::basic_string<char,std::char_traits<char>,std::allocator<char> > const ,CBillClient::tagBillItem *> >,0> >::erase
  0001b	8b 4e 04	 mov	 ecx, DWORD PTR [esi+4]
  0001e	51		 push	 ecx
  0001f	e8 00 00 00 00	 call	 ??3@YAXPAX@Z		; operator delete
  00024	83 c4 04	 add	 esp, 4
  00027	33 c0		 xor	 eax, eax
  00029	89 46 04	 mov	 DWORD PTR [esi+4], eax
  0002c	89 46 08	 mov	 DWORD PTR [esi+8], eax
  0002f	5e		 pop	 esi
  00030	83 c4 08	 add	 esp, 8
  00033	c3		 ret	 0
??1?$map@V?$basic_string@DU?$char_traits@D@std@@V?$allocator@D@2@@std@@PAUtagBillItem@CBillClient@@U?$less@V?$basic_string@DU?$char_traits@D@std@@V?$allocator@D@2@@std@@@2@V?$allocator@U?$pair@$$CBV?$basic_string@DU?$char_traits@D@std@@V?$allocator@D@2@@std@@PAUtagBillItem@CBillClient@@@std@@@2@@std@@QAE@XZ ENDP ; std::map<std::basic_string<char,std::char_traits<char>,std::allocator<char> >,CBillClient::tagBillItem *,std::less<std::basic_string<char,std::char_traits<char>,std::allocator<char> > >,std::allocator<std::pair<std::basic_string<char,std::char_traits<char>,std::allocator<char> > const ,CBillClient::tagBillItem *> > >::~map<std::basic_string<char,std::char_traits<char>,std::allocator<char> >,CBillClient::tagBillItem *,std::less<std::basic_string<char,std::char_traits<char>,std::allocator<char> > >,std::allocator<std::pair<std::basic_string<char,std::char_traits<char>,std::allocator<char> > const ,CBillClient::tagBillItem *> > >
_TEXT	ENDS
PUBLIC	??1?$MulTiThMap@V?$basic_string@DU?$char_traits@D@std@@V?$allocator@D@2@@std@@PAUtagBillItem@CBillClient@@@@QAE@XZ ; MulTiThMap<std::basic_string<char,std::char_traits<char>,std::allocator<char> >,CBillClient::tagBillItem *>::~MulTiThMap<std::basic_string<char,std::char_traits<char>,std::allocator<char> >,CBillClient::tagBillItem *>
EXTRN	__imp__DeleteCriticalSection@4:PROC
; Function compile flags: /Ogtpy
; File d:\project_p6\trunk\public\module\multithmap.h
;	COMDAT ??1?$MulTiThMap@V?$basic_string@DU?$char_traits@D@std@@V?$allocator@D@2@@std@@PAUtagBillItem@CBillClient@@@@QAE@XZ
_TEXT	SEGMENT
$T270033 = -8						; size = 8
??1?$MulTiThMap@V?$basic_string@DU?$char_traits@D@std@@V?$allocator@D@2@@std@@PAUtagBillItem@CBillClient@@@@QAE@XZ PROC ; MulTiThMap<std::basic_string<char,std::char_traits<char>,std::allocator<char> >,CBillClient::tagBillItem *>::~MulTiThMap<std::basic_string<char,std::char_traits<char>,std::allocator<char> >,CBillClient::tagBillItem *>, COMDAT
; _this$ = ecx

; 14   : 	~MulTiThMap()	{DeleteCriticalSection(&csMap);	}

  00000	83 ec 08	 sub	 esp, 8
  00003	56		 push	 esi
  00004	8b f1		 mov	 esi, ecx
  00006	8d 46 0c	 lea	 eax, DWORD PTR [esi+12]
  00009	50		 push	 eax
  0000a	ff 15 00 00 00
	00		 call	 DWORD PTR __imp__DeleteCriticalSection@4
  00010	8b 46 04	 mov	 eax, DWORD PTR [esi+4]
  00013	8b 08		 mov	 ecx, DWORD PTR [eax]
  00015	50		 push	 eax
  00016	56		 push	 esi
  00017	51		 push	 ecx
  00018	56		 push	 esi
  00019	8d 4c 24 14	 lea	 ecx, DWORD PTR $T270033[esp+28]
  0001d	51		 push	 ecx
  0001e	8b ce		 mov	 ecx, esi
  00020	e8 00 00 00 00	 call	 ?erase@?$_Tree@V?$_Tmap_traits@V?$basic_string@DU?$char_traits@D@std@@V?$allocator@D@2@@std@@PAUtagBillItem@CBillClient@@U?$less@V?$basic_string@DU?$char_traits@D@std@@V?$allocator@D@2@@std@@@2@V?$allocator@U?$pair@$$CBV?$basic_string@DU?$char_traits@D@std@@V?$allocator@D@2@@std@@PAUtagBillItem@CBillClient@@@std@@@2@$0A@@std@@@std@@QAE?AViterator@12@V312@0@Z ; std::_Tree<std::_Tmap_traits<std::basic_string<char,std::char_traits<char>,std::allocator<char> >,CBillClient::tagBillItem *,std::less<std::basic_string<char,std::char_traits<char>,std::allocator<char> > >,std::allocator<std::pair<std::basic_string<char,std::char_traits<char>,std::allocator<char> > const ,CBillClient::tagBillItem *> >,0> >::erase
  00025	8b 56 04	 mov	 edx, DWORD PTR [esi+4]
  00028	52		 push	 edx
  00029	e8 00 00 00 00	 call	 ??3@YAXPAX@Z		; operator delete
  0002e	83 c4 04	 add	 esp, 4
  00031	33 c0		 xor	 eax, eax
  00033	89 46 04	 mov	 DWORD PTR [esi+4], eax
  00036	89 46 08	 mov	 DWORD PTR [esi+8], eax
  00039	5e		 pop	 esi
  0003a	83 c4 08	 add	 esp, 8
  0003d	c3		 ret	 0
??1?$MulTiThMap@V?$basic_string@DU?$char_traits@D@std@@V?$allocator@D@2@@std@@PAUtagBillItem@CBillClient@@@@QAE@XZ ENDP ; MulTiThMap<std::basic_string<char,std::char_traits<char>,std::allocator<char> >,CBillClient::tagBillItem *>::~MulTiThMap<std::basic_string<char,std::char_traits<char>,std::allocator<char> >,CBillClient::tagBillItem *>
_TEXT	ENDS
PUBLIC	??0?$map@V?$basic_string@DU?$char_traits@D@std@@V?$allocator@D@2@@std@@PAUtagBillItem@CBillClient@@U?$less@V?$basic_string@DU?$char_traits@D@std@@V?$allocator@D@2@@std@@@2@V?$allocator@U?$pair@$$CBV?$basic_string@DU?$char_traits@D@std@@V?$allocator@D@2@@std@@PAUtagBillItem@CBillClient@@@std@@@2@@std@@QAE@XZ ; std::map<std::basic_string<char,std::char_traits<char>,std::allocator<char> >,CBillClient::tagBillItem *,std::less<std::basic_string<char,std::char_traits<char>,std::allocator<char> > >,std::allocator<std::pair<std::basic_string<char,std::char_traits<char>,std::allocator<char> > const ,CBillClient::tagBillItem *> > >::map<std::basic_string<char,std::char_traits<char>,std::allocator<char> >,CBillClient::tagBillItem *,std::less<std::basic_string<char,std::char_traits<char>,std::allocator<char> > >,std::allocator<std::pair<std::basic_string<char,std::char_traits<char>,std::allocator<char> > const ,CBillClient::tagBillItem *> > >
; Function compile flags: /Ogtpy
; File d:\program files\microsoft visual studio 8\vc\include\map
;	COMDAT ??0?$map@V?$basic_string@DU?$char_traits@D@std@@V?$allocator@D@2@@std@@PAUtagBillItem@CBillClient@@U?$less@V?$basic_string@DU?$char_traits@D@std@@V?$allocator@D@2@@std@@@2@V?$allocator@U?$pair@$$CBV?$basic_string@DU?$char_traits@D@std@@V?$allocator@D@2@@std@@PAUtagBillItem@CBillClient@@@std@@@2@@std@@QAE@XZ
_TEXT	SEGMENT
??0?$map@V?$basic_string@DU?$char_traits@D@std@@V?$allocator@D@2@@std@@PAUtagBillItem@CBillClient@@U?$less@V?$basic_string@DU?$char_traits@D@std@@V?$allocator@D@2@@std@@@2@V?$allocator@U?$pair@$$CBV?$basic_string@DU?$char_traits@D@std@@V?$allocator@D@2@@std@@PAUtagBillItem@CBillClient@@@std@@@2@@std@@QAE@XZ PROC ; std::map<std::basic_string<char,std::char_traits<char>,std::allocator<char> >,CBillClient::tagBillItem *,std::less<std::basic_string<char,std::char_traits<char>,std::allocator<char> > >,std::allocator<std::pair<std::basic_string<char,std::char_traits<char>,std::allocator<char> > const ,CBillClient::tagBillItem *> > >::map<std::basic_string<char,std::char_traits<char>,std::allocator<char> >,CBillClient::tagBillItem *,std::less<std::basic_string<char,std::char_traits<char>,std::allocator<char> > >,std::allocator<std::pair<std::basic_string<char,std::char_traits<char>,std::allocator<char> > const ,CBillClient::tagBillItem *> > >, COMDAT
; _this$ = ecx

; 107  : 		{	// construct empty map from defaults

  00000	56		 push	 esi
  00001	8b f1		 mov	 esi, ecx
  00003	e8 00 00 00 00	 call	 ?_Buynode@?$_Tree@V?$_Tmap_traits@V?$basic_string@DU?$char_traits@D@std@@V?$allocator@D@2@@std@@PAUtagBillItem@CBillClient@@U?$less@V?$basic_string@DU?$char_traits@D@std@@V?$allocator@D@2@@std@@@2@V?$allocator@U?$pair@$$CBV?$basic_string@DU?$char_traits@D@std@@V?$allocator@D@2@@std@@PAUtagBillItem@CBillClient@@@std@@@2@$0A@@std@@@std@@IAEPAU_Node@?$_Tree_nod@V?$_Tmap_traits@V?$basic_string@DU?$char_traits@D@std@@V?$allocator@D@2@@std@@PAUtagBillItem@CBillClient@@U?$less@V?$basic_string@DU?$char_traits@D@std@@V?$allocator@D@2@@std@@@2@V?$allocator@U?$pair@$$CBV?$basic_string@DU?$char_traits@D@std@@V?$allocator@D@2@@std@@PAUtagBillItem@CBillClient@@@std@@@2@$0A@@std@@@2@XZ ; std::_Tree<std::_Tmap_traits<std::basic_string<char,std::char_traits<char>,std::allocator<char> >,CBillClient::tagBillItem *,std::less<std::basic_string<char,std::char_traits<char>,std::allocator<char> > >,std::allocator<std::pair<std::basic_string<char,std::char_traits<char>,std::allocator<char> > const ,CBillClient::tagBillItem *> >,0> >::_Buynode
  00008	89 46 04	 mov	 DWORD PTR [esi+4], eax
  0000b	c6 40 2d 01	 mov	 BYTE PTR [eax+45], 1
  0000f	8b 46 04	 mov	 eax, DWORD PTR [esi+4]
  00012	89 40 04	 mov	 DWORD PTR [eax+4], eax
  00015	8b 46 04	 mov	 eax, DWORD PTR [esi+4]
  00018	89 00		 mov	 DWORD PTR [eax], eax
  0001a	8b 46 04	 mov	 eax, DWORD PTR [esi+4]
  0001d	89 40 08	 mov	 DWORD PTR [eax+8], eax
  00020	c7 46 08 00 00
	00 00		 mov	 DWORD PTR [esi+8], 0

; 108  : 		}

  00027	8b c6		 mov	 eax, esi
  00029	5e		 pop	 esi
  0002a	c3		 ret	 0
??0?$map@V?$basic_string@DU?$char_traits@D@std@@V?$allocator@D@2@@std@@PAUtagBillItem@CBillClient@@U?$less@V?$basic_string@DU?$char_traits@D@std@@V?$allocator@D@2@@std@@@2@V?$allocator@U?$pair@$$CBV?$basic_string@DU?$char_traits@D@std@@V?$allocator@D@2@@std@@PAUtagBillItem@CBillClient@@@std@@@2@@std@@QAE@XZ ENDP ; std::map<std::basic_string<char,std::char_traits<char>,std::allocator<char> >,CBillClient::tagBillItem *,std::less<std::basic_string<char,std::char_traits<char>,std::allocator<char> > >,std::allocator<std::pair<std::basic_string<char,std::char_traits<char>,std::allocator<char> > const ,CBillClient::tagBillItem *> > >::map<std::basic_string<char,std::char_traits<char>,std::allocator<char> >,CBillClient::tagBillItem *,std::less<std::basic_string<char,std::char_traits<char>,std::allocator<char> > >,std::allocator<std::pair<std::basic_string<char,std::char_traits<char>,std::allocator<char> > const ,CBillClient::tagBillItem *> > >
_TEXT	ENDS
PUBLIC	??4?$_Tree@V?$_Tmap_traits@V?$basic_string@DU?$char_traits@D@std@@V?$allocator@D@2@@std@@PAUtagBillItem@CBillClient@@U?$less@V?$basic_string@DU?$char_traits@D@std@@V?$allocator@D@2@@std@@@2@V?$allocator@U?$pair@$$CBV?$basic_string@DU?$char_traits@D@std@@V?$allocator@D@2@@std@@PAUtagBillItem@CBillClient@@@std@@@2@$0A@@std@@@std@@QAEAAV01@ABV01@@Z ; std::_Tree<std::_Tmap_traits<std::basic_string<char,std::char_traits<char>,std::allocator<char> >,CBillClient::tagBillItem *,std::less<std::basic_string<char,std::char_traits<char>,std::allocator<char> > >,std::allocator<std::pair<std::basic_string<char,std::char_traits<char>,std::allocator<char> > const ,CBillClient::tagBillItem *> >,0> >::operator=
; Function compile flags: /Ogtpy
; File d:\program files\microsoft visual studio 8\vc\include\xtree
;	COMDAT ??4?$_Tree@V?$_Tmap_traits@V?$basic_string@DU?$char_traits@D@std@@V?$allocator@D@2@@std@@PAUtagBillItem@CBillClient@@U?$less@V?$basic_string@DU?$char_traits@D@std@@V?$allocator@D@2@@std@@@2@V?$allocator@U?$pair@$$CBV?$basic_string@DU?$char_traits@D@std@@V?$allocator@D@2@@std@@PAUtagBillItem@CBillClient@@@std@@@2@$0A@@std@@@std@@QAEAAV01@ABV01@@Z
_TEXT	SEGMENT
$T270243 = -8						; size = 8
__Right$ = 8						; size = 4
??4?$_Tree@V?$_Tmap_traits@V?$basic_string@DU?$char_traits@D@std@@V?$allocator@D@2@@std@@PAUtagBillItem@CBillClient@@U?$less@V?$basic_string@DU?$char_traits@D@std@@V?$allocator@D@2@@std@@@2@V?$allocator@U?$pair@$$CBV?$basic_string@DU?$char_traits@D@std@@V?$allocator@D@2@@std@@PAUtagBillItem@CBillClient@@@std@@@2@$0A@@std@@@std@@QAEAAV01@ABV01@@Z PROC ; std::_Tree<std::_Tmap_traits<std::basic_string<char,std::char_traits<char>,std::allocator<char> >,CBillClient::tagBillItem *,std::less<std::basic_string<char,std::char_traits<char>,std::allocator<char> > >,std::allocator<std::pair<std::basic_string<char,std::char_traits<char>,std::allocator<char> > const ,CBillClient::tagBillItem *> >,0> >::operator=, COMDAT
; _this$ = ecx

; 530  : 		{	// replace contents from _Right

  00000	83 ec 08	 sub	 esp, 8
  00003	56		 push	 esi
  00004	57		 push	 edi

; 531  : 		if (this != &_Right)

  00005	8b 7c 24 14	 mov	 edi, DWORD PTR __Right$[esp+12]
  00009	8b f1		 mov	 esi, ecx
  0000b	3b f7		 cmp	 esi, edi
  0000d	74 1d		 je	 SHORT $LN30@operator@8

; 532  : 			{	// worth doing
; 533  : 			erase(begin(), end());

  0000f	8b 46 04	 mov	 eax, DWORD PTR [esi+4]
  00012	8b 08		 mov	 ecx, DWORD PTR [eax]
  00014	50		 push	 eax
  00015	56		 push	 esi
  00016	51		 push	 ecx
  00017	56		 push	 esi
  00018	8d 44 24 18	 lea	 eax, DWORD PTR $T270243[esp+32]
  0001c	50		 push	 eax
  0001d	8b ce		 mov	 ecx, esi
  0001f	e8 00 00 00 00	 call	 ?erase@?$_Tree@V?$_Tmap_traits@V?$basic_string@DU?$char_traits@D@std@@V?$allocator@D@2@@std@@PAUtagBillItem@CBillClient@@U?$less@V?$basic_string@DU?$char_traits@D@std@@V?$allocator@D@2@@std@@@2@V?$allocator@U?$pair@$$CBV?$basic_string@DU?$char_traits@D@std@@V?$allocator@D@2@@std@@PAUtagBillItem@CBillClient@@@std@@@2@$0A@@std@@@std@@QAE?AViterator@12@V312@0@Z ; std::_Tree<std::_Tmap_traits<std::basic_string<char,std::char_traits<char>,std::allocator<char> >,CBillClient::tagBillItem *,std::less<std::basic_string<char,std::char_traits<char>,std::allocator<char> > >,std::allocator<std::pair<std::basic_string<char,std::char_traits<char>,std::allocator<char> > const ,CBillClient::tagBillItem *> >,0> >::erase

; 534  : 			this->comp = _Right.comp;
; 535  : 			_Copy(_Right);

  00024	57		 push	 edi
  00025	8b ce		 mov	 ecx, esi
  00027	e8 00 00 00 00	 call	 ?_Copy@?$_Tree@V?$_Tmap_traits@V?$basic_string@DU?$char_traits@D@std@@V?$allocator@D@2@@std@@PAUtagBillItem@CBillClient@@U?$less@V?$basic_string@DU?$char_traits@D@std@@V?$allocator@D@2@@std@@@2@V?$allocator@U?$pair@$$CBV?$basic_string@DU?$char_traits@D@std@@V?$allocator@D@2@@std@@PAUtagBillItem@CBillClient@@@std@@@2@$0A@@std@@@std@@IAEXABV12@@Z ; std::_Tree<std::_Tmap_traits<std::basic_string<char,std::char_traits<char>,std::allocator<char> >,CBillClient::tagBillItem *,std::less<std::basic_string<char,std::char_traits<char>,std::allocator<char> > >,std::allocator<std::pair<std::basic_string<char,std::char_traits<char>,std::allocator<char> > const ,CBillClient::tagBillItem *> >,0> >::_Copy
$LN30@operator@8:
  0002c	5f		 pop	 edi

; 536  : 			}
; 537  : 		return (*this);

  0002d	8b c6		 mov	 eax, esi
  0002f	5e		 pop	 esi

; 538  : 		}

  00030	83 c4 08	 add	 esp, 8
  00033	c2 04 00	 ret	 4
??4?$_Tree@V?$_Tmap_traits@V?$basic_string@DU?$char_traits@D@std@@V?$allocator@D@2@@std@@PAUtagBillItem@CBillClient@@U?$less@V?$basic_string@DU?$char_traits@D@std@@V?$allocator@D@2@@std@@@2@V?$allocator@U?$pair@$$CBV?$basic_string@DU?$char_traits@D@std@@V?$allocator@D@2@@std@@PAUtagBillItem@CBillClient@@@std@@@2@$0A@@std@@@std@@QAEAAV01@ABV01@@Z ENDP ; std::_Tree<std::_Tmap_traits<std::basic_string<char,std::char_traits<char>,std::allocator<char> >,CBillClient::tagBillItem *,std::less<std::basic_string<char,std::char_traits<char>,std::allocator<char> > >,std::allocator<std::pair<std::basic_string<char,std::char_traits<char>,std::allocator<char> > const ,CBillClient::tagBillItem *> >,0> >::operator=
_TEXT	ENDS
PUBLIC	?insert@?$_Tree@V?$_Tmap_traits@V?$basic_string@DU?$char_traits@D@std@@V?$allocator@D@2@@std@@PAUtagBillItem@CBillClient@@U?$less@V?$basic_string@DU?$char_traits@D@std@@V?$allocator@D@2@@std@@@2@V?$allocator@U?$pair@$$CBV?$basic_string@DU?$char_traits@D@std@@V?$allocator@D@2@@std@@PAUtagBillItem@CBillClient@@@std@@@2@$0A@@std@@@std@@QAE?AViterator@12@V312@ABU?$pair@$$CBV?$basic_string@DU?$char_traits@D@std@@V?$allocator@D@2@@std@@PAUtagBillItem@CBillClient@@@2@@Z ; std::_Tree<std::_Tmap_traits<std::basic_string<char,std::char_traits<char>,std::allocator<char> >,CBillClient::tagBillItem *,std::less<std::basic_string<char,std::char_traits<char>,std::allocator<char> > >,std::allocator<std::pair<std::basic_string<char,std::char_traits<char>,std::allocator<char> > const ,CBillClient::tagBillItem *> >,0> >::insert
; Function compile flags: /Ogtpy
;	COMDAT ?insert@?$_Tree@V?$_Tmap_traits@V?$basic_string@DU?$char_traits@D@std@@V?$allocator@D@2@@std@@PAUtagBillItem@CBillClient@@U?$less@V?$basic_string@DU?$char_traits@D@std@@V?$allocator@D@2@@std@@@2@V?$allocator@U?$pair@$$CBV?$basic_string@DU?$char_traits@D@std@@V?$allocator@D@2@@std@@PAUtagBillItem@CBillClient@@@std@@@2@$0A@@std@@@std@@QAE?AViterator@12@V312@ABU?$pair@$$CBV?$basic_string@DU?$char_traits@D@std@@V?$allocator@D@2@@std@@PAUtagBillItem@CBillClient@@@2@@Z
_TEXT	SEGMENT
$T270345 = -12						; size = 12
$T270344 = -12						; size = 8
___$ReturnUdt$ = 8					; size = 4
__Next$ = 12						; size = 8
__Where$ = 12						; size = 8
__Val$ = 20						; size = 4
?insert@?$_Tree@V?$_Tmap_traits@V?$basic_string@DU?$char_traits@D@std@@V?$allocator@D@2@@std@@PAUtagBillItem@CBillClient@@U?$less@V?$basic_string@DU?$char_traits@D@std@@V?$allocator@D@2@@std@@@2@V?$allocator@U?$pair@$$CBV?$basic_string@DU?$char_traits@D@std@@V?$allocator@D@2@@std@@PAUtagBillItem@CBillClient@@@std@@@2@$0A@@std@@@std@@QAE?AViterator@12@V312@ABU?$pair@$$CBV?$basic_string@DU?$char_traits@D@std@@V?$allocator@D@2@@std@@PAUtagBillItem@CBillClient@@@2@@Z PROC ; std::_Tree<std::_Tmap_traits<std::basic_string<char,std::char_traits<char>,std::allocator<char> >,CBillClient::tagBillItem *,std::less<std::basic_string<char,std::char_traits<char>,std::allocator<char> > >,std::allocator<std::pair<std::basic_string<char,std::char_traits<char>,std::allocator<char> > const ,CBillClient::tagBillItem *> >,0> >::insert, COMDAT
; _this$ = ecx

; 645  : 		{	// try to insert node with value _Val using _Where as a hint

  00000	83 ec 0c	 sub	 esp, 12			; 0000000cH
  00003	56		 push	 esi
  00004	8b f1		 mov	 esi, ecx

; 646  : 
; 647  :  #if _HAS_ITERATOR_DEBUGGING
; 648  : 		if (_Where._Mycont != this)
; 649  : 			_DEBUG_ERROR("map/set insert iterator outside range");
; 650  :  #endif /* _HAS_ITERATOR_DEBUGGING */
; 651  : 
; 652  : 		iterator _Next;
; 653  : 
; 654  : 		if (size() == 0)

  00006	83 7e 08 00	 cmp	 DWORD PTR [esi+8], 0
  0000a	57		 push	 edi
  0000b	75 21		 jne	 SHORT $LN32@insert@2

; 655  : 			return (_Insert(true, _Myhead, _Val));	// insert into empty tree

  0000d	8b 44 24 24	 mov	 eax, DWORD PTR __Val$[esp+16]
  00011	8b 4e 04	 mov	 ecx, DWORD PTR [esi+4]
  00014	8b 7c 24 18	 mov	 edi, DWORD PTR ___$ReturnUdt$[esp+16]
  00018	50		 push	 eax
  00019	51		 push	 ecx
  0001a	6a 01		 push	 1
  0001c	57		 push	 edi
  0001d	8b ce		 mov	 ecx, esi
  0001f	e8 00 00 00 00	 call	 ?_Insert@?$_Tree@V?$_Tmap_traits@V?$basic_string@DU?$char_traits@D@std@@V?$allocator@D@2@@std@@PAUtagBillItem@CBillClient@@U?$less@V?$basic_string@DU?$char_traits@D@std@@V?$allocator@D@2@@std@@@2@V?$allocator@U?$pair@$$CBV?$basic_string@DU?$char_traits@D@std@@V?$allocator@D@2@@std@@PAUtagBillItem@CBillClient@@@std@@@2@$0A@@std@@@std@@IAE?AViterator@12@_NPAU_Node@?$_Tree_nod@V?$_Tmap_traits@V?$basic_string@DU?$char_traits@D@std@@V?$allocator@D@2@@std@@PAUtagBillItem@CBillClient@@U?$less@V?$basic_string@DU?$char_traits@D@std@@V?$allocator@D@2@@std@@@2@V?$allocator@U?$pair@$$CBV?$basic_string@DU?$char_traits@D@std@@V?$allocator@D@2@@std@@PAUtagBillItem@CBillClient@@@std@@@2@$0A@@std@@@2@ABU?$pair@$$CBV?$basic_string@DU?$char_traits@D@std@@V?$allocator@D@2@@std@@PAUtagBillItem@CBillClient@@@2@@Z ; std::_Tree<std::_Tmap_traits<std::basic_string<char,std::char_traits<char>,std::allocator<char> >,CBillClient::tagBillItem *,std::less<std::basic_string<char,std::char_traits<char>,std::allocator<char> > >,std::allocator<std::pair<std::basic_string<char,std::char_traits<char>,std::allocator<char> > const ,CBillClient::tagBillItem *> >,0> >::_Insert
  00024	8b c7		 mov	 eax, edi
  00026	5f		 pop	 edi
  00027	5e		 pop	 esi

; 730  : 		}

  00028	83 c4 0c	 add	 esp, 12			; 0000000cH
  0002b	c2 10 00	 ret	 16			; 00000010H
$LN32@insert@2:

; 656  : 		else if (this->_Multi)
; 657  : 			{	// insert even if duplicate
; 658  : 			if (_Where == begin())
; 659  : 				{	// insert at beginning if before first element
; 660  : 				if (!_DEBUG_LT_PRED(this->comp,
; 661  : 					_Key(_Where._Mynode()), this->_Kfn(_Val)))
; 662  : 					return (_Insert(true, _Where._Mynode(), _Val));
; 663  : 				}
; 664  : 			else if (_Where == end())
; 665  : 				{	// insert at end if after last element
; 666  : 				if (!_DEBUG_LT_PRED(this->comp,
; 667  : 					this->_Kfn(_Val), _Key(_Rmost())))
; 668  : 					return (_Insert(false, _Rmost(), _Val));
; 669  : 				}
; 670  : 			else if (!_DEBUG_LT_PRED(this->comp,
; 671  : 				_Key(_Where._Mynode()), this->_Kfn(_Val))
; 672  : 				&& !_DEBUG_LT_PRED(this->comp,
; 673  : 					this->_Kfn(_Val), _Key((--(_Next = _Where))._Mynode())))
; 674  : 				{	// insert before _Where
; 675  : 				if (_Isnil(_Right(_Next._Mynode())))
; 676  : 					return (_Insert(false, _Next._Mynode(), _Val));
; 677  : 				else
; 678  : 					return (_Insert(true, _Where._Mynode(), _Val));
; 679  : 				}
; 680  : 			else if (!_DEBUG_LT_PRED(this->comp,
; 681  : 				this->_Kfn(_Val), _Key(_Where._Mynode()))
; 682  : 				&& (++(_Next = _Where) == end()
; 683  : 					|| !_DEBUG_LT_PRED(this->comp,
; 684  : 						_Key(_Next._Mynode()), this->_Kfn(_Val))))
; 685  : 				{	// insert after _Where
; 686  : 				if (_Isnil(_Right(_Where._Mynode())))
; 687  : 					return (_Insert(false, _Where._Mynode(), _Val));
; 688  : 				else
; 689  : 					return (_Insert(true, _Next._Mynode(), _Val));
; 690  : 				}
; 691  : 			}
; 692  : 		else
; 693  : 			{	// insert only if unique
; 694  : 			if (_Where == begin())

  0002e	8b 56 04	 mov	 edx, DWORD PTR [esi+4]
  00031	8b 3a		 mov	 edi, DWORD PTR [edx]
  00033	55		 push	 ebp
  00034	8b 6c 24 20	 mov	 ebp, DWORD PTR __Where$[esp+20]
  00038	85 ed		 test	 ebp, ebp
  0003a	74 04		 je	 SHORT $LN201@insert@2
  0003c	3b ee		 cmp	 ebp, esi
  0003e	74 05		 je	 SHORT $LN202@insert@2
$LN201@insert@2:
  00040	e8 00 00 00 00	 call	 __invalid_parameter_noinfo
$LN202@insert@2:
  00045	53		 push	 ebx
  00046	8b 5c 24 28	 mov	 ebx, DWORD PTR __Where$[esp+28]
  0004a	3b df		 cmp	 ebx, edi
  0004c	75 34		 jne	 SHORT $LN14@insert@2

; 695  : 				{	// insert at beginning if before first element
; 696  : 				if (_DEBUG_LT_PRED(this->comp,

  0004e	8b 7c 24 2c	 mov	 edi, DWORD PTR __Val$[esp+24]
  00052	8d 43 0c	 lea	 eax, DWORD PTR [ebx+12]
  00055	50		 push	 eax
  00056	57		 push	 edi
  00057	8b ce		 mov	 ecx, esi
  00059	e8 00 00 00 00	 call	 ??R?$less@V?$basic_string@DU?$char_traits@D@std@@V?$allocator@D@2@@std@@@std@@QBE_NABV?$basic_string@DU?$char_traits@D@std@@V?$allocator@D@2@@1@0@Z ; std::less<std::basic_string<char,std::char_traits<char>,std::allocator<char> > >::operator()
  0005e	84 c0		 test	 al, al
  00060	0f 84 6f 01 00
	00		 je	 $LN1@insert@2

; 697  : 					this->_Kfn(_Val), _Key(_Where._Mynode())))
; 698  : 					return (_Insert(true, _Where._Mynode(), _Val));

  00066	57		 push	 edi
  00067	8b 7c 24 24	 mov	 edi, DWORD PTR ___$ReturnUdt$[esp+28]
  0006b	53		 push	 ebx
  0006c	6a 01		 push	 1
  0006e	57		 push	 edi
  0006f	8b ce		 mov	 ecx, esi
  00071	e8 00 00 00 00	 call	 ?_Insert@?$_Tree@V?$_Tmap_traits@V?$basic_string@DU?$char_traits@D@std@@V?$allocator@D@2@@std@@PAUtagBillItem@CBillClient@@U?$less@V?$basic_string@DU?$char_traits@D@std@@V?$allocator@D@2@@std@@@2@V?$allocator@U?$pair@$$CBV?$basic_string@DU?$char_traits@D@std@@V?$allocator@D@2@@std@@PAUtagBillItem@CBillClient@@@std@@@2@$0A@@std@@@std@@IAE?AViterator@12@_NPAU_Node@?$_Tree_nod@V?$_Tmap_traits@V?$basic_string@DU?$char_traits@D@std@@V?$allocator@D@2@@std@@PAUtagBillItem@CBillClient@@U?$less@V?$basic_string@DU?$char_traits@D@std@@V?$allocator@D@2@@std@@@2@V?$allocator@U?$pair@$$CBV?$basic_string@DU?$char_traits@D@std@@V?$allocator@D@2@@std@@PAUtagBillItem@CBillClient@@@std@@@2@$0A@@std@@@2@ABU?$pair@$$CBV?$basic_string@DU?$char_traits@D@std@@V?$allocator@D@2@@std@@PAUtagBillItem@CBillClient@@@2@@Z ; std::_Tree<std::_Tmap_traits<std::basic_string<char,std::char_traits<char>,std::allocator<char> >,CBillClient::tagBillItem *,std::less<std::basic_string<char,std::char_traits<char>,std::allocator<char> > >,std::allocator<std::pair<std::basic_string<char,std::char_traits<char>,std::allocator<char> > const ,CBillClient::tagBillItem *> >,0> >::_Insert
  00076	5b		 pop	 ebx
  00077	5d		 pop	 ebp
  00078	8b c7		 mov	 eax, edi
  0007a	5f		 pop	 edi
  0007b	5e		 pop	 esi

; 730  : 		}

  0007c	83 c4 0c	 add	 esp, 12			; 0000000cH
  0007f	c2 10 00	 ret	 16			; 00000010H
$LN14@insert@2:

; 699  : 				}
; 700  : 			else if (_Where == end())

  00082	85 ed		 test	 ebp, ebp
  00084	8b 7e 04	 mov	 edi, DWORD PTR [esi+4]
  00087	74 04		 je	 SHORT $LN228@insert@2
  00089	3b ee		 cmp	 ebp, esi
  0008b	74 05		 je	 SHORT $LN229@insert@2
$LN228@insert@2:
  0008d	e8 00 00 00 00	 call	 __invalid_parameter_noinfo
$LN229@insert@2:
  00092	3b df		 cmp	 ebx, edi

; 701  : 				{	// insert at end if after last element
; 702  : 				if (_DEBUG_LT_PRED(this->comp,

  00094	8b 7c 24 2c	 mov	 edi, DWORD PTR __Val$[esp+24]
  00098	75 3c		 jne	 SHORT $LN11@insert@2
  0009a	8b 4e 04	 mov	 ecx, DWORD PTR [esi+4]
  0009d	8b 41 08	 mov	 eax, DWORD PTR [ecx+8]
  000a0	83 c0 0c	 add	 eax, 12			; 0000000cH
  000a3	57		 push	 edi
  000a4	50		 push	 eax
  000a5	8b ce		 mov	 ecx, esi
  000a7	e8 00 00 00 00	 call	 ??R?$less@V?$basic_string@DU?$char_traits@D@std@@V?$allocator@D@2@@std@@@std@@QBE_NABV?$basic_string@DU?$char_traits@D@std@@V?$allocator@D@2@@1@0@Z ; std::less<std::basic_string<char,std::char_traits<char>,std::allocator<char> > >::operator()
  000ac	84 c0		 test	 al, al
  000ae	0f 84 21 01 00
	00		 je	 $LN1@insert@2

; 703  : 					_Key(_Rmost()), this->_Kfn(_Val)))
; 704  : 					return (_Insert(false, _Rmost(), _Val));

  000b4	8b 56 04	 mov	 edx, DWORD PTR [esi+4]
  000b7	8b 42 08	 mov	 eax, DWORD PTR [edx+8]
  000ba	57		 push	 edi
  000bb	8b 7c 24 24	 mov	 edi, DWORD PTR ___$ReturnUdt$[esp+28]
  000bf	50		 push	 eax
  000c0	6a 00		 push	 0
  000c2	57		 push	 edi
  000c3	8b ce		 mov	 ecx, esi
  000c5	e8 00 00 00 00	 call	 ?_Insert@?$_Tree@V?$_Tmap_traits@V?$basic_string@DU?$char_traits@D@std@@V?$allocator@D@2@@std@@PAUtagBillItem@CBillClient@@U?$less@V?$basic_string@DU?$char_traits@D@std@@V?$allocator@D@2@@std@@@2@V?$allocator@U?$pair@$$CBV?$basic_string@DU?$char_traits@D@std@@V?$allocator@D@2@@std@@PAUtagBillItem@CBillClient@@@std@@@2@$0A@@std@@@std@@IAE?AViterator@12@_NPAU_Node@?$_Tree_nod@V?$_Tmap_traits@V?$basic_string@DU?$char_traits@D@std@@V?$allocator@D@2@@std@@PAUtagBillItem@CBillClient@@U?$less@V?$basic_string@DU?$char_traits@D@std@@V?$allocator@D@2@@std@@@2@V?$allocator@U?$pair@$$CBV?$basic_string@DU?$char_traits@D@std@@V?$allocator@D@2@@std@@PAUtagBillItem@CBillClient@@@std@@@2@$0A@@std@@@2@ABU?$pair@$$CBV?$basic_string@DU?$char_traits@D@std@@V?$allocator@D@2@@std@@PAUtagBillItem@CBillClient@@@2@@Z ; std::_Tree<std::_Tmap_traits<std::basic_string<char,std::char_traits<char>,std::allocator<char> >,CBillClient::tagBillItem *,std::less<std::basic_string<char,std::char_traits<char>,std::allocator<char> > >,std::allocator<std::pair<std::basic_string<char,std::char_traits<char>,std::allocator<char> > const ,CBillClient::tagBillItem *> >,0> >::_Insert
  000ca	5b		 pop	 ebx
  000cb	5d		 pop	 ebp
  000cc	8b c7		 mov	 eax, edi
  000ce	5f		 pop	 edi
  000cf	5e		 pop	 esi

; 730  : 		}

  000d0	83 c4 0c	 add	 esp, 12			; 0000000cH
  000d3	c2 10 00	 ret	 16			; 00000010H
$LN11@insert@2:

; 705  : 				}
; 706  : 			else if (_DEBUG_LT_PRED(this->comp,
; 707  : 				this->_Kfn(_Val), _Key(_Where._Mynode()))
; 708  : 				&& _DEBUG_LT_PRED(this->comp,

  000d6	8d 43 0c	 lea	 eax, DWORD PTR [ebx+12]
  000d9	50		 push	 eax
  000da	57		 push	 edi
  000db	8b ce		 mov	 ecx, esi
  000dd	e8 00 00 00 00	 call	 ??R?$less@V?$basic_string@DU?$char_traits@D@std@@V?$allocator@D@2@@std@@@std@@QBE_NABV?$basic_string@DU?$char_traits@D@std@@V?$allocator@D@2@@1@0@Z ; std::less<std::basic_string<char,std::char_traits<char>,std::allocator<char> > >::operator()
  000e2	84 c0		 test	 al, al
  000e4	74 63		 je	 SHORT $LN8@insert@2
  000e6	8d 4c 24 24	 lea	 ecx, DWORD PTR __Next$[esp+24]
  000ea	89 6c 24 24	 mov	 DWORD PTR __Next$[esp+24], ebp
  000ee	89 5c 24 28	 mov	 DWORD PTR __Next$[esp+28], ebx
  000f2	e8 00 00 00 00	 call	 ?_Dec@const_iterator@?$_Tree@V?$_Tmap_traits@V?$basic_string@DU?$char_traits@D@std@@V?$allocator@D@2@@std@@PAUtagBillItem@CBillClient@@U?$less@V?$basic_string@DU?$char_traits@D@std@@V?$allocator@D@2@@std@@@2@V?$allocator@U?$pair@$$CBV?$basic_string@DU?$char_traits@D@std@@V?$allocator@D@2@@std@@PAUtagBillItem@CBillClient@@@std@@@2@$0A@@std@@@std@@QAEXXZ ; std::_Tree<std::_Tmap_traits<std::basic_string<char,std::char_traits<char>,std::allocator<char> >,CBillClient::tagBillItem *,std::less<std::basic_string<char,std::char_traits<char>,std::allocator<char> > >,std::allocator<std::pair<std::basic_string<char,std::char_traits<char>,std::allocator<char> > const ,CBillClient::tagBillItem *> >,0> >::const_iterator::_Dec
  000f7	8b 4c 24 28	 mov	 ecx, DWORD PTR __Next$[esp+28]
  000fb	83 c1 0c	 add	 ecx, 12			; 0000000cH
  000fe	57		 push	 edi
  000ff	51		 push	 ecx
  00100	8b ce		 mov	 ecx, esi
  00102	e8 00 00 00 00	 call	 ??R?$less@V?$basic_string@DU?$char_traits@D@std@@V?$allocator@D@2@@std@@@std@@QBE_NABV?$basic_string@DU?$char_traits@D@std@@V?$allocator@D@2@@1@0@Z ; std::less<std::basic_string<char,std::char_traits<char>,std::allocator<char> > >::operator()
  00107	84 c0		 test	 al, al
  00109	74 3e		 je	 SHORT $LN8@insert@2

; 709  : 					_Key((--(_Next = _Where))._Mynode()), this->_Kfn(_Val)))
; 710  : 				{	// insert before _Where
; 711  : 				if (_Isnil(_Right(_Next._Mynode())))

  0010b	8b 44 24 28	 mov	 eax, DWORD PTR __Next$[esp+28]
  0010f	8b 50 08	 mov	 edx, DWORD PTR [eax+8]
  00112	80 7a 2d 00	 cmp	 BYTE PTR [edx+45], 0

; 712  : 					return (_Insert(false, _Next._Mynode(), _Val));

  00116	57		 push	 edi
  00117	8b 7c 24 24	 mov	 edi, DWORD PTR ___$ReturnUdt$[esp+28]
  0011b	8b ce		 mov	 ecx, esi
  0011d	74 15		 je	 SHORT $LN7@insert@2
  0011f	50		 push	 eax
  00120	6a 00		 push	 0
  00122	57		 push	 edi
  00123	e8 00 00 00 00	 call	 ?_Insert@?$_Tree@V?$_Tmap_traits@V?$basic_string@DU?$char_traits@D@std@@V?$allocator@D@2@@std@@PAUtagBillItem@CBillClient@@U?$less@V?$basic_string@DU?$char_traits@D@std@@V?$allocator@D@2@@std@@@2@V?$allocator@U?$pair@$$CBV?$basic_string@DU?$char_traits@D@std@@V?$allocator@D@2@@std@@PAUtagBillItem@CBillClient@@@std@@@2@$0A@@std@@@std@@IAE?AViterator@12@_NPAU_Node@?$_Tree_nod@V?$_Tmap_traits@V?$basic_string@DU?$char_traits@D@std@@V?$allocator@D@2@@std@@PAUtagBillItem@CBillClient@@U?$less@V?$basic_string@DU?$char_traits@D@std@@V?$allocator@D@2@@std@@@2@V?$allocator@U?$pair@$$CBV?$basic_string@DU?$char_traits@D@std@@V?$allocator@D@2@@std@@PAUtagBillItem@CBillClient@@@std@@@2@$0A@@std@@@2@ABU?$pair@$$CBV?$basic_string@DU?$char_traits@D@std@@V?$allocator@D@2@@std@@PAUtagBillItem@CBillClient@@@2@@Z ; std::_Tree<std::_Tmap_traits<std::basic_string<char,std::char_traits<char>,std::allocator<char> >,CBillClient::tagBillItem *,std::less<std::basic_string<char,std::char_traits<char>,std::allocator<char> > >,std::allocator<std::pair<std::basic_string<char,std::char_traits<char>,std::allocator<char> > const ,CBillClient::tagBillItem *> >,0> >::_Insert
  00128	5b		 pop	 ebx
  00129	5d		 pop	 ebp
  0012a	8b c7		 mov	 eax, edi
  0012c	5f		 pop	 edi
  0012d	5e		 pop	 esi

; 730  : 		}

  0012e	83 c4 0c	 add	 esp, 12			; 0000000cH
  00131	c2 10 00	 ret	 16			; 00000010H
$LN7@insert@2:

; 713  : 				else
; 714  : 					return (_Insert(true, _Where._Mynode(), _Val));

  00134	53		 push	 ebx
  00135	6a 01		 push	 1
  00137	57		 push	 edi
  00138	e8 00 00 00 00	 call	 ?_Insert@?$_Tree@V?$_Tmap_traits@V?$basic_string@DU?$char_traits@D@std@@V?$allocator@D@2@@std@@PAUtagBillItem@CBillClient@@U?$less@V?$basic_string@DU?$char_traits@D@std@@V?$allocator@D@2@@std@@@2@V?$allocator@U?$pair@$$CBV?$basic_string@DU?$char_traits@D@std@@V?$allocator@D@2@@std@@PAUtagBillItem@CBillClient@@@std@@@2@$0A@@std@@@std@@IAE?AViterator@12@_NPAU_Node@?$_Tree_nod@V?$_Tmap_traits@V?$basic_string@DU?$char_traits@D@std@@V?$allocator@D@2@@std@@PAUtagBillItem@CBillClient@@U?$less@V?$basic_string@DU?$char_traits@D@std@@V?$allocator@D@2@@std@@@2@V?$allocator@U?$pair@$$CBV?$basic_string@DU?$char_traits@D@std@@V?$allocator@D@2@@std@@PAUtagBillItem@CBillClient@@@std@@@2@$0A@@std@@@2@ABU?$pair@$$CBV?$basic_string@DU?$char_traits@D@std@@V?$allocator@D@2@@std@@PAUtagBillItem@CBillClient@@@2@@Z ; std::_Tree<std::_Tmap_traits<std::basic_string<char,std::char_traits<char>,std::allocator<char> >,CBillClient::tagBillItem *,std::less<std::basic_string<char,std::char_traits<char>,std::allocator<char> > >,std::allocator<std::pair<std::basic_string<char,std::char_traits<char>,std::allocator<char> > const ,CBillClient::tagBillItem *> >,0> >::_Insert
  0013d	5b		 pop	 ebx
  0013e	5d		 pop	 ebp
  0013f	8b c7		 mov	 eax, edi
  00141	5f		 pop	 edi
  00142	5e		 pop	 esi

; 730  : 		}

  00143	83 c4 0c	 add	 esp, 12			; 0000000cH
  00146	c2 10 00	 ret	 16			; 00000010H
$LN8@insert@2:

; 715  : 				}
; 716  : 			else if (_DEBUG_LT_PRED(this->comp,
; 717  : 				_Key(_Where._Mynode()), this->_Kfn(_Val))
; 718  : 				&& (++(_Next = _Where) == end()
; 719  : 					|| _DEBUG_LT_PRED(this->comp,

  00149	57		 push	 edi
  0014a	8d 43 0c	 lea	 eax, DWORD PTR [ebx+12]
  0014d	50		 push	 eax
  0014e	8b ce		 mov	 ecx, esi
  00150	e8 00 00 00 00	 call	 ??R?$less@V?$basic_string@DU?$char_traits@D@std@@V?$allocator@D@2@@std@@@std@@QBE_NABV?$basic_string@DU?$char_traits@D@std@@V?$allocator@D@2@@1@0@Z ; std::less<std::basic_string<char,std::char_traits<char>,std::allocator<char> > >::operator()
  00155	84 c0		 test	 al, al
  00157	74 7c		 je	 SHORT $LN1@insert@2
  00159	8b 46 04	 mov	 eax, DWORD PTR [esi+4]
  0015c	8d 4c 24 24	 lea	 ecx, DWORD PTR __Next$[esp+24]
  00160	89 6c 24 24	 mov	 DWORD PTR __Next$[esp+24], ebp
  00164	89 5c 24 28	 mov	 DWORD PTR __Next$[esp+28], ebx
  00168	89 44 24 14	 mov	 DWORD PTR $T270344[esp+32], eax
  0016c	89 74 24 10	 mov	 DWORD PTR $T270344[esp+28], esi
  00170	e8 00 00 00 00	 call	 ?_Inc@const_iterator@?$_Tree@V?$_Tmap_traits@V?$basic_string@DU?$char_traits@D@std@@V?$allocator@D@2@@std@@PAUtagBillItem@CBillClient@@U?$less@V?$basic_string@DU?$char_traits@D@std@@V?$allocator@D@2@@std@@@2@V?$allocator@U?$pair@$$CBV?$basic_string@DU?$char_traits@D@std@@V?$allocator@D@2@@std@@PAUtagBillItem@CBillClient@@@std@@@2@$0A@@std@@@std@@QAEXXZ ; std::_Tree<std::_Tmap_traits<std::basic_string<char,std::char_traits<char>,std::allocator<char> >,CBillClient::tagBillItem *,std::less<std::basic_string<char,std::char_traits<char>,std::allocator<char> > >,std::allocator<std::pair<std::basic_string<char,std::char_traits<char>,std::allocator<char> > const ,CBillClient::tagBillItem *> >,0> >::const_iterator::_Inc
  00175	8d 4c 24 10	 lea	 ecx, DWORD PTR $T270344[esp+28]
  00179	51		 push	 ecx
  0017a	8d 4c 24 28	 lea	 ecx, DWORD PTR __Next$[esp+28]
  0017e	e8 00 00 00 00	 call	 ??8const_iterator@?$_Tree@V?$_Tmap_traits@V?$basic_string@DU?$char_traits@D@std@@V?$allocator@D@2@@std@@PAUtagBillItem@CBillClient@@U?$less@V?$basic_string@DU?$char_traits@D@std@@V?$allocator@D@2@@std@@@2@V?$allocator@U?$pair@$$CBV?$basic_string@DU?$char_traits@D@std@@V?$allocator@D@2@@std@@PAUtagBillItem@CBillClient@@@std@@@2@$0A@@std@@@std@@QBE_NABV012@@Z ; std::_Tree<std::_Tmap_traits<std::basic_string<char,std::char_traits<char>,std::allocator<char> >,CBillClient::tagBillItem *,std::less<std::basic_string<char,std::char_traits<char>,std::allocator<char> > >,std::allocator<std::pair<std::basic_string<char,std::char_traits<char>,std::allocator<char> > const ,CBillClient::tagBillItem *> >,0> >::const_iterator::operator==
  00183	84 c0		 test	 al, al
  00185	8b 6c 24 28	 mov	 ebp, DWORD PTR __Next$[esp+28]
  00189	75 10		 jne	 SHORT $LN3@insert@2
  0018b	8d 55 0c	 lea	 edx, DWORD PTR [ebp+12]
  0018e	52		 push	 edx
  0018f	57		 push	 edi
  00190	8b ce		 mov	 ecx, esi
  00192	e8 00 00 00 00	 call	 ??R?$less@V?$basic_string@DU?$char_traits@D@std@@V?$allocator@D@2@@std@@@std@@QBE_NABV?$basic_string@DU?$char_traits@D@std@@V?$allocator@D@2@@1@0@Z ; std::less<std::basic_string<char,std::char_traits<char>,std::allocator<char> > >::operator()
  00197	84 c0		 test	 al, al
  00199	74 3a		 je	 SHORT $LN1@insert@2
$LN3@insert@2:

; 720  : 						this->_Kfn(_Val), _Key(_Next._Mynode()))))
; 721  : 				{	// insert after _Where
; 722  : 				if (_Isnil(_Right(_Where._Mynode())))

  0019b	8b 43 08	 mov	 eax, DWORD PTR [ebx+8]
  0019e	80 78 2d 00	 cmp	 BYTE PTR [eax+45], 0

; 723  : 					return (_Insert(false, _Where._Mynode(), _Val));

  001a2	57		 push	 edi
  001a3	8b 7c 24 24	 mov	 edi, DWORD PTR ___$ReturnUdt$[esp+28]
  001a7	8b ce		 mov	 ecx, esi
  001a9	74 15		 je	 SHORT $LN2@insert@2
  001ab	53		 push	 ebx
  001ac	6a 00		 push	 0
  001ae	57		 push	 edi
  001af	e8 00 00 00 00	 call	 ?_Insert@?$_Tree@V?$_Tmap_traits@V?$basic_string@DU?$char_traits@D@std@@V?$allocator@D@2@@std@@PAUtagBillItem@CBillClient@@U?$less@V?$basic_string@DU?$char_traits@D@std@@V?$allocator@D@2@@std@@@2@V?$allocator@U?$pair@$$CBV?$basic_string@DU?$char_traits@D@std@@V?$allocator@D@2@@std@@PAUtagBillItem@CBillClient@@@std@@@2@$0A@@std@@@std@@IAE?AViterator@12@_NPAU_Node@?$_Tree_nod@V?$_Tmap_traits@V?$basic_string@DU?$char_traits@D@std@@V?$allocator@D@2@@std@@PAUtagBillItem@CBillClient@@U?$less@V?$basic_string@DU?$char_traits@D@std@@V?$allocator@D@2@@std@@@2@V?$allocator@U?$pair@$$CBV?$basic_string@DU?$char_traits@D@std@@V?$allocator@D@2@@std@@PAUtagBillItem@CBillClient@@@std@@@2@$0A@@std@@@2@ABU?$pair@$$CBV?$basic_string@DU?$char_traits@D@std@@V?$allocator@D@2@@std@@PAUtagBillItem@CBillClient@@@2@@Z ; std::_Tree<std::_Tmap_traits<std::basic_string<char,std::char_traits<char>,std::allocator<char> >,CBillClient::tagBillItem *,std::less<std::basic_string<char,std::char_traits<char>,std::allocator<char> > >,std::allocator<std::pair<std::basic_string<char,std::char_traits<char>,std::allocator<char> > const ,CBillClient::tagBillItem *> >,0> >::_Insert
  001b4	5b		 pop	 ebx
  001b5	5d		 pop	 ebp
  001b6	8b c7		 mov	 eax, edi
  001b8	5f		 pop	 edi
  001b9	5e		 pop	 esi

; 730  : 		}

  001ba	83 c4 0c	 add	 esp, 12			; 0000000cH
  001bd	c2 10 00	 ret	 16			; 00000010H
$LN2@insert@2:

; 724  : 				else
; 725  : 					return (_Insert(true, _Next._Mynode(), _Val));

  001c0	55		 push	 ebp
  001c1	6a 01		 push	 1
  001c3	57		 push	 edi
  001c4	e8 00 00 00 00	 call	 ?_Insert@?$_Tree@V?$_Tmap_traits@V?$basic_string@DU?$char_traits@D@std@@V?$allocator@D@2@@std@@PAUtagBillItem@CBillClient@@U?$less@V?$basic_string@DU?$char_traits@D@std@@V?$allocator@D@2@@std@@@2@V?$allocator@U?$pair@$$CBV?$basic_string@DU?$char_traits@D@std@@V?$allocator@D@2@@std@@PAUtagBillItem@CBillClient@@@std@@@2@$0A@@std@@@std@@IAE?AViterator@12@_NPAU_Node@?$_Tree_nod@V?$_Tmap_traits@V?$basic_string@DU?$char_traits@D@std@@V?$allocator@D@2@@std@@PAUtagBillItem@CBillClient@@U?$less@V?$basic_string@DU?$char_traits@D@std@@V?$allocator@D@2@@std@@@2@V?$allocator@U?$pair@$$CBV?$basic_string@DU?$char_traits@D@std@@V?$allocator@D@2@@std@@PAUtagBillItem@CBillClient@@@std@@@2@$0A@@std@@@2@ABU?$pair@$$CBV?$basic_string@DU?$char_traits@D@std@@V?$allocator@D@2@@std@@PAUtagBillItem@CBillClient@@@2@@Z ; std::_Tree<std::_Tmap_traits<std::basic_string<char,std::char_traits<char>,std::allocator<char> >,CBillClient::tagBillItem *,std::less<std::basic_string<char,std::char_traits<char>,std::allocator<char> > >,std::allocator<std::pair<std::basic_string<char,std::char_traits<char>,std::allocator<char> > const ,CBillClient::tagBillItem *> >,0> >::_Insert
  001c9	5b		 pop	 ebx
  001ca	5d		 pop	 ebp
  001cb	8b c7		 mov	 eax, edi
  001cd	5f		 pop	 edi
  001ce	5e		 pop	 esi

; 730  : 		}

  001cf	83 c4 0c	 add	 esp, 12			; 0000000cH
  001d2	c2 10 00	 ret	 16			; 00000010H
$LN1@insert@2:

; 726  : 				}
; 727  : 			}
; 728  : 
; 729  : 		return (insert(_Val).first);	// try usual insert if all else fails

  001d5	57		 push	 edi
  001d6	8d 4c 24 14	 lea	 ecx, DWORD PTR $T270345[esp+32]
  001da	51		 push	 ecx
  001db	8b ce		 mov	 ecx, esi
  001dd	e8 00 00 00 00	 call	 ?insert@?$_Tree@V?$_Tmap_traits@V?$basic_string@DU?$char_traits@D@std@@V?$allocator@D@2@@std@@PAUtagBillItem@CBillClient@@U?$less@V?$basic_string@DU?$char_traits@D@std@@V?$allocator@D@2@@std@@@2@V?$allocator@U?$pair@$$CBV?$basic_string@DU?$char_traits@D@std@@V?$allocator@D@2@@std@@PAUtagBillItem@CBillClient@@@std@@@2@$0A@@std@@@std@@QAE?AU?$pair@Viterator@?$_Tree@V?$_Tmap_traits@V?$basic_string@DU?$char_traits@D@std@@V?$allocator@D@2@@std@@PAUtagBillItem@CBillClient@@U?$less@V?$basic_string@DU?$char_traits@D@std@@V?$allocator@D@2@@std@@@2@V?$allocator@U?$pair@$$CBV?$basic_string@DU?$char_traits@D@std@@V?$allocator@D@2@@std@@PAUtagBillItem@CBillClient@@@std@@@2@$0A@@std@@@std@@_N@2@ABU?$pair@$$CBV?$basic_string@DU?$char_traits@D@std@@V?$allocator@D@2@@std@@PAUtagBillItem@CBillClient@@@2@@Z ; std::_Tree<std::_Tmap_traits<std::basic_string<char,std::char_traits<char>,std::allocator<char> >,CBillClient::tagBillItem *,std::less<std::basic_string<char,std::char_traits<char>,std::allocator<char> > >,std::allocator<std::pair<std::basic_string<char,std::char_traits<char>,std::allocator<char> > const ,CBillClient::tagBillItem *> >,0> >::insert
  001e2	8b 10		 mov	 edx, DWORD PTR [eax]
  001e4	8b 4c 24 20	 mov	 ecx, DWORD PTR ___$ReturnUdt$[esp+24]
  001e8	5b		 pop	 ebx
  001e9	5d		 pop	 ebp
  001ea	89 11		 mov	 DWORD PTR [ecx], edx
  001ec	8b 40 04	 mov	 eax, DWORD PTR [eax+4]
  001ef	5f		 pop	 edi
  001f0	89 41 04	 mov	 DWORD PTR [ecx+4], eax
  001f3	8b c1		 mov	 eax, ecx
  001f5	5e		 pop	 esi

; 730  : 		}

  001f6	83 c4 0c	 add	 esp, 12			; 0000000cH
  001f9	c2 10 00	 ret	 16			; 00000010H
?insert@?$_Tree@V?$_Tmap_traits@V?$basic_string@DU?$char_traits@D@std@@V?$allocator@D@2@@std@@PAUtagBillItem@CBillClient@@U?$less@V?$basic_string@DU?$char_traits@D@std@@V?$allocator@D@2@@std@@@2@V?$allocator@U?$pair@$$CBV?$basic_string@DU?$char_traits@D@std@@V?$allocator@D@2@@std@@PAUtagBillItem@CBillClient@@@std@@@2@$0A@@std@@@std@@QAE?AViterator@12@V312@ABU?$pair@$$CBV?$basic_string@DU?$char_traits@D@std@@V?$allocator@D@2@@std@@PAUtagBillItem@CBillClient@@@2@@Z ENDP ; std::_Tree<std::_Tmap_traits<std::basic_string<char,std::char_traits<char>,std::allocator<char> >,CBillClient::tagBillItem *,std::less<std::basic_string<char,std::char_traits<char>,std::allocator<char> > >,std::allocator<std::pair<std::basic_string<char,std::char_traits<char>,std::allocator<char> > const ,CBillClient::tagBillItem *> >,0> >::insert
_TEXT	ENDS
PUBLIC	??4?$map@V?$basic_string@DU?$char_traits@D@std@@V?$allocator@D@2@@std@@PAUtagBillItem@CBillClient@@U?$less@V?$basic_string@DU?$char_traits@D@std@@V?$allocator@D@2@@std@@@2@V?$allocator@U?$pair@$$CBV?$basic_string@DU?$char_traits@D@std@@V?$allocator@D@2@@std@@PAUtagBillItem@CBillClient@@@std@@@2@@std@@QAEAAV01@ABV01@@Z ; std::map<std::basic_string<char,std::char_traits<char>,std::allocator<char> >,CBillClient::tagBillItem *,std::less<std::basic_string<char,std::char_traits<char>,std::allocator<char> > >,std::allocator<std::pair<std::basic_string<char,std::char_traits<char>,std::allocator<char> > const ,CBillClient::tagBillItem *> > >::operator=
; Function compile flags: /Ogtpy
;	COMDAT ??4?$map@V?$basic_string@DU?$char_traits@D@std@@V?$allocator@D@2@@std@@PAUtagBillItem@CBillClient@@U?$less@V?$basic_string@DU?$char_traits@D@std@@V?$allocator@D@2@@std@@@2@V?$allocator@U?$pair@$$CBV?$basic_string@DU?$char_traits@D@std@@V?$allocator@D@2@@std@@PAUtagBillItem@CBillClient@@@std@@@2@@std@@QAEAAV01@ABV01@@Z
_TEXT	SEGMENT
$T271139 = -8						; size = 8
___that$ = 8						; size = 4
??4?$map@V?$basic_string@DU?$char_traits@D@std@@V?$allocator@D@2@@std@@PAUtagBillItem@CBillClient@@U?$less@V?$basic_string@DU?$char_traits@D@std@@V?$allocator@D@2@@std@@@2@V?$allocator@U?$pair@$$CBV?$basic_string@DU?$char_traits@D@std@@V?$allocator@D@2@@std@@PAUtagBillItem@CBillClient@@@std@@@2@@std@@QAEAAV01@ABV01@@Z PROC ; std::map<std::basic_string<char,std::char_traits<char>,std::allocator<char> >,CBillClient::tagBillItem *,std::less<std::basic_string<char,std::char_traits<char>,std::allocator<char> > >,std::allocator<std::pair<std::basic_string<char,std::char_traits<char>,std::allocator<char> > const ,CBillClient::tagBillItem *> > >::operator=, COMDAT
; _this$ = ecx
  00000	83 ec 08	 sub	 esp, 8
  00003	56		 push	 esi
  00004	57		 push	 edi
  00005	8b 7c 24 14	 mov	 edi, DWORD PTR ___that$[esp+12]
  00009	8b f1		 mov	 esi, ecx
  0000b	3b f7		 cmp	 esi, edi
  0000d	74 1d		 je	 SHORT $LN32@operator@9
  0000f	8b 46 04	 mov	 eax, DWORD PTR [esi+4]
  00012	8b 08		 mov	 ecx, DWORD PTR [eax]
  00014	50		 push	 eax
  00015	56		 push	 esi
  00016	51		 push	 ecx
  00017	56		 push	 esi
  00018	8d 44 24 18	 lea	 eax, DWORD PTR $T271139[esp+32]
  0001c	50		 push	 eax
  0001d	8b ce		 mov	 ecx, esi
  0001f	e8 00 00 00 00	 call	 ?erase@?$_Tree@V?$_Tmap_traits@V?$basic_string@DU?$char_traits@D@std@@V?$allocator@D@2@@std@@PAUtagBillItem@CBillClient@@U?$less@V?$basic_string@DU?$char_traits@D@std@@V?$allocator@D@2@@std@@@2@V?$allocator@U?$pair@$$CBV?$basic_string@DU?$char_traits@D@std@@V?$allocator@D@2@@std@@PAUtagBillItem@CBillClient@@@std@@@2@$0A@@std@@@std@@QAE?AViterator@12@V312@0@Z ; std::_Tree<std::_Tmap_traits<std::basic_string<char,std::char_traits<char>,std::allocator<char> >,CBillClient::tagBillItem *,std::less<std::basic_string<char,std::char_traits<char>,std::allocator<char> > >,std::allocator<std::pair<std::basic_string<char,std::char_traits<char>,std::allocator<char> > const ,CBillClient::tagBillItem *> >,0> >::erase
  00024	57		 push	 edi
  00025	8b ce		 mov	 ecx, esi
  00027	e8 00 00 00 00	 call	 ?_Copy@?$_Tree@V?$_Tmap_traits@V?$basic_string@DU?$char_traits@D@std@@V?$allocator@D@2@@std@@PAUtagBillItem@CBillClient@@U?$less@V?$basic_string@DU?$char_traits@D@std@@V?$allocator@D@2@@std@@@2@V?$allocator@U?$pair@$$CBV?$basic_string@DU?$char_traits@D@std@@V?$allocator@D@2@@std@@PAUtagBillItem@CBillClient@@@std@@@2@$0A@@std@@@std@@IAEXABV12@@Z ; std::_Tree<std::_Tmap_traits<std::basic_string<char,std::char_traits<char>,std::allocator<char> >,CBillClient::tagBillItem *,std::less<std::basic_string<char,std::char_traits<char>,std::allocator<char> > >,std::allocator<std::pair<std::basic_string<char,std::char_traits<char>,std::allocator<char> > const ,CBillClient::tagBillItem *> >,0> >::_Copy
$LN32@operator@9:
  0002c	5f		 pop	 edi
  0002d	8b c6		 mov	 eax, esi
  0002f	5e		 pop	 esi
  00030	83 c4 08	 add	 esp, 8
  00033	c2 04 00	 ret	 4
??4?$map@V?$basic_string@DU?$char_traits@D@std@@V?$allocator@D@2@@std@@PAUtagBillItem@CBillClient@@U?$less@V?$basic_string@DU?$char_traits@D@std@@V?$allocator@D@2@@std@@@2@V?$allocator@U?$pair@$$CBV?$basic_string@DU?$char_traits@D@std@@V?$allocator@D@2@@std@@PAUtagBillItem@CBillClient@@@std@@@2@@std@@QAEAAV01@ABV01@@Z ENDP ; std::map<std::basic_string<char,std::char_traits<char>,std::allocator<char> >,CBillClient::tagBillItem *,std::less<std::basic_string<char,std::char_traits<char>,std::allocator<char> > >,std::allocator<std::pair<std::basic_string<char,std::char_traits<char>,std::allocator<char> > const ,CBillClient::tagBillItem *> > >::operator=
_TEXT	ENDS
PUBLIC	??0?$MulTiThMap@V?$basic_string@DU?$char_traits@D@std@@V?$allocator@D@2@@std@@PAUtagBillItem@CBillClient@@@@QAE@XZ ; MulTiThMap<std::basic_string<char,std::char_traits<char>,std::allocator<char> >,CBillClient::tagBillItem *>::MulTiThMap<std::basic_string<char,std::char_traits<char>,std::allocator<char> >,CBillClient::tagBillItem *>
EXTRN	__imp__InitializeCriticalSection@4:PROC
; Function compile flags: /Ogtpy
; File d:\project_p6\trunk\public\module\multithmap.h
;	COMDAT ??0?$MulTiThMap@V?$basic_string@DU?$char_traits@D@std@@V?$allocator@D@2@@std@@PAUtagBillItem@CBillClient@@@@QAE@XZ
_TEXT	SEGMENT
??0?$MulTiThMap@V?$basic_string@DU?$char_traits@D@std@@V?$allocator@D@2@@std@@PAUtagBillItem@CBillClient@@@@QAE@XZ PROC ; MulTiThMap<std::basic_string<char,std::char_traits<char>,std::allocator<char> >,CBillClient::tagBillItem *>::MulTiThMap<std::basic_string<char,std::char_traits<char>,std::allocator<char> >,CBillClient::tagBillItem *>, COMDAT
; _this$ = ecx

; 13   : 	MulTiThMap()	{InitializeCriticalSection(&csMap);}

  00000	56		 push	 esi
  00001	8b f1		 mov	 esi, ecx
  00003	e8 00 00 00 00	 call	 ?_Buynode@?$_Tree@V?$_Tmap_traits@V?$basic_string@DU?$char_traits@D@std@@V?$allocator@D@2@@std@@PAUtagBillItem@CBillClient@@U?$less@V?$basic_string@DU?$char_traits@D@std@@V?$allocator@D@2@@std@@@2@V?$allocator@U?$pair@$$CBV?$basic_string@DU?$char_traits@D@std@@V?$allocator@D@2@@std@@PAUtagBillItem@CBillClient@@@std@@@2@$0A@@std@@@std@@IAEPAU_Node@?$_Tree_nod@V?$_Tmap_traits@V?$basic_string@DU?$char_traits@D@std@@V?$allocator@D@2@@std@@PAUtagBillItem@CBillClient@@U?$less@V?$basic_string@DU?$char_traits@D@std@@V?$allocator@D@2@@std@@@2@V?$allocator@U?$pair@$$CBV?$basic_string@DU?$char_traits@D@std@@V?$allocator@D@2@@std@@PAUtagBillItem@CBillClient@@@std@@@2@$0A@@std@@@2@XZ ; std::_Tree<std::_Tmap_traits<std::basic_string<char,std::char_traits<char>,std::allocator<char> >,CBillClient::tagBillItem *,std::less<std::basic_string<char,std::char_traits<char>,std::allocator<char> > >,std::allocator<std::pair<std::basic_string<char,std::char_traits<char>,std::allocator<char> > const ,CBillClient::tagBillItem *> >,0> >::_Buynode
  00008	89 46 04	 mov	 DWORD PTR [esi+4], eax
  0000b	c6 40 2d 01	 mov	 BYTE PTR [eax+45], 1
  0000f	8b 46 04	 mov	 eax, DWORD PTR [esi+4]
  00012	89 40 04	 mov	 DWORD PTR [eax+4], eax
  00015	8b 46 04	 mov	 eax, DWORD PTR [esi+4]
  00018	89 00		 mov	 DWORD PTR [eax], eax
  0001a	8b 46 04	 mov	 eax, DWORD PTR [esi+4]
  0001d	89 40 08	 mov	 DWORD PTR [eax+8], eax
  00020	8d 46 0c	 lea	 eax, DWORD PTR [esi+12]
  00023	50		 push	 eax
  00024	c7 46 08 00 00
	00 00		 mov	 DWORD PTR [esi+8], 0
  0002b	ff 15 00 00 00
	00		 call	 DWORD PTR __imp__InitializeCriticalSection@4
  00031	8b c6		 mov	 eax, esi
  00033	5e		 pop	 esi
  00034	c3		 ret	 0
??0?$MulTiThMap@V?$basic_string@DU?$char_traits@D@std@@V?$allocator@D@2@@std@@PAUtagBillItem@CBillClient@@@@QAE@XZ ENDP ; MulTiThMap<std::basic_string<char,std::char_traits<char>,std::allocator<char> >,CBillClient::tagBillItem *>::MulTiThMap<std::basic_string<char,std::char_traits<char>,std::allocator<char> >,CBillClient::tagBillItem *>
_TEXT	ENDS
PUBLIC	??A?$map@V?$basic_string@DU?$char_traits@D@std@@V?$allocator@D@2@@std@@PAUtagBillItem@CBillClient@@U?$less@V?$basic_string@DU?$char_traits@D@std@@V?$allocator@D@2@@std@@@2@V?$allocator@U?$pair@$$CBV?$basic_string@DU?$char_traits@D@std@@V?$allocator@D@2@@std@@PAUtagBillItem@CBillClient@@@std@@@2@@std@@QAEAAPAUtagBillItem@CBillClient@@ABV?$basic_string@DU?$char_traits@D@std@@V?$allocator@D@2@@1@@Z ; std::map<std::basic_string<char,std::char_traits<char>,std::allocator<char> >,CBillClient::tagBillItem *,std::less<std::basic_string<char,std::char_traits<char>,std::allocator<char> > >,std::allocator<std::pair<std::basic_string<char,std::char_traits<char>,std::allocator<char> > const ,CBillClient::tagBillItem *> > >::operator[]
;	COMDAT xdata$x
; File d:\program files\microsoft visual studio 8\vc\include\xtree
xdata$x	SEGMENT
__unwindtable$??A?$map@V?$basic_string@DU?$char_traits@D@std@@V?$allocator@D@2@@std@@PAUtagBillItem@CBillClient@@U?$less@V?$basic_string@DU?$char_traits@D@std@@V?$allocator@D@2@@std@@@2@V?$allocator@U?$pair@$$CBV?$basic_string@DU?$char_traits@D@std@@V?$allocator@D@2@@std@@PAUtagBillItem@CBillClient@@@std@@@2@@std@@QAEAAPAUtagBillItem@CBillClient@@ABV?$basic_string@DU?$char_traits@D@std@@V?$allocator@D@2@@1@@Z DD 0ffffffffH
	DD	FLAT:__unwindfunclet$??A?$map@V?$basic_string@DU?$char_traits@D@std@@V?$allocator@D@2@@std@@PAUtagBillItem@CBillClient@@U?$less@V?$basic_string@DU?$char_traits@D@std@@V?$allocator@D@2@@std@@@2@V?$allocator@U?$pair@$$CBV?$basic_string@DU?$char_traits@D@std@@V?$allocator@D@2@@std@@PAUtagBillItem@CBillClient@@@std@@@2@@std@@QAEAAPAUtagBillItem@CBillClient@@ABV?$basic_string@DU?$char_traits@D@std@@V?$allocator@D@2@@1@@Z$0
__ehfuncinfo$??A?$map@V?$basic_string@DU?$char_traits@D@std@@V?$allocator@D@2@@std@@PAUtagBillItem@CBillClient@@U?$less@V?$basic_string@DU?$char_traits@D@std@@V?$allocator@D@2@@std@@@2@V?$allocator@U?$pair@$$CBV?$basic_string@DU?$char_traits@D@std@@V?$allocator@D@2@@std@@PAUtagBillItem@CBillClient@@@std@@@2@@std@@QAEAAPAUtagBillItem@CBillClient@@ABV?$basic_string@DU?$char_traits@D@std@@V?$allocator@D@2@@1@@Z DD 019930522H
	DD	01H
	DD	FLAT:__unwindtable$??A?$map@V?$basic_string@DU?$char_traits@D@std@@V?$allocator@D@2@@std@@PAUtagBillItem@CBillClient@@U?$less@V?$basic_string@DU?$char_traits@D@std@@V?$allocator@D@2@@std@@@2@V?$allocator@U?$pair@$$CBV?$basic_string@DU?$char_traits@D@std@@V?$allocator@D@2@@std@@PAUtagBillItem@CBillClient@@@std@@@2@@std@@QAEAAPAUtagBillItem@CBillClient@@ABV?$basic_string@DU?$char_traits@D@std@@V?$allocator@D@2@@1@@Z
	DD	2 DUP(00H)
	DD	2 DUP(00H)
	DD	00H
	DD	01H
; Function compile flags: /Ogtpy
; File d:\program files\microsoft visual studio 8\vc\include\map
xdata$x	ENDS
;	COMDAT ??A?$map@V?$basic_string@DU?$char_traits@D@std@@V?$allocator@D@2@@std@@PAUtagBillItem@CBillClient@@U?$less@V?$basic_string@DU?$char_traits@D@std@@V?$allocator@D@2@@std@@@2@V?$allocator@U?$pair@$$CBV?$basic_string@DU?$char_traits@D@std@@V?$allocator@D@2@@std@@PAUtagBillItem@CBillClient@@@std@@@2@@std@@QAEAAPAUtagBillItem@CBillClient@@ABV?$basic_string@DU?$char_traits@D@std@@V?$allocator@D@2@@1@@Z
_TEXT	SEGMENT
$T271390 = -52						; size = 8
$T271388 = -44						; size = 32
__$EHRec$ = -12						; size = 12
__Keyval$ = 8						; size = 4
??A?$map@V?$basic_string@DU?$char_traits@D@std@@V?$allocator@D@2@@std@@PAUtagBillItem@CBillClient@@U?$less@V?$basic_string@DU?$char_traits@D@std@@V?$allocator@D@2@@std@@@2@V?$allocator@U?$pair@$$CBV?$basic_string@DU?$char_traits@D@std@@V?$allocator@D@2@@std@@PAUtagBillItem@CBillClient@@@std@@@2@@std@@QAEAAPAUtagBillItem@CBillClient@@ABV?$basic_string@DU?$char_traits@D@std@@V?$allocator@D@2@@1@@Z PROC ; std::map<std::basic_string<char,std::char_traits<char>,std::allocator<char> >,CBillClient::tagBillItem *,std::less<std::basic_string<char,std::char_traits<char>,std::allocator<char> > >,std::allocator<std::pair<std::basic_string<char,std::char_traits<char>,std::allocator<char> > const ,CBillClient::tagBillItem *> > >::operator[], COMDAT
; _this$ = ecx

; 167  : 		{	// find element matching _Keyval or insert with default mapped

  00000	6a ff		 push	 -1
  00002	68 00 00 00 00	 push	 __ehhandler$??A?$map@V?$basic_string@DU?$char_traits@D@std@@V?$allocator@D@2@@std@@PAUtagBillItem@CBillClient@@U?$less@V?$basic_string@DU?$char_traits@D@std@@V?$allocator@D@2@@std@@@2@V?$allocator@U?$pair@$$CBV?$basic_string@DU?$char_traits@D@std@@V?$allocator@D@2@@std@@PAUtagBillItem@CBillClient@@@std@@@2@@std@@QAEAAPAUtagBillItem@CBillClient@@ABV?$basic_string@DU?$char_traits@D@std@@V?$allocator@D@2@@1@@Z
  00007	64 a1 00 00 00
	00		 mov	 eax, DWORD PTR fs:0
  0000d	50		 push	 eax
  0000e	83 ec 28	 sub	 esp, 40			; 00000028H
  00011	53		 push	 ebx
  00012	55		 push	 ebp
  00013	56		 push	 esi
  00014	57		 push	 edi
  00015	a1 00 00 00 00	 mov	 eax, DWORD PTR ___security_cookie
  0001a	33 c4		 xor	 eax, esp
  0001c	50		 push	 eax
  0001d	8d 44 24 3c	 lea	 eax, DWORD PTR __$EHRec$[esp+72]
  00021	64 a3 00 00 00
	00		 mov	 DWORD PTR fs:0, eax
  00027	8b f9		 mov	 edi, ecx

; 168  : 		iterator _Where = this->lower_bound(_Keyval);

  00029	8b 6c 24 4c	 mov	 ebp, DWORD PTR __Keyval$[esp+68]
  0002d	55		 push	 ebp
  0002e	e8 00 00 00 00	 call	 ?_Lbound@?$_Tree@V?$_Tmap_traits@V?$basic_string@DU?$char_traits@D@std@@V?$allocator@D@2@@std@@PAUtagBillItem@CBillClient@@U?$less@V?$basic_string@DU?$char_traits@D@std@@V?$allocator@D@2@@std@@@2@V?$allocator@U?$pair@$$CBV?$basic_string@DU?$char_traits@D@std@@V?$allocator@D@2@@std@@PAUtagBillItem@CBillClient@@@std@@@2@$0A@@std@@@std@@IBEPAU_Node@?$_Tree_nod@V?$_Tmap_traits@V?$basic_string@DU?$char_traits@D@std@@V?$allocator@D@2@@std@@PAUtagBillItem@CBillClient@@U?$less@V?$basic_string@DU?$char_traits@D@std@@V?$allocator@D@2@@std@@@2@V?$allocator@U?$pair@$$CBV?$basic_string@DU?$char_traits@D@std@@V?$allocator@D@2@@std@@PAUtagBillItem@CBillClient@@@std@@@2@$0A@@std@@@2@ABV?$basic_string@DU?$char_traits@D@std@@V?$allocator@D@2@@2@@Z ; std::_Tree<std::_Tmap_traits<std::basic_string<char,std::char_traits<char>,std::allocator<char> >,CBillClient::tagBillItem *,std::less<std::basic_string<char,std::char_traits<char>,std::allocator<char> > >,std::allocator<std::pair<std::basic_string<char,std::char_traits<char>,std::allocator<char> > const ,CBillClient::tagBillItem *> >,0> >::_Lbound
  00033	33 db		 xor	 ebx, ebx
  00035	3b fb		 cmp	 edi, ebx
  00037	8b f0		 mov	 esi, eax
  00039	75 05		 jne	 SHORT $LN10@operator@10
  0003b	e8 00 00 00 00	 call	 __invalid_parameter_noinfo
$LN10@operator@10:

; 169  : 		if (_Where == this->end()
; 170  : 			|| this->comp(_Keyval, this->_Key(_Where._Mynode())))

  00040	8b 47 04	 mov	 eax, DWORD PTR [edi+4]
  00043	3b f0		 cmp	 esi, eax
  00045	74 23		 je	 SHORT $LN1@operator@10
  00047	83 7e 24 10	 cmp	 DWORD PTR [esi+36], 16	; 00000010H
  0004b	8b 4e 20	 mov	 ecx, DWORD PTR [esi+32]
  0004e	72 05		 jb	 SHORT $LN50@operator@10
  00050	8b 46 10	 mov	 eax, DWORD PTR [esi+16]
  00053	eb 03		 jmp	 SHORT $LN51@operator@10
$LN50@operator@10:
  00055	8d 46 10	 lea	 eax, DWORD PTR [esi+16]
$LN51@operator@10:
  00058	51		 push	 ecx
  00059	50		 push	 eax
  0005a	8b 45 14	 mov	 eax, DWORD PTR [ebp+20]
  0005d	50		 push	 eax
  0005e	53		 push	 ebx
  0005f	8b cd		 mov	 ecx, ebp
  00061	e8 00 00 00 00	 call	 ?compare@?$basic_string@DU?$char_traits@D@std@@V?$allocator@D@2@@std@@QBEHIIPBDI@Z ; std::basic_string<char,std::char_traits<char>,std::allocator<char> >::compare
  00066	85 c0		 test	 eax, eax
  00068	7d 61		 jge	 SHORT $LN107@operator@10
$LN1@operator@10:

; 171  : 			_Where = this->insert(_Where,
; 172  : 				value_type(_Keyval, mapped_type()));

  0006a	6a ff		 push	 -1
  0006c	53		 push	 ebx
  0006d	55		 push	 ebp
  0006e	8d 4c 24 28	 lea	 ecx, DWORD PTR $T271388[esp+84]
  00072	c7 44 24 40 0f
	00 00 00	 mov	 DWORD PTR $T271388[esp+108], 15 ; 0000000fH
  0007a	89 5c 24 3c	 mov	 DWORD PTR $T271388[esp+104], ebx
  0007e	88 5c 24 2c	 mov	 BYTE PTR $T271388[esp+88], bl
  00082	e8 00 00 00 00	 call	 ?assign@?$basic_string@DU?$char_traits@D@std@@V?$allocator@D@2@@std@@QAEAAV12@ABV12@II@Z ; std::basic_string<char,std::char_traits<char>,std::allocator<char> >::assign
  00087	89 5c 24 38	 mov	 DWORD PTR $T271388[esp+100], ebx
  0008b	8d 4c 24 1c	 lea	 ecx, DWORD PTR $T271388[esp+72]
  0008f	51		 push	 ecx
  00090	56		 push	 esi
  00091	57		 push	 edi
  00092	8d 54 24 20	 lea	 edx, DWORD PTR $T271390[esp+84]
  00096	52		 push	 edx
  00097	8b cf		 mov	 ecx, edi
  00099	89 5c 24 54	 mov	 DWORD PTR __$EHRec$[esp+96], ebx
  0009d	e8 00 00 00 00	 call	 ?insert@?$_Tree@V?$_Tmap_traits@V?$basic_string@DU?$char_traits@D@std@@V?$allocator@D@2@@std@@PAUtagBillItem@CBillClient@@U?$less@V?$basic_string@DU?$char_traits@D@std@@V?$allocator@D@2@@std@@@2@V?$allocator@U?$pair@$$CBV?$basic_string@DU?$char_traits@D@std@@V?$allocator@D@2@@std@@PAUtagBillItem@CBillClient@@@std@@@2@$0A@@std@@@std@@QAE?AViterator@12@V312@ABU?$pair@$$CBV?$basic_string@DU?$char_traits@D@std@@V?$allocator@D@2@@std@@PAUtagBillItem@CBillClient@@@2@@Z ; std::_Tree<std::_Tmap_traits<std::basic_string<char,std::char_traits<char>,std::allocator<char> >,CBillClient::tagBillItem *,std::less<std::basic_string<char,std::char_traits<char>,std::allocator<char> > >,std::allocator<std::pair<std::basic_string<char,std::char_traits<char>,std::allocator<char> > const ,CBillClient::tagBillItem *> >,0> >::insert
  000a2	83 7c 24 34 10	 cmp	 DWORD PTR $T271388[esp+96], 16 ; 00000010H
  000a7	8b 38		 mov	 edi, DWORD PTR [eax]
  000a9	8b 70 04	 mov	 esi, DWORD PTR [eax+4]
  000ac	72 0d		 jb	 SHORT $LN99@operator@10
  000ae	8b 44 24 20	 mov	 eax, DWORD PTR $T271388[esp+76]
  000b2	50		 push	 eax
  000b3	e8 00 00 00 00	 call	 ??3@YAXPAX@Z		; operator delete
  000b8	83 c4 04	 add	 esp, 4
$LN99@operator@10:
  000bb	c7 44 24 34 0f
	00 00 00	 mov	 DWORD PTR $T271388[esp+96], 15 ; 0000000fH
  000c3	89 5c 24 30	 mov	 DWORD PTR $T271388[esp+92], ebx
  000c7	88 5c 24 20	 mov	 BYTE PTR $T271388[esp+76], bl
$LN107@operator@10:

; 173  : 		return ((*_Where).second);

  000cb	3b fb		 cmp	 edi, ebx
  000cd	75 05		 jne	 SHORT $LN112@operator@10
  000cf	e8 00 00 00 00	 call	 __invalid_parameter_noinfo
$LN112@operator@10:
  000d4	3b 77 04	 cmp	 esi, DWORD PTR [edi+4]
  000d7	75 05		 jne	 SHORT $LN117@operator@10
  000d9	e8 00 00 00 00	 call	 __invalid_parameter_noinfo
$LN117@operator@10:
  000de	8d 46 28	 lea	 eax, DWORD PTR [esi+40]

; 174  : 		}

  000e1	8b 4c 24 3c	 mov	 ecx, DWORD PTR __$EHRec$[esp+72]
  000e5	64 89 0d 00 00
	00 00		 mov	 DWORD PTR fs:0, ecx
  000ec	59		 pop	 ecx
  000ed	5f		 pop	 edi
  000ee	5e		 pop	 esi
  000ef	5d		 pop	 ebp
  000f0	5b		 pop	 ebx
  000f1	83 c4 34	 add	 esp, 52			; 00000034H
  000f4	c2 04 00	 ret	 4
_TEXT	ENDS
;	COMDAT text$x
text$x	SEGMENT
__unwindfunclet$??A?$map@V?$basic_string@DU?$char_traits@D@std@@V?$allocator@D@2@@std@@PAUtagBillItem@CBillClient@@U?$less@V?$basic_string@DU?$char_traits@D@std@@V?$allocator@D@2@@std@@@2@V?$allocator@U?$pair@$$CBV?$basic_string@DU?$char_traits@D@std@@V?$allocator@D@2@@std@@PAUtagBillItem@CBillClient@@@std@@@2@@std@@QAEAAPAUtagBillItem@CBillClient@@ABV?$basic_string@DU?$char_traits@D@std@@V?$allocator@D@2@@1@@Z$0:
  00000	8d 4d d4	 lea	 ecx, DWORD PTR $T271388[ebp]
  00003	e9 00 00 00 00	 jmp	 ??1?$pair@$$CBV?$basic_string@DU?$char_traits@D@std@@V?$allocator@D@2@@std@@PAUtagBillItem@CBillClient@@@std@@QAE@XZ
__ehhandler$??A?$map@V?$basic_string@DU?$char_traits@D@std@@V?$allocator@D@2@@std@@PAUtagBillItem@CBillClient@@U?$less@V?$basic_string@DU?$char_traits@D@std@@V?$allocator@D@2@@std@@@2@V?$allocator@U?$pair@$$CBV?$basic_string@DU?$char_traits@D@std@@V?$allocator@D@2@@std@@PAUtagBillItem@CBillClient@@@std@@@2@@std@@QAEAAPAUtagBillItem@CBillClient@@ABV?$basic_string@DU?$char_traits@D@std@@V?$allocator@D@2@@1@@Z:
  00008	8b 54 24 08	 mov	 edx, DWORD PTR [esp+8]
  0000c	8d 42 c8	 lea	 eax, DWORD PTR [edx-56]
  0000f	8b 4a c4	 mov	 ecx, DWORD PTR [edx-60]
  00012	33 c8		 xor	 ecx, eax
  00014	e8 00 00 00 00	 call	 @__security_check_cookie@4
  00019	b8 00 00 00 00	 mov	 eax, OFFSET __ehfuncinfo$??A?$map@V?$basic_string@DU?$char_traits@D@std@@V?$allocator@D@2@@std@@PAUtagBillItem@CBillClient@@U?$less@V?$basic_string@DU?$char_traits@D@std@@V?$allocator@D@2@@std@@@2@V?$allocator@U?$pair@$$CBV?$basic_string@DU?$char_traits@D@std@@V?$allocator@D@2@@std@@PAUtagBillItem@CBillClient@@@std@@@2@@std@@QAEAAPAUtagBillItem@CBillClient@@ABV?$basic_string@DU?$char_traits@D@std@@V?$allocator@D@2@@1@@Z
  0001e	e9 00 00 00 00	 jmp	 ___CxxFrameHandler3
text$x	ENDS
??A?$map@V?$basic_string@DU?$char_traits@D@std@@V?$allocator@D@2@@std@@PAUtagBillItem@CBillClient@@U?$less@V?$basic_string@DU?$char_traits@D@std@@V?$allocator@D@2@@std@@@2@V?$allocator@U?$pair@$$CBV?$basic_string@DU?$char_traits@D@std@@V?$allocator@D@2@@std@@PAUtagBillItem@CBillClient@@@std@@@2@@std@@QAEAAPAUtagBillItem@CBillClient@@ABV?$basic_string@DU?$char_traits@D@std@@V?$allocator@D@2@@1@@Z ENDP ; std::map<std::basic_string<char,std::char_traits<char>,std::allocator<char> >,CBillClient::tagBillItem *,std::less<std::basic_string<char,std::char_traits<char>,std::allocator<char> > >,std::allocator<std::pair<std::basic_string<char,std::char_traits<char>,std::allocator<char> > const ,CBillClient::tagBillItem *> > >::operator[]
PUBLIC	?Run@CBillClient@@QAEXXZ			; CBillClient::Run
;	COMDAT xdata$x
; File d:\program files\microsoft visual studio 8\vc\include\xmemory
xdata$x	SEGMENT
__unwindtable$?Run@CBillClient@@QAEXXZ DD 0ffffffffH
	DD	FLAT:__unwindfunclet$?Run@CBillClient@@QAEXXZ$0
__ehfuncinfo$?Run@CBillClient@@QAEXXZ DD 019930522H
	DD	01H
	DD	FLAT:__unwindtable$?Run@CBillClient@@QAEXXZ
	DD	2 DUP(00H)
	DD	2 DUP(00H)
	DD	00H
	DD	01H
; Function compile flags: /Ogtpy
; File d:\project_p6\trunk\server\gameserver\server\billclient.cpp
xdata$x	ENDS
;	COMDAT ?Run@CBillClient@@QAEXXZ
_TEXT	SEGMENT
_pCallback$239990 = -80					; size = 4
_pCaller$239993 = -76					; size = 4
$T271859 = -72						; size = 4
$T271856 = -72						; size = 4
$T271855 = -72						; size = 4
$T271854 = -72						; size = 4
$T272229 = -68						; size = 8
_itCaller$239991 = -68					; size = 8
$T271864 = -60						; size = 8
$T271865 = -52						; size = 8
$T271869 = -44						; size = 8
$T273654 = -36						; size = 8
$T271870 = -36						; size = 8
_mapTemp$ = -28						; size = 12
__$EHRec$ = -12						; size = 12
?Run@CBillClient@@QAEXXZ PROC				; CBillClient::Run, COMDAT
; _this$ = ecx

; 53   : {

  00000	55		 push	 ebp
  00001	8b ec		 mov	 ebp, esp
  00003	83 e4 f8	 and	 esp, -8			; fffffff8H
  00006	6a ff		 push	 -1
  00008	68 00 00 00 00	 push	 __ehhandler$?Run@CBillClient@@QAEXXZ
  0000d	64 a1 00 00 00
	00		 mov	 eax, DWORD PTR fs:0
  00013	50		 push	 eax
  00014	83 ec 44	 sub	 esp, 68			; 00000044H
  00017	53		 push	 ebx
  00018	55		 push	 ebp
  00019	56		 push	 esi
  0001a	57		 push	 edi
  0001b	a1 00 00 00 00	 mov	 eax, DWORD PTR ___security_cookie
  00020	33 c4		 xor	 eax, esp
  00022	50		 push	 eax
  00023	8d 44 24 58	 lea	 eax, DWORD PTR __$EHRec$[esp+100]
  00027	64 a3 00 00 00
	00		 mov	 DWORD PTR fs:0, eax

; 54   : 	map<string, tagBillItem *> mapTemp;

  0002d	8d 4c 24 48	 lea	 ecx, DWORD PTR _mapTemp$[esp+100]
  00031	e8 00 00 00 00	 call	 ?_Buynode@?$_Tree@V?$_Tmap_traits@V?$basic_string@DU?$char_traits@D@std@@V?$allocator@D@2@@std@@PAUtagBillItem@CBillClient@@U?$less@V?$basic_string@DU?$char_traits@D@std@@V?$allocator@D@2@@std@@@2@V?$allocator@U?$pair@$$CBV?$basic_string@DU?$char_traits@D@std@@V?$allocator@D@2@@std@@PAUtagBillItem@CBillClient@@@std@@@2@$0A@@std@@@std@@IAEPAU_Node@?$_Tree_nod@V?$_Tmap_traits@V?$basic_string@DU?$char_traits@D@std@@V?$allocator@D@2@@std@@PAUtagBillItem@CBillClient@@U?$less@V?$basic_string@DU?$char_traits@D@std@@V?$allocator@D@2@@std@@@2@V?$allocator@U?$pair@$$CBV?$basic_string@DU?$char_traits@D@std@@V?$allocator@D@2@@std@@PAUtagBillItem@CBillClient@@@std@@@2@$0A@@std@@@2@XZ ; std::_Tree<std::_Tmap_traits<std::basic_string<char,std::char_traits<char>,std::allocator<char> >,CBillClient::tagBillItem *,std::less<std::basic_string<char,std::char_traits<char>,std::allocator<char> > >,std::allocator<std::pair<std::basic_string<char,std::char_traits<char>,std::allocator<char> > const ,CBillClient::tagBillItem *> >,0> >::_Buynode
  00036	89 44 24 4c	 mov	 DWORD PTR _mapTemp$[esp+104], eax
  0003a	c6 40 2d 01	 mov	 BYTE PTR [eax+45], 1
  0003e	8b 44 24 4c	 mov	 eax, DWORD PTR _mapTemp$[esp+104]
  00042	89 40 04	 mov	 DWORD PTR [eax+4], eax
  00045	8b 44 24 4c	 mov	 eax, DWORD PTR _mapTemp$[esp+104]
  00049	89 00		 mov	 DWORD PTR [eax], eax
  0004b	8b 44 24 4c	 mov	 eax, DWORD PTR _mapTemp$[esp+104]
  0004f	33 db		 xor	 ebx, ebx
  00051	89 40 08	 mov	 DWORD PTR [eax+8], eax
  00054	89 5c 24 50	 mov	 DWORD PTR _mapTemp$[esp+108], ebx

; 55   : 	m_CallbackQueue.Lock();

  00058	68 0c 00 00 00	 push	 OFFSET ?m_CallbackQueue@CBillClient@@0V?$MulTiThMap@V?$basic_string@DU?$char_traits@D@std@@V?$allocator@D@2@@std@@PAUtagBillItem@CBillClient@@@@A+12
  0005d	89 5c 24 64	 mov	 DWORD PTR __$EHRec$[esp+112], ebx
  00061	ff 15 00 00 00
	00		 call	 DWORD PTR __imp__EnterCriticalSection@4

; 56   : 	mapTemp = m_CallbackQueue;

  00067	8b 44 24 4c	 mov	 eax, DWORD PTR _mapTemp$[esp+104]
  0006b	8b 10		 mov	 edx, DWORD PTR [eax]
  0006d	50		 push	 eax
  0006e	8d 4c 24 4c	 lea	 ecx, DWORD PTR _mapTemp$[esp+104]
  00072	51		 push	 ecx
  00073	52		 push	 edx
  00074	8b f1		 mov	 esi, ecx
  00076	56		 push	 esi
  00077	8d 44 24 30	 lea	 eax, DWORD PTR $T272229[esp+116]
  0007b	50		 push	 eax
  0007c	e8 00 00 00 00	 call	 ?erase@?$_Tree@V?$_Tmap_traits@V?$basic_string@DU?$char_traits@D@std@@V?$allocator@D@2@@std@@PAUtagBillItem@CBillClient@@U?$less@V?$basic_string@DU?$char_traits@D@std@@V?$allocator@D@2@@std@@@2@V?$allocator@U?$pair@$$CBV?$basic_string@DU?$char_traits@D@std@@V?$allocator@D@2@@std@@PAUtagBillItem@CBillClient@@@std@@@2@$0A@@std@@@std@@QAE?AViterator@12@V312@0@Z ; std::_Tree<std::_Tmap_traits<std::basic_string<char,std::char_traits<char>,std::allocator<char> >,CBillClient::tagBillItem *,std::less<std::basic_string<char,std::char_traits<char>,std::allocator<char> > >,std::allocator<std::pair<std::basic_string<char,std::char_traits<char>,std::allocator<char> > const ,CBillClient::tagBillItem *> >,0> >::erase
  00081	68 00 00 00 00	 push	 OFFSET ?m_CallbackQueue@CBillClient@@0V?$MulTiThMap@V?$basic_string@DU?$char_traits@D@std@@V?$allocator@D@2@@std@@PAUtagBillItem@CBillClient@@@@A ; CBillClient::m_CallbackQueue
  00086	8b ce		 mov	 ecx, esi
  00088	e8 00 00 00 00	 call	 ?_Copy@?$_Tree@V?$_Tmap_traits@V?$basic_string@DU?$char_traits@D@std@@V?$allocator@D@2@@std@@PAUtagBillItem@CBillClient@@U?$less@V?$basic_string@DU?$char_traits@D@std@@V?$allocator@D@2@@std@@@2@V?$allocator@U?$pair@$$CBV?$basic_string@DU?$char_traits@D@std@@V?$allocator@D@2@@std@@PAUtagBillItem@CBillClient@@@std@@@2@$0A@@std@@@std@@IAEXABV12@@Z ; std::_Tree<std::_Tmap_traits<std::basic_string<char,std::char_traits<char>,std::allocator<char> >,CBillClient::tagBillItem *,std::less<std::basic_string<char,std::char_traits<char>,std::allocator<char> > >,std::allocator<std::pair<std::basic_string<char,std::char_traits<char>,std::allocator<char> > const ,CBillClient::tagBillItem *> >,0> >::_Copy

; 57   : 	m_CallbackQueue.clear();

  0008d	8b 0d 04 00 00
	00		 mov	 ecx, DWORD PTR ?m_CallbackQueue@CBillClient@@0V?$MulTiThMap@V?$basic_string@DU?$char_traits@D@std@@V?$allocator@D@2@@std@@PAUtagBillItem@CBillClient@@@@A+4
  00093	8b 51 04	 mov	 edx, DWORD PTR [ecx+4]
  00096	52		 push	 edx
  00097	b9 00 00 00 00	 mov	 ecx, OFFSET ?m_CallbackQueue@CBillClient@@0V?$MulTiThMap@V?$basic_string@DU?$char_traits@D@std@@V?$allocator@D@2@@std@@PAUtagBillItem@CBillClient@@@@A ; CBillClient::m_CallbackQueue
  0009c	e8 00 00 00 00	 call	 ?_Erase@?$_Tree@V?$_Tmap_traits@V?$basic_string@DU?$char_traits@D@std@@V?$allocator@D@2@@std@@PAUtagBillItem@CBillClient@@U?$less@V?$basic_string@DU?$char_traits@D@std@@V?$allocator@D@2@@std@@@2@V?$allocator@U?$pair@$$CBV?$basic_string@DU?$char_traits@D@std@@V?$allocator@D@2@@std@@PAUtagBillItem@CBillClient@@@std@@@2@$0A@@std@@@std@@IAEXPAU_Node@?$_Tree_nod@V?$_Tmap_traits@V?$basic_string@DU?$char_traits@D@std@@V?$allocator@D@2@@std@@PAUtagBillItem@CBillClient@@U?$less@V?$basic_string@DU?$char_traits@D@std@@V?$allocator@D@2@@std@@@2@V?$allocator@U?$pair@$$CBV?$basic_string@DU?$char_traits@D@std@@V?$allocator@D@2@@std@@PAUtagBillItem@CBillClient@@@std@@@2@$0A@@std@@@2@@Z ; std::_Tree<std::_Tmap_traits<std::basic_string<char,std::char_traits<char>,std::allocator<char> >,CBillClient::tagBillItem *,std::less<std::basic_string<char,std::char_traits<char>,std::allocator<char> > >,std::allocator<std::pair<std::basic_string<char,std::char_traits<char>,std::allocator<char> > const ,CBillClient::tagBillItem *> >,0> >::_Erase
  000a1	a1 04 00 00 00	 mov	 eax, DWORD PTR ?m_CallbackQueue@CBillClient@@0V?$MulTiThMap@V?$basic_string@DU?$char_traits@D@std@@V?$allocator@D@2@@std@@PAUtagBillItem@CBillClient@@@@A+4
  000a6	89 40 04	 mov	 DWORD PTR [eax+4], eax
  000a9	a1 04 00 00 00	 mov	 eax, DWORD PTR ?m_CallbackQueue@CBillClient@@0V?$MulTiThMap@V?$basic_string@DU?$char_traits@D@std@@V?$allocator@D@2@@std@@PAUtagBillItem@CBillClient@@@@A+4
  000ae	89 1d 08 00 00
	00		 mov	 DWORD PTR ?m_CallbackQueue@CBillClient@@0V?$MulTiThMap@V?$basic_string@DU?$char_traits@D@std@@V?$allocator@D@2@@std@@PAUtagBillItem@CBillClient@@@@A+8, ebx
  000b4	89 00		 mov	 DWORD PTR [eax], eax
  000b6	a1 04 00 00 00	 mov	 eax, DWORD PTR ?m_CallbackQueue@CBillClient@@0V?$MulTiThMap@V?$basic_string@DU?$char_traits@D@std@@V?$allocator@D@2@@std@@PAUtagBillItem@CBillClient@@@@A+4

; 58   : 	m_CallbackQueue.UnLock();

  000bb	68 0c 00 00 00	 push	 OFFSET ?m_CallbackQueue@CBillClient@@0V?$MulTiThMap@V?$basic_string@DU?$char_traits@D@std@@V?$allocator@D@2@@std@@PAUtagBillItem@CBillClient@@@@A+12
  000c0	89 40 08	 mov	 DWORD PTR [eax+8], eax
  000c3	ff 15 00 00 00
	00		 call	 DWORD PTR __imp__LeaveCriticalSection@4

; 59   : 
; 60   : 	for( map<string, tagBillItem *>::iterator it = mapTemp.begin(); it != mapTemp.end(); )

  000c9	8b 44 24 4c	 mov	 eax, DWORD PTR _mapTemp$[esp+104]
  000cd	8b 38		 mov	 edi, DWORD PTR [eax]
  000cf	8b ee		 mov	 ebp, esi
$LL34@Run:
  000d1	3b eb		 cmp	 ebp, ebx
  000d3	8b 74 24 4c	 mov	 esi, DWORD PTR _mapTemp$[esp+104]
  000d7	74 08		 je	 SHORT $LN168@Run
  000d9	8d 4c 24 48	 lea	 ecx, DWORD PTR _mapTemp$[esp+100]
  000dd	3b e9		 cmp	 ebp, ecx
  000df	74 05		 je	 SHORT $LN169@Run
$LN168@Run:
  000e1	e8 00 00 00 00	 call	 __invalid_parameter_noinfo
$LN169@Run:
  000e6	3b fe		 cmp	 edi, esi
  000e8	0f 84 66 02 00
	00		 je	 $LN33@Run

; 61   : 	{
; 62   : 		tagBillItem* pCallback = it->second;

  000ee	3b eb		 cmp	 ebp, ebx
  000f0	75 05		 jne	 SHORT $LN177@Run
  000f2	e8 00 00 00 00	 call	 __invalid_parameter_noinfo
$LN177@Run:
  000f7	3b 7d 04	 cmp	 edi, DWORD PTR [ebp+4]
  000fa	75 05		 jne	 SHORT $LN176@Run
  000fc	e8 00 00 00 00	 call	 __invalid_parameter_noinfo
$LN176@Run:

; 63   : 		itrBill itCaller  = m_CallerQueue.find(it->first);

  00101	3b 7d 04	 cmp	 edi, DWORD PTR [ebp+4]
  00104	8b 57 28	 mov	 edx, DWORD PTR [edi+40]
  00107	89 54 24 14	 mov	 DWORD PTR _pCallback$239990[esp+100], edx
  0010b	75 05		 jne	 SHORT $LN186@Run
  0010d	e8 00 00 00 00	 call	 __invalid_parameter_noinfo
$LN186@Run:
  00112	8d 47 0c	 lea	 eax, DWORD PTR [edi+12]
  00115	50		 push	 eax
  00116	8d 44 24 24	 lea	 eax, DWORD PTR _itCaller$239991[esp+104]
  0011a	50		 push	 eax
  0011b	b9 00 00 00 00	 mov	 ecx, OFFSET ?m_CallerQueue@CBillClient@@0V?$MulTiThMap@V?$basic_string@DU?$char_traits@D@std@@V?$allocator@D@2@@std@@PAUtagBillItem@CBillClient@@@@A ; CBillClient::m_CallerQueue
  00120	e8 00 00 00 00	 call	 ?find@?$_Tree@V?$_Tmap_traits@V?$basic_string@DU?$char_traits@D@std@@V?$allocator@D@2@@std@@PAUtagBillItem@CBillClient@@U?$less@V?$basic_string@DU?$char_traits@D@std@@V?$allocator@D@2@@std@@@2@V?$allocator@U?$pair@$$CBV?$basic_string@DU?$char_traits@D@std@@V?$allocator@D@2@@std@@PAUtagBillItem@CBillClient@@@std@@@2@$0A@@std@@@std@@QAE?AViterator@12@ABV?$basic_string@DU?$char_traits@D@std@@V?$allocator@D@2@@2@@Z ; std::_Tree<std::_Tmap_traits<std::basic_string<char,std::char_traits<char>,std::allocator<char> >,CBillClient::tagBillItem *,std::less<std::basic_string<char,std::char_traits<char>,std::allocator<char> > >,std::allocator<std::pair<std::basic_string<char,std::char_traits<char>,std::allocator<char> > const ,CBillClient::tagBillItem *> >,0> >::find

; 64   : 		tagBillItem* pCaller = itCaller->second;

  00125	39 5c 24 20	 cmp	 DWORD PTR _itCaller$239991[esp+100], ebx
  00129	75 05		 jne	 SHORT $LN197@Run
  0012b	e8 00 00 00 00	 call	 __invalid_parameter_noinfo
$LN197@Run:
  00130	8b 74 24 24	 mov	 esi, DWORD PTR _itCaller$239991[esp+104]
  00134	8b 4c 24 20	 mov	 ecx, DWORD PTR _itCaller$239991[esp+100]
  00138	3b 71 04	 cmp	 esi, DWORD PTR [ecx+4]
  0013b	75 05		 jne	 SHORT $LN196@Run
  0013d	e8 00 00 00 00	 call	 __invalid_parameter_noinfo
$LN196@Run:
  00142	8b 46 28	 mov	 eax, DWORD PTR [esi+40]

; 65   : 		CCallbackBill *pCallbackBill = (CCallbackBill *)pCaller->pItem;

  00145	8b 70 04	 mov	 esi, DWORD PTR [eax+4]
  00148	89 44 24 18	 mov	 DWORD PTR _pCaller$239993[esp+100], eax

; 66   : 		if( pCallbackBill->GetLeftTime() > 0 )

  0014c	8b 46 04	 mov	 eax, DWORD PTR [esi+4]
  0014f	3b c3		 cmp	 eax, ebx
  00151	0f 86 81 01 00
	00		 jbe	 $LN32@Run

; 67   : 		{
; 68   : 			pCallbackBill->SetLeftTime(pCallbackBill->GetLeftTime()-1);

  00157	83 c0 ff	 add	 eax, -1
  0015a	89 46 04	 mov	 DWORD PTR [esi+4], eax

; 69   : 			switch( pCallback->eItemType )

  0015d	8b 44 24 14	 mov	 eax, DWORD PTR _pCallback$239990[esp+100]
  00161	8b 08		 mov	 ecx, DWORD PTR [eax]
  00163	83 c1 ff	 add	 ecx, -1
  00166	83 f9 05	 cmp	 ecx, 5
  00169	0f 87 f0 00 00
	00		 ja	 $LN22@Run
  0016f	ff 24 8d 00 00
	00 00		 jmp	 DWORD PTR $LN501@Run[ecx*4]
$LN29@Run:

; 70   : 			{
; 71   : 			case BI_ACCOUNTAUTHEN:
; 72   : 				{
; 73   : 					((CCallbackAccountAuthen *)pCallbackBill)->OnCallback(it->first, (GSBsipAccountAuthenResDef*)(pCallback->pItem));

  00176	3b 7d 04	 cmp	 edi, DWORD PTR [ebp+4]
  00179	8b 50 04	 mov	 edx, DWORD PTR [eax+4]
  0017c	52		 push	 edx
  0017d	75 05		 jne	 SHORT $LN212@Run
  0017f	e8 00 00 00 00	 call	 __invalid_parameter_noinfo
$LN212@Run:
  00184	83 ec 1c	 sub	 esp, 28			; 0000001cH
  00187	8b cc		 mov	 ecx, esp
  00189	89 64 24 3c	 mov	 DWORD PTR $T271854[esp+132], esp
  0018d	6a ff		 push	 -1
  0018f	53		 push	 ebx
  00190	8d 47 0c	 lea	 eax, DWORD PTR [edi+12]
  00193	c7 41 18 0f 00
	00 00		 mov	 DWORD PTR [ecx+24], 15	; 0000000fH
  0019a	89 59 14	 mov	 DWORD PTR [ecx+20], ebx
  0019d	50		 push	 eax
  0019e	88 59 04	 mov	 BYTE PTR [ecx+4], bl
  001a1	e8 00 00 00 00	 call	 ?assign@?$basic_string@DU?$char_traits@D@std@@V?$allocator@D@2@@std@@QAEAAV12@ABV12@II@Z ; std::basic_string<char,std::char_traits<char>,std::allocator<char> >::assign
  001a6	8b 06		 mov	 eax, DWORD PTR [esi]
  001a8	8b 50 04	 mov	 edx, DWORD PTR [eax+4]
  001ab	8b ce		 mov	 ecx, esi
  001ad	ff d2		 call	 edx

; 74   : 				}
; 75   : 				break;

  001af	e9 a7 00 00 00	 jmp	 $LN497@Run
$LN28@Run:

; 76   : 
; 77   : 			case BI_LOCK:
; 78   : 				{
; 79   : 					((CCallbackAccountProcess *)pCallbackBill)->OnCallback(it->first, (GSBsipAccountLockResDef*)(pCallback->pItem));

  001b4	3b 7d 04	 cmp	 edi, DWORD PTR [ebp+4]
  001b7	8b 40 04	 mov	 eax, DWORD PTR [eax+4]
  001ba	50		 push	 eax
  001bb	75 05		 jne	 SHORT $LN248@Run
  001bd	e8 00 00 00 00	 call	 __invalid_parameter_noinfo
$LN248@Run:
  001c2	83 ec 1c	 sub	 esp, 28			; 0000001cH
  001c5	8b cc		 mov	 ecx, esp
  001c7	89 64 24 3c	 mov	 DWORD PTR $T271855[esp+132], esp
  001cb	6a ff		 push	 -1
  001cd	53		 push	 ebx
  001ce	8d 47 0c	 lea	 eax, DWORD PTR [edi+12]
  001d1	c7 41 18 0f 00
	00 00		 mov	 DWORD PTR [ecx+24], 15	; 0000000fH
  001d8	89 59 14	 mov	 DWORD PTR [ecx+20], ebx
  001db	50		 push	 eax
  001dc	88 59 04	 mov	 BYTE PTR [ecx+4], bl
  001df	e8 00 00 00 00	 call	 ?assign@?$basic_string@DU?$char_traits@D@std@@V?$allocator@D@2@@std@@QAEAAV12@ABV12@II@Z ; std::basic_string<char,std::char_traits<char>,std::allocator<char> >::assign
  001e4	8b 16		 mov	 edx, DWORD PTR [esi]
  001e6	8b 42 0c	 mov	 eax, DWORD PTR [edx+12]

; 80   : 				}
; 81   : 				break;

  001e9	eb 6c		 jmp	 SHORT $LN498@Run
$LN27@Run:

; 82   : 
; 83   : 			case BI_UNLOCK:
; 84   : 				{
; 85   : 					((CCallbackAccountProcess *)pCallbackBill)->OnCallback(it->first, (GSBsipAccountUnlockResDef*)(pCallback->pItem));

  001eb	3b 7d 04	 cmp	 edi, DWORD PTR [ebp+4]
  001ee	8b 48 04	 mov	 ecx, DWORD PTR [eax+4]
  001f1	51		 push	 ecx
  001f2	75 05		 jne	 SHORT $LN284@Run
  001f4	e8 00 00 00 00	 call	 __invalid_parameter_noinfo
$LN284@Run:
  001f9	83 ec 1c	 sub	 esp, 28			; 0000001cH
  001fc	8b cc		 mov	 ecx, esp
  001fe	89 64 24 3c	 mov	 DWORD PTR $T271856[esp+132], esp
  00202	6a ff		 push	 -1
  00204	53		 push	 ebx
  00205	8d 47 0c	 lea	 eax, DWORD PTR [edi+12]
  00208	c7 41 18 0f 00
	00 00		 mov	 DWORD PTR [ecx+24], 15	; 0000000fH
  0020f	89 59 14	 mov	 DWORD PTR [ecx+20], ebx
  00212	50		 push	 eax
  00213	88 59 04	 mov	 BYTE PTR [ecx+4], bl
  00216	e8 00 00 00 00	 call	 ?assign@?$basic_string@DU?$char_traits@D@std@@V?$allocator@D@2@@std@@QAEAAV12@ABV12@II@Z ; std::basic_string<char,std::char_traits<char>,std::allocator<char> >::assign
  0021b	8b 16		 mov	 edx, DWORD PTR [esi]
  0021d	8b 42 08	 mov	 eax, DWORD PTR [edx+8]

; 86   : 				}
; 87   : 				break;

  00220	eb 35		 jmp	 SHORT $LN498@Run
$LN24@Run:

; 88   : 
; 89   : 			case BI_TRANSFER:
; 90   : 				{
; 91   : 					((CCallbackAccountProcess *)pCallbackBill)->OnCallback(it->first, (GSBsipConsignTransferResDef*)(pCallback->pItem));
; 92   : 				}
; 93   : 				break;
; 94   : 
; 95   : 			case BI_AWARDAUTHEN:
; 96   : 				{
; 97   : 					((CCallbackAwardAuthen *)pCallbackBill)->OnCallback(it->first, (GSBsipAwardAuthenResDef*)(pCallback->pItem));
; 98   : 				}
; 99   : 				break;
; 100  : 
; 101  : 			case BI_AWARDACK:
; 102  : 				{
; 103  : 					((CCallbackAwardAck *)pCallbackBill)->OnCallback(it->first, (GSBsipAwardAckResDef*)(pCallback->pItem));

  00222	3b 7d 04	 cmp	 edi, DWORD PTR [ebp+4]
  00225	8b 48 04	 mov	 ecx, DWORD PTR [eax+4]
  00228	51		 push	 ecx
  00229	75 05		 jne	 SHORT $LN392@Run
  0022b	e8 00 00 00 00	 call	 __invalid_parameter_noinfo
$LN392@Run:
  00230	83 ec 1c	 sub	 esp, 28			; 0000001cH
  00233	8b cc		 mov	 ecx, esp
  00235	89 64 24 3c	 mov	 DWORD PTR $T271859[esp+132], esp
  00239	6a ff		 push	 -1
  0023b	c7 41 18 0f 00
	00 00		 mov	 DWORD PTR [ecx+24], 15	; 0000000fH
  00242	53		 push	 ebx
  00243	8d 47 0c	 lea	 eax, DWORD PTR [edi+12]
  00246	89 59 14	 mov	 DWORD PTR [ecx+20], ebx
  00249	50		 push	 eax
  0024a	88 59 04	 mov	 BYTE PTR [ecx+4], bl
  0024d	e8 00 00 00 00	 call	 ?assign@?$basic_string@DU?$char_traits@D@std@@V?$allocator@D@2@@std@@QAEAAV12@ABV12@II@Z ; std::basic_string<char,std::char_traits<char>,std::allocator<char> >::assign
  00252	8b 16		 mov	 edx, DWORD PTR [esi]
  00254	8b 42 04	 mov	 eax, DWORD PTR [edx+4]
$LN498@Run:
  00257	8b ce		 mov	 ecx, esi
  00259	ff d0		 call	 eax
$LN497@Run:
  0025b	8b 44 24 14	 mov	 eax, DWORD PTR _pCallback$239990[esp+100]
$LN22@Run:

; 104  : 				}
; 105  : 				break;
; 106  : 
; 107  : 			default:
; 108  : 				break;
; 109  : 			}
; 110  : 			SAFE_DELETE(pCallback->pItem);		// 

  0025f	8b 48 04	 mov	 ecx, DWORD PTR [eax+4]
  00262	51		 push	 ecx
  00263	e8 00 00 00 00	 call	 ??3@YAXPAX@Z		; operator delete
  00268	8b 54 24 18	 mov	 edx, DWORD PTR _pCallback$239990[esp+104]

; 111  : 			SAFE_DELETE(pCallbackBill);

  0026c	56		 push	 esi
  0026d	89 5a 04	 mov	 DWORD PTR [edx+4], ebx
  00270	e8 00 00 00 00	 call	 ??3@YAXPAX@Z		; operator delete

; 112  : 			SAFE_DELETE(pCaller);

  00275	8b 44 24 20	 mov	 eax, DWORD PTR _pCaller$239993[esp+108]
  00279	50		 push	 eax
  0027a	e8 00 00 00 00	 call	 ??3@YAXPAX@Z		; operator delete
  0027f	83 c4 0c	 add	 esp, 12			; 0000000cH

; 113  : 			SAFE_DELETE(it->second);

  00282	3b 7d 04	 cmp	 edi, DWORD PTR [ebp+4]
  00285	75 05		 jne	 SHORT $LN428@Run
  00287	e8 00 00 00 00	 call	 __invalid_parameter_noinfo
$LN428@Run:
  0028c	8b 4f 28	 mov	 ecx, DWORD PTR [edi+40]
  0028f	51		 push	 ecx
  00290	e8 00 00 00 00	 call	 ??3@YAXPAX@Z		; operator delete
  00295	83 c4 04	 add	 esp, 4
  00298	3b 7d 04	 cmp	 edi, DWORD PTR [ebp+4]
  0029b	75 05		 jne	 SHORT $LN438@Run
  0029d	e8 00 00 00 00	 call	 __invalid_parameter_noinfo
$LN438@Run:

; 114  : 			m_CallerQueue.erase(itCaller);

  002a2	8b 54 24 24	 mov	 edx, DWORD PTR _itCaller$239991[esp+104]
  002a6	8b 44 24 20	 mov	 eax, DWORD PTR _itCaller$239991[esp+100]
  002aa	52		 push	 edx
  002ab	50		 push	 eax
  002ac	8d 4c 24 30	 lea	 ecx, DWORD PTR $T271864[esp+108]
  002b0	51		 push	 ecx
  002b1	b9 00 00 00 00	 mov	 ecx, OFFSET ?m_CallerQueue@CBillClient@@0V?$MulTiThMap@V?$basic_string@DU?$char_traits@D@std@@V?$allocator@D@2@@std@@PAUtagBillItem@CBillClient@@@@A ; CBillClient::m_CallerQueue
  002b6	89 5f 28	 mov	 DWORD PTR [edi+40], ebx
  002b9	e8 00 00 00 00	 call	 ?erase@?$_Tree@V?$_Tmap_traits@V?$basic_string@DU?$char_traits@D@std@@V?$allocator@D@2@@std@@PAUtagBillItem@CBillClient@@U?$less@V?$basic_string@DU?$char_traits@D@std@@V?$allocator@D@2@@std@@@2@V?$allocator@U?$pair@$$CBV?$basic_string@DU?$char_traits@D@std@@V?$allocator@D@2@@std@@PAUtagBillItem@CBillClient@@@std@@@2@$0A@@std@@@std@@QAE?AViterator@12@V312@@Z ; std::_Tree<std::_Tmap_traits<std::basic_string<char,std::char_traits<char>,std::allocator<char> >,CBillClient::tagBillItem *,std::less<std::basic_string<char,std::char_traits<char>,std::allocator<char> > >,std::allocator<std::pair<std::basic_string<char,std::char_traits<char>,std::allocator<char> > const ,CBillClient::tagBillItem *> >,0> >::erase

; 115  : 			it = mapTemp.erase(it);

  002be	57		 push	 edi
  002bf	55		 push	 ebp
  002c0	8d 54 24 38	 lea	 edx, DWORD PTR $T271865[esp+108]
  002c4	52		 push	 edx
  002c5	8d 4c 24 54	 lea	 ecx, DWORD PTR _mapTemp$[esp+112]
  002c9	e8 00 00 00 00	 call	 ?erase@?$_Tree@V?$_Tmap_traits@V?$basic_string@DU?$char_traits@D@std@@V?$allocator@D@2@@std@@PAUtagBillItem@CBillClient@@U?$less@V?$basic_string@DU?$char_traits@D@std@@V?$allocator@D@2@@std@@@2@V?$allocator@U?$pair@$$CBV?$basic_string@DU?$char_traits@D@std@@V?$allocator@D@2@@std@@PAUtagBillItem@CBillClient@@@std@@@2@$0A@@std@@@std@@QAE?AViterator@12@V312@@Z ; std::_Tree<std::_Tmap_traits<std::basic_string<char,std::char_traits<char>,std::allocator<char> >,CBillClient::tagBillItem *,std::less<std::basic_string<char,std::char_traits<char>,std::allocator<char> > >,std::allocator<std::pair<std::basic_string<char,std::char_traits<char>,std::allocator<char> > const ,CBillClient::tagBillItem *> >,0> >::erase
  002ce	8b 28		 mov	 ebp, DWORD PTR [eax]
  002d0	8b 78 04	 mov	 edi, DWORD PTR [eax+4]

; 116  : 		}
; 117  : 		else

  002d3	e9 f9 fd ff ff	 jmp	 $LL34@Run
$LN32@Run:

; 118  : 		{
; 119  : 			pCallbackBill->OnTimeOut(itCaller->first);

  002d8	8b 44 24 20	 mov	 eax, DWORD PTR _itCaller$239991[esp+100]
  002dc	8b 4c 24 24	 mov	 ecx, DWORD PTR _itCaller$239991[esp+104]
  002e0	3b 48 04	 cmp	 ecx, DWORD PTR [eax+4]
  002e3	75 05		 jne	 SHORT $LN448@Run
  002e5	e8 00 00 00 00	 call	 __invalid_parameter_noinfo
$LN448@Run:
  002ea	8b 44 24 24	 mov	 eax, DWORD PTR _itCaller$239991[esp+104]
  002ee	8b 16		 mov	 edx, DWORD PTR [esi]
  002f0	8b 12		 mov	 edx, DWORD PTR [edx]
  002f2	83 c0 0c	 add	 eax, 12			; 0000000cH
  002f5	50		 push	 eax
  002f6	8b ce		 mov	 ecx, esi
  002f8	ff d2		 call	 edx

; 120  : 			SAFE_DELETE(pCallback->pItem);		// 

  002fa	8b 44 24 14	 mov	 eax, DWORD PTR _pCallback$239990[esp+100]
  002fe	8b 48 04	 mov	 ecx, DWORD PTR [eax+4]
  00301	51		 push	 ecx
  00302	e8 00 00 00 00	 call	 ??3@YAXPAX@Z		; operator delete
  00307	8b 54 24 18	 mov	 edx, DWORD PTR _pCallback$239990[esp+104]

; 121  : 			SAFE_DELETE(pCallbackBill);

  0030b	56		 push	 esi
  0030c	89 5a 04	 mov	 DWORD PTR [edx+4], ebx
  0030f	e8 00 00 00 00	 call	 ??3@YAXPAX@Z		; operator delete

; 122  : 			SAFE_DELETE(pCaller);

  00314	8b 44 24 20	 mov	 eax, DWORD PTR _pCaller$239993[esp+108]
  00318	50		 push	 eax
  00319	e8 00 00 00 00	 call	 ??3@YAXPAX@Z		; operator delete

; 123  : 			m_CallerQueue.erase(itCaller);

  0031e	8b 4c 24 30	 mov	 ecx, DWORD PTR _itCaller$239991[esp+116]
  00322	8b 54 24 2c	 mov	 edx, DWORD PTR _itCaller$239991[esp+112]
  00326	83 c4 0c	 add	 esp, 12			; 0000000cH
  00329	51		 push	 ecx
  0032a	52		 push	 edx
  0032b	8d 44 24 40	 lea	 eax, DWORD PTR $T271869[esp+108]
  0032f	50		 push	 eax
  00330	b9 00 00 00 00	 mov	 ecx, OFFSET ?m_CallerQueue@CBillClient@@0V?$MulTiThMap@V?$basic_string@DU?$char_traits@D@std@@V?$allocator@D@2@@std@@PAUtagBillItem@CBillClient@@@@A ; CBillClient::m_CallerQueue
  00335	e8 00 00 00 00	 call	 ?erase@?$_Tree@V?$_Tmap_traits@V?$basic_string@DU?$char_traits@D@std@@V?$allocator@D@2@@std@@PAUtagBillItem@CBillClient@@U?$less@V?$basic_string@DU?$char_traits@D@std@@V?$allocator@D@2@@std@@@2@V?$allocator@U?$pair@$$CBV?$basic_string@DU?$char_traits@D@std@@V?$allocator@D@2@@std@@PAUtagBillItem@CBillClient@@@std@@@2@$0A@@std@@@std@@QAE?AViterator@12@V312@@Z ; std::_Tree<std::_Tmap_traits<std::basic_string<char,std::char_traits<char>,std::allocator<char> >,CBillClient::tagBillItem *,std::less<std::basic_string<char,std::char_traits<char>,std::allocator<char> > >,std::allocator<std::pair<std::basic_string<char,std::char_traits<char>,std::allocator<char> > const ,CBillClient::tagBillItem *> >,0> >::erase

; 124  : 			it = mapTemp.erase(it);

  0033a	57		 push	 edi
  0033b	55		 push	 ebp
  0033c	8d 4c 24 48	 lea	 ecx, DWORD PTR $T271870[esp+108]
  00340	51		 push	 ecx
  00341	8d 4c 24 54	 lea	 ecx, DWORD PTR _mapTemp$[esp+112]
  00345	e8 00 00 00 00	 call	 ?erase@?$_Tree@V?$_Tmap_traits@V?$basic_string@DU?$char_traits@D@std@@V?$allocator@D@2@@std@@PAUtagBillItem@CBillClient@@U?$less@V?$basic_string@DU?$char_traits@D@std@@V?$allocator@D@2@@std@@@2@V?$allocator@U?$pair@$$CBV?$basic_string@DU?$char_traits@D@std@@V?$allocator@D@2@@std@@PAUtagBillItem@CBillClient@@@std@@@2@$0A@@std@@@std@@QAE?AViterator@12@V312@@Z ; std::_Tree<std::_Tmap_traits<std::basic_string<char,std::char_traits<char>,std::allocator<char> >,CBillClient::tagBillItem *,std::less<std::basic_string<char,std::char_traits<char>,std::allocator<char> > >,std::allocator<std::pair<std::basic_string<char,std::char_traits<char>,std::allocator<char> > const ,CBillClient::tagBillItem *> >,0> >::erase
  0034a	8b 28		 mov	 ebp, DWORD PTR [eax]
  0034c	8b 78 04	 mov	 edi, DWORD PTR [eax+4]

; 125  : 		}
; 126  : 	}

  0034f	e9 7d fd ff ff	 jmp	 $LL34@Run
$LN33@Run:

; 127  : }

  00354	8b 74 24 4c	 mov	 esi, DWORD PTR _mapTemp$[esp+104]
  00358	8b 54 24 4c	 mov	 edx, DWORD PTR _mapTemp$[esp+104]
  0035c	8b 0a		 mov	 ecx, DWORD PTR [edx]
  0035e	56		 push	 esi
  0035f	8d 44 24 4c	 lea	 eax, DWORD PTR _mapTemp$[esp+104]
  00363	50		 push	 eax
  00364	8b d0		 mov	 edx, eax
  00366	51		 push	 ecx
  00367	52		 push	 edx
  00368	8d 44 24 50	 lea	 eax, DWORD PTR $T273654[esp+116]
  0036c	50		 push	 eax
  0036d	8b ca		 mov	 ecx, edx
  0036f	c7 44 24 74 ff
	ff ff ff	 mov	 DWORD PTR __$EHRec$[esp+128], -1
  00377	e8 00 00 00 00	 call	 ?erase@?$_Tree@V?$_Tmap_traits@V?$basic_string@DU?$char_traits@D@std@@V?$allocator@D@2@@std@@PAUtagBillItem@CBillClient@@U?$less@V?$basic_string@DU?$char_traits@D@std@@V?$allocator@D@2@@std@@@2@V?$allocator@U?$pair@$$CBV?$basic_string@DU?$char_traits@D@std@@V?$allocator@D@2@@std@@PAUtagBillItem@CBillClient@@@std@@@2@$0A@@std@@@std@@QAE?AViterator@12@V312@0@Z ; std::_Tree<std::_Tmap_traits<std::basic_string<char,std::char_traits<char>,std::allocator<char> >,CBillClient::tagBillItem *,std::less<std::basic_string<char,std::char_traits<char>,std::allocator<char> > >,std::allocator<std::pair<std::basic_string<char,std::char_traits<char>,std::allocator<char> > const ,CBillClient::tagBillItem *> >,0> >::erase
  0037c	8b 4c 24 4c	 mov	 ecx, DWORD PTR _mapTemp$[esp+104]
  00380	51		 push	 ecx
  00381	e8 00 00 00 00	 call	 ??3@YAXPAX@Z		; operator delete
  00386	83 c4 04	 add	 esp, 4
  00389	8b 4c 24 58	 mov	 ecx, DWORD PTR __$EHRec$[esp+100]
  0038d	64 89 0d 00 00
	00 00		 mov	 DWORD PTR fs:0, ecx
  00394	59		 pop	 ecx
  00395	5f		 pop	 edi
  00396	5e		 pop	 esi
  00397	5d		 pop	 ebp
  00398	5b		 pop	 ebx
  00399	8b e5		 mov	 esp, ebp
  0039b	5d		 pop	 ebp
  0039c	c3		 ret	 0
  0039d	8d 49 00	 npad	 3
$LN501@Run:
  003a0	00 00 00 00	 DD	 $LN29@Run
  003a4	00 00 00 00	 DD	 $LN28@Run
  003a8	00 00 00 00	 DD	 $LN27@Run
  003ac	00 00 00 00	 DD	 $LN24@Run
  003b0	00 00 00 00	 DD	 $LN24@Run
  003b4	00 00 00 00	 DD	 $LN24@Run
_TEXT	ENDS
;	COMDAT text$x
text$x	SEGMENT
__unwindfunclet$?Run@CBillClient@@QAEXXZ$0:
  00000	8d 4d e4	 lea	 ecx, DWORD PTR _mapTemp$[ebp]
  00003	e9 00 00 00 00	 jmp	 ??1?$map@V?$basic_string@DU?$char_traits@D@std@@V?$allocator@D@2@@std@@PAUtagBillItem@CBillClient@@U?$less@V?$basic_string@DU?$char_traits@D@std@@V?$allocator@D@2@@std@@@2@V?$allocator@U?$pair@$$CBV?$basic_string@DU?$char_traits@D@std@@V?$allocator@D@2@@std@@PAUtagBillItem@CBillClient@@@std@@@2@@std@@QAE@XZ
__ehhandler$?Run@CBillClient@@QAEXXZ:
  00008	8b 54 24 08	 mov	 edx, DWORD PTR [esp+8]
  0000c	8d 42 ac	 lea	 eax, DWORD PTR [edx-84]
  0000f	8b 4a a8	 mov	 ecx, DWORD PTR [edx-88]
  00012	33 c8		 xor	 ecx, eax
  00014	e8 00 00 00 00	 call	 @__security_check_cookie@4
  00019	b8 00 00 00 00	 mov	 eax, OFFSET __ehfuncinfo$?Run@CBillClient@@QAEXXZ
  0001e	e9 00 00 00 00	 jmp	 ___CxxFrameHandler3
text$x	ENDS
?Run@CBillClient@@QAEXXZ ENDP				; CBillClient::Run
PUBLIC	??_C@_07JPPBBBFB@UniBill?$AA@			; `string'
PUBLIC	??_C@_0DI@CAPFNPAM@OI?3?$CFs?0?5CI?3?$CFs?0?5?$CFd?5?3?5?$LH?$KC?K?MPlayer?5?$CFs@ ; `string'
PUBLIC	??_C@_01GBGANLPD@0?$AA@				; `string'
PUBLIC	__$ArrayPad$
PUBLIC	?SendAccountAuthen@CBillClient@@QAEXPAUtagAccAuthenReq@1@PAVCCallbackAccountAuthen@@@Z ; CBillClient::SendAccountAuthen
EXTRN	?PutStringToFile@@YAXPBD0@Z:PROC		; PutStringToFile
EXTRN	_strcpy_s:PROC
EXTRN	_memset:PROC
;	COMDAT ??_C@_07JPPBBBFB@UniBill?$AA@
; File d:\program files\microsoft visual studio 8\vc\include\iosfwd
CONST	SEGMENT
??_C@_07JPPBBBFB@UniBill?$AA@ DB 'UniBill', 00H		; `string'
CONST	ENDS
;	COMDAT ??_C@_0DI@CAPFNPAM@OI?3?$CFs?0?5CI?3?$CFs?0?5?$CFd?5?3?5?$LH?$KC?K?MPlayer?5?$CFs@
CONST	SEGMENT
??_C@_0DI@CAPFNPAM@OI?3?$CFs?0?5CI?3?$CFs?0?5?$CFd?5?3?5?$LH?$KC?K?MPlayer?5?$CFs@ DB 'O'
	DB	'I:%s, CI:%s, %d : ', 0b7H, 0a2H, 0cbH, 0cdH, 'Player %s Accou'
	DB	'ntAuthen', 0cfH, 0fbH, 0cfH, 0a2H, 0caH, 0a7H, 0b0H, 0dcH, '!'
	DB	00H						; `string'
CONST	ENDS
;	COMDAT ??_C@_01GBGANLPD@0?$AA@
CONST	SEGMENT
??_C@_01GBGANLPD@0?$AA@ DB '0', 00H			; `string'
CONST	ENDS
;	COMDAT xdata$x
xdata$x	SEGMENT
__unwindtable$?SendAccountAuthen@CBillClient@@QAEXPAUtagAccAuthenReq@1@PAVCCallbackAccountAuthen@@@Z DD 0ffffffffH
	DD	FLAT:__unwindfunclet$?SendAccountAuthen@CBillClient@@QAEXPAUtagAccAuthenReq@1@PAVCCallbackAccountAuthen@@@Z$0
__ehfuncinfo$?SendAccountAuthen@CBillClient@@QAEXPAUtagAccAuthenReq@1@PAVCCallbackAccountAuthen@@@Z DD 019930522H
	DD	01H
	DD	FLAT:__unwindtable$?SendAccountAuthen@CBillClient@@QAEXPAUtagAccAuthenReq@1@PAVCCallbackAccountAuthen@@@Z
	DD	2 DUP(00H)
	DD	2 DUP(00H)
	DD	00H
	DD	01H
; Function compile flags: /Ogtpy
; File d:\project_p6\trunk\server\gameserver\server\billclient.cpp
xdata$x	ENDS
;	COMDAT ?SendAccountAuthen@CBillClient@@QAEXPAUtagAccAuthenReq@1@PAVCCallbackAccountAuthen@@@Z
_TEXT	SEGMENT
_t$273723 = -476					; size = 4
$T273708 = -472						; size = 28
_req$ = -444						; size = 172
_strDebug$240072 = -272					; size = 256
__$ArrayPad$ = -16					; size = 4
__$EHRec$ = -12						; size = 12
_pReq$ = 8						; size = 4
_pCallback$ = 12					; size = 4
?SendAccountAuthen@CBillClient@@QAEXPAUtagAccAuthenReq@1@PAVCCallbackAccountAuthen@@@Z PROC ; CBillClient::SendAccountAuthen, COMDAT
; _this$ = ecx

; 130  : {

  00000	6a ff		 push	 -1
  00002	68 00 00 00 00	 push	 __ehhandler$?SendAccountAuthen@CBillClient@@QAEXPAUtagAccAuthenReq@1@PAVCCallbackAccountAuthen@@@Z
  00007	64 a1 00 00 00
	00		 mov	 eax, DWORD PTR fs:0
  0000d	50		 push	 eax
  0000e	81 ec d0 01 00
	00		 sub	 esp, 464		; 000001d0H
  00014	a1 00 00 00 00	 mov	 eax, DWORD PTR ___security_cookie
  00019	33 c4		 xor	 eax, esp
  0001b	89 84 24 cc 01
	00 00		 mov	 DWORD PTR __$ArrayPad$[esp+476], eax
  00022	53		 push	 ebx
  00023	55		 push	 ebp
  00024	56		 push	 esi
  00025	57		 push	 edi
  00026	a1 00 00 00 00	 mov	 eax, DWORD PTR ___security_cookie
  0002b	33 c4		 xor	 eax, esp
  0002d	50		 push	 eax
  0002e	8d 84 24 e4 01
	00 00		 lea	 eax, DWORD PTR __$EHRec$[esp+496]
  00035	64 a3 00 00 00
	00		 mov	 DWORD PTR fs:0, eax
  0003b	8b bc 24 f4 01
	00 00		 mov	 edi, DWORD PTR _pReq$[esp+492]

; 131  : 	GSBsipAccountAuthenReqDef req = {0};

  00042	68 a8 00 00 00	 push	 168			; 000000a8H
  00047	33 db		 xor	 ebx, ebx
  00049	8d 44 24 3c	 lea	 eax, DWORD PTR _req$[esp+504]
  0004d	53		 push	 ebx
  0004e	50		 push	 eax
  0004f	8b f1		 mov	 esi, ecx
  00051	e8 00 00 00 00	 call	 _memset

; 132  : 
; 133  : 	req.user_type			= 1;
; 134  : 	req.uid_type			= 1;
; 135  : 	req.pay_type			= 3;
; 136  : 	req.serv_id_player		= -1;
; 137  : 	req.area_id_player		= -1;
; 138  : 	req.group_id_player		= -1;
; 139  : 	req.platform_type		= 1;
; 140  : 	req.endpoint_type		= 1;
; 141  : 	req.indication_authen	= 2;
; 142  : 	funGetNewId(req.sess_id);

  00056	8b 56 44	 mov	 edx, DWORD PTR [esi+68]
  00059	bd 01 00 00 00	 mov	 ebp, 1
  0005e	83 c8 ff	 or	 eax, -1
  00061	8d 4c 24 69	 lea	 ecx, DWORD PTR _req$[esp+549]
  00065	51		 push	 ecx
  00066	89 6c 24 44	 mov	 DWORD PTR _req$[esp+512], ebp
  0006a	89 6c 24 48	 mov	 DWORD PTR _req$[esp+516], ebp
  0006e	c7 84 24 ec 00
	00 00 03 00 00
	00		 mov	 DWORD PTR _req$[esp+680], 3
  00079	89 84 24 b0 00
	00 00		 mov	 DWORD PTR _req$[esp+620], eax
  00080	89 84 24 b4 00
	00 00		 mov	 DWORD PTR _req$[esp+624], eax
  00087	89 84 24 b8 00
	00 00		 mov	 DWORD PTR _req$[esp+628], eax
  0008e	89 ac 24 d0 00
	00 00		 mov	 DWORD PTR _req$[esp+652], ebp
  00095	89 ac 24 bc 00
	00 00		 mov	 DWORD PTR _req$[esp+632], ebp
  0009c	c7 84 24 e8 00
	00 00 02 00 00
	00		 mov	 DWORD PTR _req$[esp+676], 2
  000a7	ff d2		 call	 edx

; 143  : 	funGetNewId(req.order_id);

  000a9	8b 4e 44	 mov	 ecx, DWORD PTR [esi+68]
  000ac	8d 84 24 8e 00
	00 00		 lea	 eax, DWORD PTR _req$[esp+586]
  000b3	50		 push	 eax
  000b4	ff d1		 call	 ecx

; 144  : 	strcpy_s(pReq->szSessionID, MAX_SESSID_LEN+1, req.sess_id);

  000b6	8d 54 24 71	 lea	 edx, DWORD PTR _req$[esp+557]
  000ba	52		 push	 edx
  000bb	8d 47 21	 lea	 eax, DWORD PTR [edi+33]
  000be	6a 21		 push	 33			; 00000021H
  000c0	50		 push	 eax
  000c1	e8 00 00 00 00	 call	 _strcpy_s

; 145  : 	strcpy_s(req.user_id, MAX_PTID_LEN+1, pReq->szPlayerID);

  000c6	57		 push	 edi
  000c7	8d 4c 24 60	 lea	 ecx, DWORD PTR _req$[esp+540]
  000cb	6a 21		 push	 33			; 00000021H
  000cd	51		 push	 ecx
  000ce	e8 00 00 00 00	 call	 _strcpy_s

; 146  : 	strcpy_s(req.endpoint_ip, IP_ADDRESS_LEN+1, pReq->szPlayerIP);

  000d3	83 c7 42	 add	 edi, 66			; 00000042H
  000d6	57		 push	 edi
  000d7	8d 94 24 e0 00
	00 00		 lea	 edx, DWORD PTR _req$[esp+668]
  000de	6a 10		 push	 16			; 00000010H
  000e0	52		 push	 edx
  000e1	e8 00 00 00 00	 call	 _strcpy_s

; 147  : 	GetCurrentTimeString(req.call_time, 20);

  000e6	8d 44 24 4c	 lea	 eax, DWORD PTR _t$273723[esp+552]
  000ea	50		 push	 eax
  000eb	e8 00 00 00 00	 call	 __time32
  000f0	8d 4c 24 50	 lea	 ecx, DWORD PTR _t$273723[esp+556]
  000f4	51		 push	 ecx
  000f5	e8 00 00 00 00	 call	 __localtime32
  000fa	8b 10		 mov	 edx, DWORD PTR [eax]
  000fc	8b 48 04	 mov	 ecx, DWORD PTR [eax+4]
  000ff	83 c4 40	 add	 esp, 64			; 00000040H
  00102	52		 push	 edx
  00103	8b 50 08	 mov	 edx, DWORD PTR [eax+8]
  00106	51		 push	 ecx
  00107	8b 48 0c	 mov	 ecx, DWORD PTR [eax+12]
  0010a	52		 push	 edx
  0010b	8b 50 10	 mov	 edx, DWORD PTR [eax+16]
  0010e	8b 40 14	 mov	 eax, DWORD PTR [eax+20]
  00111	51		 push	 ecx
  00112	03 d5		 add	 edx, ebp
  00114	52		 push	 edx
  00115	05 6c 07 00 00	 add	 eax, 1900		; 0000076cH
  0011a	50		 push	 eax
  0011b	68 00 00 00 00	 push	 OFFSET ??_C@_0BO@NGNOHJIK@?$CF04d?9?$CF02d?9?$CF02d?5?$CF02d?3?$CF02d?3?$CF02d?$AA@
  00120	8d 8c 24 e0 00
	00 00		 lea	 ecx, DWORD PTR _req$[esp+668]
  00127	6a 14		 push	 20			; 00000014H
  00129	51		 push	 ecx
  0012a	e8 00 00 00 00	 call	 __snprintf

; 148  : 
; 149  : 	int nRet = funSendAccountAuthen(&req);

  0012f	8b 46 4c	 mov	 eax, DWORD PTR [esi+76]
  00132	8d 54 24 58	 lea	 edx, DWORD PTR _req$[esp+532]
  00136	52		 push	 edx
  00137	ff d0		 call	 eax
  00139	8b f0		 mov	 esi, eax
  0013b	83 c4 28	 add	 esp, 40			; 00000028H

; 150  : 	if (nRet != 0)

  0013e	3b f3		 cmp	 esi, ebx
  00140	74 5b		 je	 SHORT $LN1@SendAccoun

; 151  : 	{
; 152  : 		char strDebug[256] = "";

  00142	68 ff 00 00 00	 push	 255			; 000000ffH
  00147	8d 8c 24 e5 00
	00 00		 lea	 ecx, DWORD PTR _strDebug$240072[esp+501]
  0014e	53		 push	 ebx
  0014f	51		 push	 ecx
  00150	88 9c 24 ec 00
	00 00		 mov	 BYTE PTR _strDebug$240072[esp+508], bl
  00157	e8 00 00 00 00	 call	 _memset

; 153  : 		_snprintf(strDebug, 256, "OI:%s, CI:%s, %d : Player %s AccountAuthen!",
; 154  : 			req.order_id, "0", nRet, req.user_id );

  0015c	8d 54 24 48	 lea	 edx, DWORD PTR _req$[esp+516]
  00160	52		 push	 edx
  00161	56		 push	 esi
  00162	68 00 00 00 00	 push	 OFFSET ??_C@_01GBGANLPD@0?$AA@
  00167	8d 84 24 96 00
	00 00		 lea	 eax, DWORD PTR _req$[esp+594]
  0016e	50		 push	 eax
  0016f	68 00 00 00 00	 push	 OFFSET ??_C@_0DI@CAPFNPAM@OI?3?$CFs?0?5CI?3?$CFs?0?5?$CFd?5?3?5?$LH?$KC?K?MPlayer?5?$CFs@
  00174	8d 8c 24 00 01
	00 00		 lea	 ecx, DWORD PTR _strDebug$240072[esp+528]
  0017b	68 00 01 00 00	 push	 256			; 00000100H
  00180	51		 push	 ecx
  00181	e8 00 00 00 00	 call	 __snprintf

; 155  : 		PutStringToFile("UniBill", strDebug);

  00186	8d 94 24 08 01
	00 00		 lea	 edx, DWORD PTR _strDebug$240072[esp+536]
  0018d	52		 push	 edx
  0018e	68 00 00 00 00	 push	 OFFSET ??_C@_07JPPBBBFB@UniBill?$AA@
  00193	e8 00 00 00 00	 call	 ?PutStringToFile@@YAXPBD0@Z ; PutStringToFile
  00198	83 c4 30	 add	 esp, 48			; 00000030H

; 156  : 		return;

  0019b	eb 7c		 jmp	 SHORT $LN63@SendAccoun
$LN1@SendAccoun:

; 157  : 	}
; 158  : 
; 159  : 	tagBillItem *pBillItem		= new tagBillItem;

  0019d	6a 08		 push	 8
  0019f	e8 00 00 00 00	 call	 ??2@YAPAXI@Z		; operator new
  001a4	8b f0		 mov	 esi, eax

; 160  : 	pBillItem->eItemType		= BI_ACCOUNTAUTHEN;
; 161  : 	pBillItem->pItem			= pCallback;

  001a6	8b 84 24 fc 01
	00 00		 mov	 eax, DWORD PTR _pCallback$[esp+496]
  001ad	89 46 04	 mov	 DWORD PTR [esi+4], eax

; 162  : 	m_CallerQueue[req.order_id]	= pBillItem;

  001b0	8d 84 24 82 00
	00 00		 lea	 eax, DWORD PTR _req$[esp+574]
  001b7	83 c4 04	 add	 esp, 4
  001ba	89 2e		 mov	 DWORD PTR [esi], ebp
  001bc	c7 44 24 30 0f
	00 00 00	 mov	 DWORD PTR $T273708[esp+520], 15 ; 0000000fH
  001c4	89 5c 24 2c	 mov	 DWORD PTR $T273708[esp+516], ebx
  001c8	88 5c 24 1c	 mov	 BYTE PTR $T273708[esp+500], bl
  001cc	8d 50 01	 lea	 edx, DWORD PTR [eax+1]
  001cf	90		 npad	 1
$LL73@SendAccoun:
  001d0	8a 08		 mov	 cl, BYTE PTR [eax]
  001d2	83 c0 01	 add	 eax, 1
  001d5	3a cb		 cmp	 cl, bl
  001d7	75 f7		 jne	 SHORT $LL73@SendAccoun
  001d9	2b c2		 sub	 eax, edx
  001db	50		 push	 eax
  001dc	8d 8c 24 82 00
	00 00		 lea	 ecx, DWORD PTR _req$[esp+574]
  001e3	51		 push	 ecx
  001e4	8d 4c 24 20	 lea	 ecx, DWORD PTR $T273708[esp+504]
  001e8	e8 00 00 00 00	 call	 ?assign@?$basic_string@DU?$char_traits@D@std@@V?$allocator@D@2@@std@@QAEAAV12@PBDI@Z ; std::basic_string<char,std::char_traits<char>,std::allocator<char> >::assign
  001ed	8d 54 24 18	 lea	 edx, DWORD PTR $T273708[esp+496]
  001f1	52		 push	 edx
  001f2	b9 00 00 00 00	 mov	 ecx, OFFSET ?m_CallerQueue@CBillClient@@0V?$MulTiThMap@V?$basic_string@DU?$char_traits@D@std@@V?$allocator@D@2@@std@@PAUtagBillItem@CBillClient@@@@A ; CBillClient::m_CallerQueue
  001f7	89 9c 24 f0 01
	00 00		 mov	 DWORD PTR __$EHRec$[esp+508], ebx
  001fe	e8 00 00 00 00	 call	 ??A?$map@V?$basic_string@DU?$char_traits@D@std@@V?$allocator@D@2@@std@@PAUtagBillItem@CBillClient@@U?$less@V?$basic_string@DU?$char_traits@D@std@@V?$allocator@D@2@@std@@@2@V?$allocator@U?$pair@$$CBV?$basic_string@DU?$char_traits@D@std@@V?$allocator@D@2@@std@@PAUtagBillItem@CBillClient@@@std@@@2@@std@@QAEAAPAUtagBillItem@CBillClient@@ABV?$basic_string@DU?$char_traits@D@std@@V?$allocator@D@2@@1@@Z ; std::map<std::basic_string<char,std::char_traits<char>,std::allocator<char> >,CBillClient::tagBillItem *,std::less<std::basic_string<char,std::char_traits<char>,std::allocator<char> > >,std::allocator<std::pair<std::basic_string<char,std::char_traits<char>,std::allocator<char> > const ,CBillClient::tagBillItem *> > >::operator[]
  00203	89 30		 mov	 DWORD PTR [eax], esi
  00205	83 7c 24 30 10	 cmp	 DWORD PTR $T273708[esp+520], 16 ; 00000010H
  0020a	72 0d		 jb	 SHORT $LN63@SendAccoun
  0020c	8b 44 24 1c	 mov	 eax, DWORD PTR $T273708[esp+500]
  00210	50		 push	 eax
  00211	e8 00 00 00 00	 call	 ??3@YAXPAX@Z		; operator delete
  00216	83 c4 04	 add	 esp, 4
$LN63@SendAccoun:

; 163  : }

  00219	8b 8c 24 e4 01
	00 00		 mov	 ecx, DWORD PTR __$EHRec$[esp+496]
  00220	64 89 0d 00 00
	00 00		 mov	 DWORD PTR fs:0, ecx
  00227	59		 pop	 ecx
  00228	5f		 pop	 edi
  00229	5e		 pop	 esi
  0022a	5d		 pop	 ebp
  0022b	5b		 pop	 ebx
  0022c	8b 8c 24 cc 01
	00 00		 mov	 ecx, DWORD PTR __$ArrayPad$[esp+476]
  00233	33 cc		 xor	 ecx, esp
  00235	e8 00 00 00 00	 call	 @__security_check_cookie@4
  0023a	81 c4 dc 01 00
	00		 add	 esp, 476		; 000001dcH
  00240	c2 08 00	 ret	 8
_TEXT	ENDS
;	COMDAT text$x
text$x	SEGMENT
__unwindfunclet$?SendAccountAuthen@CBillClient@@QAEXPAUtagAccAuthenReq@1@PAVCCallbackAccountAuthen@@@Z$0:
  00000	8d 8d 28 fe ff
	ff		 lea	 ecx, DWORD PTR $T273708[ebp]
  00006	e9 00 00 00 00	 jmp	 ??1?$basic_string@DU?$char_traits@D@std@@V?$allocator@D@2@@std@@QAE@XZ ; std::basic_string<char,std::char_traits<char>,std::allocator<char> >::~basic_string<char,std::char_traits<char>,std::allocator<char> >
__ehhandler$?SendAccountAuthen@CBillClient@@QAEXPAUtagAccAuthenReq@1@PAVCCallbackAccountAuthen@@@Z:
  0000b	8b 54 24 08	 mov	 edx, DWORD PTR [esp+8]
  0000f	8d 82 20 fe ff
	ff		 lea	 eax, DWORD PTR [edx-480]
  00015	8b 8a 1c fe ff
	ff		 mov	 ecx, DWORD PTR [edx-484]
  0001b	33 c8		 xor	 ecx, eax
  0001d	e8 00 00 00 00	 call	 @__security_check_cookie@4
  00022	83 c0 10	 add	 eax, 16			; 00000010H
  00025	8b 4a fc	 mov	 ecx, DWORD PTR [edx-4]
  00028	33 c8		 xor	 ecx, eax
  0002a	e8 00 00 00 00	 call	 @__security_check_cookie@4
  0002f	b8 00 00 00 00	 mov	 eax, OFFSET __ehfuncinfo$?SendAccountAuthen@CBillClient@@QAEXPAUtagAccAuthenReq@1@PAVCCallbackAccountAuthen@@@Z
  00034	e9 00 00 00 00	 jmp	 ___CxxFrameHandler3
text$x	ENDS
?SendAccountAuthen@CBillClient@@QAEXPAUtagAccAuthenReq@1@PAVCCallbackAccountAuthen@@@Z ENDP ; CBillClient::SendAccountAuthen
PUBLIC	??_C@_0DG@JGMNNMFG@OI?3?$CFs?0?5CI?3?$CFs?0?5?$CFd?5?3?5?$LH?$KC?K?MPlayer?5?$CFs@ ; `string'
PUBLIC	__$ArrayPad$
PUBLIC	?SendAccountLock@CBillClient@@QAEXPAUtagAccLockReq@1@PAVCCallbackAccountProcess@@@Z ; CBillClient::SendAccountLock
;	COMDAT ??_C@_0DG@JGMNNMFG@OI?3?$CFs?0?5CI?3?$CFs?0?5?$CFd?5?3?5?$LH?$KC?K?MPlayer?5?$CFs@
; File d:\program files\microsoft visual studio 8\vc\include\iosfwd
CONST	SEGMENT
??_C@_0DG@JGMNNMFG@OI?3?$CFs?0?5CI?3?$CFs?0?5?$CFd?5?3?5?$LH?$KC?K?MPlayer?5?$CFs@ DB 'O'
	DB	'I:%s, CI:%s, %d : ', 0b7H, 0a2H, 0cbH, 0cdH, 'Player %s Accou'
	DB	'ntLock', 0cfH, 0fbH, 0cfH, 0a2H, 0caH, 0a7H, 0b0H, 0dcH, '!', 00H ; `string'
CONST	ENDS
;	COMDAT xdata$x
xdata$x	SEGMENT
__unwindtable$?SendAccountLock@CBillClient@@QAEXPAUtagAccLockReq@1@PAVCCallbackAccountProcess@@@Z DD 0ffffffffH
	DD	FLAT:__unwindfunclet$?SendAccountLock@CBillClient@@QAEXPAUtagAccLockReq@1@PAVCCallbackAccountProcess@@@Z$0
__ehfuncinfo$?SendAccountLock@CBillClient@@QAEXPAUtagAccLockReq@1@PAVCCallbackAccountProcess@@@Z DD 019930522H
	DD	01H
	DD	FLAT:__unwindtable$?SendAccountLock@CBillClient@@QAEXPAUtagAccLockReq@1@PAVCCallbackAccountProcess@@@Z
	DD	2 DUP(00H)
	DD	2 DUP(00H)
	DD	00H
	DD	01H
; Function compile flags: /Ogtpy
; File d:\project_p6\trunk\server\gameserver\server\billclient.cpp
xdata$x	ENDS
;	COMDAT ?SendAccountLock@CBillClient@@QAEXPAUtagAccLockReq@1@PAVCCallbackAccountProcess@@@Z
_TEXT	SEGMENT
_t$274008 = -556					; size = 4
$T273993 = -552						; size = 28
_req$ = -524						; size = 252
_strDebug$240088 = -272					; size = 256
__$ArrayPad$ = -16					; size = 4
__$EHRec$ = -12						; size = 12
_pReq$ = 8						; size = 4
_pCallback$ = 12					; size = 4
?SendAccountLock@CBillClient@@QAEXPAUtagAccLockReq@1@PAVCCallbackAccountProcess@@@Z PROC ; CBillClient::SendAccountLock, COMDAT
; _this$ = ecx

; 166  : {

  00000	6a ff		 push	 -1
  00002	68 00 00 00 00	 push	 __ehhandler$?SendAccountLock@CBillClient@@QAEXPAUtagAccLockReq@1@PAVCCallbackAccountProcess@@@Z
  00007	64 a1 00 00 00
	00		 mov	 eax, DWORD PTR fs:0
  0000d	50		 push	 eax
  0000e	81 ec 20 02 00
	00		 sub	 esp, 544		; 00000220H
  00014	a1 00 00 00 00	 mov	 eax, DWORD PTR ___security_cookie
  00019	33 c4		 xor	 eax, esp
  0001b	89 84 24 1c 02
	00 00		 mov	 DWORD PTR __$ArrayPad$[esp+556], eax
  00022	53		 push	 ebx
  00023	55		 push	 ebp
  00024	56		 push	 esi
  00025	57		 push	 edi
  00026	a1 00 00 00 00	 mov	 eax, DWORD PTR ___security_cookie
  0002b	33 c4		 xor	 eax, esp
  0002d	50		 push	 eax
  0002e	8d 84 24 34 02
	00 00		 lea	 eax, DWORD PTR __$EHRec$[esp+576]
  00035	64 a3 00 00 00
	00		 mov	 DWORD PTR fs:0, eax
  0003b	8b b4 24 44 02
	00 00		 mov	 esi, DWORD PTR _pReq$[esp+572]

; 167  : 	GSBsipAccountLockReqDef req = {0};

  00042	68 f8 00 00 00	 push	 248			; 000000f8H
  00047	33 db		 xor	 ebx, ebx
  00049	8d 44 24 3c	 lea	 eax, DWORD PTR _req$[esp+584]
  0004d	53		 push	 ebx
  0004e	50		 push	 eax
  0004f	8b f9		 mov	 edi, ecx
  00051	e8 00 00 00 00	 call	 _memset

; 168  : 	req.uid_type			= 1;								// PT
; 169  : 	req.app_type			= pReq->billType;					// 

  00056	8b 0e		 mov	 ecx, DWORD PTR [esi]

; 170  : 	req.status				= 2;
; 171  : 	req.couple_type			= 2;
; 172  : 	req.fee					= 0;								// 
; 173  : 	req.pay_type			= 3;								// 
; 174  : 	req.lock_period			= 0;								// 20
; 175  : 	req.platform_type		= 1;
; 176  : 	req.endpoint_type		= 1;
; 177  : 	req.serv_id_player		= -1;
; 178  : 	req.area_id_player		= -1;
; 179  : 	req.group_id_player		= -1;
; 180  : 	req.indication_lock		= 1;
; 181  : 	req.item_num			= 1;
; 182  : 	req.goods_info[0].item_id		= pReq->lGoodsID;			// ID

  00058	8b 56 20	 mov	 edx, DWORD PTR [esi+32]
  0005b	b8 02 00 00 00	 mov	 eax, 2
  00060	89 44 24 48	 mov	 DWORD PTR _req$[esp+596], eax
  00064	89 44 24 4c	 mov	 DWORD PTR _req$[esp+600], eax
  00068	83 c8 ff	 or	 eax, -1
  0006b	89 4c 24 44	 mov	 DWORD PTR _req$[esp+592], ecx

; 183  : 	req.goods_info[0].item_num		= pReq->lGoodsNum;			// 

  0006f	8b 4e 24	 mov	 ecx, DWORD PTR [esi+36]
  00072	bd 01 00 00 00	 mov	 ebp, 1
  00077	89 84 24 e0 00
	00 00		 mov	 DWORD PTR _req$[esp+748], eax
  0007e	89 84 24 e4 00
	00 00		 mov	 DWORD PTR _req$[esp+752], eax
  00085	89 84 24 e8 00
	00 00		 mov	 DWORD PTR _req$[esp+756], eax

; 184  : 	req.goods_info[0].item_amount	= pReq->lTotalYuanbao;		// 
; 185  : 	req.goods_info[0].serv_id_item	= -1;

  0008c	89 84 24 20 01
	00 00		 mov	 DWORD PTR _req$[esp+812], eax

; 186  : 	req.goods_info[0].area_id_item	= -1;

  00093	89 84 24 24 01
	00 00		 mov	 DWORD PTR _req$[esp+816], eax

; 187  : 	req.goods_info[0].group_id_item = -1;

  0009a	89 84 24 28 01
	00 00		 mov	 DWORD PTR _req$[esp+820], eax
  000a1	89 94 24 2c 01
	00 00		 mov	 DWORD PTR _req$[esp+824], edx
  000a8	8b 56 18	 mov	 edx, DWORD PTR [esi+24]

; 188  : 	req.goods_info[0].discount		= 100;
; 189  : 	funGetNewId(req.order_id);

  000ab	8d 84 24 bf 00
	00 00		 lea	 eax, DWORD PTR _req$[esp+715]
  000b2	89 8c 24 30 01
	00 00		 mov	 DWORD PTR _req$[esp+828], ecx
  000b9	8b 4f 44	 mov	 ecx, DWORD PTR [edi+68]
  000bc	50		 push	 eax
  000bd	89 6c 24 5c	 mov	 DWORD PTR _req$[esp+616], ebp
  000c1	89 5c 24 54	 mov	 DWORD PTR _req$[esp+608], ebx
  000c5	c7 44 24 44 03
	00 00 00	 mov	 DWORD PTR _req$[esp+592], 3
  000cd	89 5c 24 58	 mov	 DWORD PTR _req$[esp+612], ebx
  000d1	89 ac 24 04 01
	00 00		 mov	 DWORD PTR _req$[esp+784], ebp
  000d8	89 ac 24 f0 00
	00 00		 mov	 DWORD PTR _req$[esp+764], ebp
  000df	89 ac 24 1c 01
	00 00		 mov	 DWORD PTR _req$[esp+808], ebp
  000e6	89 ac 24 20 01
	00 00		 mov	 DWORD PTR _req$[esp+812], ebp
  000ed	89 94 24 38 01
	00 00		 mov	 DWORD PTR _req$[esp+836], edx
  000f4	c7 84 24 3c 01
	00 00 64 00 00
	00		 mov	 DWORD PTR _req$[esp+840], 100 ; 00000064H
  000ff	ff d1		 call	 ecx

; 190  : 	funGetNewId(req.context_id);

  00101	8b 47 44	 mov	 eax, DWORD PTR [edi+68]
  00104	8d 94 24 a2 00
	00 00		 lea	 edx, DWORD PTR _req$[esp+686]
  0010b	52		 push	 edx
  0010c	ff d0		 call	 eax

; 191  : 	strcpy_s(req.user_id, MAX_PTID_LEN+1, pReq->szBuyerID);

  0010e	8d 4e 28	 lea	 ecx, DWORD PTR [esi+40]
  00111	51		 push	 ecx
  00112	8d 54 24 68	 lea	 edx, DWORD PTR _req$[esp+628]
  00116	6a 21		 push	 33			; 00000021H
  00118	52		 push	 edx
  00119	e8 00 00 00 00	 call	 _strcpy_s

; 192  : 	strcpy_s(req.sess_id, MAX_SESSID_LEN+1, pReq->szSessionID);

  0011e	8d 46 6a	 lea	 eax, DWORD PTR [esi+106]
  00121	50		 push	 eax
  00122	8d 8c 24 95 00
	00 00		 lea	 ecx, DWORD PTR _req$[esp+673]
  00129	6a 21		 push	 33			; 00000021H
  0012b	51		 push	 ecx
  0012c	e8 00 00 00 00	 call	 _strcpy_s

; 193  : 	strcpy_s(req.endpoint_ip, IP_ADDRESS_LEN+1, pReq->szBuyerIP);

  00131	81 c6 8b 00 00
	00		 add	 esi, 139		; 0000008bH
  00137	56		 push	 esi
  00138	8d 94 24 14 01
	00 00		 lea	 edx, DWORD PTR _req$[esp+800]
  0013f	6a 10		 push	 16			; 00000010H
  00141	52		 push	 edx
  00142	e8 00 00 00 00	 call	 _strcpy_s

; 194  : 	GetCurrentTimeString(req.call_time, 20);

  00147	8d 44 24 4c	 lea	 eax, DWORD PTR _t$274008[esp+632]
  0014b	50		 push	 eax
  0014c	e8 00 00 00 00	 call	 __time32
  00151	8d 4c 24 50	 lea	 ecx, DWORD PTR _t$274008[esp+636]
  00155	51		 push	 ecx
  00156	e8 00 00 00 00	 call	 __localtime32
  0015b	8b 10		 mov	 edx, DWORD PTR [eax]
  0015d	8b 48 04	 mov	 ecx, DWORD PTR [eax+4]
  00160	83 c4 40	 add	 esp, 64			; 00000040H
  00163	52		 push	 edx
  00164	8b 50 08	 mov	 edx, DWORD PTR [eax+8]
  00167	51		 push	 ecx
  00168	8b 48 0c	 mov	 ecx, DWORD PTR [eax+12]
  0016b	52		 push	 edx
  0016c	8b 50 10	 mov	 edx, DWORD PTR [eax+16]
  0016f	8b 40 14	 mov	 eax, DWORD PTR [eax+20]
  00172	51		 push	 ecx
  00173	03 d5		 add	 edx, ebp
  00175	52		 push	 edx
  00176	05 6c 07 00 00	 add	 eax, 1900		; 0000076cH
  0017b	50		 push	 eax
  0017c	68 00 00 00 00	 push	 OFFSET ??_C@_0BO@NGNOHJIK@?$CF04d?9?$CF02d?9?$CF02d?5?$CF02d?3?$CF02d?3?$CF02d?$AA@
  00181	8d 8c 24 14 01
	00 00		 lea	 ecx, DWORD PTR _req$[esp+800]
  00188	6a 14		 push	 20			; 00000014H
  0018a	51		 push	 ecx
  0018b	e8 00 00 00 00	 call	 __snprintf

; 195  : 
; 196  : 	int nRet = funSendAccountLock(&req);

  00190	8b 47 50	 mov	 eax, DWORD PTR [edi+80]
  00193	8d 54 24 58	 lea	 edx, DWORD PTR _req$[esp+612]
  00197	52		 push	 edx
  00198	ff d0		 call	 eax
  0019a	8b f0		 mov	 esi, eax
  0019c	83 c4 28	 add	 esp, 40			; 00000028H

; 197  : 	if (nRet != 0)

  0019f	3b f3		 cmp	 esi, ebx
  001a1	74 5e		 je	 SHORT $LN1@SendAccoun@2

; 198  : 	{
; 199  : 		char strDebug[256] = "";

  001a3	68 ff 00 00 00	 push	 255			; 000000ffH
  001a8	8d 8c 24 35 01
	00 00		 lea	 ecx, DWORD PTR _strDebug$240088[esp+581]
  001af	53		 push	 ebx
  001b0	51		 push	 ecx
  001b1	88 9c 24 3c 01
	00 00		 mov	 BYTE PTR _strDebug$240088[esp+588], bl
  001b8	e8 00 00 00 00	 call	 _memset

; 200  : 		_snprintf(strDebug, 256, "OI:%s, CI:%s, %d : Player %s AccountLock!",
; 201  : 			req.order_id, req.context_id, nRet, req.user_id );

  001bd	8d 54 24 5c	 lea	 edx, DWORD PTR _req$[esp+616]
  001c1	52		 push	 edx
  001c2	56		 push	 esi
  001c3	8d 84 24 a6 00
	00 00		 lea	 eax, DWORD PTR _req$[esp+690]
  001ca	50		 push	 eax
  001cb	8d 8c 24 cb 00
	00 00		 lea	 ecx, DWORD PTR _req$[esp+727]
  001d2	51		 push	 ecx
  001d3	68 00 00 00 00	 push	 OFFSET ??_C@_0DG@JGMNNMFG@OI?3?$CFs?0?5CI?3?$CFs?0?5?$CFd?5?3?5?$LH?$KC?K?MPlayer?5?$CFs@
  001d8	8d 94 24 50 01
	00 00		 lea	 edx, DWORD PTR _strDebug$240088[esp+608]
  001df	68 00 01 00 00	 push	 256			; 00000100H
  001e4	52		 push	 edx
  001e5	e8 00 00 00 00	 call	 __snprintf

; 202  : 		PutStringToFile("UniBill", strDebug);

  001ea	8d 84 24 58 01
	00 00		 lea	 eax, DWORD PTR _strDebug$240088[esp+616]
  001f1	50		 push	 eax
  001f2	68 00 00 00 00	 push	 OFFSET ??_C@_07JPPBBBFB@UniBill?$AA@
  001f7	e8 00 00 00 00	 call	 ?PutStringToFile@@YAXPBD0@Z ; PutStringToFile
  001fc	83 c4 30	 add	 esp, 48			; 00000030H

; 203  : 		return;

  001ff	eb 7f		 jmp	 SHORT $LN63@SendAccoun@2
$LN1@SendAccoun@2:

; 204  : 	}
; 205  : 
; 206  : 	tagBillItem *pBillItem		= new tagBillItem;

  00201	6a 08		 push	 8
  00203	e8 00 00 00 00	 call	 ??2@YAPAXI@Z		; operator new

; 207  : 	pBillItem->eItemType		= BI_LOCK;
; 208  : 	pBillItem->pItem			= pCallback;

  00208	8b 8c 24 4c 02
	00 00		 mov	 ecx, DWORD PTR _pCallback$[esp+576]
  0020f	8b f0		 mov	 esi, eax

; 209  : 	m_CallerQueue[req.order_id]	= pBillItem;

  00211	8d 84 24 b7 00
	00 00		 lea	 eax, DWORD PTR _req$[esp+707]
  00218	83 c4 04	 add	 esp, 4
  0021b	c7 06 02 00 00
	00		 mov	 DWORD PTR [esi], 2
  00221	89 4e 04	 mov	 DWORD PTR [esi+4], ecx
  00224	c7 44 24 30 0f
	00 00 00	 mov	 DWORD PTR $T273993[esp+600], 15 ; 0000000fH
  0022c	89 5c 24 2c	 mov	 DWORD PTR $T273993[esp+596], ebx
  00230	88 5c 24 1c	 mov	 BYTE PTR $T273993[esp+580], bl
  00234	8d 50 01	 lea	 edx, DWORD PTR [eax+1]
$LL73@SendAccoun@2:
  00237	8a 08		 mov	 cl, BYTE PTR [eax]
  00239	83 c0 01	 add	 eax, 1
  0023c	3a cb		 cmp	 cl, bl
  0023e	75 f7		 jne	 SHORT $LL73@SendAccoun@2
  00240	2b c2		 sub	 eax, edx
  00242	50		 push	 eax
  00243	8d 94 24 b7 00
	00 00		 lea	 edx, DWORD PTR _req$[esp+707]
  0024a	52		 push	 edx
  0024b	8d 4c 24 20	 lea	 ecx, DWORD PTR $T273993[esp+584]
  0024f	e8 00 00 00 00	 call	 ?assign@?$basic_string@DU?$char_traits@D@std@@V?$allocator@D@2@@std@@QAEAAV12@PBDI@Z ; std::basic_string<char,std::char_traits<char>,std::allocator<char> >::assign
  00254	8d 44 24 18	 lea	 eax, DWORD PTR $T273993[esp+576]
  00258	50		 push	 eax
  00259	b9 00 00 00 00	 mov	 ecx, OFFSET ?m_CallerQueue@CBillClient@@0V?$MulTiThMap@V?$basic_string@DU?$char_traits@D@std@@V?$allocator@D@2@@std@@PAUtagBillItem@CBillClient@@@@A ; CBillClient::m_CallerQueue
  0025e	89 9c 24 40 02
	00 00		 mov	 DWORD PTR __$EHRec$[esp+588], ebx
  00265	e8 00 00 00 00	 call	 ??A?$map@V?$basic_string@DU?$char_traits@D@std@@V?$allocator@D@2@@std@@PAUtagBillItem@CBillClient@@U?$less@V?$basic_string@DU?$char_traits@D@std@@V?$allocator@D@2@@std@@@2@V?$allocator@U?$pair@$$CBV?$basic_string@DU?$char_traits@D@std@@V?$allocator@D@2@@std@@PAUtagBillItem@CBillClient@@@std@@@2@@std@@QAEAAPAUtagBillItem@CBillClient@@ABV?$basic_string@DU?$char_traits@D@std@@V?$allocator@D@2@@1@@Z ; std::map<std::basic_string<char,std::char_traits<char>,std::allocator<char> >,CBillClient::tagBillItem *,std::less<std::basic_string<char,std::char_traits<char>,std::allocator<char> > >,std::allocator<std::pair<std::basic_string<char,std::char_traits<char>,std::allocator<char> > const ,CBillClient::tagBillItem *> > >::operator[]
  0026a	89 30		 mov	 DWORD PTR [eax], esi
  0026c	83 7c 24 30 10	 cmp	 DWORD PTR $T273993[esp+600], 16 ; 00000010H
  00271	72 0d		 jb	 SHORT $LN63@SendAccoun@2
  00273	8b 4c 24 1c	 mov	 ecx, DWORD PTR $T273993[esp+580]
  00277	51		 push	 ecx
  00278	e8 00 00 00 00	 call	 ??3@YAXPAX@Z		; operator delete
  0027d	83 c4 04	 add	 esp, 4
$LN63@SendAccoun@2:

; 210  : }

  00280	8b 8c 24 34 02
	00 00		 mov	 ecx, DWORD PTR __$EHRec$[esp+576]
  00287	64 89 0d 00 00
	00 00		 mov	 DWORD PTR fs:0, ecx
  0028e	59		 pop	 ecx
  0028f	5f		 pop	 edi
  00290	5e		 pop	 esi
  00291	5d		 pop	 ebp
  00292	5b		 pop	 ebx
  00293	8b 8c 24 1c 02
	00 00		 mov	 ecx, DWORD PTR __$ArrayPad$[esp+556]
  0029a	33 cc		 xor	 ecx, esp
  0029c	e8 00 00 00 00	 call	 @__security_check_cookie@4
  002a1	81 c4 2c 02 00
	00		 add	 esp, 556		; 0000022cH
  002a7	c2 08 00	 ret	 8
_TEXT	ENDS
;	COMDAT text$x
text$x	SEGMENT
__unwindfunclet$?SendAccountLock@CBillClient@@QAEXPAUtagAccLockReq@1@PAVCCallbackAccountProcess@@@Z$0:
  00000	8d 8d d8 fd ff
	ff		 lea	 ecx, DWORD PTR $T273993[ebp]
  00006	e9 00 00 00 00	 jmp	 ??1?$basic_string@DU?$char_traits@D@std@@V?$allocator@D@2@@std@@QAE@XZ ; std::basic_string<char,std::char_traits<char>,std::allocator<char> >::~basic_string<char,std::char_traits<char>,std::allocator<char> >
__ehhandler$?SendAccountLock@CBillClient@@QAEXPAUtagAccLockReq@1@PAVCCallbackAccountProcess@@@Z:
  0000b	8b 54 24 08	 mov	 edx, DWORD PTR [esp+8]
  0000f	8d 82 d0 fd ff
	ff		 lea	 eax, DWORD PTR [edx-560]
  00015	8b 8a cc fd ff
	ff		 mov	 ecx, DWORD PTR [edx-564]
  0001b	33 c8		 xor	 ecx, eax
  0001d	e8 00 00 00 00	 call	 @__security_check_cookie@4
  00022	83 c0 10	 add	 eax, 16			; 00000010H
  00025	8b 4a fc	 mov	 ecx, DWORD PTR [edx-4]
  00028	33 c8		 xor	 ecx, eax
  0002a	e8 00 00 00 00	 call	 @__security_check_cookie@4
  0002f	b8 00 00 00 00	 mov	 eax, OFFSET __ehfuncinfo$?SendAccountLock@CBillClient@@QAEXPAUtagAccLockReq@1@PAVCCallbackAccountProcess@@@Z
  00034	e9 00 00 00 00	 jmp	 ___CxxFrameHandler3
text$x	ENDS
?SendAccountLock@CBillClient@@QAEXPAUtagAccLockReq@1@PAVCCallbackAccountProcess@@@Z ENDP ; CBillClient::SendAccountLock
PUBLIC	??_C@_0DI@DOIHLJAE@OI?3?$CFs?0?5CI?3?$CFs?0?5?$CFd?5?3?5?$LH?$KC?K?MPlayer?5?$CFs@ ; `string'
PUBLIC	__$ArrayPad$
PUBLIC	?SendAccountUnlock@CBillClient@@QAEXPAUtagAccUnlockReq@1@PAVCCallbackAccountProcess@@@Z ; CBillClient::SendAccountUnlock
;	COMDAT ??_C@_0DI@DOIHLJAE@OI?3?$CFs?0?5CI?3?$CFs?0?5?$CFd?5?3?5?$LH?$KC?K?MPlayer?5?$CFs@
; File d:\program files\microsoft visual studio 8\vc\include\iosfwd
CONST	SEGMENT
??_C@_0DI@DOIHLJAE@OI?3?$CFs?0?5CI?3?$CFs?0?5?$CFd?5?3?5?$LH?$KC?K?MPlayer?5?$CFs@ DB 'O'
	DB	'I:%s, CI:%s, %d : ', 0b7H, 0a2H, 0cbH, 0cdH, 'Player %s Accou'
	DB	'ntUnlock', 0cfH, 0fbH, 0cfH, 0a2H, 0caH, 0a7H, 0b0H, 0dcH, '!'
	DB	00H						; `string'
CONST	ENDS
;	COMDAT xdata$x
xdata$x	SEGMENT
__unwindtable$?SendAccountUnlock@CBillClient@@QAEXPAUtagAccUnlockReq@1@PAVCCallbackAccountProcess@@@Z DD 0ffffffffH
	DD	FLAT:__unwindfunclet$?SendAccountUnlock@CBillClient@@QAEXPAUtagAccUnlockReq@1@PAVCCallbackAccountProcess@@@Z$0
__ehfuncinfo$?SendAccountUnlock@CBillClient@@QAEXPAUtagAccUnlockReq@1@PAVCCallbackAccountProcess@@@Z DD 019930522H
	DD	01H
	DD	FLAT:__unwindtable$?SendAccountUnlock@CBillClient@@QAEXPAUtagAccUnlockReq@1@PAVCCallbackAccountProcess@@@Z
	DD	2 DUP(00H)
	DD	2 DUP(00H)
	DD	00H
	DD	01H
; Function compile flags: /Ogtpy
; File d:\project_p6\trunk\server\gameserver\server\billclient.cpp
xdata$x	ENDS
;	COMDAT ?SendAccountUnlock@CBillClient@@QAEXPAUtagAccUnlockReq@1@PAVCCallbackAccountProcess@@@Z
_TEXT	SEGMENT
_t$274287 = -560					; size = 4
$T274277 = -556						; size = 28
_req$ = -528						; size = 256
_strDebug$240102 = -272					; size = 256
__$ArrayPad$ = -16					; size = 4
__$EHRec$ = -12						; size = 12
_pReq$ = 8						; size = 4
_pCallback$ = 12					; size = 4
?SendAccountUnlock@CBillClient@@QAEXPAUtagAccUnlockReq@1@PAVCCallbackAccountProcess@@@Z PROC ; CBillClient::SendAccountUnlock, COMDAT
; _this$ = ecx

; 213  : {

  00000	6a ff		 push	 -1
  00002	68 00 00 00 00	 push	 __ehhandler$?SendAccountUnlock@CBillClient@@QAEXPAUtagAccUnlockReq@1@PAVCCallbackAccountProcess@@@Z
  00007	64 a1 00 00 00
	00		 mov	 eax, DWORD PTR fs:0
  0000d	50		 push	 eax
  0000e	81 ec 24 02 00
	00		 sub	 esp, 548		; 00000224H
  00014	a1 00 00 00 00	 mov	 eax, DWORD PTR ___security_cookie
  00019	33 c4		 xor	 eax, esp
  0001b	89 84 24 20 02
	00 00		 mov	 DWORD PTR __$ArrayPad$[esp+560], eax
  00022	53		 push	 ebx
  00023	55		 push	 ebp
  00024	56		 push	 esi
  00025	57		 push	 edi
  00026	a1 00 00 00 00	 mov	 eax, DWORD PTR ___security_cookie
  0002b	33 c4		 xor	 eax, esp
  0002d	50		 push	 eax
  0002e	8d 84 24 38 02
	00 00		 lea	 eax, DWORD PTR __$EHRec$[esp+580]
  00035	64 a3 00 00 00
	00		 mov	 DWORD PTR fs:0, eax
  0003b	8b b4 24 48 02
	00 00		 mov	 esi, DWORD PTR _pReq$[esp+576]

; 214  : 	GSBsipAccountUnlockReqDef req = {0};

  00042	68 fc 00 00 00	 push	 252			; 000000fcH
  00047	33 db		 xor	 ebx, ebx
  00049	8d 44 24 3c	 lea	 eax, DWORD PTR _req$[esp+588]
  0004d	53		 push	 ebx
  0004e	50		 push	 eax
  0004f	8b f9		 mov	 edi, ecx
  00051	e8 00 00 00 00	 call	 _memset

; 215  : 
; 216  : 	req.uid_type			= 1;
; 217  : 	req.app_type			= pReq->billType;
; 218  : 	req.status				= 2;
; 219  : 	req.confirm				= pReq->bConfirm ? 1 : 2;

  00056	8a 56 04	 mov	 dl, BYTE PTR [esi+4]
  00059	8b 0e		 mov	 ecx, DWORD PTR [esi]
  0005b	f6 da		 neg	 dl
  0005d	b8 02 00 00 00	 mov	 eax, 2
  00062	89 44 24 4c	 mov	 DWORD PTR _req$[esp+604], eax

; 220  : 	req.couple_type			= 2;

  00066	89 44 24 50	 mov	 DWORD PTR _req$[esp+608], eax
  0006a	bd 01 00 00 00	 mov	 ebp, 1
  0006f	89 4c 24 48	 mov	 DWORD PTR _req$[esp+600], ecx
  00073	89 6c 24 5c	 mov	 DWORD PTR _req$[esp+620], ebp
  00077	1b d2		 sbb	 edx, edx
  00079	03 d0		 add	 edx, eax

; 221  : 	req.responsable			= 1;
; 222  : 	req.pay_type			= 3;								// 
; 223  : 	req.platform_type		= 1;
; 224  : 	req.endpoint_type		= 1;
; 225  : 	req.serv_id_player		= -1;
; 226  : 	req.area_id_player		= -1;
; 227  : 	req.group_id_player		= -1;
; 228  : 	req.indication_unlock	= 1;
; 229  : 	req.item_num			= 1; 
; 230  : 	req.amount				= pReq->lTotalYuanbao;				// 

  0007b	8b 46 08	 mov	 eax, DWORD PTR [esi+8]
  0007e	83 c9 ff	 or	 ecx, -1
  00081	89 54 24 54	 mov	 DWORD PTR _req$[esp+612], edx

; 231  : 	req.goods_info[0].item_id		= pReq->lGoodsID;			// ID

  00085	8b 56 0c	 mov	 edx, DWORD PTR [esi+12]
  00088	89 44 24 44	 mov	 DWORD PTR _req$[esp+596], eax

; 232  : 	req.goods_info[0].item_num		= pReq->lGoodsNum;			// 
; 233  : 	req.goods_info[0].item_amount	= pReq->lTotalYuanbao;		// 

  0008c	89 84 24 38 01
	00 00		 mov	 DWORD PTR _req$[esp+840], eax
  00093	89 94 24 30 01
	00 00		 mov	 DWORD PTR _req$[esp+832], edx
  0009a	8b 56 10	 mov	 edx, DWORD PTR [esi+16]

; 234  : 	req.goods_info[0].serv_id_item	= -1;
; 235  : 	req.goods_info[0].area_id_item	= -1;
; 236  : 	req.goods_info[0].group_id_item = -1;
; 237  : 	req.goods_info[0].discount		= 100;
; 238  : 	funGetNewId(req.order_id);

  0009d	8d 84 24 c3 00
	00 00		 lea	 eax, DWORD PTR _req$[esp+723]
  000a4	89 8c 24 e4 00
	00 00		 mov	 DWORD PTR _req$[esp+756], ecx
  000ab	89 8c 24 e8 00
	00 00		 mov	 DWORD PTR _req$[esp+760], ecx
  000b2	89 8c 24 ec 00
	00 00		 mov	 DWORD PTR _req$[esp+764], ecx
  000b9	89 8c 24 24 01
	00 00		 mov	 DWORD PTR _req$[esp+820], ecx
  000c0	89 8c 24 28 01
	00 00		 mov	 DWORD PTR _req$[esp+824], ecx
  000c7	89 8c 24 2c 01
	00 00		 mov	 DWORD PTR _req$[esp+828], ecx
  000ce	8b 4f 44	 mov	 ecx, DWORD PTR [edi+68]
  000d1	50		 push	 eax
  000d2	89 6c 24 5c	 mov	 DWORD PTR _req$[esp+620], ebp
  000d6	c7 44 24 44 03
	00 00 00	 mov	 DWORD PTR _req$[esp+596], 3
  000de	89 ac 24 08 01
	00 00		 mov	 DWORD PTR _req$[esp+792], ebp
  000e5	89 ac 24 f4 00
	00 00		 mov	 DWORD PTR _req$[esp+772], ebp
  000ec	89 ac 24 20 01
	00 00		 mov	 DWORD PTR _req$[esp+816], ebp
  000f3	89 ac 24 24 01
	00 00		 mov	 DWORD PTR _req$[esp+820], ebp
  000fa	89 94 24 38 01
	00 00		 mov	 DWORD PTR _req$[esp+840], edx
  00101	c7 84 24 40 01
	00 00 64 00 00
	00		 mov	 DWORD PTR _req$[esp+848], 100 ; 00000064H
  0010c	ff d1		 call	 ecx

; 239  : 	strcpy_s(req.context_id, MAX_ORDERID_LEN+1, pReq->szContextID);

  0010e	8d 56 14	 lea	 edx, DWORD PTR [esi+20]
  00111	52		 push	 edx
  00112	8d 84 24 aa 00
	00 00		 lea	 eax, DWORD PTR _req$[esp+698]
  00119	6a 21		 push	 33			; 00000021H
  0011b	50		 push	 eax
  0011c	e8 00 00 00 00	 call	 _strcpy_s

; 240  : 	strcpy_s(req.user_id, MAX_PTID_LEN+1, pReq->szBuyerID);

  00121	8d 4e 35	 lea	 ecx, DWORD PTR [esi+53]
  00124	51		 push	 ecx
  00125	8d 54 24 74	 lea	 edx, DWORD PTR _req$[esp+644]
  00129	6a 21		 push	 33			; 00000021H
  0012b	52		 push	 edx
  0012c	e8 00 00 00 00	 call	 _strcpy_s

; 241  : 	strcpy_s(req.sess_id, MAX_SESSID_LEN+1, pReq->szSessionID);						// session id ID

  00131	8d 46 77	 lea	 eax, DWORD PTR [esi+119]
  00134	50		 push	 eax
  00135	8d 8c 24 a1 00
	00 00		 lea	 ecx, DWORD PTR _req$[esp+689]
  0013c	6a 21		 push	 33			; 00000021H
  0013e	51		 push	 ecx
  0013f	e8 00 00 00 00	 call	 _strcpy_s

; 242  : 	strcpy_s(req.endpoint_ip, IP_ADDRESS_LEN+1, pReq->szBuyerIP);					// IP

  00144	81 c6 98 00 00
	00		 add	 esi, 152		; 00000098H
  0014a	56		 push	 esi
  0014b	8d 94 24 20 01
	00 00		 lea	 edx, DWORD PTR _req$[esp+816]
  00152	6a 10		 push	 16			; 00000010H
  00154	52		 push	 edx
  00155	e8 00 00 00 00	 call	 _strcpy_s

; 243  : 	GetCurrentTimeString(req.call_time, 20);

  0015a	8d 44 24 54	 lea	 eax, DWORD PTR _t$274287[esp+644]
  0015e	83 c4 40	 add	 esp, 64			; 00000040H
  00161	50		 push	 eax
  00162	e8 00 00 00 00	 call	 __time32
  00167	8d 4c 24 18	 lea	 ecx, DWORD PTR _t$274287[esp+584]
  0016b	51		 push	 ecx
  0016c	e8 00 00 00 00	 call	 __localtime32
  00171	8b 10		 mov	 edx, DWORD PTR [eax]
  00173	8b 48 04	 mov	 ecx, DWORD PTR [eax+4]
  00176	52		 push	 edx
  00177	8b 50 08	 mov	 edx, DWORD PTR [eax+8]
  0017a	51		 push	 ecx
  0017b	8b 48 0c	 mov	 ecx, DWORD PTR [eax+12]
  0017e	52		 push	 edx
  0017f	8b 50 10	 mov	 edx, DWORD PTR [eax+16]
  00182	8b 40 14	 mov	 eax, DWORD PTR [eax+20]
  00185	51		 push	 ecx
  00186	03 d5		 add	 edx, ebp
  00188	52		 push	 edx
  00189	05 6c 07 00 00	 add	 eax, 1900		; 0000076cH
  0018e	50		 push	 eax
  0018f	68 00 00 00 00	 push	 OFFSET ??_C@_0BO@NGNOHJIK@?$CF04d?9?$CF02d?9?$CF02d?5?$CF02d?3?$CF02d?3?$CF02d?$AA@
  00194	8d 8c 24 20 01
	00 00		 lea	 ecx, DWORD PTR _req$[esp+816]
  0019b	6a 14		 push	 20			; 00000014H
  0019d	51		 push	 ecx
  0019e	e8 00 00 00 00	 call	 __snprintf

; 244  : 
; 245  : 	int nRet = funSendAccountUnlock(&req);

  001a3	8b 47 54	 mov	 eax, DWORD PTR [edi+84]
  001a6	8d 54 24 60	 lea	 edx, DWORD PTR _req$[esp+624]
  001aa	52		 push	 edx
  001ab	ff d0		 call	 eax
  001ad	8b f0		 mov	 esi, eax
  001af	83 c4 30	 add	 esp, 48			; 00000030H

; 246  : 	if (nRet != 0)

  001b2	3b f3		 cmp	 esi, ebx
  001b4	74 61		 je	 SHORT $LN1@SendAccoun@3

; 247  : 	{
; 248  : 		char strDebug[256] = "";

  001b6	68 ff 00 00 00	 push	 255			; 000000ffH
  001bb	8d 8c 24 39 01
	00 00		 lea	 ecx, DWORD PTR _strDebug$240102[esp+585]
  001c2	53		 push	 ebx
  001c3	51		 push	 ecx
  001c4	88 9c 24 40 01
	00 00		 mov	 BYTE PTR _strDebug$240102[esp+592], bl
  001cb	e8 00 00 00 00	 call	 _memset

; 249  : 		_snprintf(strDebug, 256, "OI:%s, CI:%s, %d : Player %s AccountUnlock!",
; 250  : 			req.order_id, req.context_id, nRet, req.user_id );

  001d0	8d 54 24 60	 lea	 edx, DWORD PTR _req$[esp+624]
  001d4	52		 push	 edx
  001d5	56		 push	 esi
  001d6	8d 84 24 aa 00
	00 00		 lea	 eax, DWORD PTR _req$[esp+698]
  001dd	50		 push	 eax
  001de	8d 8c 24 cf 00
	00 00		 lea	 ecx, DWORD PTR _req$[esp+735]
  001e5	51		 push	 ecx
  001e6	68 00 00 00 00	 push	 OFFSET ??_C@_0DI@DOIHLJAE@OI?3?$CFs?0?5CI?3?$CFs?0?5?$CFd?5?3?5?$LH?$KC?K?MPlayer?5?$CFs@
  001eb	8d 94 24 54 01
	00 00		 lea	 edx, DWORD PTR _strDebug$240102[esp+612]
  001f2	68 00 01 00 00	 push	 256			; 00000100H
  001f7	52		 push	 edx
  001f8	e8 00 00 00 00	 call	 __snprintf

; 251  : 		PutStringToFile("UniBill", strDebug);

  001fd	8d 84 24 5c 01
	00 00		 lea	 eax, DWORD PTR _strDebug$240102[esp+620]
  00204	50		 push	 eax
  00205	68 00 00 00 00	 push	 OFFSET ??_C@_07JPPBBBFB@UniBill?$AA@
  0020a	e8 00 00 00 00	 call	 ?PutStringToFile@@YAXPBD0@Z ; PutStringToFile
  0020f	83 c4 30	 add	 esp, 48			; 00000030H

; 252  : 		return;

  00212	e9 82 00 00 00	 jmp	 $LN63@SendAccoun@3
$LN1@SendAccoun@3:

; 253  : 	}
; 254  : 
; 255  : 	tagBillItem *pBillItem		= new tagBillItem;

  00217	6a 08		 push	 8
  00219	e8 00 00 00 00	 call	 ??2@YAPAXI@Z		; operator new

; 256  : 	pBillItem->eItemType		= BI_UNLOCK;
; 257  : 	pBillItem->pItem			= pCallback;

  0021e	8b 8c 24 50 02
	00 00		 mov	 ecx, DWORD PTR _pCallback$[esp+580]
  00225	8b f0		 mov	 esi, eax

; 258  : 	m_CallerQueue[req.order_id]	= pBillItem;

  00227	8d 84 24 bb 00
	00 00		 lea	 eax, DWORD PTR _req$[esp+715]
  0022e	83 c4 04	 add	 esp, 4
  00231	c7 06 03 00 00
	00		 mov	 DWORD PTR [esi], 3
  00237	89 4e 04	 mov	 DWORD PTR [esi+4], ecx
  0023a	c7 44 24 30 0f
	00 00 00	 mov	 DWORD PTR $T274277[esp+604], 15 ; 0000000fH
  00242	89 5c 24 2c	 mov	 DWORD PTR $T274277[esp+600], ebx
  00246	88 5c 24 1c	 mov	 BYTE PTR $T274277[esp+584], bl
  0024a	8d 50 01	 lea	 edx, DWORD PTR [eax+1]
  0024d	8d 49 00	 npad	 3
$LL73@SendAccoun@3:
  00250	8a 08		 mov	 cl, BYTE PTR [eax]
  00252	83 c0 01	 add	 eax, 1
  00255	3a cb		 cmp	 cl, bl
  00257	75 f7		 jne	 SHORT $LL73@SendAccoun@3
  00259	2b c2		 sub	 eax, edx
  0025b	50		 push	 eax
  0025c	8d 94 24 bb 00
	00 00		 lea	 edx, DWORD PTR _req$[esp+715]
  00263	52		 push	 edx
  00264	8d 4c 24 20	 lea	 ecx, DWORD PTR $T274277[esp+588]
  00268	e8 00 00 00 00	 call	 ?assign@?$basic_string@DU?$char_traits@D@std@@V?$allocator@D@2@@std@@QAEAAV12@PBDI@Z ; std::basic_string<char,std::char_traits<char>,std::allocator<char> >::assign
  0026d	8d 44 24 18	 lea	 eax, DWORD PTR $T274277[esp+580]
  00271	50		 push	 eax
  00272	b9 00 00 00 00	 mov	 ecx, OFFSET ?m_CallerQueue@CBillClient@@0V?$MulTiThMap@V?$basic_string@DU?$char_traits@D@std@@V?$allocator@D@2@@std@@PAUtagBillItem@CBillClient@@@@A ; CBillClient::m_CallerQueue
  00277	89 9c 24 44 02
	00 00		 mov	 DWORD PTR __$EHRec$[esp+592], ebx
  0027e	e8 00 00 00 00	 call	 ??A?$map@V?$basic_string@DU?$char_traits@D@std@@V?$allocator@D@2@@std@@PAUtagBillItem@CBillClient@@U?$less@V?$basic_string@DU?$char_traits@D@std@@V?$allocator@D@2@@std@@@2@V?$allocator@U?$pair@$$CBV?$basic_string@DU?$char_traits@D@std@@V?$allocator@D@2@@std@@PAUtagBillItem@CBillClient@@@std@@@2@@std@@QAEAAPAUtagBillItem@CBillClient@@ABV?$basic_string@DU?$char_traits@D@std@@V?$allocator@D@2@@1@@Z ; std::map<std::basic_string<char,std::char_traits<char>,std::allocator<char> >,CBillClient::tagBillItem *,std::less<std::basic_string<char,std::char_traits<char>,std::allocator<char> > >,std::allocator<std::pair<std::basic_string<char,std::char_traits<char>,std::allocator<char> > const ,CBillClient::tagBillItem *> > >::operator[]
  00283	89 30		 mov	 DWORD PTR [eax], esi
  00285	83 7c 24 30 10	 cmp	 DWORD PTR $T274277[esp+604], 16 ; 00000010H
  0028a	72 0d		 jb	 SHORT $LN63@SendAccoun@3
  0028c	8b 4c 24 1c	 mov	 ecx, DWORD PTR $T274277[esp+584]
  00290	51		 push	 ecx
  00291	e8 00 00 00 00	 call	 ??3@YAXPAX@Z		; operator delete
  00296	83 c4 04	 add	 esp, 4
$LN63@SendAccoun@3:

; 259  : }

  00299	8b 8c 24 38 02
	00 00		 mov	 ecx, DWORD PTR __$EHRec$[esp+580]
  002a0	64 89 0d 00 00
	00 00		 mov	 DWORD PTR fs:0, ecx
  002a7	59		 pop	 ecx
  002a8	5f		 pop	 edi
  002a9	5e		 pop	 esi
  002aa	5d		 pop	 ebp
  002ab	5b		 pop	 ebx
  002ac	8b 8c 24 20 02
	00 00		 mov	 ecx, DWORD PTR __$ArrayPad$[esp+560]
  002b3	33 cc		 xor	 ecx, esp
  002b5	e8 00 00 00 00	 call	 @__security_check_cookie@4
  002ba	81 c4 30 02 00
	00		 add	 esp, 560		; 00000230H
  002c0	c2 08 00	 ret	 8
_TEXT	ENDS
;	COMDAT text$x
text$x	SEGMENT
__unwindfunclet$?SendAccountUnlock@CBillClient@@QAEXPAUtagAccUnlockReq@1@PAVCCallbackAccountProcess@@@Z$0:
  00000	8d 8d d4 fd ff
	ff		 lea	 ecx, DWORD PTR $T274277[ebp]
  00006	e9 00 00 00 00	 jmp	 ??1?$basic_string@DU?$char_traits@D@std@@V?$allocator@D@2@@std@@QAE@XZ ; std::basic_string<char,std::char_traits<char>,std::allocator<char> >::~basic_string<char,std::char_traits<char>,std::allocator<char> >
__ehhandler$?SendAccountUnlock@CBillClient@@QAEXPAUtagAccUnlockReq@1@PAVCCallbackAccountProcess@@@Z:
  0000b	8b 54 24 08	 mov	 edx, DWORD PTR [esp+8]
  0000f	8d 82 cc fd ff
	ff		 lea	 eax, DWORD PTR [edx-564]
  00015	8b 8a c8 fd ff
	ff		 mov	 ecx, DWORD PTR [edx-568]
  0001b	33 c8		 xor	 ecx, eax
  0001d	e8 00 00 00 00	 call	 @__security_check_cookie@4
  00022	83 c0 10	 add	 eax, 16			; 00000010H
  00025	8b 4a fc	 mov	 ecx, DWORD PTR [edx-4]
  00028	33 c8		 xor	 ecx, eax
  0002a	e8 00 00 00 00	 call	 @__security_check_cookie@4
  0002f	b8 00 00 00 00	 mov	 eax, OFFSET __ehfuncinfo$?SendAccountUnlock@CBillClient@@QAEXPAUtagAccUnlockReq@1@PAVCCallbackAccountProcess@@@Z
  00034	e9 00 00 00 00	 jmp	 ___CxxFrameHandler3
text$x	ENDS
?SendAccountUnlock@CBillClient@@QAEXPAUtagAccUnlockReq@1@PAVCCallbackAccountProcess@@@Z ENDP ; CBillClient::SendAccountUnlock
PUBLIC	??_C@_0DK@EPAAPCHA@OI?3?$CFs?0?5CI?3?$CFs?0?5?$CFd?5?3?5?$LH?$KC?K?MPlayer?5?$CFs@ ; `string'
PUBLIC	__$ArrayPad$
PUBLIC	?SendConsignTransfer@CBillClient@@QAEXPAUtagAccUnlockReq@1@PAVCCallbackAccountProcess@@@Z ; CBillClient::SendConsignTransfer
;	COMDAT ??_C@_0DK@EPAAPCHA@OI?3?$CFs?0?5CI?3?$CFs?0?5?$CFd?5?3?5?$LH?$KC?K?MPlayer?5?$CFs@
; File d:\program files\microsoft visual studio 8\vc\include\iosfwd
CONST	SEGMENT
??_C@_0DK@EPAAPCHA@OI?3?$CFs?0?5CI?3?$CFs?0?5?$CFd?5?3?5?$LH?$KC?K?MPlayer?5?$CFs@ DB 'O'
	DB	'I:%s, CI:%s, %d : ', 0b7H, 0a2H, 0cbH, 0cdH, 'Player %s Consi'
	DB	'gnTransfer', 0cfH, 0fbH, 0cfH, 0a2H, 0caH, 0a7H, 0b0H, 0dcH, '!'
	DB	00H						; `string'
CONST	ENDS
;	COMDAT xdata$x
xdata$x	SEGMENT
__unwindtable$?SendConsignTransfer@CBillClient@@QAEXPAUtagAccUnlockReq@1@PAVCCallbackAccountProcess@@@Z DD 0ffffffffH
	DD	FLAT:__unwindfunclet$?SendConsignTransfer@CBillClient@@QAEXPAUtagAccUnlockReq@1@PAVCCallbackAccountProcess@@@Z$0
__ehfuncinfo$?SendConsignTransfer@CBillClient@@QAEXPAUtagAccUnlockReq@1@PAVCCallbackAccountProcess@@@Z DD 019930522H
	DD	01H
	DD	FLAT:__unwindtable$?SendConsignTransfer@CBillClient@@QAEXPAUtagAccUnlockReq@1@PAVCCallbackAccountProcess@@@Z
	DD	2 DUP(00H)
	DD	2 DUP(00H)
	DD	00H
	DD	01H
; Function compile flags: /Ogtpy
; File d:\project_p6\trunk\server\gameserver\server\billclient.cpp
xdata$x	ENDS
;	COMDAT ?SendConsignTransfer@CBillClient@@QAEXPAUtagAccUnlockReq@1@PAVCCallbackAccountProcess@@@Z
_TEXT	SEGMENT
_t$274576 = -608					; size = 4
$T274561 = -604						; size = 28
_req$ = -576						; size = 304
_strDebug$240116 = -272					; size = 256
__$ArrayPad$ = -16					; size = 4
__$EHRec$ = -12						; size = 12
_pReq$ = 8						; size = 4
_pCallback$ = 12					; size = 4
?SendConsignTransfer@CBillClient@@QAEXPAUtagAccUnlockReq@1@PAVCCallbackAccountProcess@@@Z PROC ; CBillClient::SendConsignTransfer, COMDAT
; _this$ = ecx

; 262  : {

  00000	6a ff		 push	 -1
  00002	68 00 00 00 00	 push	 __ehhandler$?SendConsignTransfer@CBillClient@@QAEXPAUtagAccUnlockReq@1@PAVCCallbackAccountProcess@@@Z
  00007	64 a1 00 00 00
	00		 mov	 eax, DWORD PTR fs:0
  0000d	50		 push	 eax
  0000e	81 ec 54 02 00
	00		 sub	 esp, 596		; 00000254H
  00014	a1 00 00 00 00	 mov	 eax, DWORD PTR ___security_cookie
  00019	33 c4		 xor	 eax, esp
  0001b	89 84 24 50 02
	00 00		 mov	 DWORD PTR __$ArrayPad$[esp+608], eax
  00022	53		 push	 ebx
  00023	55		 push	 ebp
  00024	56		 push	 esi
  00025	57		 push	 edi
  00026	a1 00 00 00 00	 mov	 eax, DWORD PTR ___security_cookie
  0002b	33 c4		 xor	 eax, esp
  0002d	50		 push	 eax
  0002e	8d 84 24 68 02
	00 00		 lea	 eax, DWORD PTR __$EHRec$[esp+628]
  00035	64 a3 00 00 00
	00		 mov	 DWORD PTR fs:0, eax
  0003b	8b b4 24 78 02
	00 00		 mov	 esi, DWORD PTR _pReq$[esp+624]

; 263  : 	GSBsipConsignTransferReqDef req = {0};

  00042	68 2c 01 00 00	 push	 300			; 0000012cH
  00047	33 db		 xor	 ebx, ebx
  00049	8d 44 24 3c	 lea	 eax, DWORD PTR _req$[esp+636]
  0004d	53		 push	 ebx
  0004e	50		 push	 eax
  0004f	8b f9		 mov	 edi, ecx
  00051	e8 00 00 00 00	 call	 _memset

; 264  : 
; 265  : 	req.uid_type_dest		= 1;
; 266  : 	req.uid_type_src		= 1;
; 267  : 	req.app_type			= pReq->billType;

  00056	8b 0e		 mov	 ecx, DWORD PTR [esi]

; 268  : 	req.fee_dest			= 0;
; 269  : 	req.fee_src				= 0;
; 270  : 	req.pay_type			= 3;								// 
; 271  : 	req.platform_type		= 1;
; 272  : 	req.endpoint_type		= 1;
; 273  : 	req.serv_id_player_dest = req.serv_id_player_src = -1;
; 274  : 	req.area_id_player_dest = req.area_id_player_src = -1;
; 275  : 	req.group_id_player_dest = req.group_id_player_src = -1;
; 276  : 	req.indication_unlock	= 1;
; 277  : 	req.item_num			= 1;
; 278  : 	req.amount				= pReq->lTotalYuanbao;				// 
; 279  : 	req.goods_info[0].item_id		= pReq->lGoodsID;			// ID

  00058	8b 56 0c	 mov	 edx, DWORD PTR [esi+12]
  0005b	83 c8 ff	 or	 eax, -1
  0005e	bd 01 00 00 00	 mov	 ebp, 1
  00063	89 4c 24 40	 mov	 DWORD PTR _req$[esp+640], ecx
  00067	8b 4e 08	 mov	 ecx, DWORD PTR [esi+8]
  0006a	89 84 24 84 00
	00 00		 mov	 DWORD PTR _req$[esp+708], eax
  00071	89 44 24 44	 mov	 DWORD PTR _req$[esp+644], eax
  00075	89 84 24 88 00
	00 00		 mov	 DWORD PTR _req$[esp+712], eax
  0007c	89 44 24 48	 mov	 DWORD PTR _req$[esp+648], eax
  00080	89 84 24 8c 00
	00 00		 mov	 DWORD PTR _req$[esp+716], eax
  00087	89 44 24 4c	 mov	 DWORD PTR _req$[esp+652], eax

; 280  : 	req.goods_info[0].item_num		= pReq->lGoodsNum;			// 
; 281  : 	req.goods_info[0].item_amount	= pReq->lTotalYuanbao;		// 
; 282  : 	req.goods_info[0].serv_id_item = -1;

  0008b	89 84 24 54 01
	00 00		 mov	 DWORD PTR _req$[esp+916], eax

; 283  : 	req.goods_info[0].area_id_item = -1;

  00092	89 84 24 58 01
	00 00		 mov	 DWORD PTR _req$[esp+920], eax

; 284  : 	req.goods_info[0].group_id_item = -1;

  00099	89 84 24 5c 01
	00 00		 mov	 DWORD PTR _req$[esp+924], eax
  000a0	89 94 24 60 01
	00 00		 mov	 DWORD PTR _req$[esp+928], edx
  000a7	8b 56 10	 mov	 edx, DWORD PTR [esi+16]

; 285  : 	req.goods_info[0].discount = 100;
; 286  : 	funGetNewId(req.order_id);

  000aa	8d 84 24 fe 00
	00 00		 lea	 eax, DWORD PTR _req$[esp+830]
  000b1	89 8c 24 80 00
	00 00		 mov	 DWORD PTR _req$[esp+704], ecx
  000b8	89 8c 24 68 01
	00 00		 mov	 DWORD PTR _req$[esp+936], ecx
  000bf	8b 4f 44	 mov	 ecx, DWORD PTR [edi+68]
  000c2	50		 push	 eax
  000c3	89 6c 24 54	 mov	 DWORD PTR _req$[esp+660], ebp
  000c7	89 ac 24 94 00
	00 00		 mov	 DWORD PTR _req$[esp+724], ebp
  000ce	89 5c 24 7c	 mov	 DWORD PTR _req$[esp+700], ebx
  000d2	89 9c 24 bc 00
	00 00		 mov	 DWORD PTR _req$[esp+764], ebx
  000d9	c7 84 24 80 00
	00 00 03 00 00
	00		 mov	 DWORD PTR _req$[esp+704], 3
  000e4	89 ac 24 38 01
	00 00		 mov	 DWORD PTR _req$[esp+888], ebp
  000eb	89 ac 24 24 01
	00 00		 mov	 DWORD PTR _req$[esp+868], ebp
  000f2	89 ac 24 50 01
	00 00		 mov	 DWORD PTR _req$[esp+912], ebp
  000f9	89 ac 24 54 01
	00 00		 mov	 DWORD PTR _req$[esp+916], ebp
  00100	89 94 24 68 01
	00 00		 mov	 DWORD PTR _req$[esp+936], edx
  00107	c7 84 24 70 01
	00 00 64 00 00
	00		 mov	 DWORD PTR _req$[esp+944], 100 ; 00000064H
  00112	ff d1		 call	 ecx

; 287  : 	strcpy_s(req.context_id, MAX_ORDERID_LEN+1, pReq->szContextID);

  00114	8d 56 14	 lea	 edx, DWORD PTR [esi+20]
  00117	52		 push	 edx
  00118	8d 84 24 e5 00
	00 00		 lea	 eax, DWORD PTR _req$[esp+805]
  0011f	6a 21		 push	 33			; 00000021H
  00121	50		 push	 eax
  00122	e8 00 00 00 00	 call	 _strcpy_s

; 288  : 	strcpy_s(req.sess_id, MAX_SESSID_LEN+1, pReq->szSessionID);						// session id ID

  00127	8d 4e 77	 lea	 ecx, DWORD PTR [esi+119]
  0012a	51		 push	 ecx
  0012b	8d 94 24 d0 00
	00 00		 lea	 edx, DWORD PTR _req$[esp+784]
  00132	6a 21		 push	 33			; 00000021H
  00134	52		 push	 edx
  00135	e8 00 00 00 00	 call	 _strcpy_s

; 289  : 	strcpy_s(req.user_id_src, MAX_PTID_LEN+1, pReq->szBuyerID);

  0013a	8d 46 35	 lea	 eax, DWORD PTR [esi+53]
  0013d	50		 push	 eax
  0013e	8d 8c 24 b4 00
	00 00		 lea	 ecx, DWORD PTR _req$[esp+756]
  00145	6a 21		 push	 33			; 00000021H
  00147	51		 push	 ecx
  00148	e8 00 00 00 00	 call	 _strcpy_s

; 290  : 	strcpy_s(req.user_id_dest, MAX_PTID_LEN+1, pReq->szSellerID);

  0014d	8d 56 56	 lea	 edx, DWORD PTR [esi+86]
  00150	52		 push	 edx
  00151	8d 84 24 80 00
	00 00		 lea	 eax, DWORD PTR _req$[esp+704]
  00158	6a 21		 push	 33			; 00000021H
  0015a	50		 push	 eax
  0015b	e8 00 00 00 00	 call	 _strcpy_s
  00160	83 c4 40	 add	 esp, 64			; 00000040H

; 291  : 	strcpy_s(req.endpoint_ip, IP_ADDRESS_LEN+1, pReq->szBuyerIP);

  00163	81 c6 98 00 00
	00		 add	 esi, 152		; 00000098H
  00169	56		 push	 esi
  0016a	8d 8c 24 1c 01
	00 00		 lea	 ecx, DWORD PTR _req$[esp+860]
  00171	6a 10		 push	 16			; 00000010H
  00173	51		 push	 ecx
  00174	e8 00 00 00 00	 call	 _strcpy_s

; 292  : 	GetCurrentTimeString(req.call_time, 20);

  00179	8d 54 24 20	 lea	 edx, DWORD PTR _t$274576[esp+640]
  0017d	52		 push	 edx
  0017e	e8 00 00 00 00	 call	 __time32
  00183	8d 44 24 24	 lea	 eax, DWORD PTR _t$274576[esp+644]
  00187	50		 push	 eax
  00188	e8 00 00 00 00	 call	 __localtime32
  0018d	8b 08		 mov	 ecx, DWORD PTR [eax]
  0018f	51		 push	 ecx
  00190	8b 50 04	 mov	 edx, DWORD PTR [eax+4]
  00193	8b 48 08	 mov	 ecx, DWORD PTR [eax+8]
  00196	52		 push	 edx
  00197	8b 50 0c	 mov	 edx, DWORD PTR [eax+12]
  0019a	51		 push	 ecx
  0019b	8b 48 10	 mov	 ecx, DWORD PTR [eax+16]
  0019e	52		 push	 edx
  0019f	8b 50 14	 mov	 edx, DWORD PTR [eax+20]
  001a2	03 cd		 add	 ecx, ebp
  001a4	51		 push	 ecx
  001a5	81 c2 6c 07 00
	00		 add	 edx, 1900		; 0000076cH
  001ab	52		 push	 edx
  001ac	68 00 00 00 00	 push	 OFFSET ??_C@_0BO@NGNOHJIK@?$CF04d?9?$CF02d?9?$CF02d?5?$CF02d?3?$CF02d?3?$CF02d?$AA@
  001b1	8d 84 24 5c 01
	00 00		 lea	 eax, DWORD PTR _req$[esp+924]
  001b8	6a 14		 push	 20			; 00000014H
  001ba	50		 push	 eax
  001bb	e8 00 00 00 00	 call	 __snprintf

; 293  : 
; 294  : 	int nRet = funSendConsignTransfer(&req);

  001c0	8b 57 58	 mov	 edx, DWORD PTR [edi+88]
  001c3	8d 4c 24 6c	 lea	 ecx, DWORD PTR _req$[esp+684]
  001c7	51		 push	 ecx
  001c8	ff d2		 call	 edx
  001ca	8b f0		 mov	 esi, eax
  001cc	83 c4 3c	 add	 esp, 60			; 0000003cH

; 295  : 	if (nRet != 0)

  001cf	3b f3		 cmp	 esi, ebx
  001d1	74 64		 je	 SHORT $LN1@SendConsig

; 296  : 	{
; 297  : 		char strDebug[256] = "";

  001d3	68 ff 00 00 00	 push	 255			; 000000ffH
  001d8	8d 84 24 69 01
	00 00		 lea	 eax, DWORD PTR _strDebug$240116[esp+633]
  001df	53		 push	 ebx
  001e0	50		 push	 eax
  001e1	88 9c 24 70 01
	00 00		 mov	 BYTE PTR _strDebug$240116[esp+640], bl
  001e8	e8 00 00 00 00	 call	 _memset

; 298  : 		_snprintf(strDebug, 256, "OI:%s, CI:%s, %d : Player %s ConsignTransfer!",
; 299  : 			req.order_id, req.context_id, nRet, req.user_id_src );

  001ed	8d 8c 24 94 00
	00 00		 lea	 ecx, DWORD PTR _req$[esp+724]
  001f4	51		 push	 ecx
  001f5	56		 push	 esi
  001f6	8d 94 24 e5 00
	00 00		 lea	 edx, DWORD PTR _req$[esp+805]
  001fd	52		 push	 edx
  001fe	8d 84 24 0a 01
	00 00		 lea	 eax, DWORD PTR _req$[esp+842]
  00205	50		 push	 eax
  00206	68 00 00 00 00	 push	 OFFSET ??_C@_0DK@EPAAPCHA@OI?3?$CFs?0?5CI?3?$CFs?0?5?$CFd?5?3?5?$LH?$KC?K?MPlayer?5?$CFs@
  0020b	8d 8c 24 84 01
	00 00		 lea	 ecx, DWORD PTR _strDebug$240116[esp+660]
  00212	68 00 01 00 00	 push	 256			; 00000100H
  00217	51		 push	 ecx
  00218	e8 00 00 00 00	 call	 __snprintf

; 300  : 		PutStringToFile("UniBill", strDebug);

  0021d	8d 94 24 8c 01
	00 00		 lea	 edx, DWORD PTR _strDebug$240116[esp+668]
  00224	52		 push	 edx
  00225	68 00 00 00 00	 push	 OFFSET ??_C@_07JPPBBBFB@UniBill?$AA@
  0022a	e8 00 00 00 00	 call	 ?PutStringToFile@@YAXPBD0@Z ; PutStringToFile
  0022f	83 c4 30	 add	 esp, 48			; 00000030H

; 301  : 		return;

  00232	e9 82 00 00 00	 jmp	 $LN63@SendConsig
$LN1@SendConsig:

; 302  : 	}
; 303  : 
; 304  : 	tagBillItem *pBillItem		= new tagBillItem;

  00237	6a 08		 push	 8
  00239	e8 00 00 00 00	 call	 ??2@YAPAXI@Z		; operator new
  0023e	8b f0		 mov	 esi, eax

; 305  : 	pBillItem->eItemType		= BI_TRANSFER;
; 306  : 	pBillItem->pItem			= pCallback;

  00240	8b 84 24 80 02
	00 00		 mov	 eax, DWORD PTR _pCallback$[esp+628]
  00247	89 46 04	 mov	 DWORD PTR [esi+4], eax

; 307  : 	m_CallerQueue[req.order_id]	= pBillItem;

  0024a	8d 84 24 f6 00
	00 00		 lea	 eax, DWORD PTR _req$[esp+822]
  00251	83 c4 04	 add	 esp, 4
  00254	c7 06 04 00 00
	00		 mov	 DWORD PTR [esi], 4
  0025a	c7 44 24 30 0f
	00 00 00	 mov	 DWORD PTR $T274561[esp+652], 15 ; 0000000fH
  00262	89 5c 24 2c	 mov	 DWORD PTR $T274561[esp+648], ebx
  00266	88 5c 24 1c	 mov	 BYTE PTR $T274561[esp+632], bl
  0026a	8d 50 01	 lea	 edx, DWORD PTR [eax+1]
  0026d	8d 49 00	 npad	 3
$LL73@SendConsig:
  00270	8a 08		 mov	 cl, BYTE PTR [eax]
  00272	83 c0 01	 add	 eax, 1
  00275	3a cb		 cmp	 cl, bl
  00277	75 f7		 jne	 SHORT $LL73@SendConsig
  00279	2b c2		 sub	 eax, edx
  0027b	50		 push	 eax
  0027c	8d 8c 24 f6 00
	00 00		 lea	 ecx, DWORD PTR _req$[esp+822]
  00283	51		 push	 ecx
  00284	8d 4c 24 20	 lea	 ecx, DWORD PTR $T274561[esp+636]
  00288	e8 00 00 00 00	 call	 ?assign@?$basic_string@DU?$char_traits@D@std@@V?$allocator@D@2@@std@@QAEAAV12@PBDI@Z ; std::basic_string<char,std::char_traits<char>,std::allocator<char> >::assign
  0028d	8d 54 24 18	 lea	 edx, DWORD PTR $T274561[esp+628]
  00291	52		 push	 edx
  00292	b9 00 00 00 00	 mov	 ecx, OFFSET ?m_CallerQueue@CBillClient@@0V?$MulTiThMap@V?$basic_string@DU?$char_traits@D@std@@V?$allocator@D@2@@std@@PAUtagBillItem@CBillClient@@@@A ; CBillClient::m_CallerQueue
  00297	89 9c 24 74 02
	00 00		 mov	 DWORD PTR __$EHRec$[esp+640], ebx
  0029e	e8 00 00 00 00	 call	 ??A?$map@V?$basic_string@DU?$char_traits@D@std@@V?$allocator@D@2@@std@@PAUtagBillItem@CBillClient@@U?$less@V?$basic_string@DU?$char_traits@D@std@@V?$allocator@D@2@@std@@@2@V?$allocator@U?$pair@$$CBV?$basic_string@DU?$char_traits@D@std@@V?$allocator@D@2@@std@@PAUtagBillItem@CBillClient@@@std@@@2@@std@@QAEAAPAUtagBillItem@CBillClient@@ABV?$basic_string@DU?$char_traits@D@std@@V?$allocator@D@2@@1@@Z ; std::map<std::basic_string<char,std::char_traits<char>,std::allocator<char> >,CBillClient::tagBillItem *,std::less<std::basic_string<char,std::char_traits<char>,std::allocator<char> > >,std::allocator<std::pair<std::basic_string<char,std::char_traits<char>,std::allocator<char> > const ,CBillClient::tagBillItem *> > >::operator[]
  002a3	89 30		 mov	 DWORD PTR [eax], esi
  002a5	83 7c 24 30 10	 cmp	 DWORD PTR $T274561[esp+652], 16 ; 00000010H
  002aa	72 0d		 jb	 SHORT $LN63@SendConsig
  002ac	8b 44 24 1c	 mov	 eax, DWORD PTR $T274561[esp+632]
  002b0	50		 push	 eax
  002b1	e8 00 00 00 00	 call	 ??3@YAXPAX@Z		; operator delete
  002b6	83 c4 04	 add	 esp, 4
$LN63@SendConsig:

; 308  : }

  002b9	8b 8c 24 68 02
	00 00		 mov	 ecx, DWORD PTR __$EHRec$[esp+628]
  002c0	64 89 0d 00 00
	00 00		 mov	 DWORD PTR fs:0, ecx
  002c7	59		 pop	 ecx
  002c8	5f		 pop	 edi
  002c9	5e		 pop	 esi
  002ca	5d		 pop	 ebp
  002cb	5b		 pop	 ebx
  002cc	8b 8c 24 50 02
	00 00		 mov	 ecx, DWORD PTR __$ArrayPad$[esp+608]
  002d3	33 cc		 xor	 ecx, esp
  002d5	e8 00 00 00 00	 call	 @__security_check_cookie@4
  002da	81 c4 60 02 00
	00		 add	 esp, 608		; 00000260H
  002e0	c2 08 00	 ret	 8
_TEXT	ENDS
;	COMDAT text$x
text$x	SEGMENT
__unwindfunclet$?SendConsignTransfer@CBillClient@@QAEXPAUtagAccUnlockReq@1@PAVCCallbackAccountProcess@@@Z$0:
  00000	8d 8d a4 fd ff
	ff		 lea	 ecx, DWORD PTR $T274561[ebp]
  00006	e9 00 00 00 00	 jmp	 ??1?$basic_string@DU?$char_traits@D@std@@V?$allocator@D@2@@std@@QAE@XZ ; std::basic_string<char,std::char_traits<char>,std::allocator<char> >::~basic_string<char,std::char_traits<char>,std::allocator<char> >
__ehhandler$?SendConsignTransfer@CBillClient@@QAEXPAUtagAccUnlockReq@1@PAVCCallbackAccountProcess@@@Z:
  0000b	8b 54 24 08	 mov	 edx, DWORD PTR [esp+8]
  0000f	8d 82 9c fd ff
	ff		 lea	 eax, DWORD PTR [edx-612]
  00015	8b 8a 98 fd ff
	ff		 mov	 ecx, DWORD PTR [edx-616]
  0001b	33 c8		 xor	 ecx, eax
  0001d	e8 00 00 00 00	 call	 @__security_check_cookie@4
  00022	83 c0 10	 add	 eax, 16			; 00000010H
  00025	8b 4a fc	 mov	 ecx, DWORD PTR [edx-4]
  00028	33 c8		 xor	 ecx, eax
  0002a	e8 00 00 00 00	 call	 @__security_check_cookie@4
  0002f	b8 00 00 00 00	 mov	 eax, OFFSET __ehfuncinfo$?SendConsignTransfer@CBillClient@@QAEXPAUtagAccUnlockReq@1@PAVCCallbackAccountProcess@@@Z
  00034	e9 00 00 00 00	 jmp	 ___CxxFrameHandler3
text$x	ENDS
?SendConsignTransfer@CBillClient@@QAEXPAUtagAccUnlockReq@1@PAVCCallbackAccountProcess@@@Z ENDP ; CBillClient::SendConsignTransfer
PUBLIC	??_C@_0DG@FKBFMJMB@OI?3?$CFs?0?5CI?3?$CFs?0?5?$CFd?5?3?5?$LH?$KC?K?MPlayer?5?$CFs@ ; `string'
PUBLIC	__$ArrayPad$
PUBLIC	?SendAwardAuthen@CBillClient@@QAEXPAUtagAwdAuthenReq@1@PAVCCallbackAwardAuthen@@@Z ; CBillClient::SendAwardAuthen
;	COMDAT ??_C@_0DG@FKBFMJMB@OI?3?$CFs?0?5CI?3?$CFs?0?5?$CFd?5?3?5?$LH?$KC?K?MPlayer?5?$CFs@
; File d:\program files\microsoft visual studio 8\vc\include\iosfwd
CONST	SEGMENT
??_C@_0DG@FKBFMJMB@OI?3?$CFs?0?5CI?3?$CFs?0?5?$CFd?5?3?5?$LH?$KC?K?MPlayer?5?$CFs@ DB 'O'
	DB	'I:%s, CI:%s, %d : ', 0b7H, 0a2H, 0cbH, 0cdH, 'Player %s Award'
	DB	'Authen', 0cfH, 0fbH, 0cfH, 0a2H, 0caH, 0a7H, 0b0H, 0dcH, '!', 00H ; `string'
CONST	ENDS
;	COMDAT xdata$x
xdata$x	SEGMENT
__unwindtable$?SendAwardAuthen@CBillClient@@QAEXPAUtagAwdAuthenReq@1@PAVCCallbackAwardAuthen@@@Z DD 0ffffffffH
	DD	FLAT:__unwindfunclet$?SendAwardAuthen@CBillClient@@QAEXPAUtagAwdAuthenReq@1@PAVCCallbackAwardAuthen@@@Z$0
__ehfuncinfo$?SendAwardAuthen@CBillClient@@QAEXPAUtagAwdAuthenReq@1@PAVCCallbackAwardAuthen@@@Z DD 019930522H
	DD	01H
	DD	FLAT:__unwindtable$?SendAwardAuthen@CBillClient@@QAEXPAUtagAwdAuthenReq@1@PAVCCallbackAwardAuthen@@@Z
	DD	2 DUP(00H)
	DD	2 DUP(00H)
	DD	00H
	DD	01H
; Function compile flags: /Ogtpy
; File d:\project_p6\trunk\server\gameserver\server\billclient.cpp
xdata$x	ENDS
;	COMDAT ?SendAwardAuthen@CBillClient@@QAEXPAUtagAwdAuthenReq@1@PAVCCallbackAwardAuthen@@@Z
_TEXT	SEGMENT
_t$274860 = -724					; size = 4
$T274845 = -720						; size = 28
_req$ = -692						; size = 420
_strDebug$240130 = -272					; size = 256
__$ArrayPad$ = -16					; size = 4
__$EHRec$ = -12						; size = 12
_pReq$ = 8						; size = 4
_pCallback$ = 12					; size = 4
?SendAwardAuthen@CBillClient@@QAEXPAUtagAwdAuthenReq@1@PAVCCallbackAwardAuthen@@@Z PROC ; CBillClient::SendAwardAuthen, COMDAT
; _this$ = ecx

; 311  : {

  00000	6a ff		 push	 -1
  00002	68 00 00 00 00	 push	 __ehhandler$?SendAwardAuthen@CBillClient@@QAEXPAUtagAwdAuthenReq@1@PAVCCallbackAwardAuthen@@@Z
  00007	64 a1 00 00 00
	00		 mov	 eax, DWORD PTR fs:0
  0000d	50		 push	 eax
  0000e	81 ec c8 02 00
	00		 sub	 esp, 712		; 000002c8H
  00014	a1 00 00 00 00	 mov	 eax, DWORD PTR ___security_cookie
  00019	33 c4		 xor	 eax, esp
  0001b	89 84 24 c4 02
	00 00		 mov	 DWORD PTR __$ArrayPad$[esp+724], eax
  00022	53		 push	 ebx
  00023	55		 push	 ebp
  00024	56		 push	 esi
  00025	57		 push	 edi
  00026	a1 00 00 00 00	 mov	 eax, DWORD PTR ___security_cookie
  0002b	33 c4		 xor	 eax, esp
  0002d	50		 push	 eax
  0002e	8d 84 24 dc 02
	00 00		 lea	 eax, DWORD PTR __$EHRec$[esp+744]
  00035	64 a3 00 00 00
	00		 mov	 DWORD PTR fs:0, eax
  0003b	8b b4 24 ec 02
	00 00		 mov	 esi, DWORD PTR _pReq$[esp+740]

; 312  : 	GSBsipAwardAuthenReqDef req = {0};

  00042	68 a0 01 00 00	 push	 416			; 000001a0H
  00047	33 db		 xor	 ebx, ebx
  00049	8d 44 24 3c	 lea	 eax, DWORD PTR _req$[esp+752]
  0004d	53		 push	 ebx
  0004e	50		 push	 eax
  0004f	8b f9		 mov	 edi, ecx
  00051	e8 00 00 00 00	 call	 _memset

; 313  : 
; 314  : 	req.user_type			= 1;
; 315  : 	req.uid_type			= 1;								// PT
; 316  : 	req.award_type			= pReq->billType;					// award_patchid

  00056	8b 0e		 mov	 ecx, DWORD PTR [esi]

; 317  : 	req.couple_type			= 2;
; 318  : 	req.platform_type		= 1;
; 319  : 	req.endpoint_type		= 1;
; 320  : 	req.serv_id_player		= -1;

  00058	83 c8 ff	 or	 eax, -1
  0005b	bd 01 00 00 00	 mov	 ebp, 1

; 321  : 	req.area_id_player		= -1;
; 322  : 	req.group_id_player		= -1;
; 323  : 	req.current_level		= 0;
; 324  : 	req.award_level			= 0;								// 
; 325  : 	funGetNewId(req.context_id);

  00060	8d 94 24 92 00
	00 00		 lea	 edx, DWORD PTR _req$[esp+838]
  00067	89 84 24 00 01
	00 00		 mov	 DWORD PTR _req$[esp+948], eax
  0006e	89 84 24 04 01
	00 00		 mov	 DWORD PTR _req$[esp+952], eax
  00075	89 84 24 08 01
	00 00		 mov	 DWORD PTR _req$[esp+956], eax
  0007c	8b 47 44	 mov	 eax, DWORD PTR [edi+68]
  0007f	52		 push	 edx
  00080	89 6c 24 44	 mov	 DWORD PTR _req$[esp+760], ebp
  00084	89 6c 24 50	 mov	 DWORD PTR _req$[esp+772], ebp
  00088	89 4c 24 4c	 mov	 DWORD PTR _req$[esp+768], ecx
  0008c	c7 44 24 48 02
	00 00 00	 mov	 DWORD PTR _req$[esp+764], 2
  00094	89 ac 24 24 01
	00 00		 mov	 DWORD PTR _req$[esp+984], ebp
  0009b	89 ac 24 10 01
	00 00		 mov	 DWORD PTR _req$[esp+964], ebp
  000a2	89 9c 24 60 01
	00 00		 mov	 DWORD PTR _req$[esp+1044], ebx
  000a9	89 9c 24 64 01
	00 00		 mov	 DWORD PTR _req$[esp+1048], ebx
  000b0	ff d0		 call	 eax

; 326  : 	funGetNewId(req.order_id);

  000b2	8b 57 44	 mov	 edx, DWORD PTR [edi+68]
  000b5	8d 8c 24 b7 00
	00 00		 lea	 ecx, DWORD PTR _req$[esp+875]
  000bc	51		 push	 ecx
  000bd	ff d2		 call	 edx

; 327  : 	strcpy_s(req.sess_id, MAX_SESSID_LEN+1, pReq->szSessionID);

  000bf	8d 46 46	 lea	 eax, DWORD PTR [esi+70]
  000c2	50		 push	 eax
  000c3	8d 4c 24 7d	 lea	 ecx, DWORD PTR _req$[esp+817]
  000c7	6a 21		 push	 33			; 00000021H
  000c9	51		 push	 ecx
  000ca	e8 00 00 00 00	 call	 _strcpy_s

; 328  : 	strcpy_s(req.user_id, MAX_PTID_LEN+1, pReq->szPlayerID);

  000cf	8d 56 04	 lea	 edx, DWORD PTR [esi+4]
  000d2	52		 push	 edx
  000d3	8d 44 24 68	 lea	 eax, DWORD PTR _req$[esp+796]
  000d7	6a 21		 push	 33			; 00000021H
  000d9	50		 push	 eax
  000da	e8 00 00 00 00	 call	 _strcpy_s

; 329  : 	strcpy_s(req.endpoint_ip, IP_ADDRESS_LEN+1, pReq->szPlayerIP);					// IP

  000df	8d 4e 67	 lea	 ecx, DWORD PTR [esi+103]
  000e2	51		 push	 ecx
  000e3	8d 94 24 34 01
	00 00		 lea	 edx, DWORD PTR _req$[esp+1000]
  000ea	6a 10		 push	 16			; 00000010H
  000ec	52		 push	 edx
  000ed	e8 00 00 00 00	 call	 _strcpy_s

; 330  : 	strcpy_s(req.role_name, 32+1, pReq->szPlayerName);					// 

  000f2	8d 46 25	 lea	 eax, DWORD PTR [esi+37]
  000f5	50		 push	 eax
  000f6	8d 8c 24 68 01
	00 00		 lea	 ecx, DWORD PTR _req$[esp+1052]
  000fd	6a 21		 push	 33			; 00000021H
  000ff	51		 push	 ecx
  00100	e8 00 00 00 00	 call	 _strcpy_s
  00105	83 c4 44	 add	 esp, 68			; 00000044H

; 331  : 	strcpy_s(req.award_patchid, MAX_AWARDPATCH_LEN+1, pReq->szAwardPatchID);			// 

  00108	8d 56 77	 lea	 edx, DWORD PTR [esi+119]
  0010b	52		 push	 edx
  0010c	8d 84 24 eb 00
	00 00		 lea	 eax, DWORD PTR _req$[esp+927]
  00113	6a 0b		 push	 11			; 0000000bH
  00115	50		 push	 eax
  00116	e8 00 00 00 00	 call	 _strcpy_s

; 332  : 	strcpy_s(req.award_num, MAX_AWARD_LEN+1, pReq->szAwardNum);					// 

  0011b	81 c6 82 00 00
	00		 add	 esi, 130		; 00000082H
  00121	56		 push	 esi
  00122	8d 8c 24 d8 00
	00 00		 lea	 ecx, DWORD PTR _req$[esp+908]
  00129	6a 1f		 push	 31			; 0000001fH
  0012b	51		 push	 ecx
  0012c	e8 00 00 00 00	 call	 _strcpy_s

; 333  : 	GetCurrentTimeString(req.call_time, 20);

  00131	8d 54 24 2c	 lea	 edx, DWORD PTR _t$274860[esp+768]
  00135	52		 push	 edx
  00136	e8 00 00 00 00	 call	 __time32
  0013b	8d 44 24 30	 lea	 eax, DWORD PTR _t$274860[esp+772]
  0013f	50		 push	 eax
  00140	e8 00 00 00 00	 call	 __localtime32
  00145	8b 08		 mov	 ecx, DWORD PTR [eax]
  00147	8b 50 04	 mov	 edx, DWORD PTR [eax+4]
  0014a	51		 push	 ecx
  0014b	8b 48 08	 mov	 ecx, DWORD PTR [eax+8]
  0014e	52		 push	 edx
  0014f	8b 50 0c	 mov	 edx, DWORD PTR [eax+12]
  00152	51		 push	 ecx
  00153	52		 push	 edx
  00154	8b 48 10	 mov	 ecx, DWORD PTR [eax+16]
  00157	8b 50 14	 mov	 edx, DWORD PTR [eax+20]
  0015a	03 cd		 add	 ecx, ebp
  0015c	51		 push	 ecx
  0015d	81 c2 6c 07 00
	00		 add	 edx, 1900		; 0000076cH
  00163	52		 push	 edx
  00164	68 00 00 00 00	 push	 OFFSET ??_C@_0BO@NGNOHJIK@?$CF04d?9?$CF02d?9?$CF02d?5?$CF02d?3?$CF02d?3?$CF02d?$AA@
  00169	8d 84 24 54 01
	00 00		 lea	 eax, DWORD PTR _req$[esp+1032]
  00170	6a 14		 push	 20			; 00000014H
  00172	50		 push	 eax
  00173	e8 00 00 00 00	 call	 __snprintf

; 334  : 
; 335  : 	int nRet = funSendAwardAuthen(&req);

  00178	8b 57 5c	 mov	 edx, DWORD PTR [edi+92]
  0017b	8d 4c 24 78	 lea	 ecx, DWORD PTR _req$[esp+812]
  0017f	83 c4 44	 add	 esp, 68			; 00000044H
  00182	51		 push	 ecx
  00183	ff d2		 call	 edx
  00185	8b f0		 mov	 esi, eax
  00187	83 c4 04	 add	 esp, 4

; 336  : 	if (nRet != 0)

  0018a	3b f3		 cmp	 esi, ebx
  0018c	74 5e		 je	 SHORT $LN1@SendAwardA

; 337  : 	{
; 338  : 		char strDebug[256] = "";

  0018e	68 ff 00 00 00	 push	 255			; 000000ffH
  00193	8d 84 24 dd 01
	00 00		 lea	 eax, DWORD PTR _strDebug$240130[esp+749]
  0019a	53		 push	 ebx
  0019b	50		 push	 eax
  0019c	88 9c 24 e4 01
	00 00		 mov	 BYTE PTR _strDebug$240130[esp+756], bl
  001a3	e8 00 00 00 00	 call	 _memset

; 339  : 		_snprintf(strDebug, 256, "OI:%s, CI:%s, %d : Player %s AwardAuthen!",
; 340  : 			req.order_id, req.context_id, nRet, req.user_id );

  001a8	8d 4c 24 50	 lea	 ecx, DWORD PTR _req$[esp+772]
  001ac	51		 push	 ecx
  001ad	56		 push	 esi
  001ae	8d 94 24 9a 00
	00 00		 lea	 edx, DWORD PTR _req$[esp+846]
  001b5	52		 push	 edx
  001b6	8d 84 24 bf 00
	00 00		 lea	 eax, DWORD PTR _req$[esp+883]
  001bd	50		 push	 eax
  001be	68 00 00 00 00	 push	 OFFSET ??_C@_0DG@FKBFMJMB@OI?3?$CFs?0?5CI?3?$CFs?0?5?$CFd?5?3?5?$LH?$KC?K?MPlayer?5?$CFs@
  001c3	8d 8c 24 f8 01
	00 00		 lea	 ecx, DWORD PTR _strDebug$240130[esp+776]
  001ca	68 00 01 00 00	 push	 256			; 00000100H
  001cf	51		 push	 ecx
  001d0	e8 00 00 00 00	 call	 __snprintf

; 341  : 		PutStringToFile("UniBill", strDebug);

  001d5	8d 94 24 00 02
	00 00		 lea	 edx, DWORD PTR _strDebug$240130[esp+784]
  001dc	52		 push	 edx
  001dd	68 00 00 00 00	 push	 OFFSET ??_C@_07JPPBBBFB@UniBill?$AA@
  001e2	e8 00 00 00 00	 call	 ?PutStringToFile@@YAXPBD0@Z ; PutStringToFile
  001e7	83 c4 30	 add	 esp, 48			; 00000030H

; 342  : 		return;

  001ea	eb 7f		 jmp	 SHORT $LN63@SendAwardA
$LN1@SendAwardA:

; 343  : 	}
; 344  : 
; 345  : 	tagBillItem *pBillItem		= new tagBillItem;

  001ec	6a 08		 push	 8
  001ee	e8 00 00 00 00	 call	 ??2@YAPAXI@Z		; operator new
  001f3	8b f0		 mov	 esi, eax

; 346  : 	pBillItem->eItemType		= BI_AWARDAUTHEN;
; 347  : 	pBillItem->pItem			= pCallback;

  001f5	8b 84 24 f4 02
	00 00		 mov	 eax, DWORD PTR _pCallback$[esp+744]
  001fc	89 46 04	 mov	 DWORD PTR [esi+4], eax

; 348  : 	m_CallerQueue[req.order_id]	= pBillItem;

  001ff	8d 84 24 ab 00
	00 00		 lea	 eax, DWORD PTR _req$[esp+863]
  00206	83 c4 04	 add	 esp, 4
  00209	c7 06 05 00 00
	00		 mov	 DWORD PTR [esi], 5
  0020f	c7 44 24 30 0f
	00 00 00	 mov	 DWORD PTR $T274845[esp+768], 15 ; 0000000fH
  00217	89 5c 24 2c	 mov	 DWORD PTR $T274845[esp+764], ebx
  0021b	88 5c 24 1c	 mov	 BYTE PTR $T274845[esp+748], bl
  0021f	8d 50 01	 lea	 edx, DWORD PTR [eax+1]
$LL73@SendAwardA:
  00222	8a 08		 mov	 cl, BYTE PTR [eax]
  00224	83 c0 01	 add	 eax, 1
  00227	3a cb		 cmp	 cl, bl
  00229	75 f7		 jne	 SHORT $LL73@SendAwardA
  0022b	2b c2		 sub	 eax, edx
  0022d	50		 push	 eax
  0022e	8d 8c 24 ab 00
	00 00		 lea	 ecx, DWORD PTR _req$[esp+863]
  00235	51		 push	 ecx
  00236	8d 4c 24 20	 lea	 ecx, DWORD PTR $T274845[esp+752]
  0023a	e8 00 00 00 00	 call	 ?assign@?$basic_string@DU?$char_traits@D@std@@V?$allocator@D@2@@std@@QAEAAV12@PBDI@Z ; std::basic_string<char,std::char_traits<char>,std::allocator<char> >::assign
  0023f	8d 54 24 18	 lea	 edx, DWORD PTR $T274845[esp+744]
  00243	52		 push	 edx
  00244	b9 00 00 00 00	 mov	 ecx, OFFSET ?m_CallerQueue@CBillClient@@0V?$MulTiThMap@V?$basic_string@DU?$char_traits@D@std@@V?$allocator@D@2@@std@@PAUtagBillItem@CBillClient@@@@A ; CBillClient::m_CallerQueue
  00249	89 9c 24 e8 02
	00 00		 mov	 DWORD PTR __$EHRec$[esp+756], ebx
  00250	e8 00 00 00 00	 call	 ??A?$map@V?$basic_string@DU?$char_traits@D@std@@V?$allocator@D@2@@std@@PAUtagBillItem@CBillClient@@U?$less@V?$basic_string@DU?$char_traits@D@std@@V?$allocator@D@2@@std@@@2@V?$allocator@U?$pair@$$CBV?$basic_string@DU?$char_traits@D@std@@V?$allocator@D@2@@std@@PAUtagBillItem@CBillClient@@@std@@@2@@std@@QAEAAPAUtagBillItem@CBillClient@@ABV?$basic_string@DU?$char_traits@D@std@@V?$allocator@D@2@@1@@Z ; std::map<std::basic_string<char,std::char_traits<char>,std::allocator<char> >,CBillClient::tagBillItem *,std::less<std::basic_string<char,std::char_traits<char>,std::allocator<char> > >,std::allocator<std::pair<std::basic_string<char,std::char_traits<char>,std::allocator<char> > const ,CBillClient::tagBillItem *> > >::operator[]
  00255	89 30		 mov	 DWORD PTR [eax], esi
  00257	83 7c 24 30 10	 cmp	 DWORD PTR $T274845[esp+768], 16 ; 00000010H
  0025c	72 0d		 jb	 SHORT $LN63@SendAwardA
  0025e	8b 44 24 1c	 mov	 eax, DWORD PTR $T274845[esp+748]
  00262	50		 push	 eax
  00263	e8 00 00 00 00	 call	 ??3@YAXPAX@Z		; operator delete
  00268	83 c4 04	 add	 esp, 4
$LN63@SendAwardA:

; 349  : }

  0026b	8b 8c 24 dc 02
	00 00		 mov	 ecx, DWORD PTR __$EHRec$[esp+744]
  00272	64 89 0d 00 00
	00 00		 mov	 DWORD PTR fs:0, ecx
  00279	59		 pop	 ecx
  0027a	5f		 pop	 edi
  0027b	5e		 pop	 esi
  0027c	5d		 pop	 ebp
  0027d	5b		 pop	 ebx
  0027e	8b 8c 24 c4 02
	00 00		 mov	 ecx, DWORD PTR __$ArrayPad$[esp+724]
  00285	33 cc		 xor	 ecx, esp
  00287	e8 00 00 00 00	 call	 @__security_check_cookie@4
  0028c	81 c4 d4 02 00
	00		 add	 esp, 724		; 000002d4H
  00292	c2 08 00	 ret	 8
_TEXT	ENDS
;	COMDAT text$x
text$x	SEGMENT
__unwindfunclet$?SendAwardAuthen@CBillClient@@QAEXPAUtagAwdAuthenReq@1@PAVCCallbackAwardAuthen@@@Z$0:
  00000	8d 8d 30 fd ff
	ff		 lea	 ecx, DWORD PTR $T274845[ebp]
  00006	e9 00 00 00 00	 jmp	 ??1?$basic_string@DU?$char_traits@D@std@@V?$allocator@D@2@@std@@QAE@XZ ; std::basic_string<char,std::char_traits<char>,std::allocator<char> >::~basic_string<char,std::char_traits<char>,std::allocator<char> >
__ehhandler$?SendAwardAuthen@CBillClient@@QAEXPAUtagAwdAuthenReq@1@PAVCCallbackAwardAuthen@@@Z:
  0000b	8b 54 24 08	 mov	 edx, DWORD PTR [esp+8]
  0000f	8d 82 28 fd ff
	ff		 lea	 eax, DWORD PTR [edx-728]
  00015	8b 8a 24 fd ff
	ff		 mov	 ecx, DWORD PTR [edx-732]
  0001b	33 c8		 xor	 ecx, eax
  0001d	e8 00 00 00 00	 call	 @__security_check_cookie@4
  00022	83 c0 10	 add	 eax, 16			; 00000010H
  00025	8b 4a fc	 mov	 ecx, DWORD PTR [edx-4]
  00028	33 c8		 xor	 ecx, eax
  0002a	e8 00 00 00 00	 call	 @__security_check_cookie@4
  0002f	b8 00 00 00 00	 mov	 eax, OFFSET __ehfuncinfo$?SendAwardAuthen@CBillClient@@QAEXPAUtagAwdAuthenReq@1@PAVCCallbackAwardAuthen@@@Z
  00034	e9 00 00 00 00	 jmp	 ___CxxFrameHandler3
text$x	ENDS
?SendAwardAuthen@CBillClient@@QAEXPAUtagAwdAuthenReq@1@PAVCCallbackAwardAuthen@@@Z ENDP ; CBillClient::SendAwardAuthen
PUBLIC	??_C@_0DD@JFMKDAFJ@OI?3?$CFs?0?5CI?3?$CFs?0?5?$CFd?5?3?5?$LH?$KC?K?MPlayer?5?$CFs@ ; `string'
PUBLIC	__$ArrayPad$
PUBLIC	?SendAwardAck@CBillClient@@QAEXPAUtagAwdAckReq@1@PAVCCallbackAwardAck@@@Z ; CBillClient::SendAwardAck
;	COMDAT ??_C@_0DD@JFMKDAFJ@OI?3?$CFs?0?5CI?3?$CFs?0?5?$CFd?5?3?5?$LH?$KC?K?MPlayer?5?$CFs@
; File d:\program files\microsoft visual studio 8\vc\include\iosfwd
CONST	SEGMENT
??_C@_0DD@JFMKDAFJ@OI?3?$CFs?0?5CI?3?$CFs?0?5?$CFd?5?3?5?$LH?$KC?K?MPlayer?5?$CFs@ DB 'O'
	DB	'I:%s, CI:%s, %d : ', 0b7H, 0a2H, 0cbH, 0cdH, 'Player %s Award'
	DB	'Ack', 0cfH, 0fbH, 0cfH, 0a2H, 0caH, 0a7H, 0b0H, 0dcH, '!', 00H ; `string'
CONST	ENDS
;	COMDAT xdata$x
xdata$x	SEGMENT
__unwindtable$?SendAwardAck@CBillClient@@QAEXPAUtagAwdAckReq@1@PAVCCallbackAwardAck@@@Z DD 0ffffffffH
	DD	FLAT:__unwindfunclet$?SendAwardAck@CBillClient@@QAEXPAUtagAwdAckReq@1@PAVCCallbackAwardAck@@@Z$0
__ehfuncinfo$?SendAwardAck@CBillClient@@QAEXPAUtagAwdAckReq@1@PAVCCallbackAwardAck@@@Z DD 019930522H
	DD	01H
	DD	FLAT:__unwindtable$?SendAwardAck@CBillClient@@QAEXPAUtagAwdAckReq@1@PAVCCallbackAwardAck@@@Z
	DD	2 DUP(00H)
	DD	2 DUP(00H)
	DD	00H
	DD	01H
; Function compile flags: /Ogtpy
; File d:\project_p6\trunk\server\gameserver\server\billclient.cpp
xdata$x	ENDS
;	COMDAT ?SendAwardAck@CBillClient@@QAEXPAUtagAwdAckReq@1@PAVCCallbackAwardAck@@@Z
_TEXT	SEGMENT
_t$275154 = -556					; size = 4
_t$275139 = -556					; size = 4
$T275129 = -552						; size = 28
_req$ = -524						; size = 252
_strDebug$240144 = -272					; size = 256
__$ArrayPad$ = -16					; size = 4
__$EHRec$ = -12						; size = 12
_pReq$ = 8						; size = 4
_pCallback$ = 12					; size = 4
?SendAwardAck@CBillClient@@QAEXPAUtagAwdAckReq@1@PAVCCallbackAwardAck@@@Z PROC ; CBillClient::SendAwardAck, COMDAT
; _this$ = ecx

; 352  : {

  00000	6a ff		 push	 -1
  00002	68 00 00 00 00	 push	 __ehhandler$?SendAwardAck@CBillClient@@QAEXPAUtagAwdAckReq@1@PAVCCallbackAwardAck@@@Z
  00007	64 a1 00 00 00
	00		 mov	 eax, DWORD PTR fs:0
  0000d	50		 push	 eax
  0000e	81 ec 20 02 00
	00		 sub	 esp, 544		; 00000220H
  00014	a1 00 00 00 00	 mov	 eax, DWORD PTR ___security_cookie
  00019	33 c4		 xor	 eax, esp
  0001b	89 84 24 1c 02
	00 00		 mov	 DWORD PTR __$ArrayPad$[esp+556], eax
  00022	53		 push	 ebx
  00023	56		 push	 esi
  00024	57		 push	 edi
  00025	a1 00 00 00 00	 mov	 eax, DWORD PTR ___security_cookie
  0002a	33 c4		 xor	 eax, esp
  0002c	50		 push	 eax
  0002d	8d 84 24 30 02
	00 00		 lea	 eax, DWORD PTR __$EHRec$[esp+572]
  00034	64 a3 00 00 00
	00		 mov	 DWORD PTR fs:0, eax
  0003a	8b b4 24 40 02
	00 00		 mov	 esi, DWORD PTR _pReq$[esp+568]

; 353  : 	GSBsipAwardAckDef req = {0};

  00041	68 f8 00 00 00	 push	 248			; 000000f8H
  00046	33 db		 xor	 ebx, ebx
  00048	8d 44 24 38	 lea	 eax, DWORD PTR _req$[esp+580]
  0004c	53		 push	 ebx
  0004d	50		 push	 eax
  0004e	8b f9		 mov	 edi, ecx
  00050	e8 00 00 00 00	 call	 _memset

; 354  : 
; 355  : 	req.confirm				= pReq->bConfirm ? 1 : 2;

  00055	8a 4e 04	 mov	 cl, BYTE PTR [esi+4]

; 356  : 	req.uid_type			= 1;								// PT
; 357  : 	req.award_type			= pReq->billType;

  00058	8b 16		 mov	 edx, DWORD PTR [esi]
  0005a	f6 d9		 neg	 cl
  0005c	c7 44 24 44 01
	00 00 00	 mov	 DWORD PTR _req$[esp+592], 1
  00064	89 54 24 40	 mov	 DWORD PTR _req$[esp+588], edx

; 358  : 	req.platform_type		= 1;

  00068	c7 84 24 20 01
	00 00 01 00 00
	00		 mov	 DWORD PTR _req$[esp+812], 1

; 359  : 	req.endpoint_type		= 1;

  00073	c7 84 24 0c 01
	00 00 01 00 00
	00		 mov	 DWORD PTR _req$[esp+792], 1
  0007e	1b c9		 sbb	 ecx, ecx

; 360  : 	req.serv_id_player		= -1;

  00080	83 c8 ff	 or	 eax, -1
  00083	83 c1 02	 add	 ecx, 2
  00086	89 84 24 00 01
	00 00		 mov	 DWORD PTR _req$[esp+780], eax

; 361  : 	req.area_id_player		= -1;

  0008d	89 84 24 04 01
	00 00		 mov	 DWORD PTR _req$[esp+784], eax

; 362  : 	req.group_id_player		= -1;

  00094	89 84 24 08 01
	00 00		 mov	 DWORD PTR _req$[esp+788], eax

; 363  : 	funGetNewId(req.order_id);

  0009b	8d 84 24 ab 00
	00 00		 lea	 eax, DWORD PTR _req$[esp+695]
  000a2	89 4c 24 3c	 mov	 DWORD PTR _req$[esp+584], ecx
  000a6	8b 4f 44	 mov	 ecx, DWORD PTR [edi+68]
  000a9	50		 push	 eax
  000aa	ff d1		 call	 ecx

; 364  : 	strcpy_s(req.context_id, MAX_ORDERID_LEN+1, pReq->szContextID);

  000ac	8d 56 05	 lea	 edx, DWORD PTR [esi+5]
  000af	52		 push	 edx
  000b0	8d 84 24 92 00
	00 00		 lea	 eax, DWORD PTR _req$[esp+670]
  000b7	6a 21		 push	 33			; 00000021H
  000b9	50		 push	 eax
  000ba	e8 00 00 00 00	 call	 _strcpy_s

; 365  : 	strcpy_s(req.sess_id, MAX_SESSID_LEN+1, pReq->szSessionID);

  000bf	8d 4e 47	 lea	 ecx, DWORD PTR [esi+71]
  000c2	51		 push	 ecx
  000c3	8d 54 24 7d	 lea	 edx, DWORD PTR _req$[esp+649]
  000c7	6a 21		 push	 33			; 00000021H
  000c9	52		 push	 edx
  000ca	e8 00 00 00 00	 call	 _strcpy_s

; 366  : 	strcpy_s(req.user_id, MAX_PTID_LEN+1, pReq->szPlayerID);

  000cf	8d 46 26	 lea	 eax, DWORD PTR [esi+38]
  000d2	50		 push	 eax
  000d3	8d 4c 24 68	 lea	 ecx, DWORD PTR _req$[esp+628]
  000d7	6a 21		 push	 33			; 00000021H
  000d9	51		 push	 ecx
  000da	e8 00 00 00 00	 call	 _strcpy_s

; 367  : 	strcpy_s(req.endpoint_ip, IP_ADDRESS_LEN+1, pReq->szPlayerIP);					// IP

  000df	8d 56 68	 lea	 edx, DWORD PTR [esi+104]
  000e2	52		 push	 edx
  000e3	8d 84 24 3c 01
	00 00		 lea	 eax, DWORD PTR _req$[esp+840]
  000ea	6a 10		 push	 16			; 00000010H
  000ec	50		 push	 eax
  000ed	e8 00 00 00 00	 call	 _strcpy_s
  000f2	83 c4 40	 add	 esp, 64			; 00000040H

; 368  : 	strcpy_s(req.award_num, MAX_AWARD_LEN+1, pReq->szAwardNum);

  000f5	83 c6 78	 add	 esi, 120		; 00000078H
  000f8	56		 push	 esi
  000f9	8d 8c 24 c4 00
	00 00		 lea	 ecx, DWORD PTR _req$[esp+720]
  00100	6a 1f		 push	 31			; 0000001fH
  00102	51		 push	 ecx
  00103	e8 00 00 00 00	 call	 _strcpy_s

; 369  : 	GetCurrentTimeString(req.award_time, 20);

  00108	8d 54 24 1c	 lea	 edx, DWORD PTR _t$275139[esp+584]
  0010c	52		 push	 edx
  0010d	e8 00 00 00 00	 call	 __time32
  00112	8d 44 24 20	 lea	 eax, DWORD PTR _t$275139[esp+588]
  00116	50		 push	 eax
  00117	e8 00 00 00 00	 call	 __localtime32
  0011c	8b 08		 mov	 ecx, DWORD PTR [eax]
  0011e	8b 50 04	 mov	 edx, DWORD PTR [eax+4]
  00121	51		 push	 ecx
  00122	8b 48 08	 mov	 ecx, DWORD PTR [eax+8]
  00125	52		 push	 edx
  00126	8b 50 0c	 mov	 edx, DWORD PTR [eax+12]
  00129	51		 push	 ecx
  0012a	8b 48 10	 mov	 ecx, DWORD PTR [eax+16]
  0012d	52		 push	 edx
  0012e	8b 50 14	 mov	 edx, DWORD PTR [eax+20]
  00131	83 c1 01	 add	 ecx, 1
  00134	51		 push	 ecx
  00135	81 c2 6c 07 00
	00		 add	 edx, 1900		; 0000076cH
  0013b	52		 push	 edx
  0013c	68 00 00 00 00	 push	 OFFSET ??_C@_0BO@NGNOHJIK@?$CF04d?9?$CF02d?9?$CF02d?5?$CF02d?3?$CF02d?3?$CF02d?$AA@
  00141	6a 14		 push	 20			; 00000014H
  00143	8d 84 24 13 01
	00 00		 lea	 eax, DWORD PTR _req$[esp+799]
  0014a	50		 push	 eax
  0014b	e8 00 00 00 00	 call	 __snprintf

; 370  : 	GetCurrentTimeString(req.call_time, 20);

  00150	8d 4c 24 48	 lea	 ecx, DWORD PTR _t$275154[esp+628]
  00154	51		 push	 ecx
  00155	e8 00 00 00 00	 call	 __time32
  0015a	8d 54 24 4c	 lea	 edx, DWORD PTR _t$275154[esp+632]
  0015e	52		 push	 edx
  0015f	e8 00 00 00 00	 call	 __localtime32
  00164	8b 08		 mov	 ecx, DWORD PTR [eax]
  00166	8b 50 04	 mov	 edx, DWORD PTR [eax+4]
  00169	83 c4 40	 add	 esp, 64			; 00000040H
  0016c	51		 push	 ecx
  0016d	8b 48 08	 mov	 ecx, DWORD PTR [eax+8]
  00170	52		 push	 edx
  00171	8b 50 0c	 mov	 edx, DWORD PTR [eax+12]
  00174	51		 push	 ecx
  00175	8b 48 10	 mov	 ecx, DWORD PTR [eax+16]
  00178	52		 push	 edx
  00179	8b 50 14	 mov	 edx, DWORD PTR [eax+20]
  0017c	83 c1 01	 add	 ecx, 1
  0017f	51		 push	 ecx
  00180	81 c2 6c 07 00
	00		 add	 edx, 1900		; 0000076cH
  00186	52		 push	 edx
  00187	68 00 00 00 00	 push	 OFFSET ??_C@_0BO@NGNOHJIK@?$CF04d?9?$CF02d?9?$CF02d?5?$CF02d?3?$CF02d?3?$CF02d?$AA@
  0018c	8d 84 24 34 01
	00 00		 lea	 eax, DWORD PTR _req$[esp+832]
  00193	6a 14		 push	 20			; 00000014H
  00195	50		 push	 eax
  00196	e8 00 00 00 00	 call	 __snprintf

; 371  : 
; 372  : 	int nRet = funSendAwardAck(&req);

  0019b	8b 57 60	 mov	 edx, DWORD PTR [edi+96]
  0019e	8d 4c 24 54	 lea	 ecx, DWORD PTR _req$[esp+608]
  001a2	51		 push	 ecx
  001a3	ff d2		 call	 edx
  001a5	8b f0		 mov	 esi, eax
  001a7	83 c4 28	 add	 esp, 40			; 00000028H

; 373  : 	if (nRet != 0)

  001aa	3b f3		 cmp	 esi, ebx
  001ac	74 5e		 je	 SHORT $LN1@SendAwardA@2

; 374  : 	{
; 375  : 		char strDebug[256] = "";

  001ae	68 ff 00 00 00	 push	 255			; 000000ffH
  001b3	8d 84 24 31 01
	00 00		 lea	 eax, DWORD PTR _strDebug$240144[esp+577]
  001ba	53		 push	 ebx
  001bb	50		 push	 eax
  001bc	88 9c 24 38 01
	00 00		 mov	 BYTE PTR _strDebug$240144[esp+584], bl
  001c3	e8 00 00 00 00	 call	 _memset

; 376  : 		_snprintf(strDebug, 256, "OI:%s, CI:%s, %d : Player %s AwardAck!",
; 377  : 			req.order_id, req.context_id, nRet, req.user_id );

  001c8	8d 4c 24 48	 lea	 ecx, DWORD PTR _req$[esp+596]
  001cc	51		 push	 ecx
  001cd	56		 push	 esi
  001ce	8d 94 24 92 00
	00 00		 lea	 edx, DWORD PTR _req$[esp+670]
  001d5	52		 push	 edx
  001d6	8d 84 24 b7 00
	00 00		 lea	 eax, DWORD PTR _req$[esp+707]
  001dd	50		 push	 eax
  001de	68 00 00 00 00	 push	 OFFSET ??_C@_0DD@JFMKDAFJ@OI?3?$CFs?0?5CI?3?$CFs?0?5?$CFd?5?3?5?$LH?$KC?K?MPlayer?5?$CFs@
  001e3	8d 8c 24 4c 01
	00 00		 lea	 ecx, DWORD PTR _strDebug$240144[esp+604]
  001ea	68 00 01 00 00	 push	 256			; 00000100H
  001ef	51		 push	 ecx
  001f0	e8 00 00 00 00	 call	 __snprintf

; 378  : 		PutStringToFile("UniBill", strDebug);

  001f5	8d 94 24 54 01
	00 00		 lea	 edx, DWORD PTR _strDebug$240144[esp+612]
  001fc	52		 push	 edx
  001fd	68 00 00 00 00	 push	 OFFSET ??_C@_07JPPBBBFB@UniBill?$AA@
  00202	e8 00 00 00 00	 call	 ?PutStringToFile@@YAXPBD0@Z ; PutStringToFile
  00207	83 c4 30	 add	 esp, 48			; 00000030H

; 379  : 		return;

  0020a	eb 7f		 jmp	 SHORT $LN69@SendAwardA@2
$LN1@SendAwardA@2:

; 380  : 	}
; 381  : 
; 382  : 	tagBillItem *pBillItem		= new tagBillItem;

  0020c	6a 08		 push	 8
  0020e	e8 00 00 00 00	 call	 ??2@YAPAXI@Z		; operator new
  00213	8b f0		 mov	 esi, eax

; 383  : 	pBillItem->eItemType		= BI_AWARDACK;
; 384  : 	pBillItem->pItem			= pCallback;

  00215	8b 84 24 48 02
	00 00		 mov	 eax, DWORD PTR _pCallback$[esp+572]
  0021c	89 46 04	 mov	 DWORD PTR [esi+4], eax

; 385  : 	m_CallerQueue[req.order_id]	= pBillItem;

  0021f	8d 84 24 a3 00
	00 00		 lea	 eax, DWORD PTR _req$[esp+687]
  00226	83 c4 04	 add	 esp, 4
  00229	c7 06 06 00 00
	00		 mov	 DWORD PTR [esi], 6
  0022f	c7 44 24 2c 0f
	00 00 00	 mov	 DWORD PTR $T275129[esp+596], 15 ; 0000000fH
  00237	89 5c 24 28	 mov	 DWORD PTR $T275129[esp+592], ebx
  0023b	88 5c 24 18	 mov	 BYTE PTR $T275129[esp+576], bl
  0023f	8d 50 01	 lea	 edx, DWORD PTR [eax+1]
$LL79@SendAwardA@2:
  00242	8a 08		 mov	 cl, BYTE PTR [eax]
  00244	83 c0 01	 add	 eax, 1
  00247	3a cb		 cmp	 cl, bl
  00249	75 f7		 jne	 SHORT $LL79@SendAwardA@2
  0024b	2b c2		 sub	 eax, edx
  0024d	50		 push	 eax
  0024e	8d 8c 24 a3 00
	00 00		 lea	 ecx, DWORD PTR _req$[esp+687]
  00255	51		 push	 ecx
  00256	8d 4c 24 1c	 lea	 ecx, DWORD PTR $T275129[esp+580]
  0025a	e8 00 00 00 00	 call	 ?assign@?$basic_string@DU?$char_traits@D@std@@V?$allocator@D@2@@std@@QAEAAV12@PBDI@Z ; std::basic_string<char,std::char_traits<char>,std::allocator<char> >::assign
  0025f	8d 54 24 14	 lea	 edx, DWORD PTR $T275129[esp+572]
  00263	52		 push	 edx
  00264	b9 00 00 00 00	 mov	 ecx, OFFSET ?m_CallerQueue@CBillClient@@0V?$MulTiThMap@V?$basic_string@DU?$char_traits@D@std@@V?$allocator@D@2@@std@@PAUtagBillItem@CBillClient@@@@A ; CBillClient::m_CallerQueue
  00269	89 9c 24 3c 02
	00 00		 mov	 DWORD PTR __$EHRec$[esp+584], ebx
  00270	e8 00 00 00 00	 call	 ??A?$map@V?$basic_string@DU?$char_traits@D@std@@V?$allocator@D@2@@std@@PAUtagBillItem@CBillClient@@U?$less@V?$basic_string@DU?$char_traits@D@std@@V?$allocator@D@2@@std@@@2@V?$allocator@U?$pair@$$CBV?$basic_string@DU?$char_traits@D@std@@V?$allocator@D@2@@std@@PAUtagBillItem@CBillClient@@@std@@@2@@std@@QAEAAPAUtagBillItem@CBillClient@@ABV?$basic_string@DU?$char_traits@D@std@@V?$allocator@D@2@@1@@Z ; std::map<std::basic_string<char,std::char_traits<char>,std::allocator<char> >,CBillClient::tagBillItem *,std::less<std::basic_string<char,std::char_traits<char>,std::allocator<char> > >,std::allocator<std::pair<std::basic_string<char,std::char_traits<char>,std::allocator<char> > const ,CBillClient::tagBillItem *> > >::operator[]
  00275	89 30		 mov	 DWORD PTR [eax], esi
  00277	83 7c 24 2c 10	 cmp	 DWORD PTR $T275129[esp+596], 16 ; 00000010H
  0027c	72 0d		 jb	 SHORT $LN69@SendAwardA@2
  0027e	8b 44 24 18	 mov	 eax, DWORD PTR $T275129[esp+576]
  00282	50		 push	 eax
  00283	e8 00 00 00 00	 call	 ??3@YAXPAX@Z		; operator delete
  00288	83 c4 04	 add	 esp, 4
$LN69@SendAwardA@2:

; 386  : }

  0028b	8b 8c 24 30 02
	00 00		 mov	 ecx, DWORD PTR __$EHRec$[esp+572]
  00292	64 89 0d 00 00
	00 00		 mov	 DWORD PTR fs:0, ecx
  00299	59		 pop	 ecx
  0029a	5f		 pop	 edi
  0029b	5e		 pop	 esi
  0029c	5b		 pop	 ebx
  0029d	8b 8c 24 1c 02
	00 00		 mov	 ecx, DWORD PTR __$ArrayPad$[esp+556]
  002a4	33 cc		 xor	 ecx, esp
  002a6	e8 00 00 00 00	 call	 @__security_check_cookie@4
  002ab	81 c4 2c 02 00
	00		 add	 esp, 556		; 0000022cH
  002b1	c2 08 00	 ret	 8
_TEXT	ENDS
;	COMDAT text$x
text$x	SEGMENT
__unwindfunclet$?SendAwardAck@CBillClient@@QAEXPAUtagAwdAckReq@1@PAVCCallbackAwardAck@@@Z$0:
  00000	8d 8d d8 fd ff
	ff		 lea	 ecx, DWORD PTR $T275129[ebp]
  00006	e9 00 00 00 00	 jmp	 ??1?$basic_string@DU?$char_traits@D@std@@V?$allocator@D@2@@std@@QAE@XZ ; std::basic_string<char,std::char_traits<char>,std::allocator<char> >::~basic_string<char,std::char_traits<char>,std::allocator<char> >
__ehhandler$?SendAwardAck@CBillClient@@QAEXPAUtagAwdAckReq@1@PAVCCallbackAwardAck@@@Z:
  0000b	8b 54 24 08	 mov	 edx, DWORD PTR [esp+8]
  0000f	8d 82 d4 fd ff
	ff		 lea	 eax, DWORD PTR [edx-556]
  00015	8b 8a d0 fd ff
	ff		 mov	 ecx, DWORD PTR [edx-560]
  0001b	33 c8		 xor	 ecx, eax
  0001d	e8 00 00 00 00	 call	 @__security_check_cookie@4
  00022	83 c0 0c	 add	 eax, 12			; 0000000cH
  00025	8b 4a fc	 mov	 ecx, DWORD PTR [edx-4]
  00028	33 c8		 xor	 ecx, eax
  0002a	e8 00 00 00 00	 call	 @__security_check_cookie@4
  0002f	b8 00 00 00 00	 mov	 eax, OFFSET __ehfuncinfo$?SendAwardAck@CBillClient@@QAEXPAUtagAwdAckReq@1@PAVCCallbackAwardAck@@@Z
  00034	e9 00 00 00 00	 jmp	 ___CxxFrameHandler3
text$x	ENDS
?SendAwardAck@CBillClient@@QAEXPAUtagAwdAckReq@1@PAVCCallbackAwardAck@@@Z ENDP ; CBillClient::SendAwardAck
PUBLIC	?CallbackAccountAuthen@CBillClient@@SAXPAUGSBsipAccountAuthenRes@@@Z ; CBillClient::CallbackAccountAuthen
;	COMDAT xdata$x
; File d:\project_p6\trunk\public\module\multithmap.h
xdata$x	SEGMENT
__unwindtable$?CallbackAccountAuthen@CBillClient@@SAXPAUGSBsipAccountAuthenRes@@@Z DD 0ffffffffH
	DD	FLAT:__unwindfunclet$?CallbackAccountAuthen@CBillClient@@SAXPAUGSBsipAccountAuthenRes@@@Z$0
__ehfuncinfo$?CallbackAccountAuthen@CBillClient@@SAXPAUGSBsipAccountAuthenRes@@@Z DD 019930522H
	DD	01H
	DD	FLAT:__unwindtable$?CallbackAccountAuthen@CBillClient@@SAXPAUGSBsipAccountAuthenRes@@@Z
	DD	2 DUP(00H)
	DD	2 DUP(00H)
	DD	00H
	DD	01H
; Function compile flags: /Ogtpy
; File d:\project_p6\trunk\server\gameserver\server\billclient.cpp
xdata$x	ENDS
;	COMDAT ?CallbackAccountAuthen@CBillClient@@SAXPAUGSBsipAccountAuthenRes@@@Z
_TEXT	SEGMENT
$T275428 = -40						; size = 28
__$EHRec$ = -12						; size = 12
_p$ = 8							; size = 4
?CallbackAccountAuthen@CBillClient@@SAXPAUGSBsipAccountAuthenRes@@@Z PROC ; CBillClient::CallbackAccountAuthen, COMDAT

; 391  : {

  00000	6a ff		 push	 -1
  00002	68 00 00 00 00	 push	 __ehhandler$?CallbackAccountAuthen@CBillClient@@SAXPAUGSBsipAccountAuthenRes@@@Z
  00007	64 a1 00 00 00
	00		 mov	 eax, DWORD PTR fs:0
  0000d	50		 push	 eax
  0000e	83 ec 1c	 sub	 esp, 28			; 0000001cH
  00011	55		 push	 ebp
  00012	56		 push	 esi
  00013	57		 push	 edi
  00014	a1 00 00 00 00	 mov	 eax, DWORD PTR ___security_cookie
  00019	33 c4		 xor	 eax, esp
  0001b	50		 push	 eax
  0001c	8d 44 24 2c	 lea	 eax, DWORD PTR __$EHRec$[esp+56]
  00020	64 a3 00 00 00
	00		 mov	 DWORD PTR fs:0, eax

; 392  : 	//
; 393  : 	m_CallbackQueue.Lock();

  00026	68 0c 00 00 00	 push	 OFFSET ?m_CallbackQueue@CBillClient@@0V?$MulTiThMap@V?$basic_string@DU?$char_traits@D@std@@V?$allocator@D@2@@std@@PAUtagBillItem@CBillClient@@@@A+12
  0002b	ff 15 00 00 00
	00		 call	 DWORD PTR __imp__EnterCriticalSection@4

; 394  : 
; 395  : 	tagBillItem *pBillItem = new tagBillItem;

  00031	6a 08		 push	 8
  00033	e8 00 00 00 00	 call	 ??2@YAPAXI@Z		; operator new
  00038	8b e8		 mov	 ebp, eax

; 396  : 	pBillItem->eItemType = BI_ACCOUNTAUTHEN;
; 397  : 	GSBsipAccountAuthenResDef *pRes = new GSBsipAccountAuthenResDef;

  0003a	68 4c 01 00 00	 push	 332			; 0000014cH
  0003f	c7 45 00 01 00
	00 00		 mov	 DWORD PTR [ebp], 1
  00046	e8 00 00 00 00	 call	 ??2@YAPAXI@Z		; operator new

; 398  : 	memcpy(pRes, p, sizeof(GSBsipAccountAuthenResDef));

  0004b	8b 54 24 44	 mov	 edx, DWORD PTR _p$[esp+60]
  0004f	8b f8		 mov	 edi, eax
  00051	b9 53 00 00 00	 mov	 ecx, 83			; 00000053H
  00056	8b f2		 mov	 esi, edx
  00058	f3 a5		 rep movsd

; 399  : 	pBillItem->pItem = pRes;
; 400  : 	m_CallbackQueue[p->order_id] = pBillItem;

  0005a	8d 4a 72	 lea	 ecx, DWORD PTR [edx+114]
  0005d	89 45 04	 mov	 DWORD PTR [ebp+4], eax
  00060	8b c1		 mov	 eax, ecx
  00062	83 c4 08	 add	 esp, 8
  00065	c7 44 24 28 0f
	00 00 00	 mov	 DWORD PTR $T275428[esp+80], 15 ; 0000000fH
  0006d	c7 44 24 24 00
	00 00 00	 mov	 DWORD PTR $T275428[esp+76], 0
  00075	c6 44 24 14 00	 mov	 BYTE PTR $T275428[esp+60], 0
  0007a	8d 70 01	 lea	 esi, DWORD PTR [eax+1]
  0007d	8d 49 00	 npad	 3
$LL70@CallbackAc:
  00080	8a 10		 mov	 dl, BYTE PTR [eax]
  00082	83 c0 01	 add	 eax, 1
  00085	84 d2		 test	 dl, dl
  00087	75 f7		 jne	 SHORT $LL70@CallbackAc
  00089	2b c6		 sub	 eax, esi
  0008b	50		 push	 eax
  0008c	51		 push	 ecx
  0008d	8d 4c 24 18	 lea	 ecx, DWORD PTR $T275428[esp+64]
  00091	e8 00 00 00 00	 call	 ?assign@?$basic_string@DU?$char_traits@D@std@@V?$allocator@D@2@@std@@QAEAAV12@PBDI@Z ; std::basic_string<char,std::char_traits<char>,std::allocator<char> >::assign
  00096	8d 44 24 10	 lea	 eax, DWORD PTR $T275428[esp+56]
  0009a	50		 push	 eax
  0009b	b9 00 00 00 00	 mov	 ecx, OFFSET ?m_CallbackQueue@CBillClient@@0V?$MulTiThMap@V?$basic_string@DU?$char_traits@D@std@@V?$allocator@D@2@@std@@PAUtagBillItem@CBillClient@@@@A ; CBillClient::m_CallbackQueue
  000a0	c7 44 24 38 00
	00 00 00	 mov	 DWORD PTR __$EHRec$[esp+68], 0
  000a8	e8 00 00 00 00	 call	 ??A?$map@V?$basic_string@DU?$char_traits@D@std@@V?$allocator@D@2@@std@@PAUtagBillItem@CBillClient@@U?$less@V?$basic_string@DU?$char_traits@D@std@@V?$allocator@D@2@@std@@@2@V?$allocator@U?$pair@$$CBV?$basic_string@DU?$char_traits@D@std@@V?$allocator@D@2@@std@@PAUtagBillItem@CBillClient@@@std@@@2@@std@@QAEAAPAUtagBillItem@CBillClient@@ABV?$basic_string@DU?$char_traits@D@std@@V?$allocator@D@2@@1@@Z ; std::map<std::basic_string<char,std::char_traits<char>,std::allocator<char> >,CBillClient::tagBillItem *,std::less<std::basic_string<char,std::char_traits<char>,std::allocator<char> > >,std::allocator<std::pair<std::basic_string<char,std::char_traits<char>,std::allocator<char> > const ,CBillClient::tagBillItem *> > >::operator[]
  000ad	89 28		 mov	 DWORD PTR [eax], ebp
  000af	83 7c 24 28 10	 cmp	 DWORD PTR $T275428[esp+80], 16 ; 00000010H
  000b4	72 0d		 jb	 SHORT $LN58@CallbackAc
  000b6	8b 4c 24 14	 mov	 ecx, DWORD PTR $T275428[esp+60]
  000ba	51		 push	 ecx
  000bb	e8 00 00 00 00	 call	 ??3@YAXPAX@Z		; operator delete
  000c0	83 c4 04	 add	 esp, 4
$LN58@CallbackAc:

; 401  : 
; 402  : 	//
; 403  : 	m_CallbackQueue.UnLock();

  000c3	68 0c 00 00 00	 push	 OFFSET ?m_CallbackQueue@CBillClient@@0V?$MulTiThMap@V?$basic_string@DU?$char_traits@D@std@@V?$allocator@D@2@@std@@PAUtagBillItem@CBillClient@@@@A+12
  000c8	ff 15 00 00 00
	00		 call	 DWORD PTR __imp__LeaveCriticalSection@4

; 404  : }

  000ce	8b 4c 24 2c	 mov	 ecx, DWORD PTR __$EHRec$[esp+56]
  000d2	64 89 0d 00 00
	00 00		 mov	 DWORD PTR fs:0, ecx
  000d9	59		 pop	 ecx
  000da	5f		 pop	 edi
  000db	5e		 pop	 esi
  000dc	5d		 pop	 ebp
  000dd	83 c4 28	 add	 esp, 40			; 00000028H
  000e0	c3		 ret	 0
_TEXT	ENDS
;	COMDAT text$x
text$x	SEGMENT
__unwindfunclet$?CallbackAccountAuthen@CBillClient@@SAXPAUGSBsipAccountAuthenRes@@@Z$0:
  00000	8d 4d d8	 lea	 ecx, DWORD PTR $T275428[ebp]
  00003	e9 00 00 00 00	 jmp	 ??1?$basic_string@DU?$char_traits@D@std@@V?$allocator@D@2@@std@@QAE@XZ ; std::basic_string<char,std::char_traits<char>,std::allocator<char> >::~basic_string<char,std::char_traits<char>,std::allocator<char> >
__ehhandler$?CallbackAccountAuthen@CBillClient@@SAXPAUGSBsipAccountAuthenRes@@@Z:
  00008	8b 54 24 08	 mov	 edx, DWORD PTR [esp+8]
  0000c	8d 42 d8	 lea	 eax, DWORD PTR [edx-40]
  0000f	8b 4a d4	 mov	 ecx, DWORD PTR [edx-44]
  00012	33 c8		 xor	 ecx, eax
  00014	e8 00 00 00 00	 call	 @__security_check_cookie@4
  00019	b8 00 00 00 00	 mov	 eax, OFFSET __ehfuncinfo$?CallbackAccountAuthen@CBillClient@@SAXPAUGSBsipAccountAuthenRes@@@Z
  0001e	e9 00 00 00 00	 jmp	 ___CxxFrameHandler3
text$x	ENDS
?CallbackAccountAuthen@CBillClient@@SAXPAUGSBsipAccountAuthenRes@@@Z ENDP ; CBillClient::CallbackAccountAuthen
PUBLIC	?CallbackAccountLock@CBillClient@@SAXPAUGSBsipAccountLockRes@@@Z ; CBillClient::CallbackAccountLock
;	COMDAT xdata$x
; File d:\project_p6\trunk\public\module\multithmap.h
xdata$x	SEGMENT
__unwindtable$?CallbackAccountLock@CBillClient@@SAXPAUGSBsipAccountLockRes@@@Z DD 0ffffffffH
	DD	FLAT:__unwindfunclet$?CallbackAccountLock@CBillClient@@SAXPAUGSBsipAccountLockRes@@@Z$0
__ehfuncinfo$?CallbackAccountLock@CBillClient@@SAXPAUGSBsipAccountLockRes@@@Z DD 019930522H
	DD	01H
	DD	FLAT:__unwindtable$?CallbackAccountLock@CBillClient@@SAXPAUGSBsipAccountLockRes@@@Z
	DD	2 DUP(00H)
	DD	2 DUP(00H)
	DD	00H
	DD	01H
; Function compile flags: /Ogtpy
; File d:\project_p6\trunk\server\gameserver\server\billclient.cpp
xdata$x	ENDS
;	COMDAT ?CallbackAccountLock@CBillClient@@SAXPAUGSBsipAccountLockRes@@@Z
_TEXT	SEGMENT
$T275702 = -40						; size = 28
__$EHRec$ = -12						; size = 12
_p$ = 8							; size = 4
?CallbackAccountLock@CBillClient@@SAXPAUGSBsipAccountLockRes@@@Z PROC ; CBillClient::CallbackAccountLock, COMDAT

; 407  : {

  00000	6a ff		 push	 -1
  00002	68 00 00 00 00	 push	 __ehhandler$?CallbackAccountLock@CBillClient@@SAXPAUGSBsipAccountLockRes@@@Z
  00007	64 a1 00 00 00
	00		 mov	 eax, DWORD PTR fs:0
  0000d	50		 push	 eax
  0000e	83 ec 1c	 sub	 esp, 28			; 0000001cH
  00011	55		 push	 ebp
  00012	56		 push	 esi
  00013	57		 push	 edi
  00014	a1 00 00 00 00	 mov	 eax, DWORD PTR ___security_cookie
  00019	33 c4		 xor	 eax, esp
  0001b	50		 push	 eax
  0001c	8d 44 24 2c	 lea	 eax, DWORD PTR __$EHRec$[esp+56]
  00020	64 a3 00 00 00
	00		 mov	 DWORD PTR fs:0, eax

; 408  : 	//
; 409  : 	m_CallbackQueue.Lock();

  00026	68 0c 00 00 00	 push	 OFFSET ?m_CallbackQueue@CBillClient@@0V?$MulTiThMap@V?$basic_string@DU?$char_traits@D@std@@V?$allocator@D@2@@std@@PAUtagBillItem@CBillClient@@@@A+12
  0002b	ff 15 00 00 00
	00		 call	 DWORD PTR __imp__EnterCriticalSection@4

; 410  : 
; 411  : 	tagBillItem *pBillItem = new tagBillItem;

  00031	6a 08		 push	 8
  00033	e8 00 00 00 00	 call	 ??2@YAPAXI@Z		; operator new
  00038	8b e8		 mov	 ebp, eax

; 412  : 	pBillItem->eItemType = BI_LOCK;
; 413  : 	GSBsipAccountLockResDef *pRes = new GSBsipAccountLockResDef;

  0003a	68 34 01 00 00	 push	 308			; 00000134H
  0003f	c7 45 00 02 00
	00 00		 mov	 DWORD PTR [ebp], 2
  00046	e8 00 00 00 00	 call	 ??2@YAPAXI@Z		; operator new

; 414  : 	memcpy(pRes, p, sizeof(GSBsipAccountLockResDef));

  0004b	8b 54 24 44	 mov	 edx, DWORD PTR _p$[esp+60]
  0004f	8b f8		 mov	 edi, eax
  00051	b9 4d 00 00 00	 mov	 ecx, 77			; 0000004dH
  00056	8b f2		 mov	 esi, edx
  00058	f3 a5		 rep movsd

; 415  : 	pBillItem->pItem = pRes;
; 416  : 	m_CallbackQueue[p->order_id] = pBillItem;

  0005a	8d 4a 73	 lea	 ecx, DWORD PTR [edx+115]
  0005d	89 45 04	 mov	 DWORD PTR [ebp+4], eax
  00060	8b c1		 mov	 eax, ecx
  00062	83 c4 08	 add	 esp, 8
  00065	c7 44 24 28 0f
	00 00 00	 mov	 DWORD PTR $T275702[esp+80], 15 ; 0000000fH
  0006d	c7 44 24 24 00
	00 00 00	 mov	 DWORD PTR $T275702[esp+76], 0
  00075	c6 44 24 14 00	 mov	 BYTE PTR $T275702[esp+60], 0
  0007a	8d 70 01	 lea	 esi, DWORD PTR [eax+1]
  0007d	8d 49 00	 npad	 3
$LL70@CallbackAc@2:
  00080	8a 10		 mov	 dl, BYTE PTR [eax]
  00082	83 c0 01	 add	 eax, 1
  00085	84 d2		 test	 dl, dl
  00087	75 f7		 jne	 SHORT $LL70@CallbackAc@2
  00089	2b c6		 sub	 eax, esi
  0008b	50		 push	 eax
  0008c	51		 push	 ecx
  0008d	8d 4c 24 18	 lea	 ecx, DWORD PTR $T275702[esp+64]
  00091	e8 00 00 00 00	 call	 ?assign@?$basic_string@DU?$char_traits@D@std@@V?$allocator@D@2@@std@@QAEAAV12@PBDI@Z ; std::basic_string<char,std::char_traits<char>,std::allocator<char> >::assign
  00096	8d 44 24 10	 lea	 eax, DWORD PTR $T275702[esp+56]
  0009a	50		 push	 eax
  0009b	b9 00 00 00 00	 mov	 ecx, OFFSET ?m_CallbackQueue@CBillClient@@0V?$MulTiThMap@V?$basic_string@DU?$char_traits@D@std@@V?$allocator@D@2@@std@@PAUtagBillItem@CBillClient@@@@A ; CBillClient::m_CallbackQueue
  000a0	c7 44 24 38 00
	00 00 00	 mov	 DWORD PTR __$EHRec$[esp+68], 0
  000a8	e8 00 00 00 00	 call	 ??A?$map@V?$basic_string@DU?$char_traits@D@std@@V?$allocator@D@2@@std@@PAUtagBillItem@CBillClient@@U?$less@V?$basic_string@DU?$char_traits@D@std@@V?$allocator@D@2@@std@@@2@V?$allocator@U?$pair@$$CBV?$basic_string@DU?$char_traits@D@std@@V?$allocator@D@2@@std@@PAUtagBillItem@CBillClient@@@std@@@2@@std@@QAEAAPAUtagBillItem@CBillClient@@ABV?$basic_string@DU?$char_traits@D@std@@V?$allocator@D@2@@1@@Z ; std::map<std::basic_string<char,std::char_traits<char>,std::allocator<char> >,CBillClient::tagBillItem *,std::less<std::basic_string<char,std::char_traits<char>,std::allocator<char> > >,std::allocator<std::pair<std::basic_string<char,std::char_traits<char>,std::allocator<char> > const ,CBillClient::tagBillItem *> > >::operator[]
  000ad	89 28		 mov	 DWORD PTR [eax], ebp
  000af	83 7c 24 28 10	 cmp	 DWORD PTR $T275702[esp+80], 16 ; 00000010H
  000b4	72 0d		 jb	 SHORT $LN58@CallbackAc@2
  000b6	8b 4c 24 14	 mov	 ecx, DWORD PTR $T275702[esp+60]
  000ba	51		 push	 ecx
  000bb	e8 00 00 00 00	 call	 ??3@YAXPAX@Z		; operator delete
  000c0	83 c4 04	 add	 esp, 4
$LN58@CallbackAc@2:

; 417  : 
; 418  : 	//
; 419  : 	m_CallbackQueue.UnLock();

  000c3	68 0c 00 00 00	 push	 OFFSET ?m_CallbackQueue@CBillClient@@0V?$MulTiThMap@V?$basic_string@DU?$char_traits@D@std@@V?$allocator@D@2@@std@@PAUtagBillItem@CBillClient@@@@A+12
  000c8	ff 15 00 00 00
	00		 call	 DWORD PTR __imp__LeaveCriticalSection@4

; 420  : }

  000ce	8b 4c 24 2c	 mov	 ecx, DWORD PTR __$EHRec$[esp+56]
  000d2	64 89 0d 00 00
	00 00		 mov	 DWORD PTR fs:0, ecx
  000d9	59		 pop	 ecx
  000da	5f		 pop	 edi
  000db	5e		 pop	 esi
  000dc	5d		 pop	 ebp
  000dd	83 c4 28	 add	 esp, 40			; 00000028H
  000e0	c3		 ret	 0
_TEXT	ENDS
;	COMDAT text$x
text$x	SEGMENT
__unwindfunclet$?CallbackAccountLock@CBillClient@@SAXPAUGSBsipAccountLockRes@@@Z$0:
  00000	8d 4d d8	 lea	 ecx, DWORD PTR $T275702[ebp]
  00003	e9 00 00 00 00	 jmp	 ??1?$basic_string@DU?$char_traits@D@std@@V?$allocator@D@2@@std@@QAE@XZ ; std::basic_string<char,std::char_traits<char>,std::allocator<char> >::~basic_string<char,std::char_traits<char>,std::allocator<char> >
__ehhandler$?CallbackAccountLock@CBillClient@@SAXPAUGSBsipAccountLockRes@@@Z:
  00008	8b 54 24 08	 mov	 edx, DWORD PTR [esp+8]
  0000c	8d 42 d8	 lea	 eax, DWORD PTR [edx-40]
  0000f	8b 4a d4	 mov	 ecx, DWORD PTR [edx-44]
  00012	33 c8		 xor	 ecx, eax
  00014	e8 00 00 00 00	 call	 @__security_check_cookie@4
  00019	b8 00 00 00 00	 mov	 eax, OFFSET __ehfuncinfo$?CallbackAccountLock@CBillClient@@SAXPAUGSBsipAccountLockRes@@@Z
  0001e	e9 00 00 00 00	 jmp	 ___CxxFrameHandler3
text$x	ENDS
?CallbackAccountLock@CBillClient@@SAXPAUGSBsipAccountLockRes@@@Z ENDP ; CBillClient::CallbackAccountLock
PUBLIC	?CallbackAccountUnlock@CBillClient@@SAXPAUGSBsipAccountUnlockRes@@@Z ; CBillClient::CallbackAccountUnlock
;	COMDAT xdata$x
; File d:\project_p6\trunk\public\module\multithmap.h
xdata$x	SEGMENT
__unwindtable$?CallbackAccountUnlock@CBillClient@@SAXPAUGSBsipAccountUnlockRes@@@Z DD 0ffffffffH
	DD	FLAT:__unwindfunclet$?CallbackAccountUnlock@CBillClient@@SAXPAUGSBsipAccountUnlockRes@@@Z$0
__ehfuncinfo$?CallbackAccountUnlock@CBillClient@@SAXPAUGSBsipAccountUnlockRes@@@Z DD 019930522H
	DD	01H
	DD	FLAT:__unwindtable$?CallbackAccountUnlock@CBillClient@@SAXPAUGSBsipAccountUnlockRes@@@Z
	DD	2 DUP(00H)
	DD	2 DUP(00H)
	DD	00H
	DD	01H
; Function compile flags: /Ogtpy
; File d:\project_p6\trunk\server\gameserver\server\billclient.cpp
xdata$x	ENDS
;	COMDAT ?CallbackAccountUnlock@CBillClient@@SAXPAUGSBsipAccountUnlockRes@@@Z
_TEXT	SEGMENT
$T275976 = -40						; size = 28
__$EHRec$ = -12						; size = 12
_p$ = 8							; size = 4
?CallbackAccountUnlock@CBillClient@@SAXPAUGSBsipAccountUnlockRes@@@Z PROC ; CBillClient::CallbackAccountUnlock, COMDAT

; 423  : {

  00000	6a ff		 push	 -1
  00002	68 00 00 00 00	 push	 __ehhandler$?CallbackAccountUnlock@CBillClient@@SAXPAUGSBsipAccountUnlockRes@@@Z
  00007	64 a1 00 00 00
	00		 mov	 eax, DWORD PTR fs:0
  0000d	50		 push	 eax
  0000e	83 ec 1c	 sub	 esp, 28			; 0000001cH
  00011	55		 push	 ebp
  00012	56		 push	 esi
  00013	57		 push	 edi
  00014	a1 00 00 00 00	 mov	 eax, DWORD PTR ___security_cookie
  00019	33 c4		 xor	 eax, esp
  0001b	50		 push	 eax
  0001c	8d 44 24 2c	 lea	 eax, DWORD PTR __$EHRec$[esp+56]
  00020	64 a3 00 00 00
	00		 mov	 DWORD PTR fs:0, eax

; 424  : 	//
; 425  : 	m_CallbackQueue.Lock();

  00026	68 0c 00 00 00	 push	 OFFSET ?m_CallbackQueue@CBillClient@@0V?$MulTiThMap@V?$basic_string@DU?$char_traits@D@std@@V?$allocator@D@2@@std@@PAUtagBillItem@CBillClient@@@@A+12
  0002b	ff 15 00 00 00
	00		 call	 DWORD PTR __imp__EnterCriticalSection@4

; 426  : 
; 427  : 	tagBillItem *pBillItem = new tagBillItem;

  00031	6a 08		 push	 8
  00033	e8 00 00 00 00	 call	 ??2@YAPAXI@Z		; operator new
  00038	8b e8		 mov	 ebp, eax

; 428  : 	pBillItem->eItemType = BI_UNLOCK;
; 429  : 	GSBsipAccountUnlockResDef *pRes = new GSBsipAccountUnlockResDef;

  0003a	68 18 01 00 00	 push	 280			; 00000118H
  0003f	c7 45 00 03 00
	00 00		 mov	 DWORD PTR [ebp], 3
  00046	e8 00 00 00 00	 call	 ??2@YAPAXI@Z		; operator new

; 430  : 	memcpy(pRes, p, sizeof(GSBsipAccountUnlockResDef));

  0004b	8b 54 24 44	 mov	 edx, DWORD PTR _p$[esp+60]
  0004f	8b f8		 mov	 edi, eax
  00051	b9 46 00 00 00	 mov	 ecx, 70			; 00000046H
  00056	8b f2		 mov	 esi, edx
  00058	f3 a5		 rep movsd

; 431  : 	pBillItem->pItem = pRes;
; 432  : 	m_CallbackQueue[p->order_id] = pBillItem;

  0005a	8d 4a 77	 lea	 ecx, DWORD PTR [edx+119]
  0005d	89 45 04	 mov	 DWORD PTR [ebp+4], eax
  00060	8b c1		 mov	 eax, ecx
  00062	83 c4 08	 add	 esp, 8
  00065	c7 44 24 28 0f
	00 00 00	 mov	 DWORD PTR $T275976[esp+80], 15 ; 0000000fH
  0006d	c7 44 24 24 00
	00 00 00	 mov	 DWORD PTR $T275976[esp+76], 0
  00075	c6 44 24 14 00	 mov	 BYTE PTR $T275976[esp+60], 0
  0007a	8d 70 01	 lea	 esi, DWORD PTR [eax+1]
  0007d	8d 49 00	 npad	 3
$LL70@CallbackAc@3:
  00080	8a 10		 mov	 dl, BYTE PTR [eax]
  00082	83 c0 01	 add	 eax, 1
  00085	84 d2		 test	 dl, dl
  00087	75 f7		 jne	 SHORT $LL70@CallbackAc@3
  00089	2b c6		 sub	 eax, esi
  0008b	50		 push	 eax
  0008c	51		 push	 ecx
  0008d	8d 4c 24 18	 lea	 ecx, DWORD PTR $T275976[esp+64]
  00091	e8 00 00 00 00	 call	 ?assign@?$basic_string@DU?$char_traits@D@std@@V?$allocator@D@2@@std@@QAEAAV12@PBDI@Z ; std::basic_string<char,std::char_traits<char>,std::allocator<char> >::assign
  00096	8d 44 24 10	 lea	 eax, DWORD PTR $T275976[esp+56]
  0009a	50		 push	 eax
  0009b	b9 00 00 00 00	 mov	 ecx, OFFSET ?m_CallbackQueue@CBillClient@@0V?$MulTiThMap@V?$basic_string@DU?$char_traits@D@std@@V?$allocator@D@2@@std@@PAUtagBillItem@CBillClient@@@@A ; CBillClient::m_CallbackQueue
  000a0	c7 44 24 38 00
	00 00 00	 mov	 DWORD PTR __$EHRec$[esp+68], 0
  000a8	e8 00 00 00 00	 call	 ??A?$map@V?$basic_string@DU?$char_traits@D@std@@V?$allocator@D@2@@std@@PAUtagBillItem@CBillClient@@U?$less@V?$basic_string@DU?$char_traits@D@std@@V?$allocator@D@2@@std@@@2@V?$allocator@U?$pair@$$CBV?$basic_string@DU?$char_traits@D@std@@V?$allocator@D@2@@std@@PAUtagBillItem@CBillClient@@@std@@@2@@std@@QAEAAPAUtagBillItem@CBillClient@@ABV?$basic_string@DU?$char_traits@D@std@@V?$allocator@D@2@@1@@Z ; std::map<std::basic_string<char,std::char_traits<char>,std::allocator<char> >,CBillClient::tagBillItem *,std::less<std::basic_string<char,std::char_traits<char>,std::allocator<char> > >,std::allocator<std::pair<std::basic_string<char,std::char_traits<char>,std::allocator<char> > const ,CBillClient::tagBillItem *> > >::operator[]
  000ad	89 28		 mov	 DWORD PTR [eax], ebp
  000af	83 7c 24 28 10	 cmp	 DWORD PTR $T275976[esp+80], 16 ; 00000010H
  000b4	72 0d		 jb	 SHORT $LN58@CallbackAc@3
  000b6	8b 4c 24 14	 mov	 ecx, DWORD PTR $T275976[esp+60]
  000ba	51		 push	 ecx
  000bb	e8 00 00 00 00	 call	 ??3@YAXPAX@Z		; operator delete
  000c0	83 c4 04	 add	 esp, 4
$LN58@CallbackAc@3:

; 433  : 
; 434  : 	//
; 435  : 	m_CallbackQueue.UnLock();

  000c3	68 0c 00 00 00	 push	 OFFSET ?m_CallbackQueue@CBillClient@@0V?$MulTiThMap@V?$basic_string@DU?$char_traits@D@std@@V?$allocator@D@2@@std@@PAUtagBillItem@CBillClient@@@@A+12
  000c8	ff 15 00 00 00
	00		 call	 DWORD PTR __imp__LeaveCriticalSection@4

; 436  : }

  000ce	8b 4c 24 2c	 mov	 ecx, DWORD PTR __$EHRec$[esp+56]
  000d2	64 89 0d 00 00
	00 00		 mov	 DWORD PTR fs:0, ecx
  000d9	59		 pop	 ecx
  000da	5f		 pop	 edi
  000db	5e		 pop	 esi
  000dc	5d		 pop	 ebp
  000dd	83 c4 28	 add	 esp, 40			; 00000028H
  000e0	c3		 ret	 0
_TEXT	ENDS
;	COMDAT text$x
text$x	SEGMENT
__unwindfunclet$?CallbackAccountUnlock@CBillClient@@SAXPAUGSBsipAccountUnlockRes@@@Z$0:
  00000	8d 4d d8	 lea	 ecx, DWORD PTR $T275976[ebp]
  00003	e9 00 00 00 00	 jmp	 ??1?$basic_string@DU?$char_traits@D@std@@V?$allocator@D@2@@std@@QAE@XZ ; std::basic_string<char,std::char_traits<char>,std::allocator<char> >::~basic_string<char,std::char_traits<char>,std::allocator<char> >
__ehhandler$?CallbackAccountUnlock@CBillClient@@SAXPAUGSBsipAccountUnlockRes@@@Z:
  00008	8b 54 24 08	 mov	 edx, DWORD PTR [esp+8]
  0000c	8d 42 d8	 lea	 eax, DWORD PTR [edx-40]
  0000f	8b 4a d4	 mov	 ecx, DWORD PTR [edx-44]
  00012	33 c8		 xor	 ecx, eax
  00014	e8 00 00 00 00	 call	 @__security_check_cookie@4
  00019	b8 00 00 00 00	 mov	 eax, OFFSET __ehfuncinfo$?CallbackAccountUnlock@CBillClient@@SAXPAUGSBsipAccountUnlockRes@@@Z
  0001e	e9 00 00 00 00	 jmp	 ___CxxFrameHandler3
text$x	ENDS
?CallbackAccountUnlock@CBillClient@@SAXPAUGSBsipAccountUnlockRes@@@Z ENDP ; CBillClient::CallbackAccountUnlock
PUBLIC	?CallbackConsignTransfer@CBillClient@@SAXPAUGSBsipConsignTransferRes@@@Z ; CBillClient::CallbackConsignTransfer
;	COMDAT xdata$x
; File d:\project_p6\trunk\public\module\multithmap.h
xdata$x	SEGMENT
__unwindtable$?CallbackConsignTransfer@CBillClient@@SAXPAUGSBsipConsignTransferRes@@@Z DD 0ffffffffH
	DD	FLAT:__unwindfunclet$?CallbackConsignTransfer@CBillClient@@SAXPAUGSBsipConsignTransferRes@@@Z$0
__ehfuncinfo$?CallbackConsignTransfer@CBillClient@@SAXPAUGSBsipConsignTransferRes@@@Z DD 019930522H
	DD	01H
	DD	FLAT:__unwindtable$?CallbackConsignTransfer@CBillClient@@SAXPAUGSBsipConsignTransferRes@@@Z
	DD	2 DUP(00H)
	DD	2 DUP(00H)
	DD	00H
	DD	01H
; Function compile flags: /Ogtpy
; File d:\project_p6\trunk\server\gameserver\server\billclient.cpp
xdata$x	ENDS
;	COMDAT ?CallbackConsignTransfer@CBillClient@@SAXPAUGSBsipConsignTransferRes@@@Z
_TEXT	SEGMENT
$T276250 = -40						; size = 28
__$EHRec$ = -12						; size = 12
_p$ = 8							; size = 4
?CallbackConsignTransfer@CBillClient@@SAXPAUGSBsipConsignTransferRes@@@Z PROC ; CBillClient::CallbackConsignTransfer, COMDAT

; 439  : {

  00000	6a ff		 push	 -1
  00002	68 00 00 00 00	 push	 __ehhandler$?CallbackConsignTransfer@CBillClient@@SAXPAUGSBsipConsignTransferRes@@@Z
  00007	64 a1 00 00 00
	00		 mov	 eax, DWORD PTR fs:0
  0000d	50		 push	 eax
  0000e	83 ec 1c	 sub	 esp, 28			; 0000001cH
  00011	55		 push	 ebp
  00012	56		 push	 esi
  00013	57		 push	 edi
  00014	a1 00 00 00 00	 mov	 eax, DWORD PTR ___security_cookie
  00019	33 c4		 xor	 eax, esp
  0001b	50		 push	 eax
  0001c	8d 44 24 2c	 lea	 eax, DWORD PTR __$EHRec$[esp+56]
  00020	64 a3 00 00 00
	00		 mov	 DWORD PTR fs:0, eax

; 440  : 	//
; 441  : 	m_CallbackQueue.Lock();

  00026	68 0c 00 00 00	 push	 OFFSET ?m_CallbackQueue@CBillClient@@0V?$MulTiThMap@V?$basic_string@DU?$char_traits@D@std@@V?$allocator@D@2@@std@@PAUtagBillItem@CBillClient@@@@A+12
  0002b	ff 15 00 00 00
	00		 call	 DWORD PTR __imp__EnterCriticalSection@4

; 442  : 
; 443  : 	tagBillItem *pBillItem = new tagBillItem;

  00031	6a 08		 push	 8
  00033	e8 00 00 00 00	 call	 ??2@YAPAXI@Z		; operator new
  00038	8b e8		 mov	 ebp, eax

; 444  : 	pBillItem->eItemType = BI_TRANSFER;
; 445  : 	GSBsipConsignTransferResDef *pRes = new GSBsipConsignTransferResDef;

  0003a	68 48 01 00 00	 push	 328			; 00000148H
  0003f	c7 45 00 04 00
	00 00		 mov	 DWORD PTR [ebp], 4
  00046	e8 00 00 00 00	 call	 ??2@YAPAXI@Z		; operator new

; 446  : 	memcpy(pRes, p, sizeof(GSBsipConsignTransferResDef));

  0004b	8b 54 24 44	 mov	 edx, DWORD PTR _p$[esp+60]
  0004f	8b f8		 mov	 edi, eax
  00051	b9 52 00 00 00	 mov	 ecx, 82			; 00000052H
  00056	8b f2		 mov	 esi, edx
  00058	f3 a5		 rep movsd

; 447  : 	pBillItem->pItem = pRes;
; 448  : 	m_CallbackQueue[p->order_id] = pBillItem;

  0005a	8d 8a a6 00 00
	00		 lea	 ecx, DWORD PTR [edx+166]
  00060	89 45 04	 mov	 DWORD PTR [ebp+4], eax
  00063	8b c1		 mov	 eax, ecx
  00065	83 c4 08	 add	 esp, 8
  00068	c7 44 24 28 0f
	00 00 00	 mov	 DWORD PTR $T276250[esp+80], 15 ; 0000000fH
  00070	c7 44 24 24 00
	00 00 00	 mov	 DWORD PTR $T276250[esp+76], 0
  00078	c6 44 24 14 00	 mov	 BYTE PTR $T276250[esp+60], 0
  0007d	8d 70 01	 lea	 esi, DWORD PTR [eax+1]
$LL70@CallbackCo:
  00080	8a 10		 mov	 dl, BYTE PTR [eax]
  00082	83 c0 01	 add	 eax, 1
  00085	84 d2		 test	 dl, dl
  00087	75 f7		 jne	 SHORT $LL70@CallbackCo
  00089	2b c6		 sub	 eax, esi
  0008b	50		 push	 eax
  0008c	51		 push	 ecx
  0008d	8d 4c 24 18	 lea	 ecx, DWORD PTR $T276250[esp+64]
  00091	e8 00 00 00 00	 call	 ?assign@?$basic_string@DU?$char_traits@D@std@@V?$allocator@D@2@@std@@QAEAAV12@PBDI@Z ; std::basic_string<char,std::char_traits<char>,std::allocator<char> >::assign
  00096	8d 44 24 10	 lea	 eax, DWORD PTR $T276250[esp+56]
  0009a	50		 push	 eax
  0009b	b9 00 00 00 00	 mov	 ecx, OFFSET ?m_CallbackQueue@CBillClient@@0V?$MulTiThMap@V?$basic_string@DU?$char_traits@D@std@@V?$allocator@D@2@@std@@PAUtagBillItem@CBillClient@@@@A ; CBillClient::m_CallbackQueue
  000a0	c7 44 24 38 00
	00 00 00	 mov	 DWORD PTR __$EHRec$[esp+68], 0
  000a8	e8 00 00 00 00	 call	 ??A?$map@V?$basic_string@DU?$char_traits@D@std@@V?$allocator@D@2@@std@@PAUtagBillItem@CBillClient@@U?$less@V?$basic_string@DU?$char_traits@D@std@@V?$allocator@D@2@@std@@@2@V?$allocator@U?$pair@$$CBV?$basic_string@DU?$char_traits@D@std@@V?$allocator@D@2@@std@@PAUtagBillItem@CBillClient@@@std@@@2@@std@@QAEAAPAUtagBillItem@CBillClient@@ABV?$basic_string@DU?$char_traits@D@std@@V?$allocator@D@2@@1@@Z ; std::map<std::basic_string<char,std::char_traits<char>,std::allocator<char> >,CBillClient::tagBillItem *,std::less<std::basic_string<char,std::char_traits<char>,std::allocator<char> > >,std::allocator<std::pair<std::basic_string<char,std::char_traits<char>,std::allocator<char> > const ,CBillClient::tagBillItem *> > >::operator[]
  000ad	89 28		 mov	 DWORD PTR [eax], ebp
  000af	83 7c 24 28 10	 cmp	 DWORD PTR $T276250[esp+80], 16 ; 00000010H
  000b4	72 0d		 jb	 SHORT $LN58@CallbackCo
  000b6	8b 4c 24 14	 mov	 ecx, DWORD PTR $T276250[esp+60]
  000ba	51		 push	 ecx
  000bb	e8 00 00 00 00	 call	 ??3@YAXPAX@Z		; operator delete
  000c0	83 c4 04	 add	 esp, 4
$LN58@CallbackCo:

; 449  : 
; 450  : 	//
; 451  : 	m_CallbackQueue.UnLock();

  000c3	68 0c 00 00 00	 push	 OFFSET ?m_CallbackQueue@CBillClient@@0V?$MulTiThMap@V?$basic_string@DU?$char_traits@D@std@@V?$allocator@D@2@@std@@PAUtagBillItem@CBillClient@@@@A+12
  000c8	ff 15 00 00 00
	00		 call	 DWORD PTR __imp__LeaveCriticalSection@4

; 452  : }

  000ce	8b 4c 24 2c	 mov	 ecx, DWORD PTR __$EHRec$[esp+56]
  000d2	64 89 0d 00 00
	00 00		 mov	 DWORD PTR fs:0, ecx
  000d9	59		 pop	 ecx
  000da	5f		 pop	 edi
  000db	5e		 pop	 esi
  000dc	5d		 pop	 ebp
  000dd	83 c4 28	 add	 esp, 40			; 00000028H
  000e0	c3		 ret	 0
_TEXT	ENDS
;	COMDAT text$x
text$x	SEGMENT
__unwindfunclet$?CallbackConsignTransfer@CBillClient@@SAXPAUGSBsipConsignTransferRes@@@Z$0:
  00000	8d 4d d8	 lea	 ecx, DWORD PTR $T276250[ebp]
  00003	e9 00 00 00 00	 jmp	 ??1?$basic_string@DU?$char_traits@D@std@@V?$allocator@D@2@@std@@QAE@XZ ; std::basic_string<char,std::char_traits<char>,std::allocator<char> >::~basic_string<char,std::char_traits<char>,std::allocator<char> >
__ehhandler$?CallbackConsignTransfer@CBillClient@@SAXPAUGSBsipConsignTransferRes@@@Z:
  00008	8b 54 24 08	 mov	 edx, DWORD PTR [esp+8]
  0000c	8d 42 d8	 lea	 eax, DWORD PTR [edx-40]
  0000f	8b 4a d4	 mov	 ecx, DWORD PTR [edx-44]
  00012	33 c8		 xor	 ecx, eax
  00014	e8 00 00 00 00	 call	 @__security_check_cookie@4
  00019	b8 00 00 00 00	 mov	 eax, OFFSET __ehfuncinfo$?CallbackConsignTransfer@CBillClient@@SAXPAUGSBsipConsignTransferRes@@@Z
  0001e	e9 00 00 00 00	 jmp	 ___CxxFrameHandler3
text$x	ENDS
?CallbackConsignTransfer@CBillClient@@SAXPAUGSBsipConsignTransferRes@@@Z ENDP ; CBillClient::CallbackConsignTransfer
PUBLIC	?CallbackAwardAuthen@CBillClient@@SAXPAUGSBsipAwardAuthenRes@@@Z ; CBillClient::CallbackAwardAuthen
;	COMDAT xdata$x
; File d:\project_p6\trunk\public\module\multithmap.h
xdata$x	SEGMENT
__unwindtable$?CallbackAwardAuthen@CBillClient@@SAXPAUGSBsipAwardAuthenRes@@@Z DD 0ffffffffH
	DD	FLAT:__unwindfunclet$?CallbackAwardAuthen@CBillClient@@SAXPAUGSBsipAwardAuthenRes@@@Z$0
__ehfuncinfo$?CallbackAwardAuthen@CBillClient@@SAXPAUGSBsipAwardAuthenRes@@@Z DD 019930522H
	DD	01H
	DD	FLAT:__unwindtable$?CallbackAwardAuthen@CBillClient@@SAXPAUGSBsipAwardAuthenRes@@@Z
	DD	2 DUP(00H)
	DD	2 DUP(00H)
	DD	00H
	DD	01H
; Function compile flags: /Ogtpy
; File d:\project_p6\trunk\server\gameserver\server\billclient.cpp
xdata$x	ENDS
;	COMDAT ?CallbackAwardAuthen@CBillClient@@SAXPAUGSBsipAwardAuthenRes@@@Z
_TEXT	SEGMENT
$T276524 = -40						; size = 28
__$EHRec$ = -12						; size = 12
_p$ = 8							; size = 4
?CallbackAwardAuthen@CBillClient@@SAXPAUGSBsipAwardAuthenRes@@@Z PROC ; CBillClient::CallbackAwardAuthen, COMDAT

; 455  : {

  00000	6a ff		 push	 -1
  00002	68 00 00 00 00	 push	 __ehhandler$?CallbackAwardAuthen@CBillClient@@SAXPAUGSBsipAwardAuthenRes@@@Z
  00007	64 a1 00 00 00
	00		 mov	 eax, DWORD PTR fs:0
  0000d	50		 push	 eax
  0000e	83 ec 1c	 sub	 esp, 28			; 0000001cH
  00011	55		 push	 ebp
  00012	56		 push	 esi
  00013	57		 push	 edi
  00014	a1 00 00 00 00	 mov	 eax, DWORD PTR ___security_cookie
  00019	33 c4		 xor	 eax, esp
  0001b	50		 push	 eax
  0001c	8d 44 24 2c	 lea	 eax, DWORD PTR __$EHRec$[esp+56]
  00020	64 a3 00 00 00
	00		 mov	 DWORD PTR fs:0, eax

; 456  : 	//
; 457  : 	m_CallbackQueue.Lock();

  00026	68 0c 00 00 00	 push	 OFFSET ?m_CallbackQueue@CBillClient@@0V?$MulTiThMap@V?$basic_string@DU?$char_traits@D@std@@V?$allocator@D@2@@std@@PAUtagBillItem@CBillClient@@@@A+12
  0002b	ff 15 00 00 00
	00		 call	 DWORD PTR __imp__EnterCriticalSection@4

; 458  : 
; 459  : 	tagBillItem *pBillItem = new tagBillItem;

  00031	6a 08		 push	 8
  00033	e8 00 00 00 00	 call	 ??2@YAPAXI@Z		; operator new
  00038	8b e8		 mov	 ebp, eax

; 460  : 	pBillItem->eItemType = BI_AWARDAUTHEN;
; 461  : 	GSBsipAwardAuthenResDef *pRes = new GSBsipAwardAuthenResDef;

  0003a	68 70 01 00 00	 push	 368			; 00000170H
  0003f	c7 45 00 05 00
	00 00		 mov	 DWORD PTR [ebp], 5
  00046	e8 00 00 00 00	 call	 ??2@YAPAXI@Z		; operator new

; 462  : 	memcpy(pRes, p, sizeof(GSBsipAwardAuthenResDef));

  0004b	8b 54 24 44	 mov	 edx, DWORD PTR _p$[esp+60]
  0004f	8b f8		 mov	 edi, eax
  00051	b9 5c 00 00 00	 mov	 ecx, 92			; 0000005cH
  00056	8b f2		 mov	 esi, edx
  00058	f3 a5		 rep movsd

; 463  : 	pBillItem->pItem = pRes;
; 464  : 	m_CallbackQueue[p->order_id] = pBillItem;

  0005a	8d 4a 73	 lea	 ecx, DWORD PTR [edx+115]
  0005d	89 45 04	 mov	 DWORD PTR [ebp+4], eax
  00060	8b c1		 mov	 eax, ecx
  00062	83 c4 08	 add	 esp, 8
  00065	c7 44 24 28 0f
	00 00 00	 mov	 DWORD PTR $T276524[esp+80], 15 ; 0000000fH
  0006d	c7 44 24 24 00
	00 00 00	 mov	 DWORD PTR $T276524[esp+76], 0
  00075	c6 44 24 14 00	 mov	 BYTE PTR $T276524[esp+60], 0
  0007a	8d 70 01	 lea	 esi, DWORD PTR [eax+1]
  0007d	8d 49 00	 npad	 3
$LL70@CallbackAw:
  00080	8a 10		 mov	 dl, BYTE PTR [eax]
  00082	83 c0 01	 add	 eax, 1
  00085	84 d2		 test	 dl, dl
  00087	75 f7		 jne	 SHORT $LL70@CallbackAw
  00089	2b c6		 sub	 eax, esi
  0008b	50		 push	 eax
  0008c	51		 push	 ecx
  0008d	8d 4c 24 18	 lea	 ecx, DWORD PTR $T276524[esp+64]
  00091	e8 00 00 00 00	 call	 ?assign@?$basic_string@DU?$char_traits@D@std@@V?$allocator@D@2@@std@@QAEAAV12@PBDI@Z ; std::basic_string<char,std::char_traits<char>,std::allocator<char> >::assign
  00096	8d 44 24 10	 lea	 eax, DWORD PTR $T276524[esp+56]
  0009a	50		 push	 eax
  0009b	b9 00 00 00 00	 mov	 ecx, OFFSET ?m_CallbackQueue@CBillClient@@0V?$MulTiThMap@V?$basic_string@DU?$char_traits@D@std@@V?$allocator@D@2@@std@@PAUtagBillItem@CBillClient@@@@A ; CBillClient::m_CallbackQueue
  000a0	c7 44 24 38 00
	00 00 00	 mov	 DWORD PTR __$EHRec$[esp+68], 0
  000a8	e8 00 00 00 00	 call	 ??A?$map@V?$basic_string@DU?$char_traits@D@std@@V?$allocator@D@2@@std@@PAUtagBillItem@CBillClient@@U?$less@V?$basic_string@DU?$char_traits@D@std@@V?$allocator@D@2@@std@@@2@V?$allocator@U?$pair@$$CBV?$basic_string@DU?$char_traits@D@std@@V?$allocator@D@2@@std@@PAUtagBillItem@CBillClient@@@std@@@2@@std@@QAEAAPAUtagBillItem@CBillClient@@ABV?$basic_string@DU?$char_traits@D@std@@V?$allocator@D@2@@1@@Z ; std::map<std::basic_string<char,std::char_traits<char>,std::allocator<char> >,CBillClient::tagBillItem *,std::less<std::basic_string<char,std::char_traits<char>,std::allocator<char> > >,std::allocator<std::pair<std::basic_string<char,std::char_traits<char>,std::allocator<char> > const ,CBillClient::tagBillItem *> > >::operator[]
  000ad	89 28		 mov	 DWORD PTR [eax], ebp
  000af	83 7c 24 28 10	 cmp	 DWORD PTR $T276524[esp+80], 16 ; 00000010H
  000b4	72 0d		 jb	 SHORT $LN58@CallbackAw
  000b6	8b 4c 24 14	 mov	 ecx, DWORD PTR $T276524[esp+60]
  000ba	51		 push	 ecx
  000bb	e8 00 00 00 00	 call	 ??3@YAXPAX@Z		; operator delete
  000c0	83 c4 04	 add	 esp, 4
$LN58@CallbackAw:

; 465  : 
; 466  : 	//
; 467  : 	m_CallbackQueue.UnLock();

  000c3	68 0c 00 00 00	 push	 OFFSET ?m_CallbackQueue@CBillClient@@0V?$MulTiThMap@V?$basic_string@DU?$char_traits@D@std@@V?$allocator@D@2@@std@@PAUtagBillItem@CBillClient@@@@A+12
  000c8	ff 15 00 00 00
	00		 call	 DWORD PTR __imp__LeaveCriticalSection@4

; 468  : }

  000ce	8b 4c 24 2c	 mov	 ecx, DWORD PTR __$EHRec$[esp+56]
  000d2	64 89 0d 00 00
	00 00		 mov	 DWORD PTR fs:0, ecx
  000d9	59		 pop	 ecx
  000da	5f		 pop	 edi
  000db	5e		 pop	 esi
  000dc	5d		 pop	 ebp
  000dd	83 c4 28	 add	 esp, 40			; 00000028H
  000e0	c3		 ret	 0
_TEXT	ENDS
;	COMDAT text$x
text$x	SEGMENT
__unwindfunclet$?CallbackAwardAuthen@CBillClient@@SAXPAUGSBsipAwardAuthenRes@@@Z$0:
  00000	8d 4d d8	 lea	 ecx, DWORD PTR $T276524[ebp]
  00003	e9 00 00 00 00	 jmp	 ??1?$basic_string@DU?$char_traits@D@std@@V?$allocator@D@2@@std@@QAE@XZ ; std::basic_string<char,std::char_traits<char>,std::allocator<char> >::~basic_string<char,std::char_traits<char>,std::allocator<char> >
__ehhandler$?CallbackAwardAuthen@CBillClient@@SAXPAUGSBsipAwardAuthenRes@@@Z:
  00008	8b 54 24 08	 mov	 edx, DWORD PTR [esp+8]
  0000c	8d 42 d8	 lea	 eax, DWORD PTR [edx-40]
  0000f	8b 4a d4	 mov	 ecx, DWORD PTR [edx-44]
  00012	33 c8		 xor	 ecx, eax
  00014	e8 00 00 00 00	 call	 @__security_check_cookie@4
  00019	b8 00 00 00 00	 mov	 eax, OFFSET __ehfuncinfo$?CallbackAwardAuthen@CBillClient@@SAXPAUGSBsipAwardAuthenRes@@@Z
  0001e	e9 00 00 00 00	 jmp	 ___CxxFrameHandler3
text$x	ENDS
?CallbackAwardAuthen@CBillClient@@SAXPAUGSBsipAwardAuthenRes@@@Z ENDP ; CBillClient::CallbackAwardAuthen
PUBLIC	?CallbackAwardAck@CBillClient@@SAXPAUGSBsipAwardAckRes@@@Z ; CBillClient::CallbackAwardAck
;	COMDAT xdata$x
; File d:\project_p6\trunk\public\module\multithmap.h
xdata$x	SEGMENT
__unwindtable$?CallbackAwardAck@CBillClient@@SAXPAUGSBsipAwardAckRes@@@Z DD 0ffffffffH
	DD	FLAT:__unwindfunclet$?CallbackAwardAck@CBillClient@@SAXPAUGSBsipAwardAckRes@@@Z$0
__ehfuncinfo$?CallbackAwardAck@CBillClient@@SAXPAUGSBsipAwardAckRes@@@Z DD 019930522H
	DD	01H
	DD	FLAT:__unwindtable$?CallbackAwardAck@CBillClient@@SAXPAUGSBsipAwardAckRes@@@Z
	DD	2 DUP(00H)
	DD	2 DUP(00H)
	DD	00H
	DD	01H
; Function compile flags: /Ogtpy
; File d:\project_p6\trunk\server\gameserver\server\billclient.cpp
xdata$x	ENDS
;	COMDAT ?CallbackAwardAck@CBillClient@@SAXPAUGSBsipAwardAckRes@@@Z
_TEXT	SEGMENT
$T276798 = -40						; size = 28
__$EHRec$ = -12						; size = 12
_p$ = 8							; size = 4
?CallbackAwardAck@CBillClient@@SAXPAUGSBsipAwardAckRes@@@Z PROC ; CBillClient::CallbackAwardAck, COMDAT

; 471  : {

  00000	6a ff		 push	 -1
  00002	68 00 00 00 00	 push	 __ehhandler$?CallbackAwardAck@CBillClient@@SAXPAUGSBsipAwardAckRes@@@Z
  00007	64 a1 00 00 00
	00		 mov	 eax, DWORD PTR fs:0
  0000d	50		 push	 eax
  0000e	83 ec 1c	 sub	 esp, 28			; 0000001cH
  00011	55		 push	 ebp
  00012	56		 push	 esi
  00013	57		 push	 edi
  00014	a1 00 00 00 00	 mov	 eax, DWORD PTR ___security_cookie
  00019	33 c4		 xor	 eax, esp
  0001b	50		 push	 eax
  0001c	8d 44 24 2c	 lea	 eax, DWORD PTR __$EHRec$[esp+56]
  00020	64 a3 00 00 00
	00		 mov	 DWORD PTR fs:0, eax

; 472  : 	//
; 473  : 	m_CallbackQueue.Lock();

  00026	68 0c 00 00 00	 push	 OFFSET ?m_CallbackQueue@CBillClient@@0V?$MulTiThMap@V?$basic_string@DU?$char_traits@D@std@@V?$allocator@D@2@@std@@PAUtagBillItem@CBillClient@@@@A+12
  0002b	ff 15 00 00 00
	00		 call	 DWORD PTR __imp__EnterCriticalSection@4

; 474  : 
; 475  : 	tagBillItem *pBillItem = new tagBillItem;

  00031	6a 08		 push	 8
  00033	e8 00 00 00 00	 call	 ??2@YAPAXI@Z		; operator new
  00038	8b e8		 mov	 ebp, eax

; 476  : 	pBillItem->eItemType = BI_AWARDACK;
; 477  : 	GSBsipAwardAckResDef *pRes = new GSBsipAwardAckResDef;

  0003a	68 2c 01 00 00	 push	 300			; 0000012cH
  0003f	c7 45 00 06 00
	00 00		 mov	 DWORD PTR [ebp], 6
  00046	e8 00 00 00 00	 call	 ??2@YAPAXI@Z		; operator new

; 478  : 	memcpy(pRes, p, sizeof(GSBsipAwardAckResDef));

  0004b	8b 54 24 44	 mov	 edx, DWORD PTR _p$[esp+60]
  0004f	8b f8		 mov	 edi, eax
  00051	b9 4b 00 00 00	 mov	 ecx, 75			; 0000004bH
  00056	8b f2		 mov	 esi, edx
  00058	f3 a5		 rep movsd

; 479  : 	pBillItem->pItem = pRes;
; 480  : 	m_CallbackQueue[p->order_id] = pBillItem;

  0005a	8d 4a 7b	 lea	 ecx, DWORD PTR [edx+123]
  0005d	89 45 04	 mov	 DWORD PTR [ebp+4], eax
  00060	8b c1		 mov	 eax, ecx
  00062	83 c4 08	 add	 esp, 8
  00065	c7 44 24 28 0f
	00 00 00	 mov	 DWORD PTR $T276798[esp+80], 15 ; 0000000fH
  0006d	c7 44 24 24 00
	00 00 00	 mov	 DWORD PTR $T276798[esp+76], 0
  00075	c6 44 24 14 00	 mov	 BYTE PTR $T276798[esp+60], 0
  0007a	8d 70 01	 lea	 esi, DWORD PTR [eax+1]
  0007d	8d 49 00	 npad	 3
$LL70@CallbackAw@2:
  00080	8a 10		 mov	 dl, BYTE PTR [eax]
  00082	83 c0 01	 add	 eax, 1
  00085	84 d2		 test	 dl, dl
  00087	75 f7		 jne	 SHORT $LL70@CallbackAw@2
  00089	2b c6		 sub	 eax, esi
  0008b	50		 push	 eax
  0008c	51		 push	 ecx
  0008d	8d 4c 24 18	 lea	 ecx, DWORD PTR $T276798[esp+64]
  00091	e8 00 00 00 00	 call	 ?assign@?$basic_string@DU?$char_traits@D@std@@V?$allocator@D@2@@std@@QAEAAV12@PBDI@Z ; std::basic_string<char,std::char_traits<char>,std::allocator<char> >::assign
  00096	8d 44 24 10	 lea	 eax, DWORD PTR $T276798[esp+56]
  0009a	50		 push	 eax
  0009b	b9 00 00 00 00	 mov	 ecx, OFFSET ?m_CallbackQueue@CBillClient@@0V?$MulTiThMap@V?$basic_string@DU?$char_traits@D@std@@V?$allocator@D@2@@std@@PAUtagBillItem@CBillClient@@@@A ; CBillClient::m_CallbackQueue
  000a0	c7 44 24 38 00
	00 00 00	 mov	 DWORD PTR __$EHRec$[esp+68], 0
  000a8	e8 00 00 00 00	 call	 ??A?$map@V?$basic_string@DU?$char_traits@D@std@@V?$allocator@D@2@@std@@PAUtagBillItem@CBillClient@@U?$less@V?$basic_string@DU?$char_traits@D@std@@V?$allocator@D@2@@std@@@2@V?$allocator@U?$pair@$$CBV?$basic_string@DU?$char_traits@D@std@@V?$allocator@D@2@@std@@PAUtagBillItem@CBillClient@@@std@@@2@@std@@QAEAAPAUtagBillItem@CBillClient@@ABV?$basic_string@DU?$char_traits@D@std@@V?$allocator@D@2@@1@@Z ; std::map<std::basic_string<char,std::char_traits<char>,std::allocator<char> >,CBillClient::tagBillItem *,std::less<std::basic_string<char,std::char_traits<char>,std::allocator<char> > >,std::allocator<std::pair<std::basic_string<char,std::char_traits<char>,std::allocator<char> > const ,CBillClient::tagBillItem *> > >::operator[]
  000ad	89 28		 mov	 DWORD PTR [eax], ebp
  000af	83 7c 24 28 10	 cmp	 DWORD PTR $T276798[esp+80], 16 ; 00000010H
  000b4	72 0d		 jb	 SHORT $LN58@CallbackAw@2
  000b6	8b 4c 24 14	 mov	 ecx, DWORD PTR $T276798[esp+60]
  000ba	51		 push	 ecx
  000bb	e8 00 00 00 00	 call	 ??3@YAXPAX@Z		; operator delete
  000c0	83 c4 04	 add	 esp, 4
$LN58@CallbackAw@2:

; 481  : 
; 482  : 	//
; 483  : 	m_CallbackQueue.UnLock();

  000c3	68 0c 00 00 00	 push	 OFFSET ?m_CallbackQueue@CBillClient@@0V?$MulTiThMap@V?$basic_string@DU?$char_traits@D@std@@V?$allocator@D@2@@std@@PAUtagBillItem@CBillClient@@@@A+12
  000c8	ff 15 00 00 00
	00		 call	 DWORD PTR __imp__LeaveCriticalSection@4

; 484  : }

  000ce	8b 4c 24 2c	 mov	 ecx, DWORD PTR __$EHRec$[esp+56]
  000d2	64 89 0d 00 00
	00 00		 mov	 DWORD PTR fs:0, ecx
  000d9	59		 pop	 ecx
  000da	5f		 pop	 edi
  000db	5e		 pop	 esi
  000dc	5d		 pop	 ebp
  000dd	83 c4 28	 add	 esp, 40			; 00000028H
  000e0	c3		 ret	 0
_TEXT	ENDS
;	COMDAT text$x
text$x	SEGMENT
__unwindfunclet$?CallbackAwardAck@CBillClient@@SAXPAUGSBsipAwardAckRes@@@Z$0:
  00000	8d 4d d8	 lea	 ecx, DWORD PTR $T276798[ebp]
  00003	e9 00 00 00 00	 jmp	 ??1?$basic_string@DU?$char_traits@D@std@@V?$allocator@D@2@@std@@QAE@XZ ; std::basic_string<char,std::char_traits<char>,std::allocator<char> >::~basic_string<char,std::char_traits<char>,std::allocator<char> >
__ehhandler$?CallbackAwardAck@CBillClient@@SAXPAUGSBsipAwardAckRes@@@Z:
  00008	8b 54 24 08	 mov	 edx, DWORD PTR [esp+8]
  0000c	8d 42 d8	 lea	 eax, DWORD PTR [edx-40]
  0000f	8b 4a d4	 mov	 ecx, DWORD PTR [edx-44]
  00012	33 c8		 xor	 ecx, eax
  00014	e8 00 00 00 00	 call	 @__security_check_cookie@4
  00019	b8 00 00 00 00	 mov	 eax, OFFSET __ehfuncinfo$?CallbackAwardAck@CBillClient@@SAXPAUGSBsipAwardAckRes@@@Z
  0001e	e9 00 00 00 00	 jmp	 ___CxxFrameHandler3
text$x	ENDS
?CallbackAwardAck@CBillClient@@SAXPAUGSBsipAwardAckRes@@@Z ENDP ; CBillClient::CallbackAwardAck
PUBLIC	?BsipSetCallBackFunction@CBillClient@@QAEHXZ	; CBillClient::BsipSetCallBackFunction
; Function compile flags: /Ogtpy
;	COMDAT ?BsipSetCallBackFunction@CBillClient@@QAEHXZ
_TEXT	SEGMENT
?BsipSetCallBackFunction@CBillClient@@QAEHXZ PROC	; CBillClient::BsipSetCallBackFunction, COMDAT
; _this$ = ecx

; 498  : {

  00000	56		 push	 esi

; 499  : 	memset(&m_CallbackFun, 0 ,sizeof(GSCallbackFuncDef));

  00001	6a 3c		 push	 60			; 0000003cH
  00003	8b f1		 mov	 esi, ecx
  00005	6a 00		 push	 0
  00007	56		 push	 esi
  00008	e8 00 00 00 00	 call	 _memset
  0000d	83 c4 0c	 add	 esp, 12			; 0000000cH

; 500  : 	m_CallbackFun.CallbackAccountAuthenRes		=	CallbackAccountAuthen;

  00010	c7 46 08 00 00
	00 00		 mov	 DWORD PTR [esi+8], OFFSET ?CallbackAccountAuthen@CBillClient@@SAXPAUGSBsipAccountAuthenRes@@@Z ; CBillClient::CallbackAccountAuthen

; 501  : 	m_CallbackFun.CallbackAccountLockRes		=	CallbackAccountLock;

  00017	c7 46 0c 00 00
	00 00		 mov	 DWORD PTR [esi+12], OFFSET ?CallbackAccountLock@CBillClient@@SAXPAUGSBsipAccountLockRes@@@Z ; CBillClient::CallbackAccountLock

; 502  : 	m_CallbackFun.CallbackAccountUnlockRes  	=	CallbackAccountUnlock;

  0001e	c7 46 10 00 00
	00 00		 mov	 DWORD PTR [esi+16], OFFSET ?CallbackAccountUnlock@CBillClient@@SAXPAUGSBsipAccountUnlockRes@@@Z ; CBillClient::CallbackAccountUnlock

; 503  : 	m_CallbackFun.CallbackConsignTransferRes  	=	CallbackConsignTransfer;

  00025	c7 46 24 00 00
	00 00		 mov	 DWORD PTR [esi+36], OFFSET ?CallbackConsignTransfer@CBillClient@@SAXPAUGSBsipConsignTransferRes@@@Z ; CBillClient::CallbackConsignTransfer

; 504  : 	m_CallbackFun.CallbackAwardAuthenRes	    =	CallbackAwardAuthen;

  0002c	c7 46 1c 00 00
	00 00		 mov	 DWORD PTR [esi+28], OFFSET ?CallbackAwardAuthen@CBillClient@@SAXPAUGSBsipAwardAuthenRes@@@Z ; CBillClient::CallbackAwardAuthen

; 505  : 	m_CallbackFun.CallbackAwardAckRes	        =	CallbackAwardAck;

  00033	c7 46 20 00 00
	00 00		 mov	 DWORD PTR [esi+32], OFFSET ?CallbackAwardAck@CBillClient@@SAXPAUGSBsipAwardAckRes@@@Z ; CBillClient::CallbackAwardAck

; 506  : 
; 507  : 	return 0;

  0003a	33 c0		 xor	 eax, eax
  0003c	5e		 pop	 esi

; 508  : }

  0003d	c3		 ret	 0
?BsipSetCallBackFunction@CBillClient@@QAEHXZ ENDP	; CBillClient::BsipSetCallBackFunction
_TEXT	ENDS
EXTRN	_atexit:PROC
EXTRN	?GUID_INVALID@CGUID@@2V1@A:BYTE			; CGUID::GUID_INVALID
; Function compile flags: /Ogtpy
; File d:\project_p6\trunk\public\module\guid.h
;	COMDAT ??__ENULL_GUID@@YAXXZ
text$yc	SEGMENT
??__ENULL_GUID@@YAXXZ PROC				; `dynamic initializer for 'NULL_GUID'', COMDAT

; 140  : const CGUID NULL_GUID = CGUID::GUID_INVALID;

  00000	f3 0f 7e 05 00
	00 00 00	 movq	 xmm0, QWORD PTR ?GUID_INVALID@CGUID@@2V1@A
  00008	66 0f d6 05 00
	00 00 00	 movq	 QWORD PTR _NULL_GUID, xmm0
  00010	f3 0f 7e 05 08
	00 00 00	 movq	 xmm0, QWORD PTR ?GUID_INVALID@CGUID@@2V1@A+8
  00018	68 00 00 00 00	 push	 OFFSET ??__FNULL_GUID@@YAXXZ ; `dynamic atexit destructor for 'NULL_GUID''
  0001d	66 0f d6 05 08
	00 00 00	 movq	 QWORD PTR _NULL_GUID+8, xmm0
  00025	e8 00 00 00 00	 call	 _atexit
  0002a	59		 pop	 ecx
  0002b	c3		 ret	 0
??__ENULL_GUID@@YAXXZ ENDP				; `dynamic initializer for 'NULL_GUID''
; Function compile flags: /Ogtpy
; File d:\project_p6\trunk\server\gameserver\server\billclient.cpp
text$yc	ENDS
;	COMDAT ??__E?m_CallerQueue@CBillClient@@0V?$MulTiThMap@V?$basic_string@DU?$char_traits@D@std@@V?$allocator@D@2@@std@@PAUtagBillItem@CBillClient@@@@A@@YAXXZ
text$yc	SEGMENT
??__E?m_CallerQueue@CBillClient@@0V?$MulTiThMap@V?$basic_string@DU?$char_traits@D@std@@V?$allocator@D@2@@std@@PAUtagBillItem@CBillClient@@@@A@@YAXXZ PROC ; `dynamic initializer for 'CBillClient::m_CallerQueue'', COMDAT

; 16   : CBillClient::mapBill		CBillClient::m_CallerQueue;	

  00000	b9 00 00 00 00	 mov	 ecx, OFFSET ?m_CallerQueue@CBillClient@@0V?$MulTiThMap@V?$basic_string@DU?$char_traits@D@std@@V?$allocator@D@2@@std@@PAUtagBillItem@CBillClient@@@@A ; CBillClient::m_CallerQueue
  00005	e8 00 00 00 00	 call	 ?_Buynode@?$_Tree@V?$_Tmap_traits@V?$basic_string@DU?$char_traits@D@std@@V?$allocator@D@2@@std@@PAUtagBillItem@CBillClient@@U?$less@V?$basic_string@DU?$char_traits@D@std@@V?$allocator@D@2@@std@@@2@V?$allocator@U?$pair@$$CBV?$basic_string@DU?$char_traits@D@std@@V?$allocator@D@2@@std@@PAUtagBillItem@CBillClient@@@std@@@2@$0A@@std@@@std@@IAEPAU_Node@?$_Tree_nod@V?$_Tmap_traits@V?$basic_string@DU?$char_traits@D@std@@V?$allocator@D@2@@std@@PAUtagBillItem@CBillClient@@U?$less@V?$basic_string@DU?$char_traits@D@std@@V?$allocator@D@2@@std@@@2@V?$allocator@U?$pair@$$CBV?$basic_string@DU?$char_traits@D@std@@V?$allocator@D@2@@std@@PAUtagBillItem@CBillClient@@@std@@@2@$0A@@std@@@2@XZ ; std::_Tree<std::_Tmap_traits<std::basic_string<char,std::char_traits<char>,std::allocator<char> >,CBillClient::tagBillItem *,std::less<std::basic_string<char,std::char_traits<char>,std::allocator<char> > >,std::allocator<std::pair<std::basic_string<char,std::char_traits<char>,std::allocator<char> > const ,CBillClient::tagBillItem *> >,0> >::_Buynode
  0000a	a3 04 00 00 00	 mov	 DWORD PTR ?m_CallerQueue@CBillClient@@0V?$MulTiThMap@V?$basic_string@DU?$char_traits@D@std@@V?$allocator@D@2@@std@@PAUtagBillItem@CBillClient@@@@A+4, eax
  0000f	c6 40 2d 01	 mov	 BYTE PTR [eax+45], 1
  00013	a1 04 00 00 00	 mov	 eax, DWORD PTR ?m_CallerQueue@CBillClient@@0V?$MulTiThMap@V?$basic_string@DU?$char_traits@D@std@@V?$allocator@D@2@@std@@PAUtagBillItem@CBillClient@@@@A+4
  00018	89 40 04	 mov	 DWORD PTR [eax+4], eax
  0001b	a1 04 00 00 00	 mov	 eax, DWORD PTR ?m_CallerQueue@CBillClient@@0V?$MulTiThMap@V?$basic_string@DU?$char_traits@D@std@@V?$allocator@D@2@@std@@PAUtagBillItem@CBillClient@@@@A+4
  00020	89 00		 mov	 DWORD PTR [eax], eax
  00022	a1 04 00 00 00	 mov	 eax, DWORD PTR ?m_CallerQueue@CBillClient@@0V?$MulTiThMap@V?$basic_string@DU?$char_traits@D@std@@V?$allocator@D@2@@std@@PAUtagBillItem@CBillClient@@@@A+4
  00027	89 40 08	 mov	 DWORD PTR [eax+8], eax
  0002a	68 0c 00 00 00	 push	 OFFSET ?m_CallerQueue@CBillClient@@0V?$MulTiThMap@V?$basic_string@DU?$char_traits@D@std@@V?$allocator@D@2@@std@@PAUtagBillItem@CBillClient@@@@A+12
  0002f	c7 05 08 00 00
	00 00 00 00 00	 mov	 DWORD PTR ?m_CallerQueue@CBillClient@@0V?$MulTiThMap@V?$basic_string@DU?$char_traits@D@std@@V?$allocator@D@2@@std@@PAUtagBillItem@CBillClient@@@@A+8, 0
  00039	ff 15 00 00 00
	00		 call	 DWORD PTR __imp__InitializeCriticalSection@4
  0003f	68 00 00 00 00	 push	 OFFSET ??__F?m_CallerQueue@CBillClient@@0V?$MulTiThMap@V?$basic_string@DU?$char_traits@D@std@@V?$allocator@D@2@@std@@PAUtagBillItem@CBillClient@@@@A@@YAXXZ ; `dynamic atexit destructor for 'CBillClient::m_CallerQueue''
  00044	e8 00 00 00 00	 call	 _atexit
  00049	59		 pop	 ecx
  0004a	c3		 ret	 0
??__E?m_CallerQueue@CBillClient@@0V?$MulTiThMap@V?$basic_string@DU?$char_traits@D@std@@V?$allocator@D@2@@std@@PAUtagBillItem@CBillClient@@@@A@@YAXXZ ENDP ; `dynamic initializer for 'CBillClient::m_CallerQueue''
; Function compile flags: /Ogtpy
text$yc	ENDS
;	COMDAT ??__E?m_CallbackQueue@CBillClient@@0V?$MulTiThMap@V?$basic_string@DU?$char_traits@D@std@@V?$allocator@D@2@@std@@PAUtagBillItem@CBillClient@@@@A@@YAXXZ
text$yc	SEGMENT
??__E?m_CallbackQueue@CBillClient@@0V?$MulTiThMap@V?$basic_string@DU?$char_traits@D@std@@V?$allocator@D@2@@std@@PAUtagBillItem@CBillClient@@@@A@@YAXXZ PROC ; `dynamic initializer for 'CBillClient::m_CallbackQueue'', COMDAT

; 17   : CBillClient::mapBill		CBillClient::m_CallbackQueue;

  00000	b9 00 00 00 00	 mov	 ecx, OFFSET ?m_CallbackQueue@CBillClient@@0V?$MulTiThMap@V?$basic_string@DU?$char_traits@D@std@@V?$allocator@D@2@@std@@PAUtagBillItem@CBillClient@@@@A ; CBillClient::m_CallbackQueue
  00005	e8 00 00 00 00	 call	 ?_Buynode@?$_Tree@V?$_Tmap_traits@V?$basic_string@DU?$char_traits@D@std@@V?$allocator@D@2@@std@@PAUtagBillItem@CBillClient@@U?$less@V?$basic_string@DU?$char_traits@D@std@@V?$allocator@D@2@@std@@@2@V?$allocator@U?$pair@$$CBV?$basic_string@DU?$char_traits@D@std@@V?$allocator@D@2@@std@@PAUtagBillItem@CBillClient@@@std@@@2@$0A@@std@@@std@@IAEPAU_Node@?$_Tree_nod@V?$_Tmap_traits@V?$basic_string@DU?$char_traits@D@std@@V?$allocator@D@2@@std@@PAUtagBillItem@CBillClient@@U?$less@V?$basic_string@DU?$char_traits@D@std@@V?$allocator@D@2@@std@@@2@V?$allocator@U?$pair@$$CBV?$basic_string@DU?$char_traits@D@std@@V?$allocator@D@2@@std@@PAUtagBillItem@CBillClient@@@std@@@2@$0A@@std@@@2@XZ ; std::_Tree<std::_Tmap_traits<std::basic_string<char,std::char_traits<char>,std::allocator<char> >,CBillClient::tagBillItem *,std::less<std::basic_string<char,std::char_traits<char>,std::allocator<char> > >,std::allocator<std::pair<std::basic_string<char,std::char_traits<char>,std::allocator<char> > const ,CBillClient::tagBillItem *> >,0> >::_Buynode
  0000a	a3 04 00 00 00	 mov	 DWORD PTR ?m_CallbackQueue@CBillClient@@0V?$MulTiThMap@V?$basic_string@DU?$char_traits@D@std@@V?$allocator@D@2@@std@@PAUtagBillItem@CBillClient@@@@A+4, eax
  0000f	c6 40 2d 01	 mov	 BYTE PTR [eax+45], 1
  00013	a1 04 00 00 00	 mov	 eax, DWORD PTR ?m_CallbackQueue@CBillClient@@0V?$MulTiThMap@V?$basic_string@DU?$char_traits@D@std@@V?$allocator@D@2@@std@@PAUtagBillItem@CBillClient@@@@A+4
  00018	89 40 04	 mov	 DWORD PTR [eax+4], eax
  0001b	a1 04 00 00 00	 mov	 eax, DWORD PTR ?m_CallbackQueue@CBillClient@@0V?$MulTiThMap@V?$basic_string@DU?$char_traits@D@std@@V?$allocator@D@2@@std@@PAUtagBillItem@CBillClient@@@@A+4
  00020	89 00		 mov	 DWORD PTR [eax], eax
  00022	a1 04 00 00 00	 mov	 eax, DWORD PTR ?m_CallbackQueue@CBillClient@@0V?$MulTiThMap@V?$basic_string@DU?$char_traits@D@std@@V?$allocator@D@2@@std@@PAUtagBillItem@CBillClient@@@@A+4
  00027	89 40 08	 mov	 DWORD PTR [eax+8], eax
  0002a	68 0c 00 00 00	 push	 OFFSET ?m_CallbackQueue@CBillClient@@0V?$MulTiThMap@V?$basic_string@DU?$char_traits@D@std@@V?$allocator@D@2@@std@@PAUtagBillItem@CBillClient@@@@A+12
  0002f	c7 05 08 00 00
	00 00 00 00 00	 mov	 DWORD PTR ?m_CallbackQueue@CBillClient@@0V?$MulTiThMap@V?$basic_string@DU?$char_traits@D@std@@V?$allocator@D@2@@std@@PAUtagBillItem@CBillClient@@@@A+8, 0
  00039	ff 15 00 00 00
	00		 call	 DWORD PTR __imp__InitializeCriticalSection@4
  0003f	68 00 00 00 00	 push	 OFFSET ??__F?m_CallbackQueue@CBillClient@@0V?$MulTiThMap@V?$basic_string@DU?$char_traits@D@std@@V?$allocator@D@2@@std@@PAUtagBillItem@CBillClient@@@@A@@YAXXZ ; `dynamic atexit destructor for 'CBillClient::m_CallbackQueue''
  00044	e8 00 00 00 00	 call	 _atexit
  00049	59		 pop	 ecx
  0004a	c3		 ret	 0
??__E?m_CallbackQueue@CBillClient@@0V?$MulTiThMap@V?$basic_string@DU?$char_traits@D@std@@V?$allocator@D@2@@std@@PAUtagBillItem@CBillClient@@@@A@@YAXXZ ENDP ; `dynamic initializer for 'CBillClient::m_CallbackQueue''
; Function compile flags: /Ogtpy
text$yc	ENDS
;	COMDAT ??__FNULL_GUID@@YAXXZ
text$yd	SEGMENT
??__FNULL_GUID@@YAXXZ PROC				; `dynamic atexit destructor for 'NULL_GUID'', COMDAT
  00000	c3		 ret	 0
??__FNULL_GUID@@YAXXZ ENDP				; `dynamic atexit destructor for 'NULL_GUID''
; Function compile flags: /Ogtpy
text$yd	ENDS
;	COMDAT ??__F?m_CallerQueue@CBillClient@@0V?$MulTiThMap@V?$basic_string@DU?$char_traits@D@std@@V?$allocator@D@2@@std@@PAUtagBillItem@CBillClient@@@@A@@YAXXZ
text$yd	SEGMENT
$T277863 = -8						; size = 8
??__F?m_CallerQueue@CBillClient@@0V?$MulTiThMap@V?$basic_string@DU?$char_traits@D@std@@V?$allocator@D@2@@std@@PAUtagBillItem@CBillClient@@@@A@@YAXXZ PROC ; `dynamic atexit destructor for 'CBillClient::m_CallerQueue'', COMDAT
  00000	83 ec 08	 sub	 esp, 8
  00003	56		 push	 esi
  00004	68 0c 00 00 00	 push	 OFFSET ?m_CallerQueue@CBillClient@@0V?$MulTiThMap@V?$basic_string@DU?$char_traits@D@std@@V?$allocator@D@2@@std@@PAUtagBillItem@CBillClient@@@@A+12
  00009	ff 15 00 00 00
	00		 call	 DWORD PTR __imp__DeleteCriticalSection@4
  0000f	a1 04 00 00 00	 mov	 eax, DWORD PTR ?m_CallerQueue@CBillClient@@0V?$MulTiThMap@V?$basic_string@DU?$char_traits@D@std@@V?$allocator@D@2@@std@@PAUtagBillItem@CBillClient@@@@A+4
  00014	8b 10		 mov	 edx, DWORD PTR [eax]
  00016	50		 push	 eax
  00017	b9 00 00 00 00	 mov	 ecx, OFFSET ?m_CallerQueue@CBillClient@@0V?$MulTiThMap@V?$basic_string@DU?$char_traits@D@std@@V?$allocator@D@2@@std@@PAUtagBillItem@CBillClient@@@@A ; CBillClient::m_CallerQueue
  0001c	51		 push	 ecx
  0001d	52		 push	 edx
  0001e	8b f1		 mov	 esi, ecx
  00020	56		 push	 esi
  00021	8d 44 24 14	 lea	 eax, DWORD PTR $T277863[esp+28]
  00025	50		 push	 eax
  00026	e8 00 00 00 00	 call	 ?erase@?$_Tree@V?$_Tmap_traits@V?$basic_string@DU?$char_traits@D@std@@V?$allocator@D@2@@std@@PAUtagBillItem@CBillClient@@U?$less@V?$basic_string@DU?$char_traits@D@std@@V?$allocator@D@2@@std@@@2@V?$allocator@U?$pair@$$CBV?$basic_string@DU?$char_traits@D@std@@V?$allocator@D@2@@std@@PAUtagBillItem@CBillClient@@@std@@@2@$0A@@std@@@std@@QAE?AViterator@12@V312@0@Z ; std::_Tree<std::_Tmap_traits<std::basic_string<char,std::char_traits<char>,std::allocator<char> >,CBillClient::tagBillItem *,std::less<std::basic_string<char,std::char_traits<char>,std::allocator<char> > >,std::allocator<std::pair<std::basic_string<char,std::char_traits<char>,std::allocator<char> > const ,CBillClient::tagBillItem *> >,0> >::erase
  0002b	8b 0d 04 00 00
	00		 mov	 ecx, DWORD PTR ?m_CallerQueue@CBillClient@@0V?$MulTiThMap@V?$basic_string@DU?$char_traits@D@std@@V?$allocator@D@2@@std@@PAUtagBillItem@CBillClient@@@@A+4
  00031	51		 push	 ecx
  00032	e8 00 00 00 00	 call	 ??3@YAXPAX@Z		; operator delete
  00037	83 c4 04	 add	 esp, 4
  0003a	33 c0		 xor	 eax, eax
  0003c	a3 04 00 00 00	 mov	 DWORD PTR ?m_CallerQueue@CBillClient@@0V?$MulTiThMap@V?$basic_string@DU?$char_traits@D@std@@V?$allocator@D@2@@std@@PAUtagBillItem@CBillClient@@@@A+4, eax
  00041	a3 08 00 00 00	 mov	 DWORD PTR ?m_CallerQueue@CBillClient@@0V?$MulTiThMap@V?$basic_string@DU?$char_traits@D@std@@V?$allocator@D@2@@std@@PAUtagBillItem@CBillClient@@@@A+8, eax
  00046	5e		 pop	 esi
  00047	83 c4 08	 add	 esp, 8
  0004a	c3		 ret	 0
??__F?m_CallerQueue@CBillClient@@0V?$MulTiThMap@V?$basic_string@DU?$char_traits@D@std@@V?$allocator@D@2@@std@@PAUtagBillItem@CBillClient@@@@A@@YAXXZ ENDP ; `dynamic atexit destructor for 'CBillClient::m_CallerQueue''
; Function compile flags: /Ogtpy
text$yd	ENDS
;	COMDAT ??__F?m_CallbackQueue@CBillClient@@0V?$MulTiThMap@V?$basic_string@DU?$char_traits@D@std@@V?$allocator@D@2@@std@@PAUtagBillItem@CBillClient@@@@A@@YAXXZ
text$yd	SEGMENT
$T278149 = -8						; size = 8
??__F?m_CallbackQueue@CBillClient@@0V?$MulTiThMap@V?$basic_string@DU?$char_traits@D@std@@V?$allocator@D@2@@std@@PAUtagBillItem@CBillClient@@@@A@@YAXXZ PROC ; `dynamic atexit destructor for 'CBillClient::m_CallbackQueue'', COMDAT
  00000	83 ec 08	 sub	 esp, 8
  00003	56		 push	 esi
  00004	68 0c 00 00 00	 push	 OFFSET ?m_CallbackQueue@CBillClient@@0V?$MulTiThMap@V?$basic_string@DU?$char_traits@D@std@@V?$allocator@D@2@@std@@PAUtagBillItem@CBillClient@@@@A+12
  00009	ff 15 00 00 00
	00		 call	 DWORD PTR __imp__DeleteCriticalSection@4
  0000f	a1 04 00 00 00	 mov	 eax, DWORD PTR ?m_CallbackQueue@CBillClient@@0V?$MulTiThMap@V?$basic_string@DU?$char_traits@D@std@@V?$allocator@D@2@@std@@PAUtagBillItem@CBillClient@@@@A+4
  00014	8b 10		 mov	 edx, DWORD PTR [eax]
  00016	50		 push	 eax
  00017	b9 00 00 00 00	 mov	 ecx, OFFSET ?m_CallbackQueue@CBillClient@@0V?$MulTiThMap@V?$basic_string@DU?$char_traits@D@std@@V?$allocator@D@2@@std@@PAUtagBillItem@CBillClient@@@@A ; CBillClient::m_CallbackQueue
  0001c	51		 push	 ecx
  0001d	52		 push	 edx
  0001e	8b f1		 mov	 esi, ecx
  00020	56		 push	 esi
  00021	8d 44 24 14	 lea	 eax, DWORD PTR $T278149[esp+28]
  00025	50		 push	 eax
  00026	e8 00 00 00 00	 call	 ?erase@?$_Tree@V?$_Tmap_traits@V?$basic_string@DU?$char_traits@D@std@@V?$allocator@D@2@@std@@PAUtagBillItem@CBillClient@@U?$less@V?$basic_string@DU?$char_traits@D@std@@V?$allocator@D@2@@std@@@2@V?$allocator@U?$pair@$$CBV?$basic_string@DU?$char_traits@D@std@@V?$allocator@D@2@@std@@PAUtagBillItem@CBillClient@@@std@@@2@$0A@@std@@@std@@QAE?AViterator@12@V312@0@Z ; std::_Tree<std::_Tmap_traits<std::basic_string<char,std::char_traits<char>,std::allocator<char> >,CBillClient::tagBillItem *,std::less<std::basic_string<char,std::char_traits<char>,std::allocator<char> > >,std::allocator<std::pair<std::basic_string<char,std::char_traits<char>,std::allocator<char> > const ,CBillClient::tagBillItem *> >,0> >::erase
  0002b	8b 0d 04 00 00
	00		 mov	 ecx, DWORD PTR ?m_CallbackQueue@CBillClient@@0V?$MulTiThMap@V?$basic_string@DU?$char_traits@D@std@@V?$allocator@D@2@@std@@PAUtagBillItem@CBillClient@@@@A+4
  00031	51		 push	 ecx
  00032	e8 00 00 00 00	 call	 ??3@YAXPAX@Z		; operator delete
  00037	83 c4 04	 add	 esp, 4
  0003a	33 c0		 xor	 eax, eax
  0003c	a3 04 00 00 00	 mov	 DWORD PTR ?m_CallbackQueue@CBillClient@@0V?$MulTiThMap@V?$basic_string@DU?$char_traits@D@std@@V?$allocator@D@2@@std@@PAUtagBillItem@CBillClient@@@@A+4, eax
  00041	a3 08 00 00 00	 mov	 DWORD PTR ?m_CallbackQueue@CBillClient@@0V?$MulTiThMap@V?$basic_string@DU?$char_traits@D@std@@V?$allocator@D@2@@std@@PAUtagBillItem@CBillClient@@@@A+8, eax
  00046	5e		 pop	 esi
  00047	83 c4 08	 add	 esp, 8
  0004a	c3		 ret	 0
??__F?m_CallbackQueue@CBillClient@@0V?$MulTiThMap@V?$basic_string@DU?$char_traits@D@std@@V?$allocator@D@2@@std@@PAUtagBillItem@CBillClient@@@@A@@YAXXZ ENDP ; `dynamic atexit destructor for 'CBillClient::m_CallbackQueue''
text$yd	ENDS
PUBLIC	?id@?$codecvt@DDH@std@@2V0locale@2@A		; std::codecvt<char,char,int>::id
PUBLIC	?m_CallbackQueue@CBillClient@@0V?$MulTiThMap@V?$basic_string@DU?$char_traits@D@std@@V?$allocator@D@2@@std@@PAUtagBillItem@CBillClient@@@@A ; CBillClient::m_CallbackQueue
PUBLIC	?m_CallerQueue@CBillClient@@0V?$MulTiThMap@V?$basic_string@DU?$char_traits@D@std@@V?$allocator@D@2@@std@@PAUtagBillItem@CBillClient@@@@A ; CBillClient::m_CallerQueue
;	COMDAT ?id@?$codecvt@DDH@std@@2V0locale@2@A
_BSS	SEGMENT
?id@?$codecvt@DDH@std@@2V0locale@2@A DD 01H DUP (?)	; std::codecvt<char,char,int>::id
_BSS	ENDS
_BSS	SEGMENT
?m_CallbackQueue@CBillClient@@0V?$MulTiThMap@V?$basic_string@DU?$char_traits@D@std@@V?$allocator@D@2@@std@@PAUtagBillItem@CBillClient@@@@A DB 024H DUP (?) ; CBillClient::m_CallbackQueue
?m_CallerQueue@CBillClient@@0V?$MulTiThMap@V?$basic_string@DU?$char_traits@D@std@@V?$allocator@D@2@@std@@PAUtagBillItem@CBillClient@@@@A DB 024H DUP (?) ; CBillClient::m_CallerQueue
_NULL_GUID DB	010H DUP (?)
_BSS	ENDS
CRT$XCU	SEGMENT
_NULL_GUID$initializer$ DD FLAT:??__ENULL_GUID@@YAXXZ
?m_CallerQueue$initializer$@CBillClient@@0P6AXXZA DD FLAT:??__E?m_CallerQueue@CBillClient@@0V?$MulTiThMap@V?$basic_string@DU?$char_traits@D@std@@V?$allocator@D@2@@std@@PAUtagBillItem@CBillClient@@@@A@@YAXXZ ; CBillClient::m_CallerQueue$initializer$
?m_CallbackQueue$initializer$@CBillClient@@0P6AXXZA DD FLAT:??__E?m_CallbackQueue@CBillClient@@0V?$MulTiThMap@V?$basic_string@DU?$char_traits@D@std@@V?$allocator@D@2@@std@@PAUtagBillItem@CBillClient@@@@A@@YAXXZ ; CBillClient::m_CallbackQueue$initializer$
CRT$XCU	ENDS
END
