; Listing generated by Microsoft (R) Optimizing Compiler Version 14.00.50727.762 

	TITLE	D:\Project_P6\trunk\Server\GameServer\Server\GameManagerEx.cpp
	.686P
	.XMM
	include listing.inc
	.model	flat

INCLUDELIB LIBCMT
INCLUDELIB OLDNAMES

PUBLIC	??_C@_07HHAEFFJO@CLS?9RGN?$AA@			; `string'
PUBLIC	?SUBPACK_NUM@CSubpackContainer@@2HB		; CSubpackContainer::SUBPACK_NUM
;	COMDAT ?SUBPACK_NUM@CSubpackContainer@@2HB
CONST	SEGMENT
?SUBPACK_NUM@CSubpackContainer@@2HB DD 05H		; CSubpackContainer::SUBPACK_NUM
CONST	ENDS
;	COMDAT ??_C@_07HHAEFFJO@CLS?9RGN?$AA@
CONST	SEGMENT
??_C@_07HHAEFFJO@CLS?9RGN?$AA@ DB 'CLS-RGN', 00H	; `string'
CONST	ENDS
_DATA	SEGMENT
__area	DD	00H
	DD	00H
	DD	0ffffffffH
	DD	0ffffffffH
	DD	00H
	DD	0ffffffffH
	DD	01H
	DD	0ffffffffH
	DD	0ffffffffH
	DD	00H
	DD	01H
	DD	00H
	DD	0ffffffffH
	DD	01H
	DD	00H
	DD	01H
	DD	01H
	DD	01H
_g_strRegionHead DD FLAT:??_C@_07HHAEFFJO@CLS?9RGN?$AA@
_DATA	ENDS
CONST	SEGMENT
_MIN_VAL DD	00H
	DD	00H
	DD	00H
	DD	00H
	DD	080000001H
	DD	0ffff8001H
	DD	00H
_MAX_VAL DD	0100H
	DD	010000H
	DD	07fffffffH
	DD	05f5e100H
	DD	07fffffffH
	DD	07fffH
	DD	01H
_PI	DD	040490fdbr			; 3.14159
CONST	ENDS
PUBLIC	?GetType@CBaseObject@@QBEJXZ			; CBaseObject::GetType
; Function compile flags: /Ogtpy
; File d:\project_p6\trunk\server\gameserver\app\baseobject.h
;	COMDAT ?GetType@CBaseObject@@QBEJXZ
_TEXT	SEGMENT
?GetType@CBaseObject@@QBEJXZ PROC			; CBaseObject::GetType, COMDAT
; _this$ = ecx

; 66   : 	long GetType() const								{ return m_lType;					};

  00000	8b 41 04	 mov	 eax, DWORD PTR [ecx+4]
  00003	c3		 ret	 0
?GetType@CBaseObject@@QBEJXZ ENDP			; CBaseObject::GetType
_TEXT	ENDS
PUBLIC	?SetType@CBaseObject@@QAEXJ@Z			; CBaseObject::SetType
; Function compile flags: /Ogtpy
;	COMDAT ?SetType@CBaseObject@@QAEXJ@Z
_TEXT	SEGMENT
_l$ = 8							; size = 4
?SetType@CBaseObject@@QAEXJ@Z PROC			; CBaseObject::SetType, COMDAT
; _this$ = ecx

; 67   : 	void SetType(long l)								{ if(0 == m_lType) m_lType = l;		};

  00000	83 79 04 00	 cmp	 DWORD PTR [ecx+4], 0
  00004	75 07		 jne	 SHORT $LN1@SetType
  00006	8b 44 24 04	 mov	 eax, DWORD PTR _l$[esp-4]
  0000a	89 41 04	 mov	 DWORD PTR [ecx+4], eax
$LN1@SetType:
  0000d	c2 04 00	 ret	 4
?SetType@CBaseObject@@QAEXJ@Z ENDP			; CBaseObject::SetType
_TEXT	ENDS
PUBLIC	?GetExID@CBaseObject@@QBEABVCGUID@@XZ		; CBaseObject::GetExID
; Function compile flags: /Ogtpy
;	COMDAT ?GetExID@CBaseObject@@QBEABVCGUID@@XZ
_TEXT	SEGMENT
?GetExID@CBaseObject@@QBEABVCGUID@@XZ PROC		; CBaseObject::GetExID, COMDAT
; _this$ = ecx

; 70   : 	const CGUID&	GetExID() const						{return m_guid;						};

  00000	8d 41 08	 lea	 eax, DWORD PTR [ecx+8]
  00003	c3		 ret	 0
?GetExID@CBaseObject@@QBEABVCGUID@@XZ ENDP		; CBaseObject::GetExID
_TEXT	ENDS
PUBLIC	?assign@?$char_traits@D@std@@SAXAADABD@Z	; std::char_traits<char>::assign
; Function compile flags: /Ogtpy
; File d:\program files\microsoft visual studio 8\vc\include\iosfwd
;	COMDAT ?assign@?$char_traits@D@std@@SAXAADABD@Z
_TEXT	SEGMENT
__Left$ = 8						; size = 4
__Right$ = 12						; size = 4
?assign@?$char_traits@D@std@@SAXAADABD@Z PROC		; std::char_traits<char>::assign, COMDAT

; 418  : 		_Left = _Right;

  00000	8b 44 24 08	 mov	 eax, DWORD PTR __Right$[esp-4]
  00004	8a 08		 mov	 cl, BYTE PTR [eax]
  00006	8b 54 24 04	 mov	 edx, DWORD PTR __Left$[esp-4]
  0000a	88 0a		 mov	 BYTE PTR [edx], cl

; 419  : 		}

  0000c	c3		 ret	 0
?assign@?$char_traits@D@std@@SAXAADABD@Z ENDP		; std::char_traits<char>::assign
_TEXT	ENDS
PUBLIC	?length@?$char_traits@D@std@@SAIPBD@Z		; std::char_traits<char>::length
; Function compile flags: /Ogtpy
;	COMDAT ?length@?$char_traits@D@std@@SAIPBD@Z
_TEXT	SEGMENT
__First$ = 8						; size = 4
?length@?$char_traits@D@std@@SAIPBD@Z PROC		; std::char_traits<char>::length, COMDAT

; 441  : //		_DEBUG_POINTER(_First);
; 442  : 		return (::strlen(_First));

  00000	8b 44 24 04	 mov	 eax, DWORD PTR __First$[esp-4]
  00004	8d 50 01	 lea	 edx, DWORD PTR [eax+1]
$LL3@length:
  00007	8a 08		 mov	 cl, BYTE PTR [eax]
  00009	83 c0 01	 add	 eax, 1
  0000c	84 c9		 test	 cl, cl
  0000e	75 f7		 jne	 SHORT $LL3@length
  00010	2b c2		 sub	 eax, edx

; 443  : 		}

  00012	c3		 ret	 0
?length@?$char_traits@D@std@@SAIPBD@Z ENDP		; std::char_traits<char>::length
_TEXT	ENDS
PUBLIC	?_Copy_s@?$char_traits@D@std@@SAPADPADIPBDI@Z	; std::char_traits<char>::_Copy_s
EXTRN	_memcpy_s:PROC
; Function compile flags: /Ogtpy
;	COMDAT ?_Copy_s@?$char_traits@D@std@@SAPADPADIPBDI@Z
_TEXT	SEGMENT
__First1$ = 8						; size = 4
__Size_in_bytes$ = 12					; size = 4
__First2$ = 16						; size = 4
__Count$ = 20						; size = 4
?_Copy_s@?$char_traits@D@std@@SAPADPADIPBDI@Z PROC	; std::char_traits<char>::_Copy_s, COMDAT

; 456  : //		_DEBUG_POINTER(_First1);
; 457  : //		_DEBUG_POINTER(_First2);
; 458  : 		_CRT_SECURE_MEMCPY(_First1, _Size_in_bytes, _First2, _Count);

  00000	8b 44 24 10	 mov	 eax, DWORD PTR __Count$[esp-4]
  00004	8b 4c 24 0c	 mov	 ecx, DWORD PTR __First2$[esp-4]
  00008	8b 54 24 08	 mov	 edx, DWORD PTR __Size_in_bytes$[esp-4]
  0000c	56		 push	 esi
  0000d	8b 74 24 08	 mov	 esi, DWORD PTR __First1$[esp]
  00011	50		 push	 eax
  00012	51		 push	 ecx
  00013	52		 push	 edx
  00014	56		 push	 esi
  00015	e8 00 00 00 00	 call	 _memcpy_s
  0001a	83 c4 10	 add	 esp, 16			; 00000010H

; 459  : 		return _First1;

  0001d	8b c6		 mov	 eax, esi
  0001f	5e		 pop	 esi

; 460  : 		}

  00020	c3		 ret	 0
?_Copy_s@?$char_traits@D@std@@SAPADPADIPBDI@Z ENDP	; std::char_traits<char>::_Copy_s
_TEXT	ENDS
PUBLIC	?_Move_s@?$char_traits@D@std@@SAPADPADIPBDI@Z	; std::char_traits<char>::_Move_s
EXTRN	_memmove_s:PROC
; Function compile flags: /Ogtpy
;	COMDAT ?_Move_s@?$char_traits@D@std@@SAPADPADIPBDI@Z
_TEXT	SEGMENT
__First1$ = 8						; size = 4
__Size_in_bytes$ = 12					; size = 4
__First2$ = 16						; size = 4
__Count$ = 20						; size = 4
?_Move_s@?$char_traits@D@std@@SAPADPADIPBDI@Z PROC	; std::char_traits<char>::_Move_s, COMDAT

; 480  : //		_DEBUG_POINTER(_First1);
; 481  : //		_DEBUG_POINTER(_First2);
; 482  : 		_CRT_SECURE_MEMMOVE(_First1, _Size_in_bytes, _First2, _Count);

  00000	8b 44 24 10	 mov	 eax, DWORD PTR __Count$[esp-4]
  00004	8b 4c 24 0c	 mov	 ecx, DWORD PTR __First2$[esp-4]
  00008	8b 54 24 08	 mov	 edx, DWORD PTR __Size_in_bytes$[esp-4]
  0000c	56		 push	 esi
  0000d	8b 74 24 08	 mov	 esi, DWORD PTR __First1$[esp]
  00011	50		 push	 eax
  00012	51		 push	 ecx
  00013	52		 push	 edx
  00014	56		 push	 esi
  00015	e8 00 00 00 00	 call	 _memmove_s
  0001a	83 c4 10	 add	 esp, 16			; 00000010H

; 483  : 		return _First1;

  0001d	8b c6		 mov	 eax, esi
  0001f	5e		 pop	 esi

; 484  : 		}

  00020	c3		 ret	 0
?_Move_s@?$char_traits@D@std@@SAPADPADIPBDI@Z ENDP	; std::char_traits<char>::_Move_s
_TEXT	ENDS
PUBLIC	??0_Iterator_base@std@@QAE@XZ			; std::_Iterator_base::_Iterator_base
; Function compile flags: /Ogtpy
; File d:\program files\microsoft visual studio 8\vc\include\xutility
;	COMDAT ??0_Iterator_base@std@@QAE@XZ
_TEXT	SEGMENT
??0_Iterator_base@std@@QAE@XZ PROC			; std::_Iterator_base::_Iterator_base, COMDAT
; _this$ = ecx

; 441  : 		{

  00000	8b c1		 mov	 eax, ecx
  00002	c7 00 00 00 00
	00		 mov	 DWORD PTR [eax], 0

; 442  : 		}

  00008	c3		 ret	 0
??0_Iterator_base@std@@QAE@XZ ENDP			; std::_Iterator_base::_Iterator_base
_TEXT	ENDS
PUBLIC	??_7bad_alloc@std@@6B@				; std::bad_alloc::`vftable'
PUBLIC	??0bad_alloc@std@@QAE@PBD@Z			; std::bad_alloc::bad_alloc
PUBLIC	??_R4bad_alloc@std@@6B@				; std::bad_alloc::`RTTI Complete Object Locator'
PUBLIC	??_R0?AVbad_alloc@std@@@8			; std::bad_alloc `RTTI Type Descriptor'
PUBLIC	??_R3bad_alloc@std@@8				; std::bad_alloc::`RTTI Class Hierarchy Descriptor'
PUBLIC	??_R2bad_alloc@std@@8				; std::bad_alloc::`RTTI Base Class Array'
PUBLIC	??_R1A@?0A@EA@bad_alloc@std@@8			; std::bad_alloc::`RTTI Base Class Descriptor at (0,-1,0,64)'
PUBLIC	??_R1A@?0A@EA@exception@std@@8			; std::exception::`RTTI Base Class Descriptor at (0,-1,0,64)'
PUBLIC	??_R0?AVexception@std@@@8			; std::exception `RTTI Type Descriptor'
PUBLIC	??_R3exception@std@@8				; std::exception::`RTTI Class Hierarchy Descriptor'
PUBLIC	??_R2exception@std@@8				; std::exception::`RTTI Base Class Array'
EXTRN	??0exception@std@@QAE@ABQBD@Z:PROC		; std::exception::exception
EXTRN	??_7type_info@@6B@:QWORD			; type_info::`vftable'
EXTRN	??_Ebad_alloc@std@@UAEPAXI@Z:PROC		; std::bad_alloc::`vector deleting destructor'
EXTRN	?what@exception@std@@UBEPBDXZ:PROC		; std::exception::what
;	COMDAT ??_R2exception@std@@8
; File d:\program files\microsoft visual studio 8\vc\include\exception
rdata$r	SEGMENT
??_R2exception@std@@8 DD FLAT:??_R1A@?0A@EA@exception@std@@8 ; std::exception::`RTTI Base Class Array'
rdata$r	ENDS
;	COMDAT ??_R3exception@std@@8
rdata$r	SEGMENT
??_R3exception@std@@8 DD 00H				; std::exception::`RTTI Class Hierarchy Descriptor'
	DD	00H
	DD	01H
	DD	FLAT:??_R2exception@std@@8
rdata$r	ENDS
;	COMDAT ??_R0?AVexception@std@@@8
_DATA	SEGMENT
??_R0?AVexception@std@@@8 DD FLAT:??_7type_info@@6B@	; std::exception `RTTI Type Descriptor'
	DD	00H
	DB	'.?AVexception@std@@', 00H
_DATA	ENDS
;	COMDAT ??_R1A@?0A@EA@exception@std@@8
rdata$r	SEGMENT
??_R1A@?0A@EA@exception@std@@8 DD FLAT:??_R0?AVexception@std@@@8 ; std::exception::`RTTI Base Class Descriptor at (0,-1,0,64)'
	DD	00H
	DD	00H
	DD	0ffffffffH
	DD	00H
	DD	040H
	DD	FLAT:??_R3exception@std@@8
rdata$r	ENDS
;	COMDAT ??_R1A@?0A@EA@bad_alloc@std@@8
rdata$r	SEGMENT
??_R1A@?0A@EA@bad_alloc@std@@8 DD FLAT:??_R0?AVbad_alloc@std@@@8 ; std::bad_alloc::`RTTI Base Class Descriptor at (0,-1,0,64)'
	DD	01H
	DD	00H
	DD	0ffffffffH
	DD	00H
	DD	040H
	DD	FLAT:??_R3bad_alloc@std@@8
rdata$r	ENDS
;	COMDAT ??_R2bad_alloc@std@@8
rdata$r	SEGMENT
??_R2bad_alloc@std@@8 DD FLAT:??_R1A@?0A@EA@bad_alloc@std@@8 ; std::bad_alloc::`RTTI Base Class Array'
	DD	FLAT:??_R1A@?0A@EA@exception@std@@8
rdata$r	ENDS
;	COMDAT ??_R3bad_alloc@std@@8
rdata$r	SEGMENT
??_R3bad_alloc@std@@8 DD 00H				; std::bad_alloc::`RTTI Class Hierarchy Descriptor'
	DD	00H
	DD	02H
	DD	FLAT:??_R2bad_alloc@std@@8
rdata$r	ENDS
;	COMDAT ??_R0?AVbad_alloc@std@@@8
_DATA	SEGMENT
??_R0?AVbad_alloc@std@@@8 DD FLAT:??_7type_info@@6B@	; std::bad_alloc `RTTI Type Descriptor'
	DD	00H
	DB	'.?AVbad_alloc@std@@', 00H
_DATA	ENDS
;	COMDAT ??_R4bad_alloc@std@@6B@
rdata$r	SEGMENT
??_R4bad_alloc@std@@6B@ DD 00H				; std::bad_alloc::`RTTI Complete Object Locator'
	DD	00H
	DD	00H
	DD	FLAT:??_R0?AVbad_alloc@std@@@8
	DD	FLAT:??_R3bad_alloc@std@@8
rdata$r	ENDS
;	COMDAT ??_7bad_alloc@std@@6B@
CONST	SEGMENT
??_7bad_alloc@std@@6B@ DD FLAT:??_R4bad_alloc@std@@6B@	; std::bad_alloc::`vftable'
	DD	FLAT:??_Ebad_alloc@std@@UAEPAXI@Z
	DD	FLAT:?what@exception@std@@UBEPBDXZ
; Function compile flags: /Ogtpy
CONST	ENDS
;	COMDAT ??0bad_alloc@std@@QAE@PBD@Z
_TEXT	SEGMENT
__Message$ = 8						; size = 4
??0bad_alloc@std@@QAE@PBD@Z PROC			; std::bad_alloc::bad_alloc, COMDAT
; _this$ = ecx

; 371  : 		{	// construct from message string

  00000	56		 push	 esi
  00001	8d 44 24 08	 lea	 eax, DWORD PTR __Message$[esp]
  00005	50		 push	 eax
  00006	8b f1		 mov	 esi, ecx
  00008	e8 00 00 00 00	 call	 ??0exception@std@@QAE@ABQBD@Z ; std::exception::exception
  0000d	c7 06 00 00 00
	00		 mov	 DWORD PTR [esi], OFFSET ??_7bad_alloc@std@@6B@

; 372  : 		}

  00013	8b c6		 mov	 eax, esi
  00015	5e		 pop	 esi
  00016	c2 04 00	 ret	 4
??0bad_alloc@std@@QAE@PBD@Z ENDP			; std::bad_alloc::bad_alloc
_TEXT	ENDS
PUBLIC	??1bad_alloc@std@@UAE@XZ			; std::bad_alloc::~bad_alloc
EXTRN	??1exception@std@@UAE@XZ:PROC			; std::exception::~exception
; Function compile flags: /Ogtpy
;	COMDAT ??1bad_alloc@std@@UAE@XZ
_TEXT	SEGMENT
??1bad_alloc@std@@UAE@XZ PROC				; std::bad_alloc::~bad_alloc, COMDAT
; _this$ = ecx

; 380  : 		{	// destroy the object

  00000	c7 01 00 00 00
	00		 mov	 DWORD PTR [ecx], OFFSET ??_7bad_alloc@std@@6B@

; 381  : 		}

  00006	e9 00 00 00 00	 jmp	 ??1exception@std@@UAE@XZ ; std::exception::~exception
??1bad_alloc@std@@UAE@XZ ENDP				; std::bad_alloc::~bad_alloc
_TEXT	ENDS
EXTRN	??3@YAXPAX@Z:PROC				; operator delete
; Function compile flags: /Ogtpy
;	COMDAT ??_Gbad_alloc@std@@UAEPAXI@Z
_TEXT	SEGMENT
___flags$ = 8						; size = 4
??_Gbad_alloc@std@@UAEPAXI@Z PROC			; std::bad_alloc::`scalar deleting destructor', COMDAT
; _this$ = ecx
  00000	56		 push	 esi
  00001	8b f1		 mov	 esi, ecx
  00003	c7 06 00 00 00
	00		 mov	 DWORD PTR [esi], OFFSET ??_7bad_alloc@std@@6B@
  00009	e8 00 00 00 00	 call	 ??1exception@std@@UAE@XZ ; std::exception::~exception
  0000e	f6 44 24 08 01	 test	 BYTE PTR ___flags$[esp], 1
  00013	74 09		 je	 SHORT $LN6@scalar
  00015	56		 push	 esi
  00016	e8 00 00 00 00	 call	 ??3@YAXPAX@Z		; operator delete
  0001b	83 c4 04	 add	 esp, 4
$LN6@scalar:
  0001e	8b c6		 mov	 eax, esi
  00020	5e		 pop	 esi
  00021	c2 04 00	 ret	 4
??_Gbad_alloc@std@@UAEPAXI@Z ENDP			; std::bad_alloc::`scalar deleting destructor'
_TEXT	ENDS
PUBLIC	??2@YAPAXIPAX@Z					; operator new
; Function compile flags: /Ogtpy
; File d:\program files\microsoft visual studio 8\vc\include\new
;	COMDAT ??2@YAPAXIPAX@Z
_TEXT	SEGMENT
___formal$ = 8						; size = 4
__Where$ = 12						; size = 4
??2@YAPAXIPAX@Z PROC					; operator new, COMDAT

; 60   : 	return (_Where);

  00000	8b 44 24 08	 mov	 eax, DWORD PTR __Where$[esp-4]

; 61   : 	}

  00004	c3		 ret	 0
??2@YAPAXIPAX@Z ENDP					; operator new
_TEXT	ENDS
PUBLIC	??3@YAXPAX0@Z					; operator delete
; Function compile flags: /Ogtpy
;	COMDAT ??3@YAXPAX0@Z
_TEXT	SEGMENT
___formal$ = 8						; size = 4
___formal$ = 12						; size = 4
??3@YAXPAX0@Z PROC					; operator delete, COMDAT

; 65   : 	}

  00000	c3		 ret	 0
??3@YAXPAX0@Z ENDP					; operator delete
_TEXT	ENDS
PUBLIC	??0id@locale@std@@QAE@I@Z			; std::locale::id::id
; Function compile flags: /Ogtpy
; File d:\program files\microsoft visual studio 8\vc\include\xlocale
;	COMDAT ??0id@locale@std@@QAE@I@Z
_TEXT	SEGMENT
__Val$ = 8						; size = 4
??0id@locale@std@@QAE@I@Z PROC				; std::locale::id::id, COMDAT
; _this$ = ecx

; 73   : 			{	// construct with specified stamp value

  00000	8b c1		 mov	 eax, ecx
  00002	8b 4c 24 04	 mov	 ecx, DWORD PTR __Val$[esp-4]
  00006	89 08		 mov	 DWORD PTR [eax], ecx

; 74   : 			}

  00008	c2 04 00	 ret	 4
??0id@locale@std@@QAE@I@Z ENDP				; std::locale::id::id
_TEXT	ENDS
PUBLIC	??1CGUID@@QAE@XZ				; CGUID::~CGUID
; Function compile flags: /Ogtpy
; File d:\project_p6\trunk\public\module\guid.h
;	COMDAT ??1CGUID@@QAE@XZ
_TEXT	SEGMENT
??1CGUID@@QAE@XZ PROC					; CGUID::~CGUID, COMDAT
; _this$ = ecx

; 45   : 	}

  00000	c3		 ret	 0
??1CGUID@@QAE@XZ ENDP					; CGUID::~CGUID
_TEXT	ENDS
PUBLIC	??4CGUID@@QAEAAV0@ABV0@@Z			; CGUID::operator=
; Function compile flags: /Ogtpy
;	COMDAT ??4CGUID@@QAEAAV0@ABV0@@Z
_TEXT	SEGMENT
_guid$ = 8						; size = 4
??4CGUID@@QAEAAV0@ABV0@@Z PROC				; CGUID::operator=, COMDAT
; _this$ = ecx

; 48   : 	{

  00000	8b c1		 mov	 eax, ecx

; 49   : 		if( &guid != this )

  00002	8b 4c 24 04	 mov	 ecx, DWORD PTR _guid$[esp-4]
  00006	3b c8		 cmp	 ecx, eax
  00008	74 12		 je	 SHORT $LN1@operator

; 50   : 			memcpy(this, &guid, sizeof(CGUID));

  0000a	f3 0f 7e 01	 movq	 xmm0, QWORD PTR [ecx]
  0000e	66 0f d6 00	 movq	 QWORD PTR [eax], xmm0
  00012	f3 0f 7e 41 08	 movq	 xmm0, QWORD PTR [ecx+8]
  00017	66 0f d6 40 08	 movq	 QWORD PTR [eax+8], xmm0
$LN1@operator:

; 51   : 		return *this;
; 52   : 	}

  0001c	c2 04 00	 ret	 4
??4CGUID@@QAEAAV0@ABV0@@Z ENDP				; CGUID::operator=
_TEXT	ENDS
PUBLIC	??MCGUID@@QBE_NABV0@@Z				; CGUID::operator<
; Function compile flags: /Ogtpy
;	COMDAT ??MCGUID@@QBE_NABV0@@Z
_TEXT	SEGMENT
_guid$ = 8						; size = 4
??MCGUID@@QBE_NABV0@@Z PROC				; CGUID::operator<, COMDAT
; _this$ = ecx

; 69   : 		if( ((ulong *)this)[0] < ((ulong *)&guid)[0] )

  00000	8b 44 24 04	 mov	 eax, DWORD PTR _guid$[esp-4]
  00004	8b 11		 mov	 edx, DWORD PTR [ecx]
  00006	56		 push	 esi
  00007	8b 30		 mov	 esi, DWORD PTR [eax]
  00009	3b d6		 cmp	 edx, esi
  0000b	73 06		 jae	 SHORT $LN13@operator@2
$LN16@operator@2:

; 70   : 			return true;

  0000d	b0 01		 mov	 al, 1
  0000f	5e		 pop	 esi

; 85   : 	}

  00010	c2 04 00	 ret	 4
$LN13@operator@2:

; 71   : 		else if( ((ulong *)this)[0] == ((ulong *)&guid)[0] )

  00013	75 20		 jne	 SHORT $LN1@operator@2

; 72   : 		{
; 73   : 			if(( (ulong *)this)[1] < ((ulong *)&guid)[1] )

  00015	8b 51 04	 mov	 edx, DWORD PTR [ecx+4]
  00018	8b 70 04	 mov	 esi, DWORD PTR [eax+4]
  0001b	3b d6		 cmp	 edx, esi

; 74   : 				return true;

  0001d	72 ee		 jb	 SHORT $LN16@operator@2

; 75   : 			else if( ((ulong *)this)[1] == ((ulong *)&guid)[1])

  0001f	75 14		 jne	 SHORT $LN1@operator@2

; 76   : 			{
; 77   : 				if( ((ulong *)this)[2] < ((ulong *)&guid)[2] )

  00021	8b 51 08	 mov	 edx, DWORD PTR [ecx+8]
  00024	8b 70 08	 mov	 esi, DWORD PTR [eax+8]
  00027	3b d6		 cmp	 edx, esi

; 78   : 					return true;

  00029	72 e2		 jb	 SHORT $LN16@operator@2

; 79   : 				else if( ((ulong *)this)[2] == ((ulong *)&guid)[2])

  0002b	75 08		 jne	 SHORT $LN1@operator@2

; 80   : 					if( ((ulong *)this)[3] < ((ulong *)&guid)[3] )

  0002d	8b 49 0c	 mov	 ecx, DWORD PTR [ecx+12]
  00030	3b 48 0c	 cmp	 ecx, DWORD PTR [eax+12]

; 81   : 						return true;

  00033	72 d8		 jb	 SHORT $LN16@operator@2
$LN1@operator@2:

; 82   : 			}
; 83   : 		}
; 84   : 		return false;

  00035	32 c0		 xor	 al, al
  00037	5e		 pop	 esi

; 85   : 	}

  00038	c2 04 00	 ret	 4
??MCGUID@@QBE_NABV0@@Z ENDP				; CGUID::operator<
_TEXT	ENDS
PUBLIC	??Rguid_compare@@QBE_NABVCGUID@@0@Z		; guid_compare::operator()
; Function compile flags: /Ogtpy
;	COMDAT ??Rguid_compare@@QBE_NABVCGUID@@0@Z
_TEXT	SEGMENT
_Key1$ = 8						; size = 4
_Key2$ = 12						; size = 4
??Rguid_compare@@QBE_NABVCGUID@@0@Z PROC		; guid_compare::operator(), COMDAT
; _this$ = ecx

; 115  : 		if(Key1 < Key2)

  00000	8b 44 24 04	 mov	 eax, DWORD PTR _Key1$[esp-4]
  00004	8b 4c 24 08	 mov	 ecx, DWORD PTR _Key2$[esp-4]
  00008	8b 10		 mov	 edx, DWORD PTR [eax]
  0000a	56		 push	 esi
  0000b	8b 31		 mov	 esi, DWORD PTR [ecx]
  0000d	3b d6		 cmp	 edx, esi
  0000f	72 22		 jb	 SHORT $LN16@operator@3
  00011	75 26		 jne	 SHORT $LN1@operator@3
  00013	8b 50 04	 mov	 edx, DWORD PTR [eax+4]
  00016	8b 71 04	 mov	 esi, DWORD PTR [ecx+4]
  00019	3b d6		 cmp	 edx, esi
  0001b	72 16		 jb	 SHORT $LN16@operator@3
  0001d	75 1a		 jne	 SHORT $LN1@operator@3
  0001f	8b 50 08	 mov	 edx, DWORD PTR [eax+8]
  00022	8b 71 08	 mov	 esi, DWORD PTR [ecx+8]
  00025	3b d6		 cmp	 edx, esi
  00027	72 0a		 jb	 SHORT $LN16@operator@3
  00029	75 0e		 jne	 SHORT $LN1@operator@3
  0002b	8b 40 0c	 mov	 eax, DWORD PTR [eax+12]
  0002e	3b 41 0c	 cmp	 eax, DWORD PTR [ecx+12]
  00031	73 06		 jae	 SHORT $LN1@operator@3
$LN16@operator@3:

; 116  : 			return true;

  00033	b0 01		 mov	 al, 1
  00035	5e		 pop	 esi

; 118  : 	}

  00036	c2 08 00	 ret	 8
$LN1@operator@3:

; 117  : 		return false;

  00039	32 c0		 xor	 al, al
  0003b	5e		 pop	 esi

; 118  : 	}

  0003c	c2 08 00	 ret	 8
??Rguid_compare@@QBE_NABVCGUID@@0@Z ENDP		; guid_compare::operator()
_TEXT	ENDS
PUBLIC	??Rhash_guid_compare@@QBEIABVCGUID@@@Z		; hash_guid_compare::operator()
; Function compile flags: /Ogtpy
;	COMDAT ??Rhash_guid_compare@@QBEIABVCGUID@@@Z
_TEXT	SEGMENT
_Key$ = 8						; size = 4
??Rhash_guid_compare@@QBEIABVCGUID@@@Z PROC		; hash_guid_compare::operator(), COMDAT
; _this$ = ecx

; 130  : 		return ((ulong *) &Key)[0] + ((ulong *) &Key)[1] +
; 131  : 			((ulong *) &Key)[2] + ((ulong *) &Key)[3];

  00000	8b 4c 24 04	 mov	 ecx, DWORD PTR _Key$[esp-4]
  00004	8b 41 0c	 mov	 eax, DWORD PTR [ecx+12]
  00007	03 41 08	 add	 eax, DWORD PTR [ecx+8]
  0000a	03 41 04	 add	 eax, DWORD PTR [ecx+4]
  0000d	03 01		 add	 eax, DWORD PTR [ecx]

; 132  : 	}

  0000f	c2 04 00	 ret	 4
??Rhash_guid_compare@@QBEIABVCGUID@@@Z ENDP		; hash_guid_compare::operator()
_TEXT	ENDS
PUBLIC	??Rhash_guid_compare@@QBE_NABVCGUID@@0@Z	; hash_guid_compare::operator()
; Function compile flags: /Ogtpy
;	COMDAT ??Rhash_guid_compare@@QBE_NABVCGUID@@0@Z
_TEXT	SEGMENT
__Key1$ = 8						; size = 4
__Key2$ = 12						; size = 4
??Rhash_guid_compare@@QBE_NABVCGUID@@0@Z PROC		; hash_guid_compare::operator(), COMDAT
; _this$ = ecx

; 136  : 		return comp(_Key1,_Key2);

  00000	8b 44 24 04	 mov	 eax, DWORD PTR __Key1$[esp-4]
  00004	8b 4c 24 08	 mov	 ecx, DWORD PTR __Key2$[esp-4]
  00008	8b 10		 mov	 edx, DWORD PTR [eax]
  0000a	56		 push	 esi
  0000b	8b 31		 mov	 esi, DWORD PTR [ecx]
  0000d	3b d6		 cmp	 edx, esi
  0000f	72 22		 jb	 SHORT $LN18@operator@4
  00011	75 26		 jne	 SHORT $LN3@operator@4
  00013	8b 50 04	 mov	 edx, DWORD PTR [eax+4]
  00016	8b 71 04	 mov	 esi, DWORD PTR [ecx+4]
  00019	3b d6		 cmp	 edx, esi
  0001b	72 16		 jb	 SHORT $LN18@operator@4
  0001d	75 1a		 jne	 SHORT $LN3@operator@4
  0001f	8b 50 08	 mov	 edx, DWORD PTR [eax+8]
  00022	8b 71 08	 mov	 esi, DWORD PTR [ecx+8]
  00025	3b d6		 cmp	 edx, esi
  00027	72 0a		 jb	 SHORT $LN18@operator@4
  00029	75 0e		 jne	 SHORT $LN3@operator@4
  0002b	8b 40 0c	 mov	 eax, DWORD PTR [eax+12]
  0002e	3b 41 0c	 cmp	 eax, DWORD PTR [ecx+12]
  00031	73 06		 jae	 SHORT $LN3@operator@4
$LN18@operator@4:
  00033	b0 01		 mov	 al, 1
  00035	5e		 pop	 esi

; 137  : 	}

  00036	c2 08 00	 ret	 8

; 136  : 		return comp(_Key1,_Key2);

$LN3@operator@4:
  00039	32 c0		 xor	 al, al
  0003b	5e		 pop	 esi

; 137  : 	}

  0003c	c2 08 00	 ret	 8
??Rhash_guid_compare@@QBE_NABVCGUID@@0@Z ENDP		; hash_guid_compare::operator()
_TEXT	ENDS
PUBLIC	??0LockOfWinWhileSleep@XM_Tools@@QAE@XZ		; XM_Tools::LockOfWinWhileSleep::LockOfWinWhileSleep
; Function compile flags: /Ogtpy
; File d:\project_p6\trunk\public\memmanage\lock.h
;	COMDAT ??0LockOfWinWhileSleep@XM_Tools@@QAE@XZ
_TEXT	SEGMENT
??0LockOfWinWhileSleep@XM_Tools@@QAE@XZ PROC		; XM_Tools::LockOfWinWhileSleep::LockOfWinWhileSleep, COMDAT
; _this$ = ecx

; 73   : 		LockOfWinWhileSleep(void):m_lLockFlag(0), m_lWaitCount(0){}

  00000	8b c1		 mov	 eax, ecx
  00002	33 c9		 xor	 ecx, ecx
  00004	89 48 20	 mov	 DWORD PTR [eax+32], ecx
  00007	89 48 24	 mov	 DWORD PTR [eax+36], ecx
  0000a	c3		 ret	 0
??0LockOfWinWhileSleep@XM_Tools@@QAE@XZ ENDP		; XM_Tools::LockOfWinWhileSleep::LockOfWinWhileSleep
_TEXT	ENDS
PUBLIC	??1LockOfWinWhileSleep@XM_Tools@@QAE@XZ		; XM_Tools::LockOfWinWhileSleep::~LockOfWinWhileSleep
; Function compile flags: /Ogtpy
;	COMDAT ??1LockOfWinWhileSleep@XM_Tools@@QAE@XZ
_TEXT	SEGMENT
??1LockOfWinWhileSleep@XM_Tools@@QAE@XZ PROC		; XM_Tools::LockOfWinWhileSleep::~LockOfWinWhileSleep, COMDAT
; _this$ = ecx

; 74   : 		~LockOfWinWhileSleep(void)	{}

  00000	c3		 ret	 0
??1LockOfWinWhileSleep@XM_Tools@@QAE@XZ ENDP		; XM_Tools::LockOfWinWhileSleep::~LockOfWinWhileSleep
_TEXT	ENDS
PUBLIC	?Lock@LockOfWinWhileSleep@XM_Tools@@QAEXXZ	; XM_Tools::LockOfWinWhileSleep::Lock
EXTRN	__imp__InterlockedDecrement@4:PROC
EXTRN	__imp__InterlockedIncrement@4:PROC
EXTRN	__imp__Sleep@4:PROC
EXTRN	__imp__InterlockedCompareExchange@12:PROC
; Function compile flags: /Ogtpy
;	COMDAT ?Lock@LockOfWinWhileSleep@XM_Tools@@QAEXXZ
_TEXT	SEGMENT
?Lock@LockOfWinWhileSleep@XM_Tools@@QAEXXZ PROC		; XM_Tools::LockOfWinWhileSleep::Lock, COMDAT
; _this$ = ecx

; 78   : 		{

  00000	53		 push	 ebx
  00001	55		 push	 ebp

; 79   : 			bool bIncrement = false;
; 80   : 			while(1 == InterlockedCompareExchange(&m_lLockFlag, 1, 0))

  00002	8b 2d 00 00 00
	00		 mov	 ebp, DWORD PTR __imp__InterlockedCompareExchange@12
  00008	56		 push	 esi
  00009	57		 push	 edi
  0000a	6a 00		 push	 0
  0000c	8b f9		 mov	 edi, ecx
  0000e	6a 01		 push	 1
  00010	8d 77 20	 lea	 esi, DWORD PTR [edi+32]
  00013	56		 push	 esi
  00014	32 db		 xor	 bl, bl
  00016	ff d5		 call	 ebp
  00018	83 f8 01	 cmp	 eax, 1
  0001b	75 3f		 jne	 SHORT $LN1@Lock
  0001d	8d 49 00	 npad	 3
$LL7@Lock:

; 81   : 			{
; 82   : 				if(bIncrement || 2 > m_lWaitCount)

  00020	84 db		 test	 bl, bl
  00022	75 1c		 jne	 SHORT $LN3@Lock
  00024	83 7f 24 02	 cmp	 DWORD PTR [edi+36], 2
  00028	8d 47 24	 lea	 eax, DWORD PTR [edi+36]
  0002b	7c 0a		 jl	 SHORT $LN11@Lock

; 90   : 				}
; 91   : 				else
; 92   : 					Sleep(1);

  0002d	6a 01		 push	 1
  0002f	ff 15 00 00 00
	00		 call	 DWORD PTR __imp__Sleep@4
  00035	eb 0b		 jmp	 SHORT $LN2@Lock
$LN11@Lock:

; 83   : 				{
; 84   : 					if(!bIncrement)
; 85   : 					{
; 86   : 						InterlockedIncrement(&m_lWaitCount);

  00037	50		 push	 eax
  00038	ff 15 00 00 00
	00		 call	 DWORD PTR __imp__InterlockedIncrement@4

; 87   : 						bIncrement = true;

  0003e	b3 01		 mov	 bl, 1
$LN3@Lock:

; 88   : 					}
; 89   : 					__asm rep nop

  00040	f3 90		 rep	  npad	 1
$LN2@Lock:

; 79   : 			bool bIncrement = false;
; 80   : 			while(1 == InterlockedCompareExchange(&m_lLockFlag, 1, 0))

  00042	6a 00		 push	 0
  00044	6a 01		 push	 1
  00046	56		 push	 esi
  00047	ff d5		 call	 ebp
  00049	83 f8 01	 cmp	 eax, 1
  0004c	74 d2		 je	 SHORT $LL7@Lock

; 93   : 			}
; 94   : 
; 95   : 			if(bIncrement)

  0004e	84 db		 test	 bl, bl
  00050	74 0a		 je	 SHORT $LN1@Lock

; 96   : 				InterlockedDecrement(&m_lWaitCount);

  00052	83 c7 24	 add	 edi, 36			; 00000024H
  00055	57		 push	 edi
  00056	ff 15 00 00 00
	00		 call	 DWORD PTR __imp__InterlockedDecrement@4
$LN1@Lock:
  0005c	5f		 pop	 edi
  0005d	5e		 pop	 esi
  0005e	5d		 pop	 ebp
  0005f	5b		 pop	 ebx

; 97   : 		}

  00060	c3		 ret	 0
?Lock@LockOfWinWhileSleep@XM_Tools@@QAEXXZ ENDP		; XM_Tools::LockOfWinWhileSleep::Lock
_TEXT	ENDS
PUBLIC	?UnLock@LockOfWinWhileSleep@XM_Tools@@QAEXXZ	; XM_Tools::LockOfWinWhileSleep::UnLock
; Function compile flags: /Ogtpy
;	COMDAT ?UnLock@LockOfWinWhileSleep@XM_Tools@@QAEXXZ
_TEXT	SEGMENT
?UnLock@LockOfWinWhileSleep@XM_Tools@@QAEXXZ PROC	; XM_Tools::LockOfWinWhileSleep::UnLock, COMDAT
; _this$ = ecx

; 101  : 			if(0 == InterlockedCompareExchange(&m_lLockFlag, 0, 1))

  00000	6a 01		 push	 1
  00002	6a 00		 push	 0
  00004	83 c1 20	 add	 ecx, 32			; 00000020H
  00007	51		 push	 ecx
  00008	ff 15 00 00 00
	00		 call	 DWORD PTR __imp__InterlockedCompareExchange@12

; 102  : 			{
; 103  : 				assert(false);
; 104  : 			}
; 105  : 		}

  0000e	c3		 ret	 0
?UnLock@LockOfWinWhileSleep@XM_Tools@@QAEXXZ ENDP	; XM_Tools::LockOfWinWhileSleep::UnLock
_TEXT	ENDS
PUBLIC	?SNAP_TO_GRID@XM_Tools@@YAKKK@Z			; XM_Tools::SNAP_TO_GRID
; Function compile flags: /Ogtpy
; File d:\project_p6\trunk\public\memmanage\include\mmdef.h
;	COMDAT ?SNAP_TO_GRID@XM_Tools@@YAKKK@Z
_TEXT	SEGMENT
_uSrcNum$ = 8						; size = 4
_uGrid$ = 12						; size = 4
?SNAP_TO_GRID@XM_Tools@@YAKKK@Z PROC			; XM_Tools::SNAP_TO_GRID, COMDAT

; 108  : 		return (uSrcNum / uGrid + ((uSrcNum % uGrid) ? 1 : 0)) * uGrid;

  00000	8b 4c 24 08	 mov	 ecx, DWORD PTR _uGrid$[esp-4]
  00004	8b 44 24 04	 mov	 eax, DWORD PTR _uSrcNum$[esp-4]
  00008	33 d2		 xor	 edx, edx
  0000a	f7 f1		 div	 ecx
  0000c	56		 push	 esi
  0000d	8b f0		 mov	 esi, eax
  0000f	33 c0		 xor	 eax, eax
  00011	85 d2		 test	 edx, edx
  00013	0f 95 c0	 setne	 al
  00016	03 c6		 add	 eax, esi
  00018	0f af c1	 imul	 eax, ecx
  0001b	5e		 pop	 esi

; 109  : 	}

  0001c	c3		 ret	 0
?SNAP_TO_GRID@XM_Tools@@YAKKK@Z ENDP			; XM_Tools::SNAP_TO_GRID
_TEXT	ENDS
PUBLIC	?GetNext@?$CListNode@X@XM_Tools@@QAEPAV12@XZ	; XM_Tools::CListNode<void>::GetNext
; Function compile flags: /Ogtpy
; File d:\project_p6\trunk\public\memmanage\include\memlist.h
;	COMDAT ?GetNext@?$CListNode@X@XM_Tools@@QAEPAV12@XZ
_TEXT	SEGMENT
?GetNext@?$CListNode@X@XM_Tools@@QAEPAV12@XZ PROC	; XM_Tools::CListNode<void>::GetNext, COMDAT
; _this$ = ecx

; 62   : 		inline CListNode*		GetNext(void)					{return m_pNext;}

  00000	8b 01		 mov	 eax, DWORD PTR [ecx]
  00002	c3		 ret	 0
?GetNext@?$CListNode@X@XM_Tools@@QAEPAV12@XZ ENDP	; XM_Tools::CListNode<void>::GetNext
_TEXT	ENDS
PUBLIC	?SetNext@?$CListNode@X@XM_Tools@@QAEXPAV12@@Z	; XM_Tools::CListNode<void>::SetNext
; Function compile flags: /Ogtpy
;	COMDAT ?SetNext@?$CListNode@X@XM_Tools@@QAEXPAV12@@Z
_TEXT	SEGMENT
_pNext$ = 8						; size = 4
?SetNext@?$CListNode@X@XM_Tools@@QAEXPAV12@@Z PROC	; XM_Tools::CListNode<void>::SetNext, COMDAT
; _this$ = ecx

; 63   : 		inline void				SetNext(CListNode<void> *pNext)	{m_pNext = pNext;}

  00000	8b 44 24 04	 mov	 eax, DWORD PTR _pNext$[esp-4]
  00004	89 01		 mov	 DWORD PTR [ecx], eax
  00006	c2 04 00	 ret	 4
?SetNext@?$CListNode@X@XM_Tools@@QAEXPAV12@@Z ENDP	; XM_Tools::CListNode<void>::SetNext
_TEXT	ENDS
PUBLIC	?size@?$basic_string@DU?$char_traits@D@std@@V?$allocator@D@2@@std@@QBEIXZ ; std::basic_string<char,std::char_traits<char>,std::allocator<char> >::size
; Function compile flags: /Ogtpy
; File d:\program files\microsoft visual studio 8\vc\include\xstring
;	COMDAT ?size@?$basic_string@DU?$char_traits@D@std@@V?$allocator@D@2@@std@@QBEIXZ
_TEXT	SEGMENT
?size@?$basic_string@DU?$char_traits@D@std@@V?$allocator@D@2@@std@@QBEIXZ PROC ; std::basic_string<char,std::char_traits<char>,std::allocator<char> >::size, COMDAT
; _this$ = ecx

; 1637 : 		return (_Mysize);

  00000	8b 41 14	 mov	 eax, DWORD PTR [ecx+20]

; 1638 : 		}

  00003	c3		 ret	 0
?size@?$basic_string@DU?$char_traits@D@std@@V?$allocator@D@2@@std@@QBEIXZ ENDP ; std::basic_string<char,std::char_traits<char>,std::allocator<char> >::size
_TEXT	ENDS
PUBLIC	?_Myptr@?$basic_string@DU?$char_traits@D@std@@V?$allocator@D@2@@std@@IBEPBDXZ ; std::basic_string<char,std::char_traits<char>,std::allocator<char> >::_Myptr
; Function compile flags: /Ogtpy
;	COMDAT ?_Myptr@?$basic_string@DU?$char_traits@D@std@@V?$allocator@D@2@@std@@IBEPBDXZ
_TEXT	SEGMENT
?_Myptr@?$basic_string@DU?$char_traits@D@std@@V?$allocator@D@2@@std@@IBEPBDXZ PROC ; std::basic_string<char,std::char_traits<char>,std::allocator<char> >::_Myptr, COMDAT
; _this$ = ecx

; 2093 : 		return (_BUF_SIZE <= _Myres ? _Bx._Ptr : _Bx._Buf);

  00000	83 79 18 10	 cmp	 DWORD PTR [ecx+24], 16	; 00000010H
  00004	72 04		 jb	 SHORT $LN3@Myptr
  00006	8b 41 04	 mov	 eax, DWORD PTR [ecx+4]

; 2094 : 		}

  00009	c3		 ret	 0
$LN3@Myptr:

; 2093 : 		return (_BUF_SIZE <= _Myres ? _Bx._Ptr : _Bx._Buf);

  0000a	8d 41 04	 lea	 eax, DWORD PTR [ecx+4]

; 2094 : 		}

  0000d	c3		 ret	 0
?_Myptr@?$basic_string@DU?$char_traits@D@std@@V?$allocator@D@2@@std@@IBEPBDXZ ENDP ; std::basic_string<char,std::char_traits<char>,std::allocator<char> >::_Myptr
_TEXT	ENDS
PUBLIC	??0?$allocator@D@std@@QAE@XZ			; std::allocator<char>::allocator<char>
; Function compile flags: /Ogtpy
; File d:\program files\microsoft visual studio 8\vc\include\xmemory
;	COMDAT ??0?$allocator@D@std@@QAE@XZ
_TEXT	SEGMENT
??0?$allocator@D@std@@QAE@XZ PROC			; std::allocator<char>::allocator<char>, COMDAT
; _this$ = ecx

; 120  : 	allocator() _THROW0()

  00000	8b c1		 mov	 eax, ecx

; 121  : 		{	// construct default allocator (do nothing)
; 122  : 		}

  00002	c3		 ret	 0
??0?$allocator@D@std@@QAE@XZ ENDP			; std::allocator<char>::allocator<char>
_TEXT	ENDS
PUBLIC	?deallocate@?$allocator@D@std@@QAEXPADI@Z	; std::allocator<char>::deallocate
; Function compile flags: /Ogtpy
;	COMDAT ?deallocate@?$allocator@D@std@@QAEXPADI@Z
_TEXT	SEGMENT
__Ptr$ = 8						; size = 4
___formal$ = 12						; size = 4
?deallocate@?$allocator@D@std@@QAEXPADI@Z PROC		; std::allocator<char>::deallocate, COMDAT
; _this$ = ecx

; 141  : 		::operator delete(_Ptr);

  00000	8b 44 24 04	 mov	 eax, DWORD PTR __Ptr$[esp-4]
  00004	50		 push	 eax
  00005	e8 00 00 00 00	 call	 ??3@YAXPAX@Z		; operator delete
  0000a	59		 pop	 ecx

; 142  : 		}

  0000b	c2 08 00	 ret	 8
?deallocate@?$allocator@D@std@@QAEXPADI@Z ENDP		; std::allocator<char>::deallocate
_TEXT	ENDS
PUBLIC	??1?$pair@$$CBVCGUID@@PAVCBaseObject@@@std@@QAE@XZ ; std::pair<CGUID const ,CBaseObject *>::~pair<CGUID const ,CBaseObject *>
; Function compile flags: /Ogtpy
;	COMDAT ??1?$pair@$$CBVCGUID@@PAVCBaseObject@@@std@@QAE@XZ
_TEXT	SEGMENT
??1?$pair@$$CBVCGUID@@PAVCBaseObject@@@std@@QAE@XZ PROC	; std::pair<CGUID const ,CBaseObject *>::~pair<CGUID const ,CBaseObject *>, COMDAT
; _this$ = ecx
  00000	c3		 ret	 0
??1?$pair@$$CBVCGUID@@PAVCBaseObject@@@std@@QAE@XZ ENDP	; std::pair<CGUID const ,CBaseObject *>::~pair<CGUID const ,CBaseObject *>
_TEXT	ENDS
PUBLIC	?_Myptr@?$basic_string@DU?$char_traits@D@std@@V?$allocator@D@2@@std@@IAEPADXZ ; std::basic_string<char,std::char_traits<char>,std::allocator<char> >::_Myptr
; Function compile flags: /Ogtpy
; File d:\program files\microsoft visual studio 8\vc\include\xstring
;	COMDAT ?_Myptr@?$basic_string@DU?$char_traits@D@std@@V?$allocator@D@2@@std@@IAEPADXZ
_TEXT	SEGMENT
?_Myptr@?$basic_string@DU?$char_traits@D@std@@V?$allocator@D@2@@std@@IAEPADXZ PROC ; std::basic_string<char,std::char_traits<char>,std::allocator<char> >::_Myptr, COMDAT
; _this$ = ecx

; 2088 : 		return (_BUF_SIZE <= _Myres ? _Bx._Ptr : _Bx._Buf);

  00000	83 79 18 10	 cmp	 DWORD PTR [ecx+24], 16	; 00000010H
  00004	72 04		 jb	 SHORT $LN3@Myptr@2
  00006	8b 41 04	 mov	 eax, DWORD PTR [ecx+4]

; 2089 : 		}

  00009	c3		 ret	 0
$LN3@Myptr@2:

; 2088 : 		return (_BUF_SIZE <= _Myres ? _Bx._Ptr : _Bx._Buf);

  0000a	8d 41 04	 lea	 eax, DWORD PTR [ecx+4]

; 2089 : 		}

  0000d	c3		 ret	 0
?_Myptr@?$basic_string@DU?$char_traits@D@std@@V?$allocator@D@2@@std@@IAEPADXZ ENDP ; std::basic_string<char,std::char_traits<char>,std::allocator<char> >::_Myptr
_TEXT	ENDS
PUBLIC	??0?$allocator@D@std@@QAE@ABV01@@Z		; std::allocator<char>::allocator<char>
; Function compile flags: /Ogtpy
; File d:\program files\microsoft visual studio 8\vc\include\xmemory
;	COMDAT ??0?$allocator@D@std@@QAE@ABV01@@Z
_TEXT	SEGMENT
___formal$ = 8						; size = 4
??0?$allocator@D@std@@QAE@ABV01@@Z PROC			; std::allocator<char>::allocator<char>, COMDAT
; _this$ = ecx

; 124  : 	allocator(const allocator<_Ty>&) _THROW0()

  00000	8b c1		 mov	 eax, ecx

; 125  : 		{	// construct by copying (do nothing)
; 126  : 		}

  00002	c2 04 00	 ret	 4
??0?$allocator@D@std@@QAE@ABV01@@Z ENDP			; std::allocator<char>::allocator<char>
_TEXT	ENDS
PUBLIC	?max_size@?$allocator@D@std@@QBEIXZ		; std::allocator<char>::max_size
; Function compile flags: /Ogtpy
;	COMDAT ?max_size@?$allocator@D@std@@QBEIXZ
_TEXT	SEGMENT
?max_size@?$allocator@D@std@@QBEIXZ PROC		; std::allocator<char>::max_size, COMDAT
; _this$ = ecx

; 166  : 		_SIZT _Count = (_SIZT)(-1) / sizeof (_Ty);
; 167  : 		return (0 < _Count ? _Count : 1);

  00000	83 c8 ff	 or	 eax, -1

; 168  : 		}

  00003	c3		 ret	 0
?max_size@?$allocator@D@std@@QBEIXZ ENDP		; std::allocator<char>::max_size
_TEXT	ENDS
PUBLIC	??8?$_Const_iterator@$00@?$list@U?$pair@$$CBVCGUID@@PAVCBaseObject@@@std@@V?$allocator@U?$pair@$$CBVCGUID@@PAVCBaseObject@@@std@@@2@@std@@QBE_NABV012@@Z ; std::list<std::pair<CGUID const ,CBaseObject *>,std::allocator<std::pair<CGUID const ,CBaseObject *> > >::_Const_iterator<1>::operator==
EXTRN	__invalid_parameter_noinfo:PROC
; Function compile flags: /Ogtpy
; File d:\program files\microsoft visual studio 8\vc\include\list
;	COMDAT ??8?$_Const_iterator@$00@?$list@U?$pair@$$CBVCGUID@@PAVCBaseObject@@@std@@V?$allocator@U?$pair@$$CBVCGUID@@PAVCBaseObject@@@std@@@2@@std@@QBE_NABV012@@Z
_TEXT	SEGMENT
__Right$ = 8						; size = 4
??8?$_Const_iterator@$00@?$list@U?$pair@$$CBVCGUID@@PAVCBaseObject@@@std@@V?$allocator@U?$pair@$$CBVCGUID@@PAVCBaseObject@@@std@@@2@@std@@QBE_NABV012@@Z PROC ; std::list<std::pair<CGUID const ,CBaseObject *>,std::allocator<std::pair<CGUID const ,CBaseObject *> > >::_Const_iterator<1>::operator==, COMDAT
; _this$ = ecx

; 282  : 			{	// test for iterator equality

  00000	56		 push	 esi
  00001	8b f1		 mov	 esi, ecx

; 283  : 
; 284  :  #if _HAS_ITERATOR_DEBUGGING
; 285  : 			_Compat(_Right);
; 286  :  #else
; 287  : 			_SCL_SECURE_TRAITS_VALIDATE(this->_Mycont != NULL && this->_Mycont == _Right._Mycont);

  00003	8b 06		 mov	 eax, DWORD PTR [esi]
  00005	85 c0		 test	 eax, eax
  00007	57		 push	 edi
  00008	8b 7c 24 0c	 mov	 edi, DWORD PTR __Right$[esp+4]
  0000c	74 04		 je	 SHORT $LN1@operator@5
  0000e	3b 07		 cmp	 eax, DWORD PTR [edi]
  00010	74 05		 je	 SHORT $LN2@operator@5
$LN1@operator@5:
  00012	e8 00 00 00 00	 call	 __invalid_parameter_noinfo
$LN2@operator@5:

; 288  :  #endif /* _HAS_ITERATOR_DEBUGGING */
; 289  : 
; 290  : 			return (_Ptr == _Right._Ptr);

  00017	8b 46 04	 mov	 eax, DWORD PTR [esi+4]
  0001a	33 c9		 xor	 ecx, ecx
  0001c	3b 47 04	 cmp	 eax, DWORD PTR [edi+4]
  0001f	5f		 pop	 edi
  00020	0f 94 c1	 sete	 cl
  00023	8a c1		 mov	 al, cl
  00025	5e		 pop	 esi

; 291  : 			}

  00026	c2 04 00	 ret	 4
??8?$_Const_iterator@$00@?$list@U?$pair@$$CBVCGUID@@PAVCBaseObject@@@std@@V?$allocator@U?$pair@$$CBVCGUID@@PAVCBaseObject@@@std@@@2@@std@@QBE_NABV012@@Z ENDP ; std::list<std::pair<CGUID const ,CBaseObject *>,std::allocator<std::pair<CGUID const ,CBaseObject *> > >::_Const_iterator<1>::operator==
_TEXT	ENDS
PUBLIC	??0?$pair@$$CBVCGUID@@PAVCBaseObject@@@std@@QAE@ABVCGUID@@ABQAVCBaseObject@@@Z ; std::pair<CGUID const ,CBaseObject *>::pair<CGUID const ,CBaseObject *>
; Function compile flags: /Ogtpy
; File d:\program files\microsoft visual studio 8\vc\include\utility
;	COMDAT ??0?$pair@$$CBVCGUID@@PAVCBaseObject@@@std@@QAE@ABVCGUID@@ABQAVCBaseObject@@@Z
_TEXT	SEGMENT
__Val1$ = 8						; size = 4
__Val2$ = 12						; size = 4
??0?$pair@$$CBVCGUID@@PAVCBaseObject@@@std@@QAE@ABVCGUID@@ABQAVCBaseObject@@@Z PROC ; std::pair<CGUID const ,CBaseObject *>::pair<CGUID const ,CBaseObject *>, COMDAT
; _this$ = ecx

; 37   : 		{	// construct from specified values

  00000	8b c1		 mov	 eax, ecx
  00002	8b 4c 24 04	 mov	 ecx, DWORD PTR __Val1$[esp-4]
  00006	f3 0f 7e 01	 movq	 xmm0, QWORD PTR [ecx]
  0000a	66 0f d6 00	 movq	 QWORD PTR [eax], xmm0
  0000e	f3 0f 7e 41 08	 movq	 xmm0, QWORD PTR [ecx+8]
  00013	8b 4c 24 08	 mov	 ecx, DWORD PTR __Val2$[esp-4]
  00017	66 0f d6 40 08	 movq	 QWORD PTR [eax+8], xmm0
  0001c	8b 11		 mov	 edx, DWORD PTR [ecx]
  0001e	89 50 10	 mov	 DWORD PTR [eax+16], edx

; 38   : 		}

  00021	c2 08 00	 ret	 8
??0?$pair@$$CBVCGUID@@PAVCBaseObject@@@std@@QAE@ABVCGUID@@ABQAVCBaseObject@@@Z ENDP ; std::pair<CGUID const ,CBaseObject *>::pair<CGUID const ,CBaseObject *>
_TEXT	ENDS
PUBLIC	__TI2?AVbad_alloc@std@@
PUBLIC	??$_Allocate@D@std@@YAPADIPAD@Z			; std::_Allocate<char>
PUBLIC	__CTA2?AVbad_alloc@std@@
PUBLIC	__CT??_R0?AVbad_alloc@std@@@8??0bad_alloc@std@@QAE@ABV01@@Z12
PUBLIC	??0bad_alloc@std@@QAE@ABV01@@Z			; std::bad_alloc::bad_alloc
PUBLIC	__CT??_R0?AVexception@std@@@8??0exception@std@@QAE@ABV01@@Z12
EXTRN	??2@YAPAXI@Z:PROC				; operator new
EXTRN	__CxxThrowException@8:PROC
EXTRN	??0exception@std@@QAE@ABV01@@Z:PROC		; std::exception::exception
;	COMDAT __CT??_R0?AVexception@std@@@8??0exception@std@@QAE@ABV01@@Z12
; File d:\program files\microsoft visual studio 8\vc\include\exception
xdata$x	SEGMENT
__CT??_R0?AVexception@std@@@8??0exception@std@@QAE@ABV01@@Z12 DD 00H
	DD	FLAT:??_R0?AVexception@std@@@8
	DD	00H
	DD	0ffffffffH
	ORG $+4
	DD	0cH
	DD	FLAT:??0exception@std@@QAE@ABV01@@Z
xdata$x	ENDS
;	COMDAT __CT??_R0?AVbad_alloc@std@@@8??0bad_alloc@std@@QAE@ABV01@@Z12
xdata$x	SEGMENT
__CT??_R0?AVbad_alloc@std@@@8??0bad_alloc@std@@QAE@ABV01@@Z12 DD 00H
	DD	FLAT:??_R0?AVbad_alloc@std@@@8
	DD	00H
	DD	0ffffffffH
	ORG $+4
	DD	0cH
	DD	FLAT:??0bad_alloc@std@@QAE@ABV01@@Z
xdata$x	ENDS
;	COMDAT __CTA2?AVbad_alloc@std@@
xdata$x	SEGMENT
__CTA2?AVbad_alloc@std@@ DD 02H
	DD	FLAT:__CT??_R0?AVbad_alloc@std@@@8??0bad_alloc@std@@QAE@ABV01@@Z12
	DD	FLAT:__CT??_R0?AVexception@std@@@8??0exception@std@@QAE@ABV01@@Z12
xdata$x	ENDS
;	COMDAT __TI2?AVbad_alloc@std@@
xdata$x	SEGMENT
__TI2?AVbad_alloc@std@@ DD 00H
	DD	FLAT:??1bad_alloc@std@@UAE@XZ
	DD	00H
	DD	FLAT:__CTA2?AVbad_alloc@std@@
; Function compile flags: /Ogtpy
; File d:\program files\microsoft visual studio 8\vc\include\xmemory
xdata$x	ENDS
;	COMDAT ??$_Allocate@D@std@@YAPADIPAD@Z
_TEXT	SEGMENT
$T295366 = -12						; size = 12
$T295371 = 8						; size = 4
__Count$ = 8						; size = 4
___formal$ = 12						; size = 4
??$_Allocate@D@std@@YAPADIPAD@Z PROC			; std::_Allocate<char>, COMDAT

; 38   : 	if (_Count <= 0)

  00000	8b 4c 24 04	 mov	 ecx, DWORD PTR __Count$[esp-4]
  00004	83 ec 0c	 sub	 esp, 12			; 0000000cH
  00007	85 c9		 test	 ecx, ecx
  00009	77 0f		 ja	 SHORT $LN3@Allocate

; 39   : 		_Count = 0;

  0000b	33 c9		 xor	 ecx, ecx
$LN1@Allocate:

; 42   : 
; 43   : 		// allocate storage for _Count elements of type _Ty
; 44   : 	return ((_Ty _FARQ *)::operator new(_Count * sizeof (_Ty)));

  0000d	51		 push	 ecx
  0000e	e8 00 00 00 00	 call	 ??2@YAPAXI@Z		; operator new
  00013	83 c4 04	 add	 esp, 4

; 45   : 	}

  00016	83 c4 0c	 add	 esp, 12			; 0000000cH
  00019	c3		 ret	 0
$LN3@Allocate:

; 40   : 	else if (((_SIZT)(-1) / _Count) < sizeof (_Ty))

  0001a	83 c8 ff	 or	 eax, -1
  0001d	33 d2		 xor	 edx, edx
  0001f	f7 f1		 div	 ecx
  00021	83 f8 01	 cmp	 eax, 1
  00024	73 e7		 jae	 SHORT $LN1@Allocate

; 41   : 		_THROW_NCEE(std::bad_alloc, NULL);

  00026	8d 44 24 10	 lea	 eax, DWORD PTR $T295371[esp+8]
  0002a	50		 push	 eax
  0002b	8d 4c 24 04	 lea	 ecx, DWORD PTR $T295366[esp+16]
  0002f	c7 44 24 14 00
	00 00 00	 mov	 DWORD PTR $T295371[esp+12], 0
  00037	e8 00 00 00 00	 call	 ??0exception@std@@QAE@ABQBD@Z ; std::exception::exception
  0003c	68 00 00 00 00	 push	 OFFSET __TI2?AVbad_alloc@std@@
  00041	8d 4c 24 04	 lea	 ecx, DWORD PTR $T295366[esp+16]
  00045	51		 push	 ecx
  00046	c7 44 24 08 00
	00 00 00	 mov	 DWORD PTR $T295366[esp+20], OFFSET ??_7bad_alloc@std@@6B@
  0004e	e8 00 00 00 00	 call	 __CxxThrowException@8
$LN9@Allocate:
$LN8@Allocate:
  00053	cc		 int	 3
??$_Allocate@D@std@@YAPADIPAD@Z ENDP			; std::_Allocate<char>
; Function compile flags: /Ogtpy
_TEXT	ENDS
;	COMDAT ??0bad_alloc@std@@QAE@ABV01@@Z
_TEXT	SEGMENT
___that$ = 8						; size = 4
??0bad_alloc@std@@QAE@ABV01@@Z PROC			; std::bad_alloc::bad_alloc, COMDAT
; _this$ = ecx
  00000	8b 44 24 04	 mov	 eax, DWORD PTR ___that$[esp-4]
  00004	56		 push	 esi
  00005	50		 push	 eax
  00006	8b f1		 mov	 esi, ecx
  00008	e8 00 00 00 00	 call	 ??0exception@std@@QAE@ABV01@@Z ; std::exception::exception
  0000d	c7 06 00 00 00
	00		 mov	 DWORD PTR [esi], OFFSET ??_7bad_alloc@std@@6B@
  00013	8b c6		 mov	 eax, esi
  00015	5e		 pop	 esi
  00016	c2 04 00	 ret	 4
??0bad_alloc@std@@QAE@ABV01@@Z ENDP			; std::bad_alloc::bad_alloc
_TEXT	ENDS
PUBLIC	?_Hashval@?$_Hash@V?$_Hmap_traits@VCGUID@@PAVCBaseObject@@Vhash_guid_compare@@V?$allocator@U?$pair@$$CBVCGUID@@PAVCBaseObject@@@std@@@std@@$0A@@stdext@@@stdext@@IBEIABVCGUID@@@Z ; stdext::_Hash<stdext::_Hmap_traits<CGUID,CBaseObject *,hash_guid_compare,std::allocator<std::pair<CGUID const ,CBaseObject *> >,0> >::_Hashval
; Function compile flags: /Ogtpy
; File d:\program files\microsoft visual studio 8\vc\include\xhash
;	COMDAT ?_Hashval@?$_Hash@V?$_Hmap_traits@VCGUID@@PAVCBaseObject@@Vhash_guid_compare@@V?$allocator@U?$pair@$$CBVCGUID@@PAVCBaseObject@@@std@@@std@@$0A@@stdext@@@stdext@@IBEIABVCGUID@@@Z
_TEXT	SEGMENT
__Keyval$ = 8						; size = 4
?_Hashval@?$_Hash@V?$_Hmap_traits@VCGUID@@PAVCBaseObject@@Vhash_guid_compare@@V?$allocator@U?$pair@$$CBVCGUID@@PAVCBaseObject@@@std@@@std@@$0A@@stdext@@@stdext@@IBEIABVCGUID@@@Z PROC ; stdext::_Hash<stdext::_Hmap_traits<CGUID,CBaseObject *,hash_guid_compare,std::allocator<std::pair<CGUID const ,CBaseObject *> >,0> >::_Hashval, COMDAT
; _this$ = ecx

; 683  : 		size_type _Num = this->comp(_Keyval) & _Mask;

  00000	8b 54 24 04	 mov	 edx, DWORD PTR __Keyval$[esp-4]
  00004	8b 42 0c	 mov	 eax, DWORD PTR [edx+12]
  00007	03 42 08	 add	 eax, DWORD PTR [edx+8]
  0000a	56		 push	 esi
  0000b	03 42 04	 add	 eax, DWORD PTR [edx+4]
  0000e	8b 71 20	 mov	 esi, DWORD PTR [ecx+32]
  00011	03 02		 add	 eax, DWORD PTR [edx]
  00013	23 c6		 and	 eax, esi

; 684  : 		if (_Maxidx <= _Num)

  00015	39 41 24	 cmp	 DWORD PTR [ecx+36], eax
  00018	77 09		 ja	 SHORT $LN1@Hashval

; 685  : 			_Num -= (_Mask >> 1) + 1;

  0001a	d1 ee		 shr	 esi, 1
  0001c	83 c9 ff	 or	 ecx, -1
  0001f	2b ce		 sub	 ecx, esi
  00021	03 c1		 add	 eax, ecx
$LN1@Hashval:
  00023	5e		 pop	 esi

; 686  : 		return (_Num);
; 687  : 		}

  00024	c2 04 00	 ret	 4
?_Hashval@?$_Hash@V?$_Hmap_traits@VCGUID@@PAVCBaseObject@@Vhash_guid_compare@@V?$allocator@U?$pair@$$CBVCGUID@@PAVCBaseObject@@@std@@@std@@$0A@@stdext@@@stdext@@IBEIABVCGUID@@@Z ENDP ; stdext::_Hash<stdext::_Hmap_traits<CGUID,CBaseObject *,hash_guid_compare,std::allocator<std::pair<CGUID const ,CBaseObject *> >,0> >::_Hashval
_TEXT	ENDS
PUBLIC	?_Kfn@?$_Hmap_traits@VCGUID@@PAVCBaseObject@@Vhash_guid_compare@@V?$allocator@U?$pair@$$CBVCGUID@@PAVCBaseObject@@@std@@@std@@$0A@@stdext@@SAABVCGUID@@ABU?$pair@$$CBVCGUID@@PAVCBaseObject@@@std@@@Z ; stdext::_Hmap_traits<CGUID,CBaseObject *,hash_guid_compare,std::allocator<std::pair<CGUID const ,CBaseObject *> >,0>::_Kfn
; Function compile flags: /Ogtpy
; File d:\program files\microsoft visual studio 8\vc\include\hash_map
;	COMDAT ?_Kfn@?$_Hmap_traits@VCGUID@@PAVCBaseObject@@Vhash_guid_compare@@V?$allocator@U?$pair@$$CBVCGUID@@PAVCBaseObject@@@std@@@std@@$0A@@stdext@@SAABVCGUID@@ABU?$pair@$$CBVCGUID@@PAVCBaseObject@@@std@@@Z
_TEXT	SEGMENT
__Val$ = 8						; size = 4
?_Kfn@?$_Hmap_traits@VCGUID@@PAVCBaseObject@@Vhash_guid_compare@@V?$allocator@U?$pair@$$CBVCGUID@@PAVCBaseObject@@@std@@@std@@$0A@@stdext@@SAABVCGUID@@ABU?$pair@$$CBVCGUID@@PAVCBaseObject@@@std@@@Z PROC ; stdext::_Hmap_traits<CGUID,CBaseObject *,hash_guid_compare,std::allocator<std::pair<CGUID const ,CBaseObject *> >,0>::_Kfn, COMDAT

; 77   : 		return (_Val.first);

  00000	8b 44 24 04	 mov	 eax, DWORD PTR __Val$[esp-4]

; 78   : 		}

  00004	c3		 ret	 0
?_Kfn@?$_Hmap_traits@VCGUID@@PAVCBaseObject@@Vhash_guid_compare@@V?$allocator@U?$pair@$$CBVCGUID@@PAVCBaseObject@@@std@@@std@@$0A@@stdext@@SAABVCGUID@@ABU?$pair@$$CBVCGUID@@PAVCBaseObject@@@std@@@Z ENDP ; stdext::_Hmap_traits<CGUID,CBaseObject *,hash_guid_compare,std::allocator<std::pair<CGUID const ,CBaseObject *> >,0>::_Kfn
_TEXT	ENDS
PUBLIC	?size@?$vector@U_List_position@?$_Hash@V?$_Hmap_traits@VCGUID@@PAVCBaseObject@@Vhash_guid_compare@@V?$allocator@U?$pair@$$CBVCGUID@@PAVCBaseObject@@@std@@@std@@$0A@@stdext@@@stdext@@V?$allocator@U_List_position@?$_Hash@V?$_Hmap_traits@VCGUID@@PAVCBaseObject@@Vhash_guid_compare@@V?$allocator@U?$pair@$$CBVCGUID@@PAVCBaseObject@@@std@@@std@@$0A@@stdext@@@stdext@@@std@@@std@@QBEIXZ ; std::vector<stdext::_Hash<stdext::_Hmap_traits<CGUID,CBaseObject *,hash_guid_compare,std::allocator<std::pair<CGUID const ,CBaseObject *> >,0> >::_List_position,std::allocator<stdext::_Hash<stdext::_Hmap_traits<CGUID,CBaseObject *,hash_guid_compare,std::allocator<std::pair<CGUID const ,CBaseObject *> >,0> >::_List_position> >::size
; Function compile flags: /Ogtpy
; File d:\program files\microsoft visual studio 8\vc\include\vector
;	COMDAT ?size@?$vector@U_List_position@?$_Hash@V?$_Hmap_traits@VCGUID@@PAVCBaseObject@@Vhash_guid_compare@@V?$allocator@U?$pair@$$CBVCGUID@@PAVCBaseObject@@@std@@@std@@$0A@@stdext@@@stdext@@V?$allocator@U_List_position@?$_Hash@V?$_Hmap_traits@VCGUID@@PAVCBaseObject@@Vhash_guid_compare@@V?$allocator@U?$pair@$$CBVCGUID@@PAVCBaseObject@@@std@@@std@@$0A@@stdext@@@stdext@@@std@@@std@@QBEIXZ
_TEXT	SEGMENT
?size@?$vector@U_List_position@?$_Hash@V?$_Hmap_traits@VCGUID@@PAVCBaseObject@@Vhash_guid_compare@@V?$allocator@U?$pair@$$CBVCGUID@@PAVCBaseObject@@@std@@@std@@$0A@@stdext@@@stdext@@V?$allocator@U_List_position@?$_Hash@V?$_Hmap_traits@VCGUID@@PAVCBaseObject@@Vhash_guid_compare@@V?$allocator@U?$pair@$$CBVCGUID@@PAVCBaseObject@@@std@@@std@@$0A@@stdext@@@stdext@@@std@@@std@@QBEIXZ PROC ; std::vector<stdext::_Hash<stdext::_Hmap_traits<CGUID,CBaseObject *,hash_guid_compare,std::allocator<std::pair<CGUID const ,CBaseObject *> >,0> >::_List_position,std::allocator<stdext::_Hash<stdext::_Hmap_traits<CGUID,CBaseObject *,hash_guid_compare,std::allocator<std::pair<CGUID const ,CBaseObject *> >,0> >::_List_position> >::size, COMDAT
; _this$ = ecx

; 703  : 		return (_Myfirst == 0 ? 0 : _Mylast - _Myfirst);

  00000	8b 51 04	 mov	 edx, DWORD PTR [ecx+4]
  00003	85 d2		 test	 edx, edx
  00005	75 03		 jne	 SHORT $LN3@size
  00007	33 c0		 xor	 eax, eax

; 704  : 		}

  00009	c3		 ret	 0
$LN3@size:

; 703  : 		return (_Myfirst == 0 ? 0 : _Mylast - _Myfirst);

  0000a	8b 41 08	 mov	 eax, DWORD PTR [ecx+8]
  0000d	2b c2		 sub	 eax, edx
  0000f	c1 f8 03	 sar	 eax, 3

; 704  : 		}

  00012	c3		 ret	 0
?size@?$vector@U_List_position@?$_Hash@V?$_Hmap_traits@VCGUID@@PAVCBaseObject@@Vhash_guid_compare@@V?$allocator@U?$pair@$$CBVCGUID@@PAVCBaseObject@@@std@@@std@@$0A@@stdext@@@stdext@@V?$allocator@U_List_position@?$_Hash@V?$_Hmap_traits@VCGUID@@PAVCBaseObject@@Vhash_guid_compare@@V?$allocator@U?$pair@$$CBVCGUID@@PAVCBaseObject@@@std@@@std@@$0A@@stdext@@@stdext@@@std@@@std@@QBEIXZ ENDP ; std::vector<stdext::_Hash<stdext::_Hmap_traits<CGUID,CBaseObject *,hash_guid_compare,std::allocator<std::pair<CGUID const ,CBaseObject *> >,0> >::_List_position,std::allocator<stdext::_Hash<stdext::_Hmap_traits<CGUID,CBaseObject *,hash_guid_compare,std::allocator<std::pair<CGUID const ,CBaseObject *> >,0> >::_List_position> >::size
_TEXT	ENDS
PUBLIC	??A?$vector@U_List_position@?$_Hash@V?$_Hmap_traits@VCGUID@@PAVCBaseObject@@Vhash_guid_compare@@V?$allocator@U?$pair@$$CBVCGUID@@PAVCBaseObject@@@std@@@std@@$0A@@stdext@@@stdext@@V?$allocator@U_List_position@?$_Hash@V?$_Hmap_traits@VCGUID@@PAVCBaseObject@@Vhash_guid_compare@@V?$allocator@U?$pair@$$CBVCGUID@@PAVCBaseObject@@@std@@@std@@$0A@@stdext@@@stdext@@@std@@@std@@QAEAAU_List_position@?$_Hash@V?$_Hmap_traits@VCGUID@@PAVCBaseObject@@Vhash_guid_compare@@V?$allocator@U?$pair@$$CBVCGUID@@PAVCBaseObject@@@std@@@std@@$0A@@stdext@@@stdext@@I@Z ; std::vector<stdext::_Hash<stdext::_Hmap_traits<CGUID,CBaseObject *,hash_guid_compare,std::allocator<std::pair<CGUID const ,CBaseObject *> >,0> >::_List_position,std::allocator<stdext::_Hash<stdext::_Hmap_traits<CGUID,CBaseObject *,hash_guid_compare,std::allocator<std::pair<CGUID const ,CBaseObject *> >,0> >::_List_position> >::operator[]
; Function compile flags: /Ogtpy
;	COMDAT ??A?$vector@U_List_position@?$_Hash@V?$_Hmap_traits@VCGUID@@PAVCBaseObject@@Vhash_guid_compare@@V?$allocator@U?$pair@$$CBVCGUID@@PAVCBaseObject@@@std@@@std@@$0A@@stdext@@@stdext@@V?$allocator@U_List_position@?$_Hash@V?$_Hmap_traits@VCGUID@@PAVCBaseObject@@Vhash_guid_compare@@V?$allocator@U?$pair@$$CBVCGUID@@PAVCBaseObject@@@std@@@std@@$0A@@stdext@@@stdext@@@std@@@std@@QAEAAU_List_position@?$_Hash@V?$_Hmap_traits@VCGUID@@PAVCBaseObject@@Vhash_guid_compare@@V?$allocator@U?$pair@$$CBVCGUID@@PAVCBaseObject@@@std@@@std@@$0A@@stdext@@@stdext@@I@Z
_TEXT	SEGMENT
__Pos$ = 8						; size = 4
??A?$vector@U_List_position@?$_Hash@V?$_Hmap_traits@VCGUID@@PAVCBaseObject@@Vhash_guid_compare@@V?$allocator@U?$pair@$$CBVCGUID@@PAVCBaseObject@@@std@@@std@@$0A@@stdext@@@stdext@@V?$allocator@U_List_position@?$_Hash@V?$_Hmap_traits@VCGUID@@PAVCBaseObject@@Vhash_guid_compare@@V?$allocator@U?$pair@$$CBVCGUID@@PAVCBaseObject@@@std@@@std@@$0A@@stdext@@@stdext@@@std@@@std@@QAEAAU_List_position@?$_Hash@V?$_Hmap_traits@VCGUID@@PAVCBaseObject@@Vhash_guid_compare@@V?$allocator@U?$pair@$$CBVCGUID@@PAVCBaseObject@@@std@@@std@@$0A@@stdext@@@stdext@@I@Z PROC ; std::vector<stdext::_Hash<stdext::_Hmap_traits<CGUID,CBaseObject *,hash_guid_compare,std::allocator<std::pair<CGUID const ,CBaseObject *> >,0> >::_List_position,std::allocator<stdext::_Hash<stdext::_Hmap_traits<CGUID,CBaseObject *,hash_guid_compare,std::allocator<std::pair<CGUID const ,CBaseObject *> >,0> >::_List_position> >::operator[], COMDAT
; _this$ = ecx

; 751  : 		{	// subscript mutable sequence

  00000	56		 push	 esi
  00001	8b f1		 mov	 esi, ecx

; 752  : 
; 753  :  #if _HAS_ITERATOR_DEBUGGING
; 754  : 		if (size() <= _Pos)
; 755  : 			{
; 756  : 			_DEBUG_ERROR("vector subscript out of range");
; 757  : 			_SCL_SECURE_OUT_OF_RANGE;
; 758  : 			}
; 759  :  #endif /* _HAS_ITERATOR_DEBUGGING */
; 760  : 		_SCL_SECURE_VALIDATE_RANGE(_Pos < size());

  00003	8b 4e 04	 mov	 ecx, DWORD PTR [esi+4]
  00006	85 c9		 test	 ecx, ecx
  00008	57		 push	 edi
  00009	8b 7c 24 0c	 mov	 edi, DWORD PTR __Pos$[esp+4]
  0000d	74 0c		 je	 SHORT $LN8@operator@6
  0000f	8b 46 08	 mov	 eax, DWORD PTR [esi+8]
  00012	2b c1		 sub	 eax, ecx
  00014	c1 f8 03	 sar	 eax, 3
  00017	3b f8		 cmp	 edi, eax
  00019	72 05		 jb	 SHORT $LN1@operator@6
$LN8@operator@6:
  0001b	e8 00 00 00 00	 call	 __invalid_parameter_noinfo
$LN1@operator@6:

; 761  : 
; 762  : 		return (*(_Myfirst + _Pos));

  00020	8b 46 04	 mov	 eax, DWORD PTR [esi+4]
  00023	8d 04 f8	 lea	 eax, DWORD PTR [eax+edi*8]
  00026	5f		 pop	 edi
  00027	5e		 pop	 esi

; 763  : 		}

  00028	c2 04 00	 ret	 4
??A?$vector@U_List_position@?$_Hash@V?$_Hmap_traits@VCGUID@@PAVCBaseObject@@Vhash_guid_compare@@V?$allocator@U?$pair@$$CBVCGUID@@PAVCBaseObject@@@std@@@std@@$0A@@stdext@@@stdext@@V?$allocator@U_List_position@?$_Hash@V?$_Hmap_traits@VCGUID@@PAVCBaseObject@@Vhash_guid_compare@@V?$allocator@U?$pair@$$CBVCGUID@@PAVCBaseObject@@@std@@@std@@$0A@@stdext@@@stdext@@@std@@@std@@QAEAAU_List_position@?$_Hash@V?$_Hmap_traits@VCGUID@@PAVCBaseObject@@Vhash_guid_compare@@V?$allocator@U?$pair@$$CBVCGUID@@PAVCBaseObject@@@std@@@std@@$0A@@stdext@@@stdext@@I@Z ENDP ; std::vector<stdext::_Hash<stdext::_Hmap_traits<CGUID,CBaseObject *,hash_guid_compare,std::allocator<std::pair<CGUID const ,CBaseObject *> >,0> >::_List_position,std::allocator<stdext::_Hash<stdext::_Hmap_traits<CGUID,CBaseObject *,hash_guid_compare,std::allocator<std::pair<CGUID const ,CBaseObject *> >,0> >::_List_position> >::operator[]
_TEXT	ENDS
PUBLIC	??9?$_Const_iterator@$00@?$list@U?$pair@$$CBVCGUID@@PAVCBaseObject@@@std@@V?$allocator@U?$pair@$$CBVCGUID@@PAVCBaseObject@@@std@@@2@@std@@QBE_NABV012@@Z ; std::list<std::pair<CGUID const ,CBaseObject *>,std::allocator<std::pair<CGUID const ,CBaseObject *> > >::_Const_iterator<1>::operator!=
; Function compile flags: /Ogtpy
; File d:\program files\microsoft visual studio 8\vc\include\list
;	COMDAT ??9?$_Const_iterator@$00@?$list@U?$pair@$$CBVCGUID@@PAVCBaseObject@@@std@@V?$allocator@U?$pair@$$CBVCGUID@@PAVCBaseObject@@@std@@@2@@std@@QBE_NABV012@@Z
_TEXT	SEGMENT
__Right$ = 8						; size = 4
??9?$_Const_iterator@$00@?$list@U?$pair@$$CBVCGUID@@PAVCBaseObject@@@std@@V?$allocator@U?$pair@$$CBVCGUID@@PAVCBaseObject@@@std@@@2@@std@@QBE_NABV012@@Z PROC ; std::list<std::pair<CGUID const ,CBaseObject *>,std::allocator<std::pair<CGUID const ,CBaseObject *> > >::_Const_iterator<1>::operator!=, COMDAT
; _this$ = ecx

; 294  : 			{	// test for iterator inequality

  00000	56		 push	 esi
  00001	8b f1		 mov	 esi, ecx

; 295  : 			return (!(*this == _Right));

  00003	8b 06		 mov	 eax, DWORD PTR [esi]
  00005	85 c0		 test	 eax, eax
  00007	57		 push	 edi
  00008	8b 7c 24 0c	 mov	 edi, DWORD PTR __Right$[esp+4]
  0000c	74 04		 je	 SHORT $LN3@operator@7
  0000e	3b 07		 cmp	 eax, DWORD PTR [edi]
  00010	74 05		 je	 SHORT $LN4@operator@7
$LN3@operator@7:
  00012	e8 00 00 00 00	 call	 __invalid_parameter_noinfo
$LN4@operator@7:
  00017	8b 46 04	 mov	 eax, DWORD PTR [esi+4]
  0001a	33 c9		 xor	 ecx, ecx
  0001c	3b 47 04	 cmp	 eax, DWORD PTR [edi+4]
  0001f	5f		 pop	 edi
  00020	0f 95 c1	 setne	 cl
  00023	8a c1		 mov	 al, cl
  00025	5e		 pop	 esi

; 296  : 			}

  00026	c2 04 00	 ret	 4
??9?$_Const_iterator@$00@?$list@U?$pair@$$CBVCGUID@@PAVCBaseObject@@@std@@V?$allocator@U?$pair@$$CBVCGUID@@PAVCBaseObject@@@std@@@2@@std@@QBE_NABV012@@Z ENDP ; std::list<std::pair<CGUID const ,CBaseObject *>,std::allocator<std::pair<CGUID const ,CBaseObject *> > >::_Const_iterator<1>::operator!=
_TEXT	ENDS
PUBLIC	??0?$pair@V?$_Iterator@$00@?$list@U?$pair@$$CBVCGUID@@PAVCBaseObject@@@std@@V?$allocator@U?$pair@$$CBVCGUID@@PAVCBaseObject@@@std@@@2@@std@@_N@std@@QAE@ABV?$_Iterator@$00@?$list@U?$pair@$$CBVCGUID@@PAVCBaseObject@@@std@@V?$allocator@U?$pair@$$CBVCGUID@@PAVCBaseObject@@@std@@@2@@1@AB_N@Z ; std::pair<std::list<std::pair<CGUID const ,CBaseObject *>,std::allocator<std::pair<CGUID const ,CBaseObject *> > >::_Iterator<1>,bool>::pair<std::list<std::pair<CGUID const ,CBaseObject *>,std::allocator<std::pair<CGUID const ,CBaseObject *> > >::_Iterator<1>,bool>
; Function compile flags: /Ogtpy
; File d:\program files\microsoft visual studio 8\vc\include\utility
;	COMDAT ??0?$pair@V?$_Iterator@$00@?$list@U?$pair@$$CBVCGUID@@PAVCBaseObject@@@std@@V?$allocator@U?$pair@$$CBVCGUID@@PAVCBaseObject@@@std@@@2@@std@@_N@std@@QAE@ABV?$_Iterator@$00@?$list@U?$pair@$$CBVCGUID@@PAVCBaseObject@@@std@@V?$allocator@U?$pair@$$CBVCGUID@@PAVCBaseObject@@@std@@@2@@1@AB_N@Z
_TEXT	SEGMENT
__Val1$ = 8						; size = 4
__Val2$ = 12						; size = 4
??0?$pair@V?$_Iterator@$00@?$list@U?$pair@$$CBVCGUID@@PAVCBaseObject@@@std@@V?$allocator@U?$pair@$$CBVCGUID@@PAVCBaseObject@@@std@@@2@@std@@_N@std@@QAE@ABV?$_Iterator@$00@?$list@U?$pair@$$CBVCGUID@@PAVCBaseObject@@@std@@V?$allocator@U?$pair@$$CBVCGUID@@PAVCBaseObject@@@std@@@2@@1@AB_N@Z PROC ; std::pair<std::list<std::pair<CGUID const ,CBaseObject *>,std::allocator<std::pair<CGUID const ,CBaseObject *> > >::_Iterator<1>,bool>::pair<std::list<std::pair<CGUID const ,CBaseObject *>,std::allocator<std::pair<CGUID const ,CBaseObject *> > >::_Iterator<1>,bool>, COMDAT
; _this$ = ecx

; 37   : 		{	// construct from specified values

  00000	8b c1		 mov	 eax, ecx
  00002	8b 4c 24 04	 mov	 ecx, DWORD PTR __Val1$[esp-4]
  00006	8b 11		 mov	 edx, DWORD PTR [ecx]
  00008	89 10		 mov	 DWORD PTR [eax], edx
  0000a	8b 49 04	 mov	 ecx, DWORD PTR [ecx+4]
  0000d	8b 54 24 08	 mov	 edx, DWORD PTR __Val2$[esp-4]
  00011	89 48 04	 mov	 DWORD PTR [eax+4], ecx
  00014	8a 0a		 mov	 cl, BYTE PTR [edx]
  00016	88 48 08	 mov	 BYTE PTR [eax+8], cl

; 38   : 		}

  00019	c2 08 00	 ret	 8
??0?$pair@V?$_Iterator@$00@?$list@U?$pair@$$CBVCGUID@@PAVCBaseObject@@@std@@V?$allocator@U?$pair@$$CBVCGUID@@PAVCBaseObject@@@std@@@2@@std@@_N@std@@QAE@ABV?$_Iterator@$00@?$list@U?$pair@$$CBVCGUID@@PAVCBaseObject@@@std@@V?$allocator@U?$pair@$$CBVCGUID@@PAVCBaseObject@@@std@@@2@@1@AB_N@Z ENDP ; std::pair<std::list<std::pair<CGUID const ,CBaseObject *>,std::allocator<std::pair<CGUID const ,CBaseObject *> > >::_Iterator<1>,bool>::pair<std::list<std::pair<CGUID const ,CBaseObject *>,std::allocator<std::pair<CGUID const ,CBaseObject *> > >::_Iterator<1>,bool>
_TEXT	ENDS
PUBLIC	??0?$pair@V?$_Iterator@$00@?$list@U?$pair@$$CBVCGUID@@PAVCBaseObject@@@std@@V?$allocator@U?$pair@$$CBVCGUID@@PAVCBaseObject@@@std@@@2@@std@@V123@@std@@QAE@ABV?$_Iterator@$00@?$list@U?$pair@$$CBVCGUID@@PAVCBaseObject@@@std@@V?$allocator@U?$pair@$$CBVCGUID@@PAVCBaseObject@@@std@@@2@@1@0@Z ; std::pair<std::list<std::pair<CGUID const ,CBaseObject *>,std::allocator<std::pair<CGUID const ,CBaseObject *> > >::_Iterator<1>,std::list<std::pair<CGUID const ,CBaseObject *>,std::allocator<std::pair<CGUID const ,CBaseObject *> > >::_Iterator<1> >::pair<std::list<std::pair<CGUID const ,CBaseObject *>,std::allocator<std::pair<CGUID const ,CBaseObject *> > >::_Iterator<1>,std::list<std::pair<CGUID const ,CBaseObject *>,std::allocator<std::pair<CGUID const ,CBaseObject *> > >::_Iterator<1> >
; Function compile flags: /Ogtpy
;	COMDAT ??0?$pair@V?$_Iterator@$00@?$list@U?$pair@$$CBVCGUID@@PAVCBaseObject@@@std@@V?$allocator@U?$pair@$$CBVCGUID@@PAVCBaseObject@@@std@@@2@@std@@V123@@std@@QAE@ABV?$_Iterator@$00@?$list@U?$pair@$$CBVCGUID@@PAVCBaseObject@@@std@@V?$allocator@U?$pair@$$CBVCGUID@@PAVCBaseObject@@@std@@@2@@1@0@Z
_TEXT	SEGMENT
__Val1$ = 8						; size = 4
__Val2$ = 12						; size = 4
??0?$pair@V?$_Iterator@$00@?$list@U?$pair@$$CBVCGUID@@PAVCBaseObject@@@std@@V?$allocator@U?$pair@$$CBVCGUID@@PAVCBaseObject@@@std@@@2@@std@@V123@@std@@QAE@ABV?$_Iterator@$00@?$list@U?$pair@$$CBVCGUID@@PAVCBaseObject@@@std@@V?$allocator@U?$pair@$$CBVCGUID@@PAVCBaseObject@@@std@@@2@@1@0@Z PROC ; std::pair<std::list<std::pair<CGUID const ,CBaseObject *>,std::allocator<std::pair<CGUID const ,CBaseObject *> > >::_Iterator<1>,std::list<std::pair<CGUID const ,CBaseObject *>,std::allocator<std::pair<CGUID const ,CBaseObject *> > >::_Iterator<1> >::pair<std::list<std::pair<CGUID const ,CBaseObject *>,std::allocator<std::pair<CGUID const ,CBaseObject *> > >::_Iterator<1>,std::list<std::pair<CGUID const ,CBaseObject *>,std::allocator<std::pair<CGUID const ,CBaseObject *> > >::_Iterator<1> >, COMDAT
; _this$ = ecx

; 37   : 		{	// construct from specified values

  00000	8b c1		 mov	 eax, ecx
  00002	8b 4c 24 04	 mov	 ecx, DWORD PTR __Val1$[esp-4]
  00006	8b 11		 mov	 edx, DWORD PTR [ecx]
  00008	89 10		 mov	 DWORD PTR [eax], edx
  0000a	8b 49 04	 mov	 ecx, DWORD PTR [ecx+4]
  0000d	89 48 04	 mov	 DWORD PTR [eax+4], ecx
  00010	8b 4c 24 08	 mov	 ecx, DWORD PTR __Val2$[esp-4]
  00014	8b 11		 mov	 edx, DWORD PTR [ecx]
  00016	89 50 08	 mov	 DWORD PTR [eax+8], edx
  00019	8b 49 04	 mov	 ecx, DWORD PTR [ecx+4]
  0001c	89 48 0c	 mov	 DWORD PTR [eax+12], ecx

; 38   : 		}

  0001f	c2 08 00	 ret	 8
??0?$pair@V?$_Iterator@$00@?$list@U?$pair@$$CBVCGUID@@PAVCBaseObject@@@std@@V?$allocator@U?$pair@$$CBVCGUID@@PAVCBaseObject@@@std@@@2@@std@@V123@@std@@QAE@ABV?$_Iterator@$00@?$list@U?$pair@$$CBVCGUID@@PAVCBaseObject@@@std@@V?$allocator@U?$pair@$$CBVCGUID@@PAVCBaseObject@@@std@@@2@@1@0@Z ENDP ; std::pair<std::list<std::pair<CGUID const ,CBaseObject *>,std::allocator<std::pair<CGUID const ,CBaseObject *> > >::_Iterator<1>,std::list<std::pair<CGUID const ,CBaseObject *>,std::allocator<std::pair<CGUID const ,CBaseObject *> > >::_Iterator<1> >::pair<std::list<std::pair<CGUID const ,CBaseObject *>,std::allocator<std::pair<CGUID const ,CBaseObject *> > >::_Iterator<1>,std::list<std::pair<CGUID const ,CBaseObject *>,std::allocator<std::pair<CGUID const ,CBaseObject *> > >::_Iterator<1> >
_TEXT	ENDS
PUBLIC	?_Nextnode@?$list@U?$pair@$$CBVCGUID@@PAVCBaseObject@@@std@@V?$allocator@U?$pair@$$CBVCGUID@@PAVCBaseObject@@@std@@@2@@std@@KAAAPAU_Node@?$_List_nod@U?$pair@$$CBVCGUID@@PAVCBaseObject@@@std@@V?$allocator@U?$pair@$$CBVCGUID@@PAVCBaseObject@@@std@@@2@@2@PAU342@@Z ; std::list<std::pair<CGUID const ,CBaseObject *>,std::allocator<std::pair<CGUID const ,CBaseObject *> > >::_Nextnode
; Function compile flags: /Ogtpy
; File d:\program files\microsoft visual studio 8\vc\include\list
;	COMDAT ?_Nextnode@?$list@U?$pair@$$CBVCGUID@@PAVCBaseObject@@@std@@V?$allocator@U?$pair@$$CBVCGUID@@PAVCBaseObject@@@std@@@2@@std@@KAAAPAU_Node@?$_List_nod@U?$pair@$$CBVCGUID@@PAVCBaseObject@@@std@@V?$allocator@U?$pair@$$CBVCGUID@@PAVCBaseObject@@@std@@@2@@2@PAU342@@Z
_TEXT	SEGMENT
__Pnode$ = 8						; size = 4
?_Nextnode@?$list@U?$pair@$$CBVCGUID@@PAVCBaseObject@@@std@@V?$allocator@U?$pair@$$CBVCGUID@@PAVCBaseObject@@@std@@@2@@std@@KAAAPAU_Node@?$_List_nod@U?$pair@$$CBVCGUID@@PAVCBaseObject@@@std@@V?$allocator@U?$pair@$$CBVCGUID@@PAVCBaseObject@@@std@@@2@@2@PAU342@@Z PROC ; std::list<std::pair<CGUID const ,CBaseObject *>,std::allocator<std::pair<CGUID const ,CBaseObject *> > >::_Nextnode, COMDAT

; 111  : 		return ((_Nodepref)(*_Pnode)._Next);

  00000	8b 44 24 04	 mov	 eax, DWORD PTR __Pnode$[esp-4]

; 112  : 		}

  00004	c3		 ret	 0
?_Nextnode@?$list@U?$pair@$$CBVCGUID@@PAVCBaseObject@@@std@@V?$allocator@U?$pair@$$CBVCGUID@@PAVCBaseObject@@@std@@@2@@std@@KAAAPAU_Node@?$_List_nod@U?$pair@$$CBVCGUID@@PAVCBaseObject@@@std@@V?$allocator@U?$pair@$$CBVCGUID@@PAVCBaseObject@@@std@@@2@@2@PAU342@@Z ENDP ; std::list<std::pair<CGUID const ,CBaseObject *>,std::allocator<std::pair<CGUID const ,CBaseObject *> > >::_Nextnode
_TEXT	ENDS
PUBLIC	?_Prevnode@?$list@U?$pair@$$CBVCGUID@@PAVCBaseObject@@@std@@V?$allocator@U?$pair@$$CBVCGUID@@PAVCBaseObject@@@std@@@2@@std@@KAAAPAU_Node@?$_List_nod@U?$pair@$$CBVCGUID@@PAVCBaseObject@@@std@@V?$allocator@U?$pair@$$CBVCGUID@@PAVCBaseObject@@@std@@@2@@2@PAU342@@Z ; std::list<std::pair<CGUID const ,CBaseObject *>,std::allocator<std::pair<CGUID const ,CBaseObject *> > >::_Prevnode
; Function compile flags: /Ogtpy
;	COMDAT ?_Prevnode@?$list@U?$pair@$$CBVCGUID@@PAVCBaseObject@@@std@@V?$allocator@U?$pair@$$CBVCGUID@@PAVCBaseObject@@@std@@@2@@std@@KAAAPAU_Node@?$_List_nod@U?$pair@$$CBVCGUID@@PAVCBaseObject@@@std@@V?$allocator@U?$pair@$$CBVCGUID@@PAVCBaseObject@@@std@@@2@@2@PAU342@@Z
_TEXT	SEGMENT
__Pnode$ = 8						; size = 4
?_Prevnode@?$list@U?$pair@$$CBVCGUID@@PAVCBaseObject@@@std@@V?$allocator@U?$pair@$$CBVCGUID@@PAVCBaseObject@@@std@@@2@@std@@KAAAPAU_Node@?$_List_nod@U?$pair@$$CBVCGUID@@PAVCBaseObject@@@std@@V?$allocator@U?$pair@$$CBVCGUID@@PAVCBaseObject@@@std@@@2@@2@PAU342@@Z PROC ; std::list<std::pair<CGUID const ,CBaseObject *>,std::allocator<std::pair<CGUID const ,CBaseObject *> > >::_Prevnode, COMDAT

; 116  : 		return ((_Nodepref)(*_Pnode)._Prev);

  00000	8b 44 24 04	 mov	 eax, DWORD PTR __Pnode$[esp-4]
  00004	83 c0 04	 add	 eax, 4

; 117  : 		}

  00007	c3		 ret	 0
?_Prevnode@?$list@U?$pair@$$CBVCGUID@@PAVCBaseObject@@@std@@V?$allocator@U?$pair@$$CBVCGUID@@PAVCBaseObject@@@std@@@2@@std@@KAAAPAU_Node@?$_List_nod@U?$pair@$$CBVCGUID@@PAVCBaseObject@@@std@@V?$allocator@U?$pair@$$CBVCGUID@@PAVCBaseObject@@@std@@@2@@2@PAU342@@Z ENDP ; std::list<std::pair<CGUID const ,CBaseObject *>,std::allocator<std::pair<CGUID const ,CBaseObject *> > >::_Prevnode
_TEXT	ENDS
PUBLIC	?_Myval@?$list@U?$pair@$$CBVCGUID@@PAVCBaseObject@@@std@@V?$allocator@U?$pair@$$CBVCGUID@@PAVCBaseObject@@@std@@@2@@std@@KAAAU?$pair@$$CBVCGUID@@PAVCBaseObject@@@2@PAU_Node@?$_List_nod@U?$pair@$$CBVCGUID@@PAVCBaseObject@@@std@@V?$allocator@U?$pair@$$CBVCGUID@@PAVCBaseObject@@@std@@@2@@2@@Z ; std::list<std::pair<CGUID const ,CBaseObject *>,std::allocator<std::pair<CGUID const ,CBaseObject *> > >::_Myval
; Function compile flags: /Ogtpy
;	COMDAT ?_Myval@?$list@U?$pair@$$CBVCGUID@@PAVCBaseObject@@@std@@V?$allocator@U?$pair@$$CBVCGUID@@PAVCBaseObject@@@std@@@2@@std@@KAAAU?$pair@$$CBVCGUID@@PAVCBaseObject@@@2@PAU_Node@?$_List_nod@U?$pair@$$CBVCGUID@@PAVCBaseObject@@@std@@V?$allocator@U?$pair@$$CBVCGUID@@PAVCBaseObject@@@std@@@2@@2@@Z
_TEXT	SEGMENT
__Pnode$ = 8						; size = 4
?_Myval@?$list@U?$pair@$$CBVCGUID@@PAVCBaseObject@@@std@@V?$allocator@U?$pair@$$CBVCGUID@@PAVCBaseObject@@@std@@@2@@std@@KAAAU?$pair@$$CBVCGUID@@PAVCBaseObject@@@2@PAU_Node@?$_List_nod@U?$pair@$$CBVCGUID@@PAVCBaseObject@@@std@@V?$allocator@U?$pair@$$CBVCGUID@@PAVCBaseObject@@@std@@@2@@2@@Z PROC ; std::list<std::pair<CGUID const ,CBaseObject *>,std::allocator<std::pair<CGUID const ,CBaseObject *> > >::_Myval, COMDAT

; 121  : 		return ((_Vref)(*_Pnode)._Myval);

  00000	8b 44 24 04	 mov	 eax, DWORD PTR __Pnode$[esp-4]
  00004	83 c0 08	 add	 eax, 8

; 122  : 		}

  00007	c3		 ret	 0
?_Myval@?$list@U?$pair@$$CBVCGUID@@PAVCBaseObject@@@std@@V?$allocator@U?$pair@$$CBVCGUID@@PAVCBaseObject@@@std@@@2@@std@@KAAAU?$pair@$$CBVCGUID@@PAVCBaseObject@@@2@PAU_Node@?$_List_nod@U?$pair@$$CBVCGUID@@PAVCBaseObject@@@std@@V?$allocator@U?$pair@$$CBVCGUID@@PAVCBaseObject@@@std@@@2@@2@@Z ENDP ; std::list<std::pair<CGUID const ,CBaseObject *>,std::allocator<std::pair<CGUID const ,CBaseObject *> > >::_Myval
_TEXT	ENDS
PUBLIC	?size@?$list@U?$pair@$$CBVCGUID@@PAVCBaseObject@@@std@@V?$allocator@U?$pair@$$CBVCGUID@@PAVCBaseObject@@@std@@@2@@std@@QBEIXZ ; std::list<std::pair<CGUID const ,CBaseObject *>,std::allocator<std::pair<CGUID const ,CBaseObject *> > >::size
; Function compile flags: /Ogtpy
;	COMDAT ?size@?$list@U?$pair@$$CBVCGUID@@PAVCBaseObject@@@std@@V?$allocator@U?$pair@$$CBVCGUID@@PAVCBaseObject@@@std@@@2@@std@@QBEIXZ
_TEXT	SEGMENT
?size@?$list@U?$pair@$$CBVCGUID@@PAVCBaseObject@@@std@@V?$allocator@U?$pair@$$CBVCGUID@@PAVCBaseObject@@@std@@@2@@std@@QBEIXZ PROC ; std::list<std::pair<CGUID const ,CBaseObject *>,std::allocator<std::pair<CGUID const ,CBaseObject *> > >::size, COMDAT
; _this$ = ecx

; 604  : 		return (_Mysize);

  00000	8b 41 08	 mov	 eax, DWORD PTR [ecx+8]

; 605  : 		}

  00003	c3		 ret	 0
?size@?$list@U?$pair@$$CBVCGUID@@PAVCBaseObject@@@std@@V?$allocator@U?$pair@$$CBVCGUID@@PAVCBaseObject@@@std@@@2@@std@@QBEIXZ ENDP ; std::list<std::pair<CGUID const ,CBaseObject *>,std::allocator<std::pair<CGUID const ,CBaseObject *> > >::size
_TEXT	ENDS
PUBLIC	??E?$_Const_iterator@$00@?$list@U?$pair@$$CBVCGUID@@PAVCBaseObject@@@std@@V?$allocator@U?$pair@$$CBVCGUID@@PAVCBaseObject@@@std@@@2@@std@@QAEAAV012@XZ ; std::list<std::pair<CGUID const ,CBaseObject *>,std::allocator<std::pair<CGUID const ,CBaseObject *> > >::_Const_iterator<1>::operator++
; Function compile flags: /Ogtpy
;	COMDAT ??E?$_Const_iterator@$00@?$list@U?$pair@$$CBVCGUID@@PAVCBaseObject@@@std@@V?$allocator@U?$pair@$$CBVCGUID@@PAVCBaseObject@@@std@@@2@@std@@QAEAAV012@XZ
_TEXT	SEGMENT
??E?$_Const_iterator@$00@?$list@U?$pair@$$CBVCGUID@@PAVCBaseObject@@@std@@V?$allocator@U?$pair@$$CBVCGUID@@PAVCBaseObject@@@std@@@2@@std@@QAEAAV012@XZ PROC ; std::list<std::pair<CGUID const ,CBaseObject *>,std::allocator<std::pair<CGUID const ,CBaseObject *> > >::_Const_iterator<1>::operator++, COMDAT
; _this$ = ecx

; 230  : 			{	// preincrement

  00000	56		 push	 esi
  00001	8b f1		 mov	 esi, ecx

; 231  : 
; 232  :  #if _HAS_ITERATOR_DEBUGGING
; 233  : 			if (this->_Mycont == 0
; 234  : 				|| _Ptr == ((_Myt *)this->_Mycont)->_Myhead)
; 235  : 				{
; 236  : 				_DEBUG_ERROR("list iterator not incrementable");
; 237  : 				_SCL_SECURE_TRAITS_OUT_OF_RANGE;
; 238  : 				}
; 239  :  #else
; 240  : 			_SCL_SECURE_TRAITS_VALIDATE(this->_Mycont != NULL);

  00003	83 3e 00	 cmp	 DWORD PTR [esi], 0
  00006	75 05		 jne	 SHORT $LN3@operator@8
  00008	e8 00 00 00 00	 call	 __invalid_parameter_noinfo
$LN3@operator@8:

; 241  : 			_SCL_SECURE_TRAITS_VALIDATE_RANGE(_Ptr != ((_Myt *)(this->_Mycont))->_Myhead);

  0000d	8b 06		 mov	 eax, DWORD PTR [esi]
  0000f	8b 4e 04	 mov	 ecx, DWORD PTR [esi+4]
  00012	3b 48 04	 cmp	 ecx, DWORD PTR [eax+4]
  00015	75 05		 jne	 SHORT $LN1@operator@8
  00017	e8 00 00 00 00	 call	 __invalid_parameter_noinfo
$LN1@operator@8:

; 242  :  #endif /* _HAS_ITERATOR_DEBUGGING */
; 243  : 
; 244  : 			_Ptr = _Nextnode(_Ptr);

  0001c	8b 56 04	 mov	 edx, DWORD PTR [esi+4]
  0001f	8b 02		 mov	 eax, DWORD PTR [edx]
  00021	89 46 04	 mov	 DWORD PTR [esi+4], eax

; 245  : 			return (*this);

  00024	8b c6		 mov	 eax, esi
  00026	5e		 pop	 esi

; 246  : 			}

  00027	c3		 ret	 0
??E?$_Const_iterator@$00@?$list@U?$pair@$$CBVCGUID@@PAVCBaseObject@@@std@@V?$allocator@U?$pair@$$CBVCGUID@@PAVCBaseObject@@@std@@@2@@std@@QAEAAV012@XZ ENDP ; std::list<std::pair<CGUID const ,CBaseObject *>,std::allocator<std::pair<CGUID const ,CBaseObject *> > >::_Const_iterator<1>::operator++
_TEXT	ENDS
PUBLIC	??F?$_Const_iterator@$00@?$list@U?$pair@$$CBVCGUID@@PAVCBaseObject@@@std@@V?$allocator@U?$pair@$$CBVCGUID@@PAVCBaseObject@@@std@@@2@@std@@QAEAAV012@XZ ; std::list<std::pair<CGUID const ,CBaseObject *>,std::allocator<std::pair<CGUID const ,CBaseObject *> > >::_Const_iterator<1>::operator--
; Function compile flags: /Ogtpy
;	COMDAT ??F?$_Const_iterator@$00@?$list@U?$pair@$$CBVCGUID@@PAVCBaseObject@@@std@@V?$allocator@U?$pair@$$CBVCGUID@@PAVCBaseObject@@@std@@@2@@std@@QAEAAV012@XZ
_TEXT	SEGMENT
??F?$_Const_iterator@$00@?$list@U?$pair@$$CBVCGUID@@PAVCBaseObject@@@std@@V?$allocator@U?$pair@$$CBVCGUID@@PAVCBaseObject@@@std@@@2@@std@@QAEAAV012@XZ PROC ; std::list<std::pair<CGUID const ,CBaseObject *>,std::allocator<std::pair<CGUID const ,CBaseObject *> > >::_Const_iterator<1>::operator--, COMDAT
; _this$ = ecx

; 256  : 			{	// predecrement

  00000	56		 push	 esi
  00001	8b f1		 mov	 esi, ecx

; 257  : 
; 258  :  #if _HAS_ITERATOR_DEBUGGING
; 259  : 			if (this->_Mycont == 0 || (_Ptr = _Prevnode(_Ptr))
; 260  : 				== ((_Myt *)this->_Mycont)->_Myhead)
; 261  : 				{
; 262  : 				_DEBUG_ERROR("list iterator not decrementable");
; 263  : 				_SCL_SECURE_TRAITS_OUT_OF_RANGE;
; 264  : 				}
; 265  :  #else /* _HAS_ITERATOR_DEBUGGING */
; 266  : 			_SCL_SECURE_TRAITS_VALIDATE(this->_Mycont != NULL);

  00003	83 3e 00	 cmp	 DWORD PTR [esi], 0
  00006	75 05		 jne	 SHORT $LN3@operator@9
  00008	e8 00 00 00 00	 call	 __invalid_parameter_noinfo
$LN3@operator@9:

; 267  : 			_Ptr = _Prevnode(_Ptr);

  0000d	8b 46 04	 mov	 eax, DWORD PTR [esi+4]
  00010	8b 40 04	 mov	 eax, DWORD PTR [eax+4]

; 268  : 			_SCL_SECURE_TRAITS_VALIDATE_RANGE(_Ptr != ((_Myt *)(this->_Mycont))->_Myhead);

  00013	8b 0e		 mov	 ecx, DWORD PTR [esi]
  00015	89 46 04	 mov	 DWORD PTR [esi+4], eax
  00018	3b 41 04	 cmp	 eax, DWORD PTR [ecx+4]
  0001b	75 05		 jne	 SHORT $LN9@operator@9
  0001d	e8 00 00 00 00	 call	 __invalid_parameter_noinfo
$LN9@operator@9:

; 269  :  #endif /* _HAS_ITERATOR_DEBUGGING */
; 270  : 
; 271  : 			return (*this);

  00022	8b c6		 mov	 eax, esi
  00024	5e		 pop	 esi

; 272  : 			}

  00025	c3		 ret	 0
??F?$_Const_iterator@$00@?$list@U?$pair@$$CBVCGUID@@PAVCBaseObject@@@std@@V?$allocator@U?$pair@$$CBVCGUID@@PAVCBaseObject@@@std@@@2@@std@@QAEAAV012@XZ ENDP ; std::list<std::pair<CGUID const ,CBaseObject *>,std::allocator<std::pair<CGUID const ,CBaseObject *> > >::_Const_iterator<1>::operator--
_TEXT	ENDS
PUBLIC	?_Mynode@?$_Const_iterator@$00@?$list@U?$pair@$$CBVCGUID@@PAVCBaseObject@@@std@@V?$allocator@U?$pair@$$CBVCGUID@@PAVCBaseObject@@@std@@@2@@std@@QBEPAU_Node@?$_List_nod@U?$pair@$$CBVCGUID@@PAVCBaseObject@@@std@@V?$allocator@U?$pair@$$CBVCGUID@@PAVCBaseObject@@@std@@@2@@3@XZ ; std::list<std::pair<CGUID const ,CBaseObject *>,std::allocator<std::pair<CGUID const ,CBaseObject *> > >::_Const_iterator<1>::_Mynode
; Function compile flags: /Ogtpy
;	COMDAT ?_Mynode@?$_Const_iterator@$00@?$list@U?$pair@$$CBVCGUID@@PAVCBaseObject@@@std@@V?$allocator@U?$pair@$$CBVCGUID@@PAVCBaseObject@@@std@@@2@@std@@QBEPAU_Node@?$_List_nod@U?$pair@$$CBVCGUID@@PAVCBaseObject@@@std@@V?$allocator@U?$pair@$$CBVCGUID@@PAVCBaseObject@@@std@@@2@@3@XZ
_TEXT	SEGMENT
?_Mynode@?$_Const_iterator@$00@?$list@U?$pair@$$CBVCGUID@@PAVCBaseObject@@@std@@V?$allocator@U?$pair@$$CBVCGUID@@PAVCBaseObject@@@std@@@2@@std@@QBEPAU_Node@?$_List_nod@U?$pair@$$CBVCGUID@@PAVCBaseObject@@@std@@V?$allocator@U?$pair@$$CBVCGUID@@PAVCBaseObject@@@std@@@2@@3@XZ PROC ; std::list<std::pair<CGUID const ,CBaseObject *>,std::allocator<std::pair<CGUID const ,CBaseObject *> > >::_Const_iterator<1>::_Mynode, COMDAT
; _this$ = ecx

; 300  : 			return (_Ptr);

  00000	8b 41 04	 mov	 eax, DWORD PTR [ecx+4]

; 301  : 			}

  00003	c3		 ret	 0
?_Mynode@?$_Const_iterator@$00@?$list@U?$pair@$$CBVCGUID@@PAVCBaseObject@@@std@@V?$allocator@U?$pair@$$CBVCGUID@@PAVCBaseObject@@@std@@@2@@std@@QBEPAU_Node@?$_List_nod@U?$pair@$$CBVCGUID@@PAVCBaseObject@@@std@@V?$allocator@U?$pair@$$CBVCGUID@@PAVCBaseObject@@@std@@@2@@3@XZ ENDP ; std::list<std::pair<CGUID const ,CBaseObject *>,std::allocator<std::pair<CGUID const ,CBaseObject *> > >::_Const_iterator<1>::_Mynode
_TEXT	ENDS
PUBLIC	?_Mynode@?$_Const_iterator@$0A@@?$list@U?$pair@$$CBVCGUID@@PAVCBaseObject@@@std@@V?$allocator@U?$pair@$$CBVCGUID@@PAVCBaseObject@@@std@@@2@@std@@QBEPAU_Node@?$_List_nod@U?$pair@$$CBVCGUID@@PAVCBaseObject@@@std@@V?$allocator@U?$pair@$$CBVCGUID@@PAVCBaseObject@@@std@@@2@@3@XZ ; std::list<std::pair<CGUID const ,CBaseObject *>,std::allocator<std::pair<CGUID const ,CBaseObject *> > >::_Const_iterator<0>::_Mynode
; Function compile flags: /Ogtpy
;	COMDAT ?_Mynode@?$_Const_iterator@$0A@@?$list@U?$pair@$$CBVCGUID@@PAVCBaseObject@@@std@@V?$allocator@U?$pair@$$CBVCGUID@@PAVCBaseObject@@@std@@@2@@std@@QBEPAU_Node@?$_List_nod@U?$pair@$$CBVCGUID@@PAVCBaseObject@@@std@@V?$allocator@U?$pair@$$CBVCGUID@@PAVCBaseObject@@@std@@@2@@3@XZ
_TEXT	SEGMENT
?_Mynode@?$_Const_iterator@$0A@@?$list@U?$pair@$$CBVCGUID@@PAVCBaseObject@@@std@@V?$allocator@U?$pair@$$CBVCGUID@@PAVCBaseObject@@@std@@@2@@std@@QBEPAU_Node@?$_List_nod@U?$pair@$$CBVCGUID@@PAVCBaseObject@@@std@@V?$allocator@U?$pair@$$CBVCGUID@@PAVCBaseObject@@@std@@@2@@3@XZ PROC ; std::list<std::pair<CGUID const ,CBaseObject *>,std::allocator<std::pair<CGUID const ,CBaseObject *> > >::_Const_iterator<0>::_Mynode, COMDAT
; _this$ = ecx

; 300  : 			return (_Ptr);

  00000	8b 41 04	 mov	 eax, DWORD PTR [ecx+4]

; 301  : 			}

  00003	c3		 ret	 0
?_Mynode@?$_Const_iterator@$0A@@?$list@U?$pair@$$CBVCGUID@@PAVCBaseObject@@@std@@V?$allocator@U?$pair@$$CBVCGUID@@PAVCBaseObject@@@std@@@2@@std@@QBEPAU_Node@?$_List_nod@U?$pair@$$CBVCGUID@@PAVCBaseObject@@@std@@V?$allocator@U?$pair@$$CBVCGUID@@PAVCBaseObject@@@std@@@2@@3@XZ ENDP ; std::list<std::pair<CGUID const ,CBaseObject *>,std::allocator<std::pair<CGUID const ,CBaseObject *> > >::_Const_iterator<0>::_Mynode
_TEXT	ENDS
PUBLIC	??0?$_Bidit@U?$pair@$$CBVCGUID@@PAVCBaseObject@@@std@@HPBU12@ABU12@@std@@QAE@XZ ; std::_Bidit<std::pair<CGUID const ,CBaseObject *>,int,std::pair<CGUID const ,CBaseObject *> const *,std::pair<CGUID const ,CBaseObject *> const &>::_Bidit<std::pair<CGUID const ,CBaseObject *>,int,std::pair<CGUID const ,CBaseObject *> const *,std::pair<CGUID const ,CBaseObject *> const &>
; Function compile flags: /Ogtpy
;	COMDAT ??0?$_Bidit@U?$pair@$$CBVCGUID@@PAVCBaseObject@@@std@@HPBU12@ABU12@@std@@QAE@XZ
_TEXT	SEGMENT
??0?$_Bidit@U?$pair@$$CBVCGUID@@PAVCBaseObject@@@std@@HPBU12@ABU12@@std@@QAE@XZ PROC ; std::_Bidit<std::pair<CGUID const ,CBaseObject *>,int,std::pair<CGUID const ,CBaseObject *> const *,std::pair<CGUID const ,CBaseObject *> const &>::_Bidit<std::pair<CGUID const ,CBaseObject *>,int,std::pair<CGUID const ,CBaseObject *> const *,std::pair<CGUID const ,CBaseObject *> const &>, COMDAT
; _this$ = ecx
  00000	8b c1		 mov	 eax, ecx
  00002	c7 00 00 00 00
	00		 mov	 DWORD PTR [eax], 0
  00008	c3		 ret	 0
??0?$_Bidit@U?$pair@$$CBVCGUID@@PAVCBaseObject@@@std@@HPBU12@ABU12@@std@@QAE@XZ ENDP ; std::_Bidit<std::pair<CGUID const ,CBaseObject *>,int,std::pair<CGUID const ,CBaseObject *> const *,std::pair<CGUID const ,CBaseObject *> const &>::_Bidit<std::pair<CGUID const ,CBaseObject *>,int,std::pair<CGUID const ,CBaseObject *> const *,std::pair<CGUID const ,CBaseObject *> const &>
_TEXT	ENDS
PUBLIC	?deallocate@?$allocator@U_Node@?$_List_nod@U?$pair@$$CBVCGUID@@PAVCBaseObject@@@std@@V?$allocator@U?$pair@$$CBVCGUID@@PAVCBaseObject@@@std@@@2@@std@@@std@@QAEXPAU_Node@?$_List_nod@U?$pair@$$CBVCGUID@@PAVCBaseObject@@@std@@V?$allocator@U?$pair@$$CBVCGUID@@PAVCBaseObject@@@std@@@2@@2@I@Z ; std::allocator<std::_List_nod<std::pair<CGUID const ,CBaseObject *>,std::allocator<std::pair<CGUID const ,CBaseObject *> > >::_Node>::deallocate
; Function compile flags: /Ogtpy
; File d:\program files\microsoft visual studio 8\vc\include\xmemory
;	COMDAT ?deallocate@?$allocator@U_Node@?$_List_nod@U?$pair@$$CBVCGUID@@PAVCBaseObject@@@std@@V?$allocator@U?$pair@$$CBVCGUID@@PAVCBaseObject@@@std@@@2@@std@@@std@@QAEXPAU_Node@?$_List_nod@U?$pair@$$CBVCGUID@@PAVCBaseObject@@@std@@V?$allocator@U?$pair@$$CBVCGUID@@PAVCBaseObject@@@std@@@2@@2@I@Z
_TEXT	SEGMENT
__Ptr$ = 8						; size = 4
___formal$ = 12						; size = 4
?deallocate@?$allocator@U_Node@?$_List_nod@U?$pair@$$CBVCGUID@@PAVCBaseObject@@@std@@V?$allocator@U?$pair@$$CBVCGUID@@PAVCBaseObject@@@std@@@2@@std@@@std@@QAEXPAU_Node@?$_List_nod@U?$pair@$$CBVCGUID@@PAVCBaseObject@@@std@@V?$allocator@U?$pair@$$CBVCGUID@@PAVCBaseObject@@@std@@@2@@2@I@Z PROC ; std::allocator<std::_List_nod<std::pair<CGUID const ,CBaseObject *>,std::allocator<std::pair<CGUID const ,CBaseObject *> > >::_Node>::deallocate, COMDAT
; _this$ = ecx

; 141  : 		::operator delete(_Ptr);

  00000	8b 44 24 04	 mov	 eax, DWORD PTR __Ptr$[esp-4]
  00004	50		 push	 eax
  00005	e8 00 00 00 00	 call	 ??3@YAXPAX@Z		; operator delete
  0000a	59		 pop	 ecx

; 142  : 		}

  0000b	c2 08 00	 ret	 8
?deallocate@?$allocator@U_Node@?$_List_nod@U?$pair@$$CBVCGUID@@PAVCBaseObject@@@std@@V?$allocator@U?$pair@$$CBVCGUID@@PAVCBaseObject@@@std@@@2@@std@@@std@@QAEXPAU_Node@?$_List_nod@U?$pair@$$CBVCGUID@@PAVCBaseObject@@@std@@V?$allocator@U?$pair@$$CBVCGUID@@PAVCBaseObject@@@std@@@2@@2@I@Z ENDP ; std::allocator<std::_List_nod<std::pair<CGUID const ,CBaseObject *>,std::allocator<std::pair<CGUID const ,CBaseObject *> > >::_Node>::deallocate
_TEXT	ENDS
PUBLIC	?capacity@?$vector@U_List_position@?$_Hash@V?$_Hmap_traits@VCGUID@@PAVCBaseObject@@Vhash_guid_compare@@V?$allocator@U?$pair@$$CBVCGUID@@PAVCBaseObject@@@std@@@std@@$0A@@stdext@@@stdext@@V?$allocator@U_List_position@?$_Hash@V?$_Hmap_traits@VCGUID@@PAVCBaseObject@@Vhash_guid_compare@@V?$allocator@U?$pair@$$CBVCGUID@@PAVCBaseObject@@@std@@@std@@$0A@@stdext@@@stdext@@@std@@@std@@QBEIXZ ; std::vector<stdext::_Hash<stdext::_Hmap_traits<CGUID,CBaseObject *,hash_guid_compare,std::allocator<std::pair<CGUID const ,CBaseObject *> >,0> >::_List_position,std::allocator<stdext::_Hash<stdext::_Hmap_traits<CGUID,CBaseObject *,hash_guid_compare,std::allocator<std::pair<CGUID const ,CBaseObject *> >,0> >::_List_position> >::capacity
; Function compile flags: /Ogtpy
; File d:\program files\microsoft visual studio 8\vc\include\vector
;	COMDAT ?capacity@?$vector@U_List_position@?$_Hash@V?$_Hmap_traits@VCGUID@@PAVCBaseObject@@Vhash_guid_compare@@V?$allocator@U?$pair@$$CBVCGUID@@PAVCBaseObject@@@std@@@std@@$0A@@stdext@@@stdext@@V?$allocator@U_List_position@?$_Hash@V?$_Hmap_traits@VCGUID@@PAVCBaseObject@@Vhash_guid_compare@@V?$allocator@U?$pair@$$CBVCGUID@@PAVCBaseObject@@@std@@@std@@$0A@@stdext@@@stdext@@@std@@@std@@QBEIXZ
_TEXT	SEGMENT
?capacity@?$vector@U_List_position@?$_Hash@V?$_Hmap_traits@VCGUID@@PAVCBaseObject@@Vhash_guid_compare@@V?$allocator@U?$pair@$$CBVCGUID@@PAVCBaseObject@@@std@@@std@@$0A@@stdext@@@stdext@@V?$allocator@U_List_position@?$_Hash@V?$_Hmap_traits@VCGUID@@PAVCBaseObject@@Vhash_guid_compare@@V?$allocator@U?$pair@$$CBVCGUID@@PAVCBaseObject@@@std@@@std@@$0A@@stdext@@@stdext@@@std@@@std@@QBEIXZ PROC ; std::vector<stdext::_Hash<stdext::_Hmap_traits<CGUID,CBaseObject *,hash_guid_compare,std::allocator<std::pair<CGUID const ,CBaseObject *> >,0> >::_List_position,std::allocator<stdext::_Hash<stdext::_Hmap_traits<CGUID,CBaseObject *,hash_guid_compare,std::allocator<std::pair<CGUID const ,CBaseObject *> >,0> >::_List_position> >::capacity, COMDAT
; _this$ = ecx

; 622  : 		return (_Myfirst == 0 ? 0 : _Myend - _Myfirst);

  00000	8b 51 04	 mov	 edx, DWORD PTR [ecx+4]
  00003	85 d2		 test	 edx, edx
  00005	75 03		 jne	 SHORT $LN3@capacity
  00007	33 c0		 xor	 eax, eax

; 623  : 		}

  00009	c3		 ret	 0
$LN3@capacity:

; 622  : 		return (_Myfirst == 0 ? 0 : _Myend - _Myfirst);

  0000a	8b 41 0c	 mov	 eax, DWORD PTR [ecx+12]
  0000d	2b c2		 sub	 eax, edx
  0000f	c1 f8 03	 sar	 eax, 3

; 623  : 		}

  00012	c3		 ret	 0
?capacity@?$vector@U_List_position@?$_Hash@V?$_Hmap_traits@VCGUID@@PAVCBaseObject@@Vhash_guid_compare@@V?$allocator@U?$pair@$$CBVCGUID@@PAVCBaseObject@@@std@@@std@@$0A@@stdext@@@stdext@@V?$allocator@U_List_position@?$_Hash@V?$_Hmap_traits@VCGUID@@PAVCBaseObject@@Vhash_guid_compare@@V?$allocator@U?$pair@$$CBVCGUID@@PAVCBaseObject@@@std@@@std@@$0A@@stdext@@@stdext@@@std@@@std@@QBEIXZ ENDP ; std::vector<stdext::_Hash<stdext::_Hmap_traits<CGUID,CBaseObject *,hash_guid_compare,std::allocator<std::pair<CGUID const ,CBaseObject *> >,0> >::_List_position,std::allocator<stdext::_Hash<stdext::_Hmap_traits<CGUID,CBaseObject *,hash_guid_compare,std::allocator<std::pair<CGUID const ,CBaseObject *> >,0> >::_List_position> >::capacity
_TEXT	ENDS
PUBLIC	?deallocate@?$allocator@U_List_position@?$_Hash@V?$_Hmap_traits@VCGUID@@PAVCBaseObject@@Vhash_guid_compare@@V?$allocator@U?$pair@$$CBVCGUID@@PAVCBaseObject@@@std@@@std@@$0A@@stdext@@@stdext@@@std@@QAEXPAU_List_position@?$_Hash@V?$_Hmap_traits@VCGUID@@PAVCBaseObject@@Vhash_guid_compare@@V?$allocator@U?$pair@$$CBVCGUID@@PAVCBaseObject@@@std@@@std@@$0A@@stdext@@@stdext@@I@Z ; std::allocator<stdext::_Hash<stdext::_Hmap_traits<CGUID,CBaseObject *,hash_guid_compare,std::allocator<std::pair<CGUID const ,CBaseObject *> >,0> >::_List_position>::deallocate
; Function compile flags: /Ogtpy
; File d:\program files\microsoft visual studio 8\vc\include\xmemory
;	COMDAT ?deallocate@?$allocator@U_List_position@?$_Hash@V?$_Hmap_traits@VCGUID@@PAVCBaseObject@@Vhash_guid_compare@@V?$allocator@U?$pair@$$CBVCGUID@@PAVCBaseObject@@@std@@@std@@$0A@@stdext@@@stdext@@@std@@QAEXPAU_List_position@?$_Hash@V?$_Hmap_traits@VCGUID@@PAVCBaseObject@@Vhash_guid_compare@@V?$allocator@U?$pair@$$CBVCGUID@@PAVCBaseObject@@@std@@@std@@$0A@@stdext@@@stdext@@I@Z
_TEXT	SEGMENT
__Ptr$ = 8						; size = 4
___formal$ = 12						; size = 4
?deallocate@?$allocator@U_List_position@?$_Hash@V?$_Hmap_traits@VCGUID@@PAVCBaseObject@@Vhash_guid_compare@@V?$allocator@U?$pair@$$CBVCGUID@@PAVCBaseObject@@@std@@@std@@$0A@@stdext@@@stdext@@@std@@QAEXPAU_List_position@?$_Hash@V?$_Hmap_traits@VCGUID@@PAVCBaseObject@@Vhash_guid_compare@@V?$allocator@U?$pair@$$CBVCGUID@@PAVCBaseObject@@@std@@@std@@$0A@@stdext@@@stdext@@I@Z PROC ; std::allocator<stdext::_Hash<stdext::_Hmap_traits<CGUID,CBaseObject *,hash_guid_compare,std::allocator<std::pair<CGUID const ,CBaseObject *> >,0> >::_List_position>::deallocate, COMDAT
; _this$ = ecx

; 141  : 		::operator delete(_Ptr);

  00000	8b 44 24 04	 mov	 eax, DWORD PTR __Ptr$[esp-4]
  00004	50		 push	 eax
  00005	e8 00 00 00 00	 call	 ??3@YAXPAX@Z		; operator delete
  0000a	59		 pop	 ecx

; 142  : 		}

  0000b	c2 08 00	 ret	 8
?deallocate@?$allocator@U_List_position@?$_Hash@V?$_Hmap_traits@VCGUID@@PAVCBaseObject@@Vhash_guid_compare@@V?$allocator@U?$pair@$$CBVCGUID@@PAVCBaseObject@@@std@@@std@@$0A@@stdext@@@stdext@@@std@@QAEXPAU_List_position@?$_Hash@V?$_Hmap_traits@VCGUID@@PAVCBaseObject@@Vhash_guid_compare@@V?$allocator@U?$pair@$$CBVCGUID@@PAVCBaseObject@@@std@@@std@@$0A@@stdext@@@stdext@@I@Z ENDP ; std::allocator<stdext::_Hash<stdext::_Hmap_traits<CGUID,CBaseObject *,hash_guid_compare,std::allocator<std::pair<CGUID const ,CBaseObject *> >,0> >::_List_position>::deallocate
_TEXT	ENDS
PUBLIC	??0?$_Const_iterator@$00@?$list@U?$pair@$$CBVCGUID@@PAVCBaseObject@@@std@@V?$allocator@U?$pair@$$CBVCGUID@@PAVCBaseObject@@@std@@@2@@std@@QAE@PAU_Node@?$_List_nod@U?$pair@$$CBVCGUID@@PAVCBaseObject@@@std@@V?$allocator@U?$pair@$$CBVCGUID@@PAVCBaseObject@@@std@@@2@@2@PBV12@@Z ; std::list<std::pair<CGUID const ,CBaseObject *>,std::allocator<std::pair<CGUID const ,CBaseObject *> > >::_Const_iterator<1>::_Const_iterator<1>
; Function compile flags: /Ogtpy
; File d:\program files\microsoft visual studio 8\vc\include\list
;	COMDAT ??0?$_Const_iterator@$00@?$list@U?$pair@$$CBVCGUID@@PAVCBaseObject@@@std@@V?$allocator@U?$pair@$$CBVCGUID@@PAVCBaseObject@@@std@@@2@@std@@QAE@PAU_Node@?$_List_nod@U?$pair@$$CBVCGUID@@PAVCBaseObject@@@std@@V?$allocator@U?$pair@$$CBVCGUID@@PAVCBaseObject@@@std@@@2@@2@PBV12@@Z
_TEXT	SEGMENT
__Pnode$ = 8						; size = 4
__Plist$ = 12						; size = 4
??0?$_Const_iterator@$00@?$list@U?$pair@$$CBVCGUID@@PAVCBaseObject@@@std@@V?$allocator@U?$pair@$$CBVCGUID@@PAVCBaseObject@@@std@@@2@@std@@QAE@PAU_Node@?$_List_nod@U?$pair@$$CBVCGUID@@PAVCBaseObject@@@std@@V?$allocator@U?$pair@$$CBVCGUID@@PAVCBaseObject@@@std@@@2@@2@PBV12@@Z PROC ; std::list<std::pair<CGUID const ,CBaseObject *>,std::allocator<std::pair<CGUID const ,CBaseObject *> > >::_Const_iterator<1>::_Const_iterator<1>, COMDAT
; _this$ = ecx

; 172  : 			{	// construct with node pointer _Pnode

  00000	8b 44 24 04	 mov	 eax, DWORD PTR __Pnode$[esp-4]
  00004	56		 push	 esi
  00005	57		 push	 edi

; 173  : 			_SCL_SECURE_TRAITS_VALIDATE(_Plist != NULL);

  00006	8b 7c 24 10	 mov	 edi, DWORD PTR __Plist$[esp+4]
  0000a	85 ff		 test	 edi, edi
  0000c	8b f1		 mov	 esi, ecx
  0000e	c7 06 00 00 00
	00		 mov	 DWORD PTR [esi], 0
  00014	89 46 04	 mov	 DWORD PTR [esi+4], eax
  00017	75 05		 jne	 SHORT $LN9@Const_iter
  00019	e8 00 00 00 00	 call	 __invalid_parameter_noinfo
$LN9@Const_iter:

; 174  : 			this->_Mycont = _Plist;

  0001e	89 3e		 mov	 DWORD PTR [esi], edi
  00020	5f		 pop	 edi

; 175  : 			}

  00021	8b c6		 mov	 eax, esi
  00023	5e		 pop	 esi
  00024	c2 08 00	 ret	 8
??0?$_Const_iterator@$00@?$list@U?$pair@$$CBVCGUID@@PAVCBaseObject@@@std@@V?$allocator@U?$pair@$$CBVCGUID@@PAVCBaseObject@@@std@@@2@@std@@QAE@PAU_Node@?$_List_nod@U?$pair@$$CBVCGUID@@PAVCBaseObject@@@std@@V?$allocator@U?$pair@$$CBVCGUID@@PAVCBaseObject@@@std@@@2@@2@PBV12@@Z ENDP ; std::list<std::pair<CGUID const ,CBaseObject *>,std::allocator<std::pair<CGUID const ,CBaseObject *> > >::_Const_iterator<1>::_Const_iterator<1>
_TEXT	ENDS
PUBLIC	??0?$_Const_iterator@$0A@@?$list@U?$pair@$$CBVCGUID@@PAVCBaseObject@@@std@@V?$allocator@U?$pair@$$CBVCGUID@@PAVCBaseObject@@@std@@@2@@std@@QAE@PAU_Node@?$_List_nod@U?$pair@$$CBVCGUID@@PAVCBaseObject@@@std@@V?$allocator@U?$pair@$$CBVCGUID@@PAVCBaseObject@@@std@@@2@@2@PBV12@@Z ; std::list<std::pair<CGUID const ,CBaseObject *>,std::allocator<std::pair<CGUID const ,CBaseObject *> > >::_Const_iterator<0>::_Const_iterator<0>
; Function compile flags: /Ogtpy
;	COMDAT ??0?$_Const_iterator@$0A@@?$list@U?$pair@$$CBVCGUID@@PAVCBaseObject@@@std@@V?$allocator@U?$pair@$$CBVCGUID@@PAVCBaseObject@@@std@@@2@@std@@QAE@PAU_Node@?$_List_nod@U?$pair@$$CBVCGUID@@PAVCBaseObject@@@std@@V?$allocator@U?$pair@$$CBVCGUID@@PAVCBaseObject@@@std@@@2@@2@PBV12@@Z
_TEXT	SEGMENT
__Pnode$ = 8						; size = 4
__Plist$ = 12						; size = 4
??0?$_Const_iterator@$0A@@?$list@U?$pair@$$CBVCGUID@@PAVCBaseObject@@@std@@V?$allocator@U?$pair@$$CBVCGUID@@PAVCBaseObject@@@std@@@2@@std@@QAE@PAU_Node@?$_List_nod@U?$pair@$$CBVCGUID@@PAVCBaseObject@@@std@@V?$allocator@U?$pair@$$CBVCGUID@@PAVCBaseObject@@@std@@@2@@2@PBV12@@Z PROC ; std::list<std::pair<CGUID const ,CBaseObject *>,std::allocator<std::pair<CGUID const ,CBaseObject *> > >::_Const_iterator<0>::_Const_iterator<0>, COMDAT
; _this$ = ecx

; 173  : 			_SCL_SECURE_TRAITS_VALIDATE(_Plist != NULL);
; 174  : 			this->_Mycont = _Plist;

  00000	8b 54 24 08	 mov	 edx, DWORD PTR __Plist$[esp-4]
  00004	8b c1		 mov	 eax, ecx
  00006	8b 4c 24 04	 mov	 ecx, DWORD PTR __Pnode$[esp-4]
  0000a	89 48 04	 mov	 DWORD PTR [eax+4], ecx
  0000d	89 10		 mov	 DWORD PTR [eax], edx

; 175  : 			}

  0000f	c2 08 00	 ret	 8
??0?$_Const_iterator@$0A@@?$list@U?$pair@$$CBVCGUID@@PAVCBaseObject@@@std@@V?$allocator@U?$pair@$$CBVCGUID@@PAVCBaseObject@@@std@@@2@@std@@QAE@PAU_Node@?$_List_nod@U?$pair@$$CBVCGUID@@PAVCBaseObject@@@std@@V?$allocator@U?$pair@$$CBVCGUID@@PAVCBaseObject@@@std@@@2@@2@PBV12@@Z ENDP ; std::list<std::pair<CGUID const ,CBaseObject *>,std::allocator<std::pair<CGUID const ,CBaseObject *> > >::_Const_iterator<0>::_Const_iterator<0>
_TEXT	ENDS
PUBLIC	?max_size@?$allocator@U?$pair@$$CBVCGUID@@PAVCBaseObject@@@std@@@std@@QBEIXZ ; std::allocator<std::pair<CGUID const ,CBaseObject *> >::max_size
; Function compile flags: /Ogtpy
; File d:\program files\microsoft visual studio 8\vc\include\xmemory
;	COMDAT ?max_size@?$allocator@U?$pair@$$CBVCGUID@@PAVCBaseObject@@@std@@@std@@QBEIXZ
_TEXT	SEGMENT
?max_size@?$allocator@U?$pair@$$CBVCGUID@@PAVCBaseObject@@@std@@@std@@QBEIXZ PROC ; std::allocator<std::pair<CGUID const ,CBaseObject *> >::max_size, COMDAT
; _this$ = ecx

; 166  : 		_SIZT _Count = (_SIZT)(-1) / sizeof (_Ty);
; 167  : 		return (0 < _Count ? _Count : 1);

  00000	b8 cc cc cc 0c	 mov	 eax, 214748364		; 0cccccccH

; 168  : 		}

  00005	c3		 ret	 0
?max_size@?$allocator@U?$pair@$$CBVCGUID@@PAVCBaseObject@@@std@@@std@@QBEIXZ ENDP ; std::allocator<std::pair<CGUID const ,CBaseObject *> >::max_size
_TEXT	ENDS
PUBLIC	?max_size@?$allocator@U_List_position@?$_Hash@V?$_Hmap_traits@VCGUID@@PAVCBaseObject@@Vhash_guid_compare@@V?$allocator@U?$pair@$$CBVCGUID@@PAVCBaseObject@@@std@@@std@@$0A@@stdext@@@stdext@@@std@@QBEIXZ ; std::allocator<stdext::_Hash<stdext::_Hmap_traits<CGUID,CBaseObject *,hash_guid_compare,std::allocator<std::pair<CGUID const ,CBaseObject *> >,0> >::_List_position>::max_size
; Function compile flags: /Ogtpy
;	COMDAT ?max_size@?$allocator@U_List_position@?$_Hash@V?$_Hmap_traits@VCGUID@@PAVCBaseObject@@Vhash_guid_compare@@V?$allocator@U?$pair@$$CBVCGUID@@PAVCBaseObject@@@std@@@std@@$0A@@stdext@@@stdext@@@std@@QBEIXZ
_TEXT	SEGMENT
?max_size@?$allocator@U_List_position@?$_Hash@V?$_Hmap_traits@VCGUID@@PAVCBaseObject@@Vhash_guid_compare@@V?$allocator@U?$pair@$$CBVCGUID@@PAVCBaseObject@@@std@@@std@@$0A@@stdext@@@stdext@@@std@@QBEIXZ PROC ; std::allocator<stdext::_Hash<stdext::_Hmap_traits<CGUID,CBaseObject *,hash_guid_compare,std::allocator<std::pair<CGUID const ,CBaseObject *> >,0> >::_List_position>::max_size, COMDAT
; _this$ = ecx

; 166  : 		_SIZT _Count = (_SIZT)(-1) / sizeof (_Ty);
; 167  : 		return (0 < _Count ? _Count : 1);

  00000	b8 ff ff ff 1f	 mov	 eax, 536870911		; 1fffffffH

; 168  : 		}

  00005	c3		 ret	 0
?max_size@?$allocator@U_List_position@?$_Hash@V?$_Hmap_traits@VCGUID@@PAVCBaseObject@@Vhash_guid_compare@@V?$allocator@U?$pair@$$CBVCGUID@@PAVCBaseObject@@@std@@@std@@$0A@@stdext@@@stdext@@@std@@QBEIXZ ENDP ; std::allocator<stdext::_Hash<stdext::_Hmap_traits<CGUID,CBaseObject *,hash_guid_compare,std::allocator<std::pair<CGUID const ,CBaseObject *> >,0> >::_List_position>::max_size
_TEXT	ENDS
PUBLIC	??Y?$_Vector_const_iterator@U_List_position@?$_Hash@V?$_Hmap_traits@VCGUID@@PAVCBaseObject@@Vhash_guid_compare@@V?$allocator@U?$pair@$$CBVCGUID@@PAVCBaseObject@@@std@@@std@@$0A@@stdext@@@stdext@@V?$allocator@U_List_position@?$_Hash@V?$_Hmap_traits@VCGUID@@PAVCBaseObject@@Vhash_guid_compare@@V?$allocator@U?$pair@$$CBVCGUID@@PAVCBaseObject@@@std@@@std@@$0A@@stdext@@@stdext@@@std@@@std@@QAEAAV01@H@Z ; std::_Vector_const_iterator<stdext::_Hash<stdext::_Hmap_traits<CGUID,CBaseObject *,hash_guid_compare,std::allocator<std::pair<CGUID const ,CBaseObject *> >,0> >::_List_position,std::allocator<stdext::_Hash<stdext::_Hmap_traits<CGUID,CBaseObject *,hash_guid_compare,std::allocator<std::pair<CGUID const ,CBaseObject *> >,0> >::_List_position> >::operator+=
; Function compile flags: /Ogtpy
; File d:\program files\microsoft visual studio 8\vc\include\vector
;	COMDAT ??Y?$_Vector_const_iterator@U_List_position@?$_Hash@V?$_Hmap_traits@VCGUID@@PAVCBaseObject@@Vhash_guid_compare@@V?$allocator@U?$pair@$$CBVCGUID@@PAVCBaseObject@@@std@@@std@@$0A@@stdext@@@stdext@@V?$allocator@U_List_position@?$_Hash@V?$_Hmap_traits@VCGUID@@PAVCBaseObject@@Vhash_guid_compare@@V?$allocator@U?$pair@$$CBVCGUID@@PAVCBaseObject@@@std@@@std@@$0A@@stdext@@@stdext@@@std@@@std@@QAEAAV01@H@Z
_TEXT	SEGMENT
__Off$ = 8						; size = 4
??Y?$_Vector_const_iterator@U_List_position@?$_Hash@V?$_Hmap_traits@VCGUID@@PAVCBaseObject@@Vhash_guid_compare@@V?$allocator@U?$pair@$$CBVCGUID@@PAVCBaseObject@@@std@@@std@@$0A@@stdext@@@stdext@@V?$allocator@U_List_position@?$_Hash@V?$_Hmap_traits@VCGUID@@PAVCBaseObject@@Vhash_guid_compare@@V?$allocator@U?$pair@$$CBVCGUID@@PAVCBaseObject@@@std@@@std@@$0A@@stdext@@@stdext@@@std@@@std@@QAEAAV01@H@Z PROC ; std::_Vector_const_iterator<stdext::_Hash<stdext::_Hmap_traits<CGUID,CBaseObject *,hash_guid_compare,std::allocator<std::pair<CGUID const ,CBaseObject *> >,0> >::_List_position,std::allocator<stdext::_Hash<stdext::_Hmap_traits<CGUID,CBaseObject *,hash_guid_compare,std::allocator<std::pair<CGUID const ,CBaseObject *> >,0> >::_List_position> >::operator+=, COMDAT
; _this$ = ecx

; 146  : 		{	// increment by integer

  00000	56		 push	 esi
  00001	8b f1		 mov	 esi, ecx

; 147  : 		_SCL_SECURE_VALIDATE(this->_Mycont != NULL);

  00003	83 3e 00	 cmp	 DWORD PTR [esi], 0
  00006	57		 push	 edi
  00007	75 05		 jne	 SHORT $LN3@operator@10
  00009	e8 00 00 00 00	 call	 __invalid_parameter_noinfo
$LN3@operator@10:

; 148  : 		_SCL_SECURE_VALIDATE_RANGE(

  0000e	8b 7c 24 0c	 mov	 edi, DWORD PTR __Off$[esp+4]
  00012	8b 46 04	 mov	 eax, DWORD PTR [esi+4]
  00015	8b 0e		 mov	 ecx, DWORD PTR [esi]
  00017	03 ff		 add	 edi, edi
  00019	03 ff		 add	 edi, edi
  0001b	03 ff		 add	 edi, edi
  0001d	03 c7		 add	 eax, edi
  0001f	3b 41 08	 cmp	 eax, DWORD PTR [ecx+8]
  00022	77 05		 ja	 SHORT $LN1@operator@10
  00024	3b 41 04	 cmp	 eax, DWORD PTR [ecx+4]
  00027	73 05		 jae	 SHORT $LN6@operator@10
$LN1@operator@10:

; 149  : 			_Myptr + _Off <= ((_Myvec *)(this->_Mycont))->_Mylast &&
; 150  : 			_Myptr + _Off >= ((_Myvec *)(this->_Mycont))->_Myfirst);

  00029	e8 00 00 00 00	 call	 __invalid_parameter_noinfo
$LN6@operator@10:

; 151  : 		_Myptr += _Off;

  0002e	01 7e 04	 add	 DWORD PTR [esi+4], edi
  00031	5f		 pop	 edi

; 152  : 		return (*this);

  00032	8b c6		 mov	 eax, esi
  00034	5e		 pop	 esi

; 153  : 		}

  00035	c2 04 00	 ret	 4
??Y?$_Vector_const_iterator@U_List_position@?$_Hash@V?$_Hmap_traits@VCGUID@@PAVCBaseObject@@Vhash_guid_compare@@V?$allocator@U?$pair@$$CBVCGUID@@PAVCBaseObject@@@std@@@std@@$0A@@stdext@@@stdext@@V?$allocator@U_List_position@?$_Hash@V?$_Hmap_traits@VCGUID@@PAVCBaseObject@@Vhash_guid_compare@@V?$allocator@U?$pair@$$CBVCGUID@@PAVCBaseObject@@@std@@@std@@$0A@@stdext@@@stdext@@@std@@@std@@QAEAAV01@H@Z ENDP ; std::_Vector_const_iterator<stdext::_Hash<stdext::_Hmap_traits<CGUID,CBaseObject *,hash_guid_compare,std::allocator<std::pair<CGUID const ,CBaseObject *> >,0> >::_List_position,std::allocator<stdext::_Hash<stdext::_Hmap_traits<CGUID,CBaseObject *,hash_guid_compare,std::allocator<std::pair<CGUID const ,CBaseObject *> >,0> >::_List_position> >::operator+=
_TEXT	ENDS
PUBLIC	??8?$_Vector_const_iterator@U_List_position@?$_Hash@V?$_Hmap_traits@VCGUID@@PAVCBaseObject@@Vhash_guid_compare@@V?$allocator@U?$pair@$$CBVCGUID@@PAVCBaseObject@@@std@@@std@@$0A@@stdext@@@stdext@@V?$allocator@U_List_position@?$_Hash@V?$_Hmap_traits@VCGUID@@PAVCBaseObject@@Vhash_guid_compare@@V?$allocator@U?$pair@$$CBVCGUID@@PAVCBaseObject@@@std@@@std@@$0A@@stdext@@@stdext@@@std@@@std@@QBE_NABV01@@Z ; std::_Vector_const_iterator<stdext::_Hash<stdext::_Hmap_traits<CGUID,CBaseObject *,hash_guid_compare,std::allocator<std::pair<CGUID const ,CBaseObject *> >,0> >::_List_position,std::allocator<stdext::_Hash<stdext::_Hmap_traits<CGUID,CBaseObject *,hash_guid_compare,std::allocator<std::pair<CGUID const ,CBaseObject *> >,0> >::_List_position> >::operator==
; Function compile flags: /Ogtpy
;	COMDAT ??8?$_Vector_const_iterator@U_List_position@?$_Hash@V?$_Hmap_traits@VCGUID@@PAVCBaseObject@@Vhash_guid_compare@@V?$allocator@U?$pair@$$CBVCGUID@@PAVCBaseObject@@@std@@@std@@$0A@@stdext@@@stdext@@V?$allocator@U_List_position@?$_Hash@V?$_Hmap_traits@VCGUID@@PAVCBaseObject@@Vhash_guid_compare@@V?$allocator@U?$pair@$$CBVCGUID@@PAVCBaseObject@@@std@@@std@@$0A@@stdext@@@stdext@@@std@@@std@@QBE_NABV01@@Z
_TEXT	SEGMENT
__Right$ = 8						; size = 4
??8?$_Vector_const_iterator@U_List_position@?$_Hash@V?$_Hmap_traits@VCGUID@@PAVCBaseObject@@Vhash_guid_compare@@V?$allocator@U?$pair@$$CBVCGUID@@PAVCBaseObject@@@std@@@std@@$0A@@stdext@@@stdext@@V?$allocator@U_List_position@?$_Hash@V?$_Hmap_traits@VCGUID@@PAVCBaseObject@@Vhash_guid_compare@@V?$allocator@U?$pair@$$CBVCGUID@@PAVCBaseObject@@@std@@@std@@$0A@@stdext@@@stdext@@@std@@@std@@QBE_NABV01@@Z PROC ; std::_Vector_const_iterator<stdext::_Hash<stdext::_Hmap_traits<CGUID,CBaseObject *,hash_guid_compare,std::allocator<std::pair<CGUID const ,CBaseObject *> >,0> >::_List_position,std::allocator<stdext::_Hash<stdext::_Hmap_traits<CGUID,CBaseObject *,hash_guid_compare,std::allocator<std::pair<CGUID const ,CBaseObject *> >,0> >::_List_position> >::operator==, COMDAT
; _this$ = ecx

; 190  : 		{	// test for iterator equality

  00000	56		 push	 esi
  00001	8b f1		 mov	 esi, ecx

; 191  : 
; 192  :  #if _HAS_ITERATOR_DEBUGGING
; 193  : 		_Compat(_Right);
; 194  :  #else
; 195  : 		_SCL_SECURE_VALIDATE(this->_Mycont != NULL && this->_Mycont == _Right._Mycont);

  00003	8b 06		 mov	 eax, DWORD PTR [esi]
  00005	85 c0		 test	 eax, eax
  00007	57		 push	 edi
  00008	8b 7c 24 0c	 mov	 edi, DWORD PTR __Right$[esp+4]
  0000c	74 04		 je	 SHORT $LN1@operator@11
  0000e	3b 07		 cmp	 eax, DWORD PTR [edi]
  00010	74 05		 je	 SHORT $LN2@operator@11
$LN1@operator@11:
  00012	e8 00 00 00 00	 call	 __invalid_parameter_noinfo
$LN2@operator@11:

; 196  :  #endif /* _HAS_ITERATOR_DEBUGGING */
; 197  : 
; 198  : 		return (_Myptr == _Right._Myptr);

  00017	8b 46 04	 mov	 eax, DWORD PTR [esi+4]
  0001a	33 c9		 xor	 ecx, ecx
  0001c	3b 47 04	 cmp	 eax, DWORD PTR [edi+4]
  0001f	5f		 pop	 edi
  00020	0f 94 c1	 sete	 cl
  00023	8a c1		 mov	 al, cl
  00025	5e		 pop	 esi

; 199  : 		}

  00026	c2 04 00	 ret	 4
??8?$_Vector_const_iterator@U_List_position@?$_Hash@V?$_Hmap_traits@VCGUID@@PAVCBaseObject@@Vhash_guid_compare@@V?$allocator@U?$pair@$$CBVCGUID@@PAVCBaseObject@@@std@@@std@@$0A@@stdext@@@stdext@@V?$allocator@U_List_position@?$_Hash@V?$_Hmap_traits@VCGUID@@PAVCBaseObject@@Vhash_guid_compare@@V?$allocator@U?$pair@$$CBVCGUID@@PAVCBaseObject@@@std@@@std@@$0A@@stdext@@@stdext@@@std@@@std@@QBE_NABV01@@Z ENDP ; std::_Vector_const_iterator<stdext::_Hash<stdext::_Hmap_traits<CGUID,CBaseObject *,hash_guid_compare,std::allocator<std::pair<CGUID const ,CBaseObject *> >,0> >::_List_position,std::allocator<stdext::_Hash<stdext::_Hmap_traits<CGUID,CBaseObject *,hash_guid_compare,std::allocator<std::pair<CGUID const ,CBaseObject *> >,0> >::_List_position> >::operator==
_TEXT	ENDS
PUBLIC	??0?$_Ranit@U_List_position@?$_Hash@V?$_Hmap_traits@VCGUID@@PAVCBaseObject@@Vhash_guid_compare@@V?$allocator@U?$pair@$$CBVCGUID@@PAVCBaseObject@@@std@@@std@@$0A@@stdext@@@stdext@@HPBU123@ABU123@@std@@QAE@XZ ; std::_Ranit<stdext::_Hash<stdext::_Hmap_traits<CGUID,CBaseObject *,hash_guid_compare,std::allocator<std::pair<CGUID const ,CBaseObject *> >,0> >::_List_position,int,stdext::_Hash<stdext::_Hmap_traits<CGUID,CBaseObject *,hash_guid_compare,std::allocator<std::pair<CGUID const ,CBaseObject *> >,0> >::_List_position const *,stdext::_Hash<stdext::_Hmap_traits<CGUID,CBaseObject *,hash_guid_compare,std::allocator<std::pair<CGUID const ,CBaseObject *> >,0> >::_List_position const &>::_Ranit<stdext::_Hash<stdext::_Hmap_traits<CGUID,CBaseObject *,hash_guid_compare,std::allocator<std::pair<CGUID const ,CBaseObject *> >,0> >::_List_position,int,stdext::_Hash<stdext::_Hmap_traits<CGUID,CBaseObject *,hash_guid_compare,std::allocator<std::pair<CGUID const ,CBaseObject *> >,0> >::_List_position const *,stdext::_Hash<stdext::_Hmap_traits<CGUID,CBaseObject *,hash_guid_compare,std::allocator<std::pair<CGUID const ,CBaseObject *> >,0> >::_List_position const &>
; Function compile flags: /Ogtpy
;	COMDAT ??0?$_Ranit@U_List_position@?$_Hash@V?$_Hmap_traits@VCGUID@@PAVCBaseObject@@Vhash_guid_compare@@V?$allocator@U?$pair@$$CBVCGUID@@PAVCBaseObject@@@std@@@std@@$0A@@stdext@@@stdext@@HPBU123@ABU123@@std@@QAE@XZ
_TEXT	SEGMENT
??0?$_Ranit@U_List_position@?$_Hash@V?$_Hmap_traits@VCGUID@@PAVCBaseObject@@Vhash_guid_compare@@V?$allocator@U?$pair@$$CBVCGUID@@PAVCBaseObject@@@std@@@std@@$0A@@stdext@@@stdext@@HPBU123@ABU123@@std@@QAE@XZ PROC ; std::_Ranit<stdext::_Hash<stdext::_Hmap_traits<CGUID,CBaseObject *,hash_guid_compare,std::allocator<std::pair<CGUID const ,CBaseObject *> >,0> >::_List_position,int,stdext::_Hash<stdext::_Hmap_traits<CGUID,CBaseObject *,hash_guid_compare,std::allocator<std::pair<CGUID const ,CBaseObject *> >,0> >::_List_position const *,stdext::_Hash<stdext::_Hmap_traits<CGUID,CBaseObject *,hash_guid_compare,std::allocator<std::pair<CGUID const ,CBaseObject *> >,0> >::_List_position const &>::_Ranit<stdext::_Hash<stdext::_Hmap_traits<CGUID,CBaseObject *,hash_guid_compare,std::allocator<std::pair<CGUID const ,CBaseObject *> >,0> >::_List_position,int,stdext::_Hash<stdext::_Hmap_traits<CGUID,CBaseObject *,hash_guid_compare,std::allocator<std::pair<CGUID const ,CBaseObject *> >,0> >::_List_position const *,stdext::_Hash<stdext::_Hmap_traits<CGUID,CBaseObject *,hash_guid_compare,std::allocator<std::pair<CGUID const ,CBaseObject *> >,0> >::_List_position const &>, COMDAT
; _this$ = ecx
  00000	8b c1		 mov	 eax, ecx
  00002	c7 00 00 00 00
	00		 mov	 DWORD PTR [eax], 0
  00008	c3		 ret	 0
??0?$_Ranit@U_List_position@?$_Hash@V?$_Hmap_traits@VCGUID@@PAVCBaseObject@@Vhash_guid_compare@@V?$allocator@U?$pair@$$CBVCGUID@@PAVCBaseObject@@@std@@@std@@$0A@@stdext@@@stdext@@HPBU123@ABU123@@std@@QAE@XZ ENDP ; std::_Ranit<stdext::_Hash<stdext::_Hmap_traits<CGUID,CBaseObject *,hash_guid_compare,std::allocator<std::pair<CGUID const ,CBaseObject *> >,0> >::_List_position,int,stdext::_Hash<stdext::_Hmap_traits<CGUID,CBaseObject *,hash_guid_compare,std::allocator<std::pair<CGUID const ,CBaseObject *> >,0> >::_List_position const *,stdext::_Hash<stdext::_Hmap_traits<CGUID,CBaseObject *,hash_guid_compare,std::allocator<std::pair<CGUID const ,CBaseObject *> >,0> >::_List_position const &>::_Ranit<stdext::_Hash<stdext::_Hmap_traits<CGUID,CBaseObject *,hash_guid_compare,std::allocator<std::pair<CGUID const ,CBaseObject *> >,0> >::_List_position,int,stdext::_Hash<stdext::_Hmap_traits<CGUID,CBaseObject *,hash_guid_compare,std::allocator<std::pair<CGUID const ,CBaseObject *> >,0> >::_List_position const *,stdext::_Hash<stdext::_Hmap_traits<CGUID,CBaseObject *,hash_guid_compare,std::allocator<std::pair<CGUID const ,CBaseObject *> >,0> >::_List_position const &>
_TEXT	ENDS
PUBLIC	??$_Char_traits_cat@U?$char_traits@D@std@@@std@@YA?AU_Secure_char_traits_tag@0@XZ ; std::_Char_traits_cat<std::char_traits<char> >
; Function compile flags: /Ogtpy
; File d:\program files\microsoft visual studio 8\vc\include\iosfwd
;	COMDAT ??$_Char_traits_cat@U?$char_traits@D@std@@@std@@YA?AU_Secure_char_traits_tag@0@XZ
_TEXT	SEGMENT
__Secure$ = -1						; size = 1
??$_Char_traits_cat@U?$char_traits@D@std@@@std@@YA?AU_Secure_char_traits_tag@0@XZ PROC ; std::_Char_traits_cat<std::char_traits<char> >, COMDAT

; 568  : 	{

  00000	51		 push	 ecx

; 569  : 		typename _Char_traits_category<_Traits>::_Secure_char_traits _Secure;
; 570  : 		return (_Secure);

  00001	8a 44 24 03	 mov	 al, BYTE PTR __Secure$[esp+4]

; 571  : 	}

  00005	59		 pop	 ecx
  00006	c3		 ret	 0
??$_Char_traits_cat@U?$char_traits@D@std@@@std@@YA?AU_Secure_char_traits_tag@0@XZ ENDP ; std::_Char_traits_cat<std::char_traits<char> >
_TEXT	ENDS
PUBLIC	??$copy_s@U?$char_traits@D@std@@@_Traits_helper@std@@YAPADPADIPBDIU_Secure_char_traits_tag@1@@Z ; std::_Traits_helper::copy_s<std::char_traits<char> >
; Function compile flags: /Ogtpy
;	COMDAT ??$copy_s@U?$char_traits@D@std@@@_Traits_helper@std@@YAPADPADIPBDIU_Secure_char_traits_tag@1@@Z
_TEXT	SEGMENT
__First1$ = 8						; size = 4
__Size$ = 12						; size = 4
__First2$ = 16						; size = 4
__Count$ = 20						; size = 4
___formal$ = 24						; size = 1
??$copy_s@U?$char_traits@D@std@@@_Traits_helper@std@@YAPADPADIPBDIU_Secure_char_traits_tag@1@@Z PROC ; std::_Traits_helper::copy_s<std::char_traits<char> >, COMDAT

; 590  : 		return _Traits::_Copy_s(_First1, _Size, _First2, _Count);

  00000	8b 44 24 10	 mov	 eax, DWORD PTR __Count$[esp-4]
  00004	8b 4c 24 0c	 mov	 ecx, DWORD PTR __First2$[esp-4]
  00008	8b 54 24 08	 mov	 edx, DWORD PTR __Size$[esp-4]
  0000c	56		 push	 esi
  0000d	8b 74 24 08	 mov	 esi, DWORD PTR __First1$[esp]
  00011	50		 push	 eax
  00012	51		 push	 ecx
  00013	52		 push	 edx
  00014	56		 push	 esi
  00015	e8 00 00 00 00	 call	 _memcpy_s
  0001a	83 c4 10	 add	 esp, 16			; 00000010H
  0001d	8b c6		 mov	 eax, esi
  0001f	5e		 pop	 esi

; 591  : 	}

  00020	c3		 ret	 0
??$copy_s@U?$char_traits@D@std@@@_Traits_helper@std@@YAPADPADIPBDIU_Secure_char_traits_tag@1@@Z ENDP ; std::_Traits_helper::copy_s<std::char_traits<char> >
_TEXT	ENDS
PUBLIC	??$move_s@U?$char_traits@D@std@@@_Traits_helper@std@@YAPADPADIPBDIU_Secure_char_traits_tag@1@@Z ; std::_Traits_helper::move_s<std::char_traits<char> >
; Function compile flags: /Ogtpy
;	COMDAT ??$move_s@U?$char_traits@D@std@@@_Traits_helper@std@@YAPADPADIPBDIU_Secure_char_traits_tag@1@@Z
_TEXT	SEGMENT
__First1$ = 8						; size = 4
__Size$ = 12						; size = 4
__First2$ = 16						; size = 4
__Count$ = 20						; size = 4
___formal$ = 24						; size = 1
??$move_s@U?$char_traits@D@std@@@_Traits_helper@std@@YAPADPADIPBDIU_Secure_char_traits_tag@1@@Z PROC ; std::_Traits_helper::move_s<std::char_traits<char> >, COMDAT

; 617  : 		return _Traits::_Move_s(_First1, _Size, _First2, _Count);

  00000	8b 44 24 10	 mov	 eax, DWORD PTR __Count$[esp-4]
  00004	8b 4c 24 0c	 mov	 ecx, DWORD PTR __First2$[esp-4]
  00008	8b 54 24 08	 mov	 edx, DWORD PTR __Size$[esp-4]
  0000c	56		 push	 esi
  0000d	8b 74 24 08	 mov	 esi, DWORD PTR __First1$[esp]
  00011	50		 push	 eax
  00012	51		 push	 ecx
  00013	52		 push	 edx
  00014	56		 push	 esi
  00015	e8 00 00 00 00	 call	 _memmove_s
  0001a	83 c4 10	 add	 esp, 16			; 00000010H
  0001d	8b c6		 mov	 eax, esi
  0001f	5e		 pop	 esi

; 618  : 	}

  00020	c3		 ret	 0
??$move_s@U?$char_traits@D@std@@@_Traits_helper@std@@YAPADPADIPBDIU_Secure_char_traits_tag@1@@Z ENDP ; std::_Traits_helper::move_s<std::char_traits<char> >
_TEXT	ENDS
PUBLIC	??$?8U?$pair@$$CBVCGUID@@PAVCBaseObject@@@std@@U01@@std@@YA_NABV?$allocator@U?$pair@$$CBVCGUID@@PAVCBaseObject@@@std@@@0@0@Z ; std::operator==<std::pair<CGUID const ,CBaseObject *>,std::pair<CGUID const ,CBaseObject *> >
; Function compile flags: /Ogtpy
; File d:\program files\microsoft visual studio 8\vc\include\xmemory
;	COMDAT ??$?8U?$pair@$$CBVCGUID@@PAVCBaseObject@@@std@@U01@@std@@YA_NABV?$allocator@U?$pair@$$CBVCGUID@@PAVCBaseObject@@@std@@@0@0@Z
_TEXT	SEGMENT
___formal$ = 8						; size = 4
___formal$ = 12						; size = 4
??$?8U?$pair@$$CBVCGUID@@PAVCBaseObject@@@std@@U01@@std@@YA_NABV?$allocator@U?$pair@$$CBVCGUID@@PAVCBaseObject@@@std@@@0@0@Z PROC ; std::operator==<std::pair<CGUID const ,CBaseObject *>,std::pair<CGUID const ,CBaseObject *> >, COMDAT

; 176  : 	return (true);

  00000	b0 01		 mov	 al, 1

; 177  : 	}

  00002	c3		 ret	 0
??$?8U?$pair@$$CBVCGUID@@PAVCBaseObject@@@std@@U01@@std@@YA_NABV?$allocator@U?$pair@$$CBVCGUID@@PAVCBaseObject@@@std@@@0@0@Z ENDP ; std::operator==<std::pair<CGUID const ,CBaseObject *>,std::pair<CGUID const ,CBaseObject *> >
_TEXT	ENDS
PUBLIC	??$_Allocate@U_List_position@?$_Hash@V?$_Hmap_traits@VCGUID@@PAVCBaseObject@@Vhash_guid_compare@@V?$allocator@U?$pair@$$CBVCGUID@@PAVCBaseObject@@@std@@@std@@$0A@@stdext@@@stdext@@@std@@YAPAU_List_position@?$_Hash@V?$_Hmap_traits@VCGUID@@PAVCBaseObject@@Vhash_guid_compare@@V?$allocator@U?$pair@$$CBVCGUID@@PAVCBaseObject@@@std@@@std@@$0A@@stdext@@@stdext@@IPAU123@@Z ; std::_Allocate<stdext::_Hash<stdext::_Hmap_traits<CGUID,CBaseObject *,hash_guid_compare,std::allocator<std::pair<CGUID const ,CBaseObject *> >,0> >::_List_position>
; Function compile flags: /Ogtpy
;	COMDAT ??$_Allocate@U_List_position@?$_Hash@V?$_Hmap_traits@VCGUID@@PAVCBaseObject@@Vhash_guid_compare@@V?$allocator@U?$pair@$$CBVCGUID@@PAVCBaseObject@@@std@@@std@@$0A@@stdext@@@stdext@@@std@@YAPAU_List_position@?$_Hash@V?$_Hmap_traits@VCGUID@@PAVCBaseObject@@Vhash_guid_compare@@V?$allocator@U?$pair@$$CBVCGUID@@PAVCBaseObject@@@std@@@std@@$0A@@stdext@@@stdext@@IPAU123@@Z
_TEXT	SEGMENT
$T295535 = -12						; size = 12
$T295539 = 8						; size = 4
__Count$ = 8						; size = 4
___formal$ = 12						; size = 4
??$_Allocate@U_List_position@?$_Hash@V?$_Hmap_traits@VCGUID@@PAVCBaseObject@@Vhash_guid_compare@@V?$allocator@U?$pair@$$CBVCGUID@@PAVCBaseObject@@@std@@@std@@$0A@@stdext@@@stdext@@@std@@YAPAU_List_position@?$_Hash@V?$_Hmap_traits@VCGUID@@PAVCBaseObject@@Vhash_guid_compare@@V?$allocator@U?$pair@$$CBVCGUID@@PAVCBaseObject@@@std@@@std@@$0A@@stdext@@@stdext@@IPAU123@@Z PROC ; std::_Allocate<stdext::_Hash<stdext::_Hmap_traits<CGUID,CBaseObject *,hash_guid_compare,std::allocator<std::pair<CGUID const ,CBaseObject *> >,0> >::_List_position>, COMDAT

; 38   : 	if (_Count <= 0)

  00000	8b 4c 24 04	 mov	 ecx, DWORD PTR __Count$[esp-4]
  00004	83 ec 0c	 sub	 esp, 12			; 0000000cH
  00007	85 c9		 test	 ecx, ecx
  00009	77 16		 ja	 SHORT $LN3@Allocate@2

; 39   : 		_Count = 0;

  0000b	33 c9		 xor	 ecx, ecx
$LN1@Allocate@2:

; 42   : 
; 43   : 		// allocate storage for _Count elements of type _Ty
; 44   : 	return ((_Ty _FARQ *)::operator new(_Count * sizeof (_Ty)));

  0000d	8d 14 cd 00 00
	00 00		 lea	 edx, DWORD PTR [ecx*8]
  00014	52		 push	 edx
  00015	e8 00 00 00 00	 call	 ??2@YAPAXI@Z		; operator new
  0001a	83 c4 04	 add	 esp, 4

; 45   : 	}

  0001d	83 c4 0c	 add	 esp, 12			; 0000000cH
  00020	c3		 ret	 0
$LN3@Allocate@2:

; 40   : 	else if (((_SIZT)(-1) / _Count) < sizeof (_Ty))

  00021	83 c8 ff	 or	 eax, -1
  00024	33 d2		 xor	 edx, edx
  00026	f7 f1		 div	 ecx
  00028	83 f8 08	 cmp	 eax, 8
  0002b	73 e0		 jae	 SHORT $LN1@Allocate@2

; 41   : 		_THROW_NCEE(std::bad_alloc, NULL);

  0002d	8d 44 24 10	 lea	 eax, DWORD PTR $T295539[esp+8]
  00031	50		 push	 eax
  00032	8d 4c 24 04	 lea	 ecx, DWORD PTR $T295535[esp+16]
  00036	c7 44 24 14 00
	00 00 00	 mov	 DWORD PTR $T295539[esp+12], 0
  0003e	e8 00 00 00 00	 call	 ??0exception@std@@QAE@ABQBD@Z ; std::exception::exception
  00043	68 00 00 00 00	 push	 OFFSET __TI2?AVbad_alloc@std@@
  00048	8d 4c 24 04	 lea	 ecx, DWORD PTR $T295535[esp+16]
  0004c	51		 push	 ecx
  0004d	c7 44 24 08 00
	00 00 00	 mov	 DWORD PTR $T295535[esp+20], OFFSET ??_7bad_alloc@std@@6B@
  00055	e8 00 00 00 00	 call	 __CxxThrowException@8
$LN9@Allocate@2:
$LN8@Allocate@2:
  0005a	cc		 int	 3
??$_Allocate@U_List_position@?$_Hash@V?$_Hmap_traits@VCGUID@@PAVCBaseObject@@Vhash_guid_compare@@V?$allocator@U?$pair@$$CBVCGUID@@PAVCBaseObject@@@std@@@std@@$0A@@stdext@@@stdext@@@std@@YAPAU_List_position@?$_Hash@V?$_Hmap_traits@VCGUID@@PAVCBaseObject@@Vhash_guid_compare@@V?$allocator@U?$pair@$$CBVCGUID@@PAVCBaseObject@@@std@@@std@@$0A@@stdext@@@stdext@@IPAU123@@Z ENDP ; std::_Allocate<stdext::_Hash<stdext::_Hmap_traits<CGUID,CBaseObject *,hash_guid_compare,std::allocator<std::pair<CGUID const ,CBaseObject *> >,0> >::_List_position>
_TEXT	ENDS
PUBLIC	??$_Construct@U?$pair@$$CBVCGUID@@PAVCBaseObject@@@std@@U12@@std@@YAXPAU?$pair@$$CBVCGUID@@PAVCBaseObject@@@0@ABU10@@Z ; std::_Construct<std::pair<CGUID const ,CBaseObject *>,std::pair<CGUID const ,CBaseObject *> >
; Function compile flags: /Ogtpy
;	COMDAT ??$_Construct@U?$pair@$$CBVCGUID@@PAVCBaseObject@@@std@@U12@@std@@YAXPAU?$pair@$$CBVCGUID@@PAVCBaseObject@@@0@ABU10@@Z
_TEXT	SEGMENT
__Ptr$ = 8						; size = 4
__Val$ = 12						; size = 4
??$_Construct@U?$pair@$$CBVCGUID@@PAVCBaseObject@@@std@@U12@@std@@YAXPAU?$pair@$$CBVCGUID@@PAVCBaseObject@@@0@ABU10@@Z PROC ; std::_Construct<std::pair<CGUID const ,CBaseObject *>,std::pair<CGUID const ,CBaseObject *> >, COMDAT

; 52   : 	void _FARQ *_Vptr = _Ptr;
; 53   : 	::new (_Vptr) _T1(_Val);

  00000	8b 44 24 04	 mov	 eax, DWORD PTR __Ptr$[esp-4]
  00004	85 c0		 test	 eax, eax
  00006	74 1c		 je	 SHORT $LN3@Construct
  00008	8b 4c 24 08	 mov	 ecx, DWORD PTR __Val$[esp-4]
  0000c	f3 0f 7e 01	 movq	 xmm0, QWORD PTR [ecx]
  00010	66 0f d6 00	 movq	 QWORD PTR [eax], xmm0
  00014	f3 0f 7e 41 08	 movq	 xmm0, QWORD PTR [ecx+8]
  00019	66 0f d6 40 08	 movq	 QWORD PTR [eax+8], xmm0
  0001e	8b 49 10	 mov	 ecx, DWORD PTR [ecx+16]
  00021	89 48 10	 mov	 DWORD PTR [eax+16], ecx
$LN3@Construct:

; 54   : 	}

  00024	c3		 ret	 0
??$_Construct@U?$pair@$$CBVCGUID@@PAVCBaseObject@@@std@@U12@@std@@YAXPAU?$pair@$$CBVCGUID@@PAVCBaseObject@@@0@ABU10@@Z ENDP ; std::_Construct<std::pair<CGUID const ,CBaseObject *>,std::pair<CGUID const ,CBaseObject *> >
_TEXT	ENDS
PUBLIC	??$_Allocate@U_Node@?$_List_nod@U?$pair@$$CBVCGUID@@PAVCBaseObject@@@std@@V?$allocator@U?$pair@$$CBVCGUID@@PAVCBaseObject@@@std@@@2@@std@@@std@@YAPAU_Node@?$_List_nod@U?$pair@$$CBVCGUID@@PAVCBaseObject@@@std@@V?$allocator@U?$pair@$$CBVCGUID@@PAVCBaseObject@@@std@@@2@@0@IPAU120@@Z ; std::_Allocate<std::_List_nod<std::pair<CGUID const ,CBaseObject *>,std::allocator<std::pair<CGUID const ,CBaseObject *> > >::_Node>
; Function compile flags: /Ogtpy
;	COMDAT ??$_Allocate@U_Node@?$_List_nod@U?$pair@$$CBVCGUID@@PAVCBaseObject@@@std@@V?$allocator@U?$pair@$$CBVCGUID@@PAVCBaseObject@@@std@@@2@@std@@@std@@YAPAU_Node@?$_List_nod@U?$pair@$$CBVCGUID@@PAVCBaseObject@@@std@@V?$allocator@U?$pair@$$CBVCGUID@@PAVCBaseObject@@@std@@@2@@0@IPAU120@@Z
_TEXT	SEGMENT
$T295554 = -12						; size = 12
$T295558 = 8						; size = 4
__Count$ = 8						; size = 4
___formal$ = 12						; size = 4
??$_Allocate@U_Node@?$_List_nod@U?$pair@$$CBVCGUID@@PAVCBaseObject@@@std@@V?$allocator@U?$pair@$$CBVCGUID@@PAVCBaseObject@@@std@@@2@@std@@@std@@YAPAU_Node@?$_List_nod@U?$pair@$$CBVCGUID@@PAVCBaseObject@@@std@@V?$allocator@U?$pair@$$CBVCGUID@@PAVCBaseObject@@@std@@@2@@0@IPAU120@@Z PROC ; std::_Allocate<std::_List_nod<std::pair<CGUID const ,CBaseObject *>,std::allocator<std::pair<CGUID const ,CBaseObject *> > >::_Node>, COMDAT

; 38   : 	if (_Count <= 0)

  00000	8b 4c 24 04	 mov	 ecx, DWORD PTR __Count$[esp-4]
  00004	83 ec 0c	 sub	 esp, 12			; 0000000cH
  00007	85 c9		 test	 ecx, ecx
  00009	77 1c		 ja	 SHORT $LN3@Allocate@3

; 39   : 		_Count = 0;

  0000b	33 c9		 xor	 ecx, ecx
$LN1@Allocate@3:

; 42   : 
; 43   : 		// allocate storage for _Count elements of type _Ty
; 44   : 	return ((_Ty _FARQ *)::operator new(_Count * sizeof (_Ty)));

  0000d	8d 14 cd 00 00
	00 00		 lea	 edx, DWORD PTR [ecx*8]
  00014	2b d1		 sub	 edx, ecx
  00016	03 d2		 add	 edx, edx
  00018	03 d2		 add	 edx, edx
  0001a	52		 push	 edx
  0001b	e8 00 00 00 00	 call	 ??2@YAPAXI@Z		; operator new
  00020	83 c4 04	 add	 esp, 4

; 45   : 	}

  00023	83 c4 0c	 add	 esp, 12			; 0000000cH
  00026	c3		 ret	 0
$LN3@Allocate@3:

; 40   : 	else if (((_SIZT)(-1) / _Count) < sizeof (_Ty))

  00027	83 c8 ff	 or	 eax, -1
  0002a	33 d2		 xor	 edx, edx
  0002c	f7 f1		 div	 ecx
  0002e	83 f8 1c	 cmp	 eax, 28			; 0000001cH
  00031	73 da		 jae	 SHORT $LN1@Allocate@3

; 41   : 		_THROW_NCEE(std::bad_alloc, NULL);

  00033	8d 44 24 10	 lea	 eax, DWORD PTR $T295558[esp+8]
  00037	50		 push	 eax
  00038	8d 4c 24 04	 lea	 ecx, DWORD PTR $T295554[esp+16]
  0003c	c7 44 24 14 00
	00 00 00	 mov	 DWORD PTR $T295558[esp+12], 0
  00044	e8 00 00 00 00	 call	 ??0exception@std@@QAE@ABQBD@Z ; std::exception::exception
  00049	68 00 00 00 00	 push	 OFFSET __TI2?AVbad_alloc@std@@
  0004e	8d 4c 24 04	 lea	 ecx, DWORD PTR $T295554[esp+16]
  00052	51		 push	 ecx
  00053	c7 44 24 08 00
	00 00 00	 mov	 DWORD PTR $T295554[esp+20], OFFSET ??_7bad_alloc@std@@6B@
  0005b	e8 00 00 00 00	 call	 __CxxThrowException@8
$LN9@Allocate@3:
$LN8@Allocate@3:
  00060	cc		 int	 3
??$_Allocate@U_Node@?$_List_nod@U?$pair@$$CBVCGUID@@PAVCBaseObject@@@std@@V?$allocator@U?$pair@$$CBVCGUID@@PAVCBaseObject@@@std@@@2@@std@@@std@@YAPAU_Node@?$_List_nod@U?$pair@$$CBVCGUID@@PAVCBaseObject@@@std@@V?$allocator@U?$pair@$$CBVCGUID@@PAVCBaseObject@@@std@@@2@@0@IPAU120@@Z ENDP ; std::_Allocate<std::_List_nod<std::pair<CGUID const ,CBaseObject *>,std::allocator<std::pair<CGUID const ,CBaseObject *> > >::_Node>
_TEXT	ENDS
PUBLIC	??$_Construct@PAU_Node@?$_List_nod@U?$pair@$$CBVCGUID@@PAVCBaseObject@@@std@@V?$allocator@U?$pair@$$CBVCGUID@@PAVCBaseObject@@@std@@@2@@std@@PAU123@@std@@YAXPAPAU_Node@?$_List_nod@U?$pair@$$CBVCGUID@@PAVCBaseObject@@@std@@V?$allocator@U?$pair@$$CBVCGUID@@PAVCBaseObject@@@std@@@2@@0@ABQAU120@@Z ; std::_Construct<std::_List_nod<std::pair<CGUID const ,CBaseObject *>,std::allocator<std::pair<CGUID const ,CBaseObject *> > >::_Node *,std::_List_nod<std::pair<CGUID const ,CBaseObject *>,std::allocator<std::pair<CGUID const ,CBaseObject *> > >::_Node *>
; Function compile flags: /Ogtpy
;	COMDAT ??$_Construct@PAU_Node@?$_List_nod@U?$pair@$$CBVCGUID@@PAVCBaseObject@@@std@@V?$allocator@U?$pair@$$CBVCGUID@@PAVCBaseObject@@@std@@@2@@std@@PAU123@@std@@YAXPAPAU_Node@?$_List_nod@U?$pair@$$CBVCGUID@@PAVCBaseObject@@@std@@V?$allocator@U?$pair@$$CBVCGUID@@PAVCBaseObject@@@std@@@2@@0@ABQAU120@@Z
_TEXT	SEGMENT
__Ptr$ = 8						; size = 4
__Val$ = 12						; size = 4
??$_Construct@PAU_Node@?$_List_nod@U?$pair@$$CBVCGUID@@PAVCBaseObject@@@std@@V?$allocator@U?$pair@$$CBVCGUID@@PAVCBaseObject@@@std@@@2@@std@@PAU123@@std@@YAXPAPAU_Node@?$_List_nod@U?$pair@$$CBVCGUID@@PAVCBaseObject@@@std@@V?$allocator@U?$pair@$$CBVCGUID@@PAVCBaseObject@@@std@@@2@@0@ABQAU120@@Z PROC ; std::_Construct<std::_List_nod<std::pair<CGUID const ,CBaseObject *>,std::allocator<std::pair<CGUID const ,CBaseObject *> > >::_Node *,std::_List_nod<std::pair<CGUID const ,CBaseObject *>,std::allocator<std::pair<CGUID const ,CBaseObject *> > >::_Node *>, COMDAT

; 52   : 	void _FARQ *_Vptr = _Ptr;
; 53   : 	::new (_Vptr) _T1(_Val);

  00000	8b 44 24 04	 mov	 eax, DWORD PTR __Ptr$[esp-4]
  00004	85 c0		 test	 eax, eax
  00006	74 08		 je	 SHORT $LN3@Construct@2
  00008	8b 4c 24 08	 mov	 ecx, DWORD PTR __Val$[esp-4]
  0000c	8b 11		 mov	 edx, DWORD PTR [ecx]
  0000e	89 10		 mov	 DWORD PTR [eax], edx
$LN3@Construct@2:

; 54   : 	}

  00010	c3		 ret	 0
??$_Construct@PAU_Node@?$_List_nod@U?$pair@$$CBVCGUID@@PAVCBaseObject@@@std@@V?$allocator@U?$pair@$$CBVCGUID@@PAVCBaseObject@@@std@@@2@@std@@PAU123@@std@@YAXPAPAU_Node@?$_List_nod@U?$pair@$$CBVCGUID@@PAVCBaseObject@@@std@@V?$allocator@U?$pair@$$CBVCGUID@@PAVCBaseObject@@@std@@@2@@0@ABQAU120@@Z ENDP ; std::_Construct<std::_List_nod<std::pair<CGUID const ,CBaseObject *>,std::allocator<std::pair<CGUID const ,CBaseObject *> > >::_Node *,std::_List_nod<std::pair<CGUID const ,CBaseObject *>,std::allocator<std::pair<CGUID const ,CBaseObject *> > >::_Node *>
_TEXT	ENDS
PUBLIC	??$_Destroy@PAU_Node@?$_List_nod@U?$pair@$$CBVCGUID@@PAVCBaseObject@@@std@@V?$allocator@U?$pair@$$CBVCGUID@@PAVCBaseObject@@@std@@@2@@std@@@std@@YAXPAPAU_Node@?$_List_nod@U?$pair@$$CBVCGUID@@PAVCBaseObject@@@std@@V?$allocator@U?$pair@$$CBVCGUID@@PAVCBaseObject@@@std@@@2@@0@@Z ; std::_Destroy<std::_List_nod<std::pair<CGUID const ,CBaseObject *>,std::allocator<std::pair<CGUID const ,CBaseObject *> > >::_Node *>
; Function compile flags: /Ogtpy
;	COMDAT ??$_Destroy@PAU_Node@?$_List_nod@U?$pair@$$CBVCGUID@@PAVCBaseObject@@@std@@V?$allocator@U?$pair@$$CBVCGUID@@PAVCBaseObject@@@std@@@2@@std@@@std@@YAXPAPAU_Node@?$_List_nod@U?$pair@$$CBVCGUID@@PAVCBaseObject@@@std@@V?$allocator@U?$pair@$$CBVCGUID@@PAVCBaseObject@@@std@@@2@@0@@Z
_TEXT	SEGMENT
__Ptr$ = 8						; size = 4
??$_Destroy@PAU_Node@?$_List_nod@U?$pair@$$CBVCGUID@@PAVCBaseObject@@@std@@V?$allocator@U?$pair@$$CBVCGUID@@PAVCBaseObject@@@std@@@2@@std@@@std@@YAXPAPAU_Node@?$_List_nod@U?$pair@$$CBVCGUID@@PAVCBaseObject@@@std@@V?$allocator@U?$pair@$$CBVCGUID@@PAVCBaseObject@@@std@@@2@@0@@Z PROC ; std::_Destroy<std::_List_nod<std::pair<CGUID const ,CBaseObject *>,std::allocator<std::pair<CGUID const ,CBaseObject *> > >::_Node *>, COMDAT

; 60   : 	_DESTRUCTOR(_Ty, _Ptr);
; 61   : 	}

  00000	c3		 ret	 0
??$_Destroy@PAU_Node@?$_List_nod@U?$pair@$$CBVCGUID@@PAVCBaseObject@@@std@@V?$allocator@U?$pair@$$CBVCGUID@@PAVCBaseObject@@@std@@@2@@std@@@std@@YAXPAPAU_Node@?$_List_nod@U?$pair@$$CBVCGUID@@PAVCBaseObject@@@std@@V?$allocator@U?$pair@$$CBVCGUID@@PAVCBaseObject@@@std@@@2@@0@@Z ENDP ; std::_Destroy<std::_List_nod<std::pair<CGUID const ,CBaseObject *>,std::allocator<std::pair<CGUID const ,CBaseObject *> > >::_Node *>
_TEXT	ENDS
PUBLIC	??1_Node@?$_List_nod@U?$pair@$$CBVCGUID@@PAVCBaseObject@@@std@@V?$allocator@U?$pair@$$CBVCGUID@@PAVCBaseObject@@@std@@@2@@std@@QAE@XZ ; std::_List_nod<std::pair<CGUID const ,CBaseObject *>,std::allocator<std::pair<CGUID const ,CBaseObject *> > >::_Node::~_Node
; Function compile flags: /Ogtpy
;	COMDAT ??1_Node@?$_List_nod@U?$pair@$$CBVCGUID@@PAVCBaseObject@@@std@@V?$allocator@U?$pair@$$CBVCGUID@@PAVCBaseObject@@@std@@@2@@std@@QAE@XZ
_TEXT	SEGMENT
??1_Node@?$_List_nod@U?$pair@$$CBVCGUID@@PAVCBaseObject@@@std@@V?$allocator@U?$pair@$$CBVCGUID@@PAVCBaseObject@@@std@@@2@@std@@QAE@XZ PROC ; std::_List_nod<std::pair<CGUID const ,CBaseObject *>,std::allocator<std::pair<CGUID const ,CBaseObject *> > >::_Node::~_Node, COMDAT
; _this$ = ecx
  00000	c3		 ret	 0
??1_Node@?$_List_nod@U?$pair@$$CBVCGUID@@PAVCBaseObject@@@std@@V?$allocator@U?$pair@$$CBVCGUID@@PAVCBaseObject@@@std@@@2@@std@@QAE@XZ ENDP ; std::_List_nod<std::pair<CGUID const ,CBaseObject *>,std::allocator<std::pair<CGUID const ,CBaseObject *> > >::_Node::~_Node
_TEXT	ENDS
PUBLIC	??0?$CObjectFactory@VCGoods@@VLockOfWinWhileSleep@XM_Tools@@@XM_Tools@@QAE@AAV?$CMemManage@VLockOfWinWhileSleep@XM_Tools@@@1@@Z ; XM_Tools::CObjectFactory<CGoods,XM_Tools::LockOfWinWhileSleep>::CObjectFactory<CGoods,XM_Tools::LockOfWinWhileSleep>
EXTRN	?GetNewRTID@CObjInfoManage@XM_Tools@@QAEKXZ:PROC ; XM_Tools::CObjInfoManage::GetNewRTID
EXTRN	?GetObjInfoManage@XM_Tools@@YAAAVCObjInfoManage@1@XZ:PROC ; XM_Tools::GetObjInfoManage
; Function compile flags: /Ogtpy
; File d:\project_p6\trunk\public\memmanage\cpp\objectfactory.tcc
;	COMDAT ??0?$CObjectFactory@VCGoods@@VLockOfWinWhileSleep@XM_Tools@@@XM_Tools@@QAE@AAV?$CMemManage@VLockOfWinWhileSleep@XM_Tools@@@1@@Z
_TEXT	SEGMENT
_MemManage$ = 8						; size = 4
??0?$CObjectFactory@VCGoods@@VLockOfWinWhileSleep@XM_Tools@@@XM_Tools@@QAE@AAV?$CMemManage@VLockOfWinWhileSleep@XM_Tools@@@1@@Z PROC ; XM_Tools::CObjectFactory<CGoods,XM_Tools::LockOfWinWhileSleep>::CObjectFactory<CGoods,XM_Tools::LockOfWinWhileSleep>, COMDAT
; _this$ = ecx

; 23   : 	{

  00000	8b 44 24 04	 mov	 eax, DWORD PTR _MemManage$[esp-4]
  00004	56		 push	 esi
  00005	8b f1		 mov	 esi, ecx
  00007	89 06		 mov	 DWORD PTR [esi], eax

; 24   : 		//! ID
; 25   : 		m_uObjRTID = GetObjInfoManage().GetNewRTID();

  00009	e8 00 00 00 00	 call	 ?GetObjInfoManage@XM_Tools@@YAAAVCObjInfoManage@1@XZ ; XM_Tools::GetObjInfoManage
  0000e	8b c8		 mov	 ecx, eax
  00010	e8 00 00 00 00	 call	 ?GetNewRTID@CObjInfoManage@XM_Tools@@QAEKXZ ; XM_Tools::CObjInfoManage::GetNewRTID
  00015	89 46 04	 mov	 DWORD PTR [esi+4], eax

; 26   : 		//! 
; 27   : #ifdef LOG_ALLOC_FREE_INFO
; 28   : 		MM_ASSERY(500 > strlen(pClassName));
; 29   : 		char szTempInfo[2048] = {0};
; 30   : 		sprintf(szTempInfo, "%s(%dbyte)", pClassName, sizeof(_TObject) + sizeof(long) * 2);
; 31   : 		bool bRegResult = GetObjInfoManage().RegisterObj(szTempInfo, m_uObjRTID);
; 32   : #endif
; 33   : 		MM_ASSERY(bRegResult);
; 34   : 	}

  00018	8b c6		 mov	 eax, esi
  0001a	5e		 pop	 esi
  0001b	c2 04 00	 ret	 4
??0?$CObjectFactory@VCGoods@@VLockOfWinWhileSleep@XM_Tools@@@XM_Tools@@QAE@AAV?$CMemManage@VLockOfWinWhileSleep@XM_Tools@@@1@@Z ENDP ; XM_Tools::CObjectFactory<CGoods,XM_Tools::LockOfWinWhileSleep>::CObjectFactory<CGoods,XM_Tools::LockOfWinWhileSleep>
_TEXT	ENDS
PUBLIC	??1?$CObjectFactory@VCGoods@@VLockOfWinWhileSleep@XM_Tools@@@XM_Tools@@QAE@XZ ; XM_Tools::CObjectFactory<CGoods,XM_Tools::LockOfWinWhileSleep>::~CObjectFactory<CGoods,XM_Tools::LockOfWinWhileSleep>
; Function compile flags: /Ogtpy
;	COMDAT ??1?$CObjectFactory@VCGoods@@VLockOfWinWhileSleep@XM_Tools@@@XM_Tools@@QAE@XZ
_TEXT	SEGMENT
??1?$CObjectFactory@VCGoods@@VLockOfWinWhileSleep@XM_Tools@@@XM_Tools@@QAE@XZ PROC ; XM_Tools::CObjectFactory<CGoods,XM_Tools::LockOfWinWhileSleep>::~CObjectFactory<CGoods,XM_Tools::LockOfWinWhileSleep>, COMDAT
; _this$ = ecx

; 39   : 
; 40   : 	}

  00000	c3		 ret	 0
??1?$CObjectFactory@VCGoods@@VLockOfWinWhileSleep@XM_Tools@@@XM_Tools@@QAE@XZ ENDP ; XM_Tools::CObjectFactory<CGoods,XM_Tools::LockOfWinWhileSleep>::~CObjectFactory<CGoods,XM_Tools::LockOfWinWhileSleep>
_TEXT	ENDS
PUBLIC	??0?$CObjectFactory@VCCollection@@VLockOfWinWhileSleep@XM_Tools@@@XM_Tools@@QAE@AAV?$CMemManage@VLockOfWinWhileSleep@XM_Tools@@@1@@Z ; XM_Tools::CObjectFactory<CCollection,XM_Tools::LockOfWinWhileSleep>::CObjectFactory<CCollection,XM_Tools::LockOfWinWhileSleep>
; Function compile flags: /Ogtpy
;	COMDAT ??0?$CObjectFactory@VCCollection@@VLockOfWinWhileSleep@XM_Tools@@@XM_Tools@@QAE@AAV?$CMemManage@VLockOfWinWhileSleep@XM_Tools@@@1@@Z
_TEXT	SEGMENT
_MemManage$ = 8						; size = 4
??0?$CObjectFactory@VCCollection@@VLockOfWinWhileSleep@XM_Tools@@@XM_Tools@@QAE@AAV?$CMemManage@VLockOfWinWhileSleep@XM_Tools@@@1@@Z PROC ; XM_Tools::CObjectFactory<CCollection,XM_Tools::LockOfWinWhileSleep>::CObjectFactory<CCollection,XM_Tools::LockOfWinWhileSleep>, COMDAT
; _this$ = ecx

; 23   : 	{

  00000	8b 44 24 04	 mov	 eax, DWORD PTR _MemManage$[esp-4]
  00004	56		 push	 esi
  00005	8b f1		 mov	 esi, ecx
  00007	89 06		 mov	 DWORD PTR [esi], eax

; 24   : 		//! ID
; 25   : 		m_uObjRTID = GetObjInfoManage().GetNewRTID();

  00009	e8 00 00 00 00	 call	 ?GetObjInfoManage@XM_Tools@@YAAAVCObjInfoManage@1@XZ ; XM_Tools::GetObjInfoManage
  0000e	8b c8		 mov	 ecx, eax
  00010	e8 00 00 00 00	 call	 ?GetNewRTID@CObjInfoManage@XM_Tools@@QAEKXZ ; XM_Tools::CObjInfoManage::GetNewRTID
  00015	89 46 04	 mov	 DWORD PTR [esi+4], eax

; 26   : 		//! 
; 27   : #ifdef LOG_ALLOC_FREE_INFO
; 28   : 		MM_ASSERY(500 > strlen(pClassName));
; 29   : 		char szTempInfo[2048] = {0};
; 30   : 		sprintf(szTempInfo, "%s(%dbyte)", pClassName, sizeof(_TObject) + sizeof(long) * 2);
; 31   : 		bool bRegResult = GetObjInfoManage().RegisterObj(szTempInfo, m_uObjRTID);
; 32   : #endif
; 33   : 		MM_ASSERY(bRegResult);
; 34   : 	}

  00018	8b c6		 mov	 eax, esi
  0001a	5e		 pop	 esi
  0001b	c2 04 00	 ret	 4
??0?$CObjectFactory@VCCollection@@VLockOfWinWhileSleep@XM_Tools@@@XM_Tools@@QAE@AAV?$CMemManage@VLockOfWinWhileSleep@XM_Tools@@@1@@Z ENDP ; XM_Tools::CObjectFactory<CCollection,XM_Tools::LockOfWinWhileSleep>::CObjectFactory<CCollection,XM_Tools::LockOfWinWhileSleep>
_TEXT	ENDS
PUBLIC	??1?$CObjectFactory@VCCollection@@VLockOfWinWhileSleep@XM_Tools@@@XM_Tools@@QAE@XZ ; XM_Tools::CObjectFactory<CCollection,XM_Tools::LockOfWinWhileSleep>::~CObjectFactory<CCollection,XM_Tools::LockOfWinWhileSleep>
; Function compile flags: /Ogtpy
;	COMDAT ??1?$CObjectFactory@VCCollection@@VLockOfWinWhileSleep@XM_Tools@@@XM_Tools@@QAE@XZ
_TEXT	SEGMENT
??1?$CObjectFactory@VCCollection@@VLockOfWinWhileSleep@XM_Tools@@@XM_Tools@@QAE@XZ PROC ; XM_Tools::CObjectFactory<CCollection,XM_Tools::LockOfWinWhileSleep>::~CObjectFactory<CCollection,XM_Tools::LockOfWinWhileSleep>, COMDAT
; _this$ = ecx

; 39   : 
; 40   : 	}

  00000	c3		 ret	 0
??1?$CObjectFactory@VCCollection@@VLockOfWinWhileSleep@XM_Tools@@@XM_Tools@@QAE@XZ ENDP ; XM_Tools::CObjectFactory<CCollection,XM_Tools::LockOfWinWhileSleep>::~CObjectFactory<CCollection,XM_Tools::LockOfWinWhileSleep>
_TEXT	ENDS
PUBLIC	??0?$CObjectFactory@VCMonster@@VLockOfWinWhileSleep@XM_Tools@@@XM_Tools@@QAE@AAV?$CMemManage@VLockOfWinWhileSleep@XM_Tools@@@1@@Z ; XM_Tools::CObjectFactory<CMonster,XM_Tools::LockOfWinWhileSleep>::CObjectFactory<CMonster,XM_Tools::LockOfWinWhileSleep>
; Function compile flags: /Ogtpy
;	COMDAT ??0?$CObjectFactory@VCMonster@@VLockOfWinWhileSleep@XM_Tools@@@XM_Tools@@QAE@AAV?$CMemManage@VLockOfWinWhileSleep@XM_Tools@@@1@@Z
_TEXT	SEGMENT
_MemManage$ = 8						; size = 4
??0?$CObjectFactory@VCMonster@@VLockOfWinWhileSleep@XM_Tools@@@XM_Tools@@QAE@AAV?$CMemManage@VLockOfWinWhileSleep@XM_Tools@@@1@@Z PROC ; XM_Tools::CObjectFactory<CMonster,XM_Tools::LockOfWinWhileSleep>::CObjectFactory<CMonster,XM_Tools::LockOfWinWhileSleep>, COMDAT
; _this$ = ecx

; 23   : 	{

  00000	8b 44 24 04	 mov	 eax, DWORD PTR _MemManage$[esp-4]
  00004	56		 push	 esi
  00005	8b f1		 mov	 esi, ecx
  00007	89 06		 mov	 DWORD PTR [esi], eax

; 24   : 		//! ID
; 25   : 		m_uObjRTID = GetObjInfoManage().GetNewRTID();

  00009	e8 00 00 00 00	 call	 ?GetObjInfoManage@XM_Tools@@YAAAVCObjInfoManage@1@XZ ; XM_Tools::GetObjInfoManage
  0000e	8b c8		 mov	 ecx, eax
  00010	e8 00 00 00 00	 call	 ?GetNewRTID@CObjInfoManage@XM_Tools@@QAEKXZ ; XM_Tools::CObjInfoManage::GetNewRTID
  00015	89 46 04	 mov	 DWORD PTR [esi+4], eax

; 26   : 		//! 
; 27   : #ifdef LOG_ALLOC_FREE_INFO
; 28   : 		MM_ASSERY(500 > strlen(pClassName));
; 29   : 		char szTempInfo[2048] = {0};
; 30   : 		sprintf(szTempInfo, "%s(%dbyte)", pClassName, sizeof(_TObject) + sizeof(long) * 2);
; 31   : 		bool bRegResult = GetObjInfoManage().RegisterObj(szTempInfo, m_uObjRTID);
; 32   : #endif
; 33   : 		MM_ASSERY(bRegResult);
; 34   : 	}

  00018	8b c6		 mov	 eax, esi
  0001a	5e		 pop	 esi
  0001b	c2 04 00	 ret	 4
??0?$CObjectFactory@VCMonster@@VLockOfWinWhileSleep@XM_Tools@@@XM_Tools@@QAE@AAV?$CMemManage@VLockOfWinWhileSleep@XM_Tools@@@1@@Z ENDP ; XM_Tools::CObjectFactory<CMonster,XM_Tools::LockOfWinWhileSleep>::CObjectFactory<CMonster,XM_Tools::LockOfWinWhileSleep>
_TEXT	ENDS
PUBLIC	??1?$CObjectFactory@VCMonster@@VLockOfWinWhileSleep@XM_Tools@@@XM_Tools@@QAE@XZ ; XM_Tools::CObjectFactory<CMonster,XM_Tools::LockOfWinWhileSleep>::~CObjectFactory<CMonster,XM_Tools::LockOfWinWhileSleep>
; Function compile flags: /Ogtpy
;	COMDAT ??1?$CObjectFactory@VCMonster@@VLockOfWinWhileSleep@XM_Tools@@@XM_Tools@@QAE@XZ
_TEXT	SEGMENT
??1?$CObjectFactory@VCMonster@@VLockOfWinWhileSleep@XM_Tools@@@XM_Tools@@QAE@XZ PROC ; XM_Tools::CObjectFactory<CMonster,XM_Tools::LockOfWinWhileSleep>::~CObjectFactory<CMonster,XM_Tools::LockOfWinWhileSleep>, COMDAT
; _this$ = ecx

; 39   : 
; 40   : 	}

  00000	c3		 ret	 0
??1?$CObjectFactory@VCMonster@@VLockOfWinWhileSleep@XM_Tools@@@XM_Tools@@QAE@XZ ENDP ; XM_Tools::CObjectFactory<CMonster,XM_Tools::LockOfWinWhileSleep>::~CObjectFactory<CMonster,XM_Tools::LockOfWinWhileSleep>
_TEXT	ENDS
PUBLIC	??0?$CObjectFactory@VCPlayer@@VLockOfWinWhileSleep@XM_Tools@@@XM_Tools@@QAE@AAV?$CMemManage@VLockOfWinWhileSleep@XM_Tools@@@1@@Z ; XM_Tools::CObjectFactory<CPlayer,XM_Tools::LockOfWinWhileSleep>::CObjectFactory<CPlayer,XM_Tools::LockOfWinWhileSleep>
; Function compile flags: /Ogtpy
;	COMDAT ??0?$CObjectFactory@VCPlayer@@VLockOfWinWhileSleep@XM_Tools@@@XM_Tools@@QAE@AAV?$CMemManage@VLockOfWinWhileSleep@XM_Tools@@@1@@Z
_TEXT	SEGMENT
_MemManage$ = 8						; size = 4
??0?$CObjectFactory@VCPlayer@@VLockOfWinWhileSleep@XM_Tools@@@XM_Tools@@QAE@AAV?$CMemManage@VLockOfWinWhileSleep@XM_Tools@@@1@@Z PROC ; XM_Tools::CObjectFactory<CPlayer,XM_Tools::LockOfWinWhileSleep>::CObjectFactory<CPlayer,XM_Tools::LockOfWinWhileSleep>, COMDAT
; _this$ = ecx

; 23   : 	{

  00000	8b 44 24 04	 mov	 eax, DWORD PTR _MemManage$[esp-4]
  00004	56		 push	 esi
  00005	8b f1		 mov	 esi, ecx
  00007	89 06		 mov	 DWORD PTR [esi], eax

; 24   : 		//! ID
; 25   : 		m_uObjRTID = GetObjInfoManage().GetNewRTID();

  00009	e8 00 00 00 00	 call	 ?GetObjInfoManage@XM_Tools@@YAAAVCObjInfoManage@1@XZ ; XM_Tools::GetObjInfoManage
  0000e	8b c8		 mov	 ecx, eax
  00010	e8 00 00 00 00	 call	 ?GetNewRTID@CObjInfoManage@XM_Tools@@QAEKXZ ; XM_Tools::CObjInfoManage::GetNewRTID
  00015	89 46 04	 mov	 DWORD PTR [esi+4], eax

; 26   : 		//! 
; 27   : #ifdef LOG_ALLOC_FREE_INFO
; 28   : 		MM_ASSERY(500 > strlen(pClassName));
; 29   : 		char szTempInfo[2048] = {0};
; 30   : 		sprintf(szTempInfo, "%s(%dbyte)", pClassName, sizeof(_TObject) + sizeof(long) * 2);
; 31   : 		bool bRegResult = GetObjInfoManage().RegisterObj(szTempInfo, m_uObjRTID);
; 32   : #endif
; 33   : 		MM_ASSERY(bRegResult);
; 34   : 	}

  00018	8b c6		 mov	 eax, esi
  0001a	5e		 pop	 esi
  0001b	c2 04 00	 ret	 4
??0?$CObjectFactory@VCPlayer@@VLockOfWinWhileSleep@XM_Tools@@@XM_Tools@@QAE@AAV?$CMemManage@VLockOfWinWhileSleep@XM_Tools@@@1@@Z ENDP ; XM_Tools::CObjectFactory<CPlayer,XM_Tools::LockOfWinWhileSleep>::CObjectFactory<CPlayer,XM_Tools::LockOfWinWhileSleep>
_TEXT	ENDS
PUBLIC	??1?$CObjectFactory@VCPlayer@@VLockOfWinWhileSleep@XM_Tools@@@XM_Tools@@QAE@XZ ; XM_Tools::CObjectFactory<CPlayer,XM_Tools::LockOfWinWhileSleep>::~CObjectFactory<CPlayer,XM_Tools::LockOfWinWhileSleep>
; Function compile flags: /Ogtpy
;	COMDAT ??1?$CObjectFactory@VCPlayer@@VLockOfWinWhileSleep@XM_Tools@@@XM_Tools@@QAE@XZ
_TEXT	SEGMENT
??1?$CObjectFactory@VCPlayer@@VLockOfWinWhileSleep@XM_Tools@@@XM_Tools@@QAE@XZ PROC ; XM_Tools::CObjectFactory<CPlayer,XM_Tools::LockOfWinWhileSleep>::~CObjectFactory<CPlayer,XM_Tools::LockOfWinWhileSleep>, COMDAT
; _this$ = ecx

; 39   : 
; 40   : 	}

  00000	c3		 ret	 0
??1?$CObjectFactory@VCPlayer@@VLockOfWinWhileSleep@XM_Tools@@@XM_Tools@@QAE@XZ ENDP ; XM_Tools::CObjectFactory<CPlayer,XM_Tools::LockOfWinWhileSleep>::~CObjectFactory<CPlayer,XM_Tools::LockOfWinWhileSleep>
_TEXT	ENDS
PUBLIC	??0?$CObjectFactory@VCRegion@@VLockOfWinWhileSleep@XM_Tools@@@XM_Tools@@QAE@AAV?$CMemManage@VLockOfWinWhileSleep@XM_Tools@@@1@@Z ; XM_Tools::CObjectFactory<CRegion,XM_Tools::LockOfWinWhileSleep>::CObjectFactory<CRegion,XM_Tools::LockOfWinWhileSleep>
; Function compile flags: /Ogtpy
;	COMDAT ??0?$CObjectFactory@VCRegion@@VLockOfWinWhileSleep@XM_Tools@@@XM_Tools@@QAE@AAV?$CMemManage@VLockOfWinWhileSleep@XM_Tools@@@1@@Z
_TEXT	SEGMENT
_MemManage$ = 8						; size = 4
??0?$CObjectFactory@VCRegion@@VLockOfWinWhileSleep@XM_Tools@@@XM_Tools@@QAE@AAV?$CMemManage@VLockOfWinWhileSleep@XM_Tools@@@1@@Z PROC ; XM_Tools::CObjectFactory<CRegion,XM_Tools::LockOfWinWhileSleep>::CObjectFactory<CRegion,XM_Tools::LockOfWinWhileSleep>, COMDAT
; _this$ = ecx

; 23   : 	{

  00000	8b 44 24 04	 mov	 eax, DWORD PTR _MemManage$[esp-4]
  00004	56		 push	 esi
  00005	8b f1		 mov	 esi, ecx
  00007	89 06		 mov	 DWORD PTR [esi], eax

; 24   : 		//! ID
; 25   : 		m_uObjRTID = GetObjInfoManage().GetNewRTID();

  00009	e8 00 00 00 00	 call	 ?GetObjInfoManage@XM_Tools@@YAAAVCObjInfoManage@1@XZ ; XM_Tools::GetObjInfoManage
  0000e	8b c8		 mov	 ecx, eax
  00010	e8 00 00 00 00	 call	 ?GetNewRTID@CObjInfoManage@XM_Tools@@QAEKXZ ; XM_Tools::CObjInfoManage::GetNewRTID
  00015	89 46 04	 mov	 DWORD PTR [esi+4], eax

; 26   : 		//! 
; 27   : #ifdef LOG_ALLOC_FREE_INFO
; 28   : 		MM_ASSERY(500 > strlen(pClassName));
; 29   : 		char szTempInfo[2048] = {0};
; 30   : 		sprintf(szTempInfo, "%s(%dbyte)", pClassName, sizeof(_TObject) + sizeof(long) * 2);
; 31   : 		bool bRegResult = GetObjInfoManage().RegisterObj(szTempInfo, m_uObjRTID);
; 32   : #endif
; 33   : 		MM_ASSERY(bRegResult);
; 34   : 	}

  00018	8b c6		 mov	 eax, esi
  0001a	5e		 pop	 esi
  0001b	c2 04 00	 ret	 4
??0?$CObjectFactory@VCRegion@@VLockOfWinWhileSleep@XM_Tools@@@XM_Tools@@QAE@AAV?$CMemManage@VLockOfWinWhileSleep@XM_Tools@@@1@@Z ENDP ; XM_Tools::CObjectFactory<CRegion,XM_Tools::LockOfWinWhileSleep>::CObjectFactory<CRegion,XM_Tools::LockOfWinWhileSleep>
_TEXT	ENDS
PUBLIC	??1?$CObjectFactory@VCRegion@@VLockOfWinWhileSleep@XM_Tools@@@XM_Tools@@QAE@XZ ; XM_Tools::CObjectFactory<CRegion,XM_Tools::LockOfWinWhileSleep>::~CObjectFactory<CRegion,XM_Tools::LockOfWinWhileSleep>
; Function compile flags: /Ogtpy
;	COMDAT ??1?$CObjectFactory@VCRegion@@VLockOfWinWhileSleep@XM_Tools@@@XM_Tools@@QAE@XZ
_TEXT	SEGMENT
??1?$CObjectFactory@VCRegion@@VLockOfWinWhileSleep@XM_Tools@@@XM_Tools@@QAE@XZ PROC ; XM_Tools::CObjectFactory<CRegion,XM_Tools::LockOfWinWhileSleep>::~CObjectFactory<CRegion,XM_Tools::LockOfWinWhileSleep>, COMDAT
; _this$ = ecx

; 39   : 
; 40   : 	}

  00000	c3		 ret	 0
??1?$CObjectFactory@VCRegion@@VLockOfWinWhileSleep@XM_Tools@@@XM_Tools@@QAE@XZ ENDP ; XM_Tools::CObjectFactory<CRegion,XM_Tools::LockOfWinWhileSleep>::~CObjectFactory<CRegion,XM_Tools::LockOfWinWhileSleep>
_TEXT	ENDS
PUBLIC	??0?$CObjectFactory@VCBuild@@VLockOfWinWhileSleep@XM_Tools@@@XM_Tools@@QAE@AAV?$CMemManage@VLockOfWinWhileSleep@XM_Tools@@@1@@Z ; XM_Tools::CObjectFactory<CBuild,XM_Tools::LockOfWinWhileSleep>::CObjectFactory<CBuild,XM_Tools::LockOfWinWhileSleep>
; Function compile flags: /Ogtpy
;	COMDAT ??0?$CObjectFactory@VCBuild@@VLockOfWinWhileSleep@XM_Tools@@@XM_Tools@@QAE@AAV?$CMemManage@VLockOfWinWhileSleep@XM_Tools@@@1@@Z
_TEXT	SEGMENT
_MemManage$ = 8						; size = 4
??0?$CObjectFactory@VCBuild@@VLockOfWinWhileSleep@XM_Tools@@@XM_Tools@@QAE@AAV?$CMemManage@VLockOfWinWhileSleep@XM_Tools@@@1@@Z PROC ; XM_Tools::CObjectFactory<CBuild,XM_Tools::LockOfWinWhileSleep>::CObjectFactory<CBuild,XM_Tools::LockOfWinWhileSleep>, COMDAT
; _this$ = ecx

; 23   : 	{

  00000	8b 44 24 04	 mov	 eax, DWORD PTR _MemManage$[esp-4]
  00004	56		 push	 esi
  00005	8b f1		 mov	 esi, ecx
  00007	89 06		 mov	 DWORD PTR [esi], eax

; 24   : 		//! ID
; 25   : 		m_uObjRTID = GetObjInfoManage().GetNewRTID();

  00009	e8 00 00 00 00	 call	 ?GetObjInfoManage@XM_Tools@@YAAAVCObjInfoManage@1@XZ ; XM_Tools::GetObjInfoManage
  0000e	8b c8		 mov	 ecx, eax
  00010	e8 00 00 00 00	 call	 ?GetNewRTID@CObjInfoManage@XM_Tools@@QAEKXZ ; XM_Tools::CObjInfoManage::GetNewRTID
  00015	89 46 04	 mov	 DWORD PTR [esi+4], eax

; 26   : 		//! 
; 27   : #ifdef LOG_ALLOC_FREE_INFO
; 28   : 		MM_ASSERY(500 > strlen(pClassName));
; 29   : 		char szTempInfo[2048] = {0};
; 30   : 		sprintf(szTempInfo, "%s(%dbyte)", pClassName, sizeof(_TObject) + sizeof(long) * 2);
; 31   : 		bool bRegResult = GetObjInfoManage().RegisterObj(szTempInfo, m_uObjRTID);
; 32   : #endif
; 33   : 		MM_ASSERY(bRegResult);
; 34   : 	}

  00018	8b c6		 mov	 eax, esi
  0001a	5e		 pop	 esi
  0001b	c2 04 00	 ret	 4
??0?$CObjectFactory@VCBuild@@VLockOfWinWhileSleep@XM_Tools@@@XM_Tools@@QAE@AAV?$CMemManage@VLockOfWinWhileSleep@XM_Tools@@@1@@Z ENDP ; XM_Tools::CObjectFactory<CBuild,XM_Tools::LockOfWinWhileSleep>::CObjectFactory<CBuild,XM_Tools::LockOfWinWhileSleep>
_TEXT	ENDS
PUBLIC	??1?$CObjectFactory@VCBuild@@VLockOfWinWhileSleep@XM_Tools@@@XM_Tools@@QAE@XZ ; XM_Tools::CObjectFactory<CBuild,XM_Tools::LockOfWinWhileSleep>::~CObjectFactory<CBuild,XM_Tools::LockOfWinWhileSleep>
; Function compile flags: /Ogtpy
;	COMDAT ??1?$CObjectFactory@VCBuild@@VLockOfWinWhileSleep@XM_Tools@@@XM_Tools@@QAE@XZ
_TEXT	SEGMENT
??1?$CObjectFactory@VCBuild@@VLockOfWinWhileSleep@XM_Tools@@@XM_Tools@@QAE@XZ PROC ; XM_Tools::CObjectFactory<CBuild,XM_Tools::LockOfWinWhileSleep>::~CObjectFactory<CBuild,XM_Tools::LockOfWinWhileSleep>, COMDAT
; _this$ = ecx

; 39   : 
; 40   : 	}

  00000	c3		 ret	 0
??1?$CObjectFactory@VCBuild@@VLockOfWinWhileSleep@XM_Tools@@@XM_Tools@@QAE@XZ ENDP ; XM_Tools::CObjectFactory<CBuild,XM_Tools::LockOfWinWhileSleep>::~CObjectFactory<CBuild,XM_Tools::LockOfWinWhileSleep>
_TEXT	ENDS
PUBLIC	??0?$CObjectFactory@VCGate@@VLockOfWinWhileSleep@XM_Tools@@@XM_Tools@@QAE@AAV?$CMemManage@VLockOfWinWhileSleep@XM_Tools@@@1@@Z ; XM_Tools::CObjectFactory<CGate,XM_Tools::LockOfWinWhileSleep>::CObjectFactory<CGate,XM_Tools::LockOfWinWhileSleep>
; Function compile flags: /Ogtpy
;	COMDAT ??0?$CObjectFactory@VCGate@@VLockOfWinWhileSleep@XM_Tools@@@XM_Tools@@QAE@AAV?$CMemManage@VLockOfWinWhileSleep@XM_Tools@@@1@@Z
_TEXT	SEGMENT
_MemManage$ = 8						; size = 4
??0?$CObjectFactory@VCGate@@VLockOfWinWhileSleep@XM_Tools@@@XM_Tools@@QAE@AAV?$CMemManage@VLockOfWinWhileSleep@XM_Tools@@@1@@Z PROC ; XM_Tools::CObjectFactory<CGate,XM_Tools::LockOfWinWhileSleep>::CObjectFactory<CGate,XM_Tools::LockOfWinWhileSleep>, COMDAT
; _this$ = ecx

; 23   : 	{

  00000	8b 44 24 04	 mov	 eax, DWORD PTR _MemManage$[esp-4]
  00004	56		 push	 esi
  00005	8b f1		 mov	 esi, ecx
  00007	89 06		 mov	 DWORD PTR [esi], eax

; 24   : 		//! ID
; 25   : 		m_uObjRTID = GetObjInfoManage().GetNewRTID();

  00009	e8 00 00 00 00	 call	 ?GetObjInfoManage@XM_Tools@@YAAAVCObjInfoManage@1@XZ ; XM_Tools::GetObjInfoManage
  0000e	8b c8		 mov	 ecx, eax
  00010	e8 00 00 00 00	 call	 ?GetNewRTID@CObjInfoManage@XM_Tools@@QAEKXZ ; XM_Tools::CObjInfoManage::GetNewRTID
  00015	89 46 04	 mov	 DWORD PTR [esi+4], eax

; 26   : 		//! 
; 27   : #ifdef LOG_ALLOC_FREE_INFO
; 28   : 		MM_ASSERY(500 > strlen(pClassName));
; 29   : 		char szTempInfo[2048] = {0};
; 30   : 		sprintf(szTempInfo, "%s(%dbyte)", pClassName, sizeof(_TObject) + sizeof(long) * 2);
; 31   : 		bool bRegResult = GetObjInfoManage().RegisterObj(szTempInfo, m_uObjRTID);
; 32   : #endif
; 33   : 		MM_ASSERY(bRegResult);
; 34   : 	}

  00018	8b c6		 mov	 eax, esi
  0001a	5e		 pop	 esi
  0001b	c2 04 00	 ret	 4
??0?$CObjectFactory@VCGate@@VLockOfWinWhileSleep@XM_Tools@@@XM_Tools@@QAE@AAV?$CMemManage@VLockOfWinWhileSleep@XM_Tools@@@1@@Z ENDP ; XM_Tools::CObjectFactory<CGate,XM_Tools::LockOfWinWhileSleep>::CObjectFactory<CGate,XM_Tools::LockOfWinWhileSleep>
_TEXT	ENDS
PUBLIC	??1?$CObjectFactory@VCGate@@VLockOfWinWhileSleep@XM_Tools@@@XM_Tools@@QAE@XZ ; XM_Tools::CObjectFactory<CGate,XM_Tools::LockOfWinWhileSleep>::~CObjectFactory<CGate,XM_Tools::LockOfWinWhileSleep>
; Function compile flags: /Ogtpy
;	COMDAT ??1?$CObjectFactory@VCGate@@VLockOfWinWhileSleep@XM_Tools@@@XM_Tools@@QAE@XZ
_TEXT	SEGMENT
??1?$CObjectFactory@VCGate@@VLockOfWinWhileSleep@XM_Tools@@@XM_Tools@@QAE@XZ PROC ; XM_Tools::CObjectFactory<CGate,XM_Tools::LockOfWinWhileSleep>::~CObjectFactory<CGate,XM_Tools::LockOfWinWhileSleep>, COMDAT
; _this$ = ecx

; 39   : 
; 40   : 	}

  00000	c3		 ret	 0
??1?$CObjectFactory@VCGate@@VLockOfWinWhileSleep@XM_Tools@@@XM_Tools@@QAE@XZ ENDP ; XM_Tools::CObjectFactory<CGate,XM_Tools::LockOfWinWhileSleep>::~CObjectFactory<CGate,XM_Tools::LockOfWinWhileSleep>
_TEXT	ENDS
PUBLIC	??0?$CObjectFactory@VCServerRegion@@VLockOfWinWhileSleep@XM_Tools@@@XM_Tools@@QAE@AAV?$CMemManage@VLockOfWinWhileSleep@XM_Tools@@@1@@Z ; XM_Tools::CObjectFactory<CServerRegion,XM_Tools::LockOfWinWhileSleep>::CObjectFactory<CServerRegion,XM_Tools::LockOfWinWhileSleep>
; Function compile flags: /Ogtpy
;	COMDAT ??0?$CObjectFactory@VCServerRegion@@VLockOfWinWhileSleep@XM_Tools@@@XM_Tools@@QAE@AAV?$CMemManage@VLockOfWinWhileSleep@XM_Tools@@@1@@Z
_TEXT	SEGMENT
_MemManage$ = 8						; size = 4
??0?$CObjectFactory@VCServerRegion@@VLockOfWinWhileSleep@XM_Tools@@@XM_Tools@@QAE@AAV?$CMemManage@VLockOfWinWhileSleep@XM_Tools@@@1@@Z PROC ; XM_Tools::CObjectFactory<CServerRegion,XM_Tools::LockOfWinWhileSleep>::CObjectFactory<CServerRegion,XM_Tools::LockOfWinWhileSleep>, COMDAT
; _this$ = ecx

; 23   : 	{

  00000	8b 44 24 04	 mov	 eax, DWORD PTR _MemManage$[esp-4]
  00004	56		 push	 esi
  00005	8b f1		 mov	 esi, ecx
  00007	89 06		 mov	 DWORD PTR [esi], eax

; 24   : 		//! ID
; 25   : 		m_uObjRTID = GetObjInfoManage().GetNewRTID();

  00009	e8 00 00 00 00	 call	 ?GetObjInfoManage@XM_Tools@@YAAAVCObjInfoManage@1@XZ ; XM_Tools::GetObjInfoManage
  0000e	8b c8		 mov	 ecx, eax
  00010	e8 00 00 00 00	 call	 ?GetNewRTID@CObjInfoManage@XM_Tools@@QAEKXZ ; XM_Tools::CObjInfoManage::GetNewRTID
  00015	89 46 04	 mov	 DWORD PTR [esi+4], eax

; 26   : 		//! 
; 27   : #ifdef LOG_ALLOC_FREE_INFO
; 28   : 		MM_ASSERY(500 > strlen(pClassName));
; 29   : 		char szTempInfo[2048] = {0};
; 30   : 		sprintf(szTempInfo, "%s(%dbyte)", pClassName, sizeof(_TObject) + sizeof(long) * 2);
; 31   : 		bool bRegResult = GetObjInfoManage().RegisterObj(szTempInfo, m_uObjRTID);
; 32   : #endif
; 33   : 		MM_ASSERY(bRegResult);
; 34   : 	}

  00018	8b c6		 mov	 eax, esi
  0001a	5e		 pop	 esi
  0001b	c2 04 00	 ret	 4
??0?$CObjectFactory@VCServerRegion@@VLockOfWinWhileSleep@XM_Tools@@@XM_Tools@@QAE@AAV?$CMemManage@VLockOfWinWhileSleep@XM_Tools@@@1@@Z ENDP ; XM_Tools::CObjectFactory<CServerRegion,XM_Tools::LockOfWinWhileSleep>::CObjectFactory<CServerRegion,XM_Tools::LockOfWinWhileSleep>
_TEXT	ENDS
PUBLIC	??1?$CObjectFactory@VCServerRegion@@VLockOfWinWhileSleep@XM_Tools@@@XM_Tools@@QAE@XZ ; XM_Tools::CObjectFactory<CServerRegion,XM_Tools::LockOfWinWhileSleep>::~CObjectFactory<CServerRegion,XM_Tools::LockOfWinWhileSleep>
; Function compile flags: /Ogtpy
;	COMDAT ??1?$CObjectFactory@VCServerRegion@@VLockOfWinWhileSleep@XM_Tools@@@XM_Tools@@QAE@XZ
_TEXT	SEGMENT
??1?$CObjectFactory@VCServerRegion@@VLockOfWinWhileSleep@XM_Tools@@@XM_Tools@@QAE@XZ PROC ; XM_Tools::CObjectFactory<CServerRegion,XM_Tools::LockOfWinWhileSleep>::~CObjectFactory<CServerRegion,XM_Tools::LockOfWinWhileSleep>, COMDAT
; _this$ = ecx

; 39   : 
; 40   : 	}

  00000	c3		 ret	 0
??1?$CObjectFactory@VCServerRegion@@VLockOfWinWhileSleep@XM_Tools@@@XM_Tools@@QAE@XZ ENDP ; XM_Tools::CObjectFactory<CServerRegion,XM_Tools::LockOfWinWhileSleep>::~CObjectFactory<CServerRegion,XM_Tools::LockOfWinWhileSleep>
_TEXT	ENDS
PUBLIC	??$_Iter_cat@V?$_Iterator@$00@?$list@U?$pair@$$CBVCGUID@@PAVCBaseObject@@@std@@V?$allocator@U?$pair@$$CBVCGUID@@PAVCBaseObject@@@std@@@2@@std@@@std@@YA?AUbidirectional_iterator_tag@0@ABV?$_Iterator@$00@?$list@U?$pair@$$CBVCGUID@@PAVCBaseObject@@@std@@V?$allocator@U?$pair@$$CBVCGUID@@PAVCBaseObject@@@std@@@2@@0@@Z ; std::_Iter_cat<std::list<std::pair<CGUID const ,CBaseObject *>,std::allocator<std::pair<CGUID const ,CBaseObject *> > >::_Iterator<1> >
; Function compile flags: /Ogtpy
; File d:\program files\microsoft visual studio 8\vc\include\xutility
;	COMDAT ??$_Iter_cat@V?$_Iterator@$00@?$list@U?$pair@$$CBVCGUID@@PAVCBaseObject@@@std@@V?$allocator@U?$pair@$$CBVCGUID@@PAVCBaseObject@@@std@@@2@@std@@@std@@YA?AUbidirectional_iterator_tag@0@ABV?$_Iterator@$00@?$list@U?$pair@$$CBVCGUID@@PAVCBaseObject@@@std@@V?$allocator@U?$pair@$$CBVCGUID@@PAVCBaseObject@@@std@@@2@@0@@Z
_TEXT	SEGMENT
___$ReturnUdt$ = 8					; size = 4
___formal$ = 12						; size = 4
??$_Iter_cat@V?$_Iterator@$00@?$list@U?$pair@$$CBVCGUID@@PAVCBaseObject@@@std@@V?$allocator@U?$pair@$$CBVCGUID@@PAVCBaseObject@@@std@@@2@@std@@@std@@YA?AUbidirectional_iterator_tag@0@ABV?$_Iterator@$00@?$list@U?$pair@$$CBVCGUID@@PAVCBaseObject@@@std@@V?$allocator@U?$pair@$$CBVCGUID@@PAVCBaseObject@@@std@@@2@@0@@Z PROC ; std::_Iter_cat<std::list<std::pair<CGUID const ,CBaseObject *>,std::allocator<std::pair<CGUID const ,CBaseObject *> > >::_Iterator<1> >, COMDAT

; 799  : 	typename iterator_traits<_Iter>::iterator_category _Cat;
; 800  : 	return (_Cat);

  00000	8b 44 24 04	 mov	 eax, DWORD PTR ___$ReturnUdt$[esp-4]

; 801  : 	}

  00004	c3		 ret	 0
??$_Iter_cat@V?$_Iterator@$00@?$list@U?$pair@$$CBVCGUID@@PAVCBaseObject@@@std@@V?$allocator@U?$pair@$$CBVCGUID@@PAVCBaseObject@@@std@@@2@@std@@@std@@YA?AUbidirectional_iterator_tag@0@ABV?$_Iterator@$00@?$list@U?$pair@$$CBVCGUID@@PAVCBaseObject@@@std@@V?$allocator@U?$pair@$$CBVCGUID@@PAVCBaseObject@@@std@@@2@@0@@Z ENDP ; std::_Iter_cat<std::list<std::pair<CGUID const ,CBaseObject *>,std::allocator<std::pair<CGUID const ,CBaseObject *> > >::_Iterator<1> >
_TEXT	ENDS
PUBLIC	??$_Iter_random@PAU_List_position@?$_Hash@V?$_Hmap_traits@VCGUID@@PAVCBaseObject@@Vhash_guid_compare@@V?$allocator@U?$pair@$$CBVCGUID@@PAVCBaseObject@@@std@@@std@@$0A@@stdext@@@stdext@@PAU123@@std@@YA?AUrandom_access_iterator_tag@0@ABQAU_List_position@?$_Hash@V?$_Hmap_traits@VCGUID@@PAVCBaseObject@@Vhash_guid_compare@@V?$allocator@U?$pair@$$CBVCGUID@@PAVCBaseObject@@@std@@@std@@$0A@@stdext@@@stdext@@0@Z ; std::_Iter_random<stdext::_Hash<stdext::_Hmap_traits<CGUID,CBaseObject *,hash_guid_compare,std::allocator<std::pair<CGUID const ,CBaseObject *> >,0> >::_List_position *,stdext::_Hash<stdext::_Hmap_traits<CGUID,CBaseObject *,hash_guid_compare,std::allocator<std::pair<CGUID const ,CBaseObject *> >,0> >::_List_position *>
; Function compile flags: /Ogtpy
;	COMDAT ??$_Iter_random@PAU_List_position@?$_Hash@V?$_Hmap_traits@VCGUID@@PAVCBaseObject@@Vhash_guid_compare@@V?$allocator@U?$pair@$$CBVCGUID@@PAVCBaseObject@@@std@@@std@@$0A@@stdext@@@stdext@@PAU123@@std@@YA?AUrandom_access_iterator_tag@0@ABQAU_List_position@?$_Hash@V?$_Hmap_traits@VCGUID@@PAVCBaseObject@@Vhash_guid_compare@@V?$allocator@U?$pair@$$CBVCGUID@@PAVCBaseObject@@@std@@@std@@$0A@@stdext@@@stdext@@0@Z
_TEXT	SEGMENT
___$ReturnUdt$ = 8					; size = 4
___formal$ = 12						; size = 4
___formal$ = 16						; size = 4
??$_Iter_random@PAU_List_position@?$_Hash@V?$_Hmap_traits@VCGUID@@PAVCBaseObject@@Vhash_guid_compare@@V?$allocator@U?$pair@$$CBVCGUID@@PAVCBaseObject@@@std@@@std@@$0A@@stdext@@@stdext@@PAU123@@std@@YA?AUrandom_access_iterator_tag@0@ABQAU_List_position@?$_Hash@V?$_Hmap_traits@VCGUID@@PAVCBaseObject@@Vhash_guid_compare@@V?$allocator@U?$pair@$$CBVCGUID@@PAVCBaseObject@@@std@@@std@@$0A@@stdext@@@stdext@@0@Z PROC ; std::_Iter_random<stdext::_Hash<stdext::_Hmap_traits<CGUID,CBaseObject *,hash_guid_compare,std::allocator<std::pair<CGUID const ,CBaseObject *> >,0> >::_List_position *,stdext::_Hash<stdext::_Hmap_traits<CGUID,CBaseObject *,hash_guid_compare,std::allocator<std::pair<CGUID const ,CBaseObject *> >,0> >::_List_position *>, COMDAT

; 840  : 	typename _Iter_random_helper<
; 841  : 		iterator_traits<_Iter1>::iterator_category, 
; 842  : 		iterator_traits<_Iter2>::iterator_category>::_Iter_random_cat _Cat;
; 843  : 	return (_Cat);

  00000	8b 44 24 04	 mov	 eax, DWORD PTR ___$ReturnUdt$[esp-4]

; 844  : 	}

  00004	c3		 ret	 0
??$_Iter_random@PAU_List_position@?$_Hash@V?$_Hmap_traits@VCGUID@@PAVCBaseObject@@Vhash_guid_compare@@V?$allocator@U?$pair@$$CBVCGUID@@PAVCBaseObject@@@std@@@std@@$0A@@stdext@@@stdext@@PAU123@@std@@YA?AUrandom_access_iterator_tag@0@ABQAU_List_position@?$_Hash@V?$_Hmap_traits@VCGUID@@PAVCBaseObject@@Vhash_guid_compare@@V?$allocator@U?$pair@$$CBVCGUID@@PAVCBaseObject@@@std@@@std@@$0A@@stdext@@@stdext@@0@Z ENDP ; std::_Iter_random<stdext::_Hash<stdext::_Hmap_traits<CGUID,CBaseObject *,hash_guid_compare,std::allocator<std::pair<CGUID const ,CBaseObject *> >,0> >::_List_position *,stdext::_Hash<stdext::_Hmap_traits<CGUID,CBaseObject *,hash_guid_compare,std::allocator<std::pair<CGUID const ,CBaseObject *> >,0> >::_List_position *>
_TEXT	ENDS
PUBLIC	??$_Ptr_cat@PAU_List_position@?$_Hash@V?$_Hmap_traits@VCGUID@@PAVCBaseObject@@Vhash_guid_compare@@V?$allocator@U?$pair@$$CBVCGUID@@PAVCBaseObject@@@std@@@std@@$0A@@stdext@@@stdext@@PAU123@@std@@YA?AU_Nonscalar_ptr_iterator_tag@0@AAPAU_List_position@?$_Hash@V?$_Hmap_traits@VCGUID@@PAVCBaseObject@@Vhash_guid_compare@@V?$allocator@U?$pair@$$CBVCGUID@@PAVCBaseObject@@@std@@@std@@$0A@@stdext@@@stdext@@0@Z ; std::_Ptr_cat<stdext::_Hash<stdext::_Hmap_traits<CGUID,CBaseObject *,hash_guid_compare,std::allocator<std::pair<CGUID const ,CBaseObject *> >,0> >::_List_position *,stdext::_Hash<stdext::_Hmap_traits<CGUID,CBaseObject *,hash_guid_compare,std::allocator<std::pair<CGUID const ,CBaseObject *> >,0> >::_List_position *>
; Function compile flags: /Ogtpy
;	COMDAT ??$_Ptr_cat@PAU_List_position@?$_Hash@V?$_Hmap_traits@VCGUID@@PAVCBaseObject@@Vhash_guid_compare@@V?$allocator@U?$pair@$$CBVCGUID@@PAVCBaseObject@@@std@@@std@@$0A@@stdext@@@stdext@@PAU123@@std@@YA?AU_Nonscalar_ptr_iterator_tag@0@AAPAU_List_position@?$_Hash@V?$_Hmap_traits@VCGUID@@PAVCBaseObject@@Vhash_guid_compare@@V?$allocator@U?$pair@$$CBVCGUID@@PAVCBaseObject@@@std@@@std@@$0A@@stdext@@@stdext@@0@Z
_TEXT	SEGMENT
__Cat$ = -1						; size = 1
___formal$ = 8						; size = 4
___formal$ = 12						; size = 4
??$_Ptr_cat@PAU_List_position@?$_Hash@V?$_Hmap_traits@VCGUID@@PAVCBaseObject@@Vhash_guid_compare@@V?$allocator@U?$pair@$$CBVCGUID@@PAVCBaseObject@@@std@@@std@@$0A@@stdext@@@stdext@@PAU123@@std@@YA?AU_Nonscalar_ptr_iterator_tag@0@AAPAU_List_position@?$_Hash@V?$_Hmap_traits@VCGUID@@PAVCBaseObject@@Vhash_guid_compare@@V?$allocator@U?$pair@$$CBVCGUID@@PAVCBaseObject@@@std@@@std@@$0A@@stdext@@@stdext@@0@Z PROC ; std::_Ptr_cat<stdext::_Hash<stdext::_Hmap_traits<CGUID,CBaseObject *,hash_guid_compare,std::allocator<std::pair<CGUID const ,CBaseObject *> >,0> >::_List_position *,stdext::_Hash<stdext::_Hmap_traits<CGUID,CBaseObject *,hash_guid_compare,std::allocator<std::pair<CGUID const ,CBaseObject *> >,0> >::_List_position *>, COMDAT

; 1329 : 	{

  00000	51		 push	 ecx

; 1330 : 	typename _Ptr_cat_helper<_T1, _T2>::_Ptr_cat _Cat;
; 1331 : 	return (_Cat);

  00001	8a 44 24 03	 mov	 al, BYTE PTR __Cat$[esp+4]

; 1332 : 	}

  00005	59		 pop	 ecx
  00006	c3		 ret	 0
??$_Ptr_cat@PAU_List_position@?$_Hash@V?$_Hmap_traits@VCGUID@@PAVCBaseObject@@Vhash_guid_compare@@V?$allocator@U?$pair@$$CBVCGUID@@PAVCBaseObject@@@std@@@std@@$0A@@stdext@@@stdext@@PAU123@@std@@YA?AU_Nonscalar_ptr_iterator_tag@0@AAPAU_List_position@?$_Hash@V?$_Hmap_traits@VCGUID@@PAVCBaseObject@@Vhash_guid_compare@@V?$allocator@U?$pair@$$CBVCGUID@@PAVCBaseObject@@@std@@@std@@$0A@@stdext@@@stdext@@0@Z ENDP ; std::_Ptr_cat<stdext::_Hash<stdext::_Hmap_traits<CGUID,CBaseObject *,hash_guid_compare,std::allocator<std::pair<CGUID const ,CBaseObject *> >,0> >::_List_position *,stdext::_Hash<stdext::_Hmap_traits<CGUID,CBaseObject *,hash_guid_compare,std::allocator<std::pair<CGUID const ,CBaseObject *> >,0> >::_List_position *>
_TEXT	ENDS
PUBLIC	??$_Fill@PAU_List_position@?$_Hash@V?$_Hmap_traits@VCGUID@@PAVCBaseObject@@Vhash_guid_compare@@V?$allocator@U?$pair@$$CBVCGUID@@PAVCBaseObject@@@std@@@std@@$0A@@stdext@@@stdext@@U123@@std@@YAXPAU_List_position@?$_Hash@V?$_Hmap_traits@VCGUID@@PAVCBaseObject@@Vhash_guid_compare@@V?$allocator@U?$pair@$$CBVCGUID@@PAVCBaseObject@@@std@@@std@@$0A@@stdext@@@stdext@@0ABU123@@Z ; std::_Fill<stdext::_Hash<stdext::_Hmap_traits<CGUID,CBaseObject *,hash_guid_compare,std::allocator<std::pair<CGUID const ,CBaseObject *> >,0> >::_List_position *,stdext::_Hash<stdext::_Hmap_traits<CGUID,CBaseObject *,hash_guid_compare,std::allocator<std::pair<CGUID const ,CBaseObject *> >,0> >::_List_position>
; Function compile flags: /Ogtpy
;	COMDAT ??$_Fill@PAU_List_position@?$_Hash@V?$_Hmap_traits@VCGUID@@PAVCBaseObject@@Vhash_guid_compare@@V?$allocator@U?$pair@$$CBVCGUID@@PAVCBaseObject@@@std@@@std@@$0A@@stdext@@@stdext@@U123@@std@@YAXPAU_List_position@?$_Hash@V?$_Hmap_traits@VCGUID@@PAVCBaseObject@@Vhash_guid_compare@@V?$allocator@U?$pair@$$CBVCGUID@@PAVCBaseObject@@@std@@@std@@$0A@@stdext@@@stdext@@0ABU123@@Z
_TEXT	SEGMENT
__First$ = 8						; size = 4
__Last$ = 12						; size = 4
__Val$ = 16						; size = 4
??$_Fill@PAU_List_position@?$_Hash@V?$_Hmap_traits@VCGUID@@PAVCBaseObject@@Vhash_guid_compare@@V?$allocator@U?$pair@$$CBVCGUID@@PAVCBaseObject@@@std@@@std@@$0A@@stdext@@@stdext@@U123@@std@@YAXPAU_List_position@?$_Hash@V?$_Hmap_traits@VCGUID@@PAVCBaseObject@@Vhash_guid_compare@@V?$allocator@U?$pair@$$CBVCGUID@@PAVCBaseObject@@@std@@@std@@$0A@@stdext@@@stdext@@0ABU123@@Z PROC ; std::_Fill<stdext::_Hash<stdext::_Hmap_traits<CGUID,CBaseObject *,hash_guid_compare,std::allocator<std::pair<CGUID const ,CBaseObject *> >,0> >::_List_position *,stdext::_Hash<stdext::_Hmap_traits<CGUID,CBaseObject *,hash_guid_compare,std::allocator<std::pair<CGUID const ,CBaseObject *> >,0> >::_List_position>, COMDAT

; 2947 : 	_DEBUG_RANGE(_First, _Last);
; 2948 : 	for (; _First != _Last; ++_First)

  00000	8b 44 24 04	 mov	 eax, DWORD PTR __First$[esp-4]
  00004	8b 54 24 08	 mov	 edx, DWORD PTR __Last$[esp-4]
  00008	3b c2		 cmp	 eax, edx
  0000a	74 17		 je	 SHORT $LN1@Fill
  0000c	8b 4c 24 0c	 mov	 ecx, DWORD PTR __Val$[esp-4]
  00010	56		 push	 esi
$LL3@Fill:

; 2949 : 		*_First = _Val;

  00011	8b 31		 mov	 esi, DWORD PTR [ecx]
  00013	89 30		 mov	 DWORD PTR [eax], esi
  00015	8b 71 04	 mov	 esi, DWORD PTR [ecx+4]
  00018	89 70 04	 mov	 DWORD PTR [eax+4], esi
  0001b	83 c0 08	 add	 eax, 8
  0001e	3b c2		 cmp	 eax, edx
  00020	75 ef		 jne	 SHORT $LL3@Fill
  00022	5e		 pop	 esi
$LN1@Fill:

; 2950 : 	}

  00023	c3		 ret	 0
??$_Fill@PAU_List_position@?$_Hash@V?$_Hmap_traits@VCGUID@@PAVCBaseObject@@Vhash_guid_compare@@V?$allocator@U?$pair@$$CBVCGUID@@PAVCBaseObject@@@std@@@std@@$0A@@stdext@@@stdext@@U123@@std@@YAXPAU_List_position@?$_Hash@V?$_Hmap_traits@VCGUID@@PAVCBaseObject@@Vhash_guid_compare@@V?$allocator@U?$pair@$$CBVCGUID@@PAVCBaseObject@@@std@@@std@@$0A@@stdext@@@stdext@@0ABU123@@Z ENDP ; std::_Fill<stdext::_Hash<stdext::_Hmap_traits<CGUID,CBaseObject *,hash_guid_compare,std::allocator<std::pair<CGUID const ,CBaseObject *> >,0> >::_List_position *,stdext::_Hash<stdext::_Hmap_traits<CGUID,CBaseObject *,hash_guid_compare,std::allocator<std::pair<CGUID const ,CBaseObject *> >,0> >::_List_position>
_TEXT	ENDS
PUBLIC	??$_Move_cat@PAU_List_position@?$_Hash@V?$_Hmap_traits@VCGUID@@PAVCBaseObject@@Vhash_guid_compare@@V?$allocator@U?$pair@$$CBVCGUID@@PAVCBaseObject@@@std@@@std@@$0A@@stdext@@@stdext@@@std@@YA?AU_Undefined_move_tag@0@ABQAU_List_position@?$_Hash@V?$_Hmap_traits@VCGUID@@PAVCBaseObject@@Vhash_guid_compare@@V?$allocator@U?$pair@$$CBVCGUID@@PAVCBaseObject@@@std@@@std@@$0A@@stdext@@@stdext@@@Z ; std::_Move_cat<stdext::_Hash<stdext::_Hmap_traits<CGUID,CBaseObject *,hash_guid_compare,std::allocator<std::pair<CGUID const ,CBaseObject *> >,0> >::_List_position *>
; Function compile flags: /Ogtpy
;	COMDAT ??$_Move_cat@PAU_List_position@?$_Hash@V?$_Hmap_traits@VCGUID@@PAVCBaseObject@@Vhash_guid_compare@@V?$allocator@U?$pair@$$CBVCGUID@@PAVCBaseObject@@@std@@@std@@$0A@@stdext@@@stdext@@@std@@YA?AU_Undefined_move_tag@0@ABQAU_List_position@?$_Hash@V?$_Hmap_traits@VCGUID@@PAVCBaseObject@@Vhash_guid_compare@@V?$allocator@U?$pair@$$CBVCGUID@@PAVCBaseObject@@@std@@@std@@$0A@@stdext@@@stdext@@@Z
_TEXT	SEGMENT
__Cat$ = -1						; size = 1
___formal$ = 8						; size = 4
??$_Move_cat@PAU_List_position@?$_Hash@V?$_Hmap_traits@VCGUID@@PAVCBaseObject@@Vhash_guid_compare@@V?$allocator@U?$pair@$$CBVCGUID@@PAVCBaseObject@@@std@@@std@@$0A@@stdext@@@stdext@@@std@@YA?AU_Undefined_move_tag@0@ABQAU_List_position@?$_Hash@V?$_Hmap_traits@VCGUID@@PAVCBaseObject@@Vhash_guid_compare@@V?$allocator@U?$pair@$$CBVCGUID@@PAVCBaseObject@@@std@@@std@@$0A@@stdext@@@stdext@@@Z PROC ; std::_Move_cat<stdext::_Hash<stdext::_Hmap_traits<CGUID,CBaseObject *,hash_guid_compare,std::allocator<std::pair<CGUID const ,CBaseObject *> >,0> >::_List_position *>, COMDAT

; 1046 : 	{

  00000	51		 push	 ecx

; 1047 : 		typename _Move_operation_category<typename iterator_traits<_Iter>::value_type>::_Move_cat _Cat;
; 1048 : 		return (_Cat);

  00001	8a 44 24 03	 mov	 al, BYTE PTR __Cat$[esp+4]

; 1049 : 	}

  00005	59		 pop	 ecx
  00006	c3		 ret	 0
??$_Move_cat@PAU_List_position@?$_Hash@V?$_Hmap_traits@VCGUID@@PAVCBaseObject@@Vhash_guid_compare@@V?$allocator@U?$pair@$$CBVCGUID@@PAVCBaseObject@@@std@@@std@@$0A@@stdext@@@stdext@@@std@@YA?AU_Undefined_move_tag@0@ABQAU_List_position@?$_Hash@V?$_Hmap_traits@VCGUID@@PAVCBaseObject@@Vhash_guid_compare@@V?$allocator@U?$pair@$$CBVCGUID@@PAVCBaseObject@@@std@@@std@@$0A@@stdext@@@stdext@@@Z ENDP ; std::_Move_cat<stdext::_Hash<stdext::_Hmap_traits<CGUID,CBaseObject *,hash_guid_compare,std::allocator<std::pair<CGUID const ,CBaseObject *> >,0> >::_List_position *>
_TEXT	ENDS
PUBLIC	??$_Checked_base@PAU_List_position@?$_Hash@V?$_Hmap_traits@VCGUID@@PAVCBaseObject@@Vhash_guid_compare@@V?$allocator@U?$pair@$$CBVCGUID@@PAVCBaseObject@@@std@@@std@@$0A@@stdext@@@stdext@@@std@@YAPAU_List_position@?$_Hash@V?$_Hmap_traits@VCGUID@@PAVCBaseObject@@Vhash_guid_compare@@V?$allocator@U?$pair@$$CBVCGUID@@PAVCBaseObject@@@std@@@std@@$0A@@stdext@@@stdext@@AAPAU123@U_Unchanged_checked_iterator_base_type_tag@0@@Z ; std::_Checked_base<stdext::_Hash<stdext::_Hmap_traits<CGUID,CBaseObject *,hash_guid_compare,std::allocator<std::pair<CGUID const ,CBaseObject *> >,0> >::_List_position *>
; Function compile flags: /Ogtpy
;	COMDAT ??$_Checked_base@PAU_List_position@?$_Hash@V?$_Hmap_traits@VCGUID@@PAVCBaseObject@@Vhash_guid_compare@@V?$allocator@U?$pair@$$CBVCGUID@@PAVCBaseObject@@@std@@@std@@$0A@@stdext@@@stdext@@@std@@YAPAU_List_position@?$_Hash@V?$_Hmap_traits@VCGUID@@PAVCBaseObject@@Vhash_guid_compare@@V?$allocator@U?$pair@$$CBVCGUID@@PAVCBaseObject@@@std@@@std@@$0A@@stdext@@@stdext@@AAPAU123@U_Unchanged_checked_iterator_base_type_tag@0@@Z
_TEXT	SEGMENT
__It$ = 8						; size = 4
___formal$ = 12						; size = 1
??$_Checked_base@PAU_List_position@?$_Hash@V?$_Hmap_traits@VCGUID@@PAVCBaseObject@@Vhash_guid_compare@@V?$allocator@U?$pair@$$CBVCGUID@@PAVCBaseObject@@@std@@@std@@$0A@@stdext@@@stdext@@@std@@YAPAU_List_position@?$_Hash@V?$_Hmap_traits@VCGUID@@PAVCBaseObject@@Vhash_guid_compare@@V?$allocator@U?$pair@$$CBVCGUID@@PAVCBaseObject@@@std@@@std@@$0A@@stdext@@@stdext@@AAPAU123@U_Unchanged_checked_iterator_base_type_tag@0@@Z PROC ; std::_Checked_base<stdext::_Hash<stdext::_Hmap_traits<CGUID,CBaseObject *,hash_guid_compare,std::allocator<std::pair<CGUID const ,CBaseObject *> >,0> >::_List_position *>, COMDAT

; 993  : 		return _It;

  00000	8b 44 24 04	 mov	 eax, DWORD PTR __It$[esp-4]
  00004	8b 00		 mov	 eax, DWORD PTR [eax]

; 994  : 	}

  00006	c3		 ret	 0
??$_Checked_base@PAU_List_position@?$_Hash@V?$_Hmap_traits@VCGUID@@PAVCBaseObject@@Vhash_guid_compare@@V?$allocator@U?$pair@$$CBVCGUID@@PAVCBaseObject@@@std@@@std@@$0A@@stdext@@@stdext@@@std@@YAPAU_List_position@?$_Hash@V?$_Hmap_traits@VCGUID@@PAVCBaseObject@@Vhash_guid_compare@@V?$allocator@U?$pair@$$CBVCGUID@@PAVCBaseObject@@@std@@@std@@$0A@@stdext@@@stdext@@AAPAU123@U_Unchanged_checked_iterator_base_type_tag@0@@Z ENDP ; std::_Checked_base<stdext::_Hash<stdext::_Hmap_traits<CGUID,CBaseObject *,hash_guid_compare,std::allocator<std::pair<CGUID const ,CBaseObject *> >,0> >::_List_position *>
_TEXT	ENDS
PUBLIC	??$_Copy_opt@PAU_List_position@?$_Hash@V?$_Hmap_traits@VCGUID@@PAVCBaseObject@@Vhash_guid_compare@@V?$allocator@U?$pair@$$CBVCGUID@@PAVCBaseObject@@@std@@@std@@$0A@@stdext@@@stdext@@PAU123@Uforward_iterator_tag@std@@@std@@YAPAU_List_position@?$_Hash@V?$_Hmap_traits@VCGUID@@PAVCBaseObject@@Vhash_guid_compare@@V?$allocator@U?$pair@$$CBVCGUID@@PAVCBaseObject@@@std@@@std@@$0A@@stdext@@@stdext@@PAU123@00Uforward_iterator_tag@0@U_Nonscalar_ptr_iterator_tag@0@U_Range_checked_iterator_tag@0@@Z ; std::_Copy_opt<stdext::_Hash<stdext::_Hmap_traits<CGUID,CBaseObject *,hash_guid_compare,std::allocator<std::pair<CGUID const ,CBaseObject *> >,0> >::_List_position *,stdext::_Hash<stdext::_Hmap_traits<CGUID,CBaseObject *,hash_guid_compare,std::allocator<std::pair<CGUID const ,CBaseObject *> >,0> >::_List_position *,std::forward_iterator_tag>
; Function compile flags: /Ogtpy
;	COMDAT ??$_Copy_opt@PAU_List_position@?$_Hash@V?$_Hmap_traits@VCGUID@@PAVCBaseObject@@Vhash_guid_compare@@V?$allocator@U?$pair@$$CBVCGUID@@PAVCBaseObject@@@std@@@std@@$0A@@stdext@@@stdext@@PAU123@Uforward_iterator_tag@std@@@std@@YAPAU_List_position@?$_Hash@V?$_Hmap_traits@VCGUID@@PAVCBaseObject@@Vhash_guid_compare@@V?$allocator@U?$pair@$$CBVCGUID@@PAVCBaseObject@@@std@@@std@@$0A@@stdext@@@stdext@@PAU123@00Uforward_iterator_tag@0@U_Nonscalar_ptr_iterator_tag@0@U_Range_checked_iterator_tag@0@@Z
_TEXT	SEGMENT
__First$ = 8						; size = 4
__Last$ = 12						; size = 4
__Dest$ = 16						; size = 4
___formal$ = 20						; size = 1
___formal$ = 24						; size = 1
___formal$ = 28						; size = 1
??$_Copy_opt@PAU_List_position@?$_Hash@V?$_Hmap_traits@VCGUID@@PAVCBaseObject@@Vhash_guid_compare@@V?$allocator@U?$pair@$$CBVCGUID@@PAVCBaseObject@@@std@@@std@@$0A@@stdext@@@stdext@@PAU123@Uforward_iterator_tag@std@@@std@@YAPAU_List_position@?$_Hash@V?$_Hmap_traits@VCGUID@@PAVCBaseObject@@Vhash_guid_compare@@V?$allocator@U?$pair@$$CBVCGUID@@PAVCBaseObject@@@std@@@std@@$0A@@stdext@@@stdext@@PAU123@00Uforward_iterator_tag@0@U_Nonscalar_ptr_iterator_tag@0@U_Range_checked_iterator_tag@0@@Z PROC ; std::_Copy_opt<stdext::_Hash<stdext::_Hmap_traits<CGUID,CBaseObject *,hash_guid_compare,std::allocator<std::pair<CGUID const ,CBaseObject *> >,0> >::_List_position *,stdext::_Hash<stdext::_Hmap_traits<CGUID,CBaseObject *,hash_guid_compare,std::allocator<std::pair<CGUID const ,CBaseObject *> >,0> >::_List_position *,std::forward_iterator_tag>, COMDAT

; 2264 : 	_DEBUG_RANGE(_First, _Last);
; 2265 : 	for (; _First != _Last; ++_Dest, ++_First)

  00000	8b 4c 24 04	 mov	 ecx, DWORD PTR __First$[esp-4]
  00004	8b 54 24 08	 mov	 edx, DWORD PTR __Last$[esp-4]
  00008	3b ca		 cmp	 ecx, edx
  0000a	8b 44 24 0c	 mov	 eax, DWORD PTR __Dest$[esp-4]
  0000e	74 16		 je	 SHORT $LN1@Copy_opt
  00010	56		 push	 esi
$LL3@Copy_opt:

; 2266 : 		*_Dest = *_First;

  00011	8b 31		 mov	 esi, DWORD PTR [ecx]
  00013	89 30		 mov	 DWORD PTR [eax], esi
  00015	8b 71 04	 mov	 esi, DWORD PTR [ecx+4]
  00018	89 70 04	 mov	 DWORD PTR [eax+4], esi
  0001b	83 c1 08	 add	 ecx, 8
  0001e	83 c0 08	 add	 eax, 8
  00021	3b ca		 cmp	 ecx, edx
  00023	75 ec		 jne	 SHORT $LL3@Copy_opt
  00025	5e		 pop	 esi
$LN1@Copy_opt:

; 2267 : 	return (_Dest);
; 2268 : 	}

  00026	c3		 ret	 0
??$_Copy_opt@PAU_List_position@?$_Hash@V?$_Hmap_traits@VCGUID@@PAVCBaseObject@@Vhash_guid_compare@@V?$allocator@U?$pair@$$CBVCGUID@@PAVCBaseObject@@@std@@@std@@$0A@@stdext@@@stdext@@PAU123@Uforward_iterator_tag@std@@@std@@YAPAU_List_position@?$_Hash@V?$_Hmap_traits@VCGUID@@PAVCBaseObject@@Vhash_guid_compare@@V?$allocator@U?$pair@$$CBVCGUID@@PAVCBaseObject@@@std@@@std@@$0A@@stdext@@@stdext@@PAU123@00Uforward_iterator_tag@0@U_Nonscalar_ptr_iterator_tag@0@U_Range_checked_iterator_tag@0@@Z ENDP ; std::_Copy_opt<stdext::_Hash<stdext::_Hmap_traits<CGUID,CBaseObject *,hash_guid_compare,std::allocator<std::pair<CGUID const ,CBaseObject *> >,0> >::_List_position *,stdext::_Hash<stdext::_Hmap_traits<CGUID,CBaseObject *,hash_guid_compare,std::allocator<std::pair<CGUID const ,CBaseObject *> >,0> >::_List_position *,std::forward_iterator_tag>
_TEXT	ENDS
PUBLIC	??$_Construct@U_List_position@?$_Hash@V?$_Hmap_traits@VCGUID@@PAVCBaseObject@@Vhash_guid_compare@@V?$allocator@U?$pair@$$CBVCGUID@@PAVCBaseObject@@@std@@@std@@$0A@@stdext@@@stdext@@U123@@std@@YAXPAU_List_position@?$_Hash@V?$_Hmap_traits@VCGUID@@PAVCBaseObject@@Vhash_guid_compare@@V?$allocator@U?$pair@$$CBVCGUID@@PAVCBaseObject@@@std@@@std@@$0A@@stdext@@@stdext@@ABU123@@Z ; std::_Construct<stdext::_Hash<stdext::_Hmap_traits<CGUID,CBaseObject *,hash_guid_compare,std::allocator<std::pair<CGUID const ,CBaseObject *> >,0> >::_List_position,stdext::_Hash<stdext::_Hmap_traits<CGUID,CBaseObject *,hash_guid_compare,std::allocator<std::pair<CGUID const ,CBaseObject *> >,0> >::_List_position>
; Function compile flags: /Ogtpy
; File d:\program files\microsoft visual studio 8\vc\include\xmemory
;	COMDAT ??$_Construct@U_List_position@?$_Hash@V?$_Hmap_traits@VCGUID@@PAVCBaseObject@@Vhash_guid_compare@@V?$allocator@U?$pair@$$CBVCGUID@@PAVCBaseObject@@@std@@@std@@$0A@@stdext@@@stdext@@U123@@std@@YAXPAU_List_position@?$_Hash@V?$_Hmap_traits@VCGUID@@PAVCBaseObject@@Vhash_guid_compare@@V?$allocator@U?$pair@$$CBVCGUID@@PAVCBaseObject@@@std@@@std@@$0A@@stdext@@@stdext@@ABU123@@Z
_TEXT	SEGMENT
__Ptr$ = 8						; size = 4
__Val$ = 12						; size = 4
??$_Construct@U_List_position@?$_Hash@V?$_Hmap_traits@VCGUID@@PAVCBaseObject@@Vhash_guid_compare@@V?$allocator@U?$pair@$$CBVCGUID@@PAVCBaseObject@@@std@@@std@@$0A@@stdext@@@stdext@@U123@@std@@YAXPAU_List_position@?$_Hash@V?$_Hmap_traits@VCGUID@@PAVCBaseObject@@Vhash_guid_compare@@V?$allocator@U?$pair@$$CBVCGUID@@PAVCBaseObject@@@std@@@std@@$0A@@stdext@@@stdext@@ABU123@@Z PROC ; std::_Construct<stdext::_Hash<stdext::_Hmap_traits<CGUID,CBaseObject *,hash_guid_compare,std::allocator<std::pair<CGUID const ,CBaseObject *> >,0> >::_List_position,stdext::_Hash<stdext::_Hmap_traits<CGUID,CBaseObject *,hash_guid_compare,std::allocator<std::pair<CGUID const ,CBaseObject *> >,0> >::_List_position>, COMDAT

; 52   : 	void _FARQ *_Vptr = _Ptr;
; 53   : 	::new (_Vptr) _T1(_Val);

  00000	8b 44 24 04	 mov	 eax, DWORD PTR __Ptr$[esp-4]
  00004	85 c0		 test	 eax, eax
  00006	74 0e		 je	 SHORT $LN3@Construct@3
  00008	8b 4c 24 08	 mov	 ecx, DWORD PTR __Val$[esp-4]
  0000c	8b 11		 mov	 edx, DWORD PTR [ecx]
  0000e	89 10		 mov	 DWORD PTR [eax], edx
  00010	8b 49 04	 mov	 ecx, DWORD PTR [ecx+4]
  00013	89 48 04	 mov	 DWORD PTR [eax+4], ecx
$LN3@Construct@3:

; 54   : 	}

  00016	c3		 ret	 0
??$_Construct@U_List_position@?$_Hash@V?$_Hmap_traits@VCGUID@@PAVCBaseObject@@Vhash_guid_compare@@V?$allocator@U?$pair@$$CBVCGUID@@PAVCBaseObject@@@std@@@std@@$0A@@stdext@@@stdext@@U123@@std@@YAXPAU_List_position@?$_Hash@V?$_Hmap_traits@VCGUID@@PAVCBaseObject@@Vhash_guid_compare@@V?$allocator@U?$pair@$$CBVCGUID@@PAVCBaseObject@@@std@@@std@@$0A@@stdext@@@stdext@@ABU123@@Z ENDP ; std::_Construct<stdext::_Hash<stdext::_Hmap_traits<CGUID,CBaseObject *,hash_guid_compare,std::allocator<std::pair<CGUID const ,CBaseObject *> >,0> >::_List_position,stdext::_Hash<stdext::_Hmap_traits<CGUID,CBaseObject *,hash_guid_compare,std::allocator<std::pair<CGUID const ,CBaseObject *> >,0> >::_List_position>
_TEXT	ENDS
PUBLIC	??$_Destroy@U_List_position@?$_Hash@V?$_Hmap_traits@VCGUID@@PAVCBaseObject@@Vhash_guid_compare@@V?$allocator@U?$pair@$$CBVCGUID@@PAVCBaseObject@@@std@@@std@@$0A@@stdext@@@stdext@@@std@@YAXPAU_List_position@?$_Hash@V?$_Hmap_traits@VCGUID@@PAVCBaseObject@@Vhash_guid_compare@@V?$allocator@U?$pair@$$CBVCGUID@@PAVCBaseObject@@@std@@@std@@$0A@@stdext@@@stdext@@@Z ; std::_Destroy<stdext::_Hash<stdext::_Hmap_traits<CGUID,CBaseObject *,hash_guid_compare,std::allocator<std::pair<CGUID const ,CBaseObject *> >,0> >::_List_position>
; Function compile flags: /Ogtpy
;	COMDAT ??$_Destroy@U_List_position@?$_Hash@V?$_Hmap_traits@VCGUID@@PAVCBaseObject@@Vhash_guid_compare@@V?$allocator@U?$pair@$$CBVCGUID@@PAVCBaseObject@@@std@@@std@@$0A@@stdext@@@stdext@@@std@@YAXPAU_List_position@?$_Hash@V?$_Hmap_traits@VCGUID@@PAVCBaseObject@@Vhash_guid_compare@@V?$allocator@U?$pair@$$CBVCGUID@@PAVCBaseObject@@@std@@@std@@$0A@@stdext@@@stdext@@@Z
_TEXT	SEGMENT
__Ptr$ = 8						; size = 4
??$_Destroy@U_List_position@?$_Hash@V?$_Hmap_traits@VCGUID@@PAVCBaseObject@@Vhash_guid_compare@@V?$allocator@U?$pair@$$CBVCGUID@@PAVCBaseObject@@@std@@@std@@$0A@@stdext@@@stdext@@@std@@YAXPAU_List_position@?$_Hash@V?$_Hmap_traits@VCGUID@@PAVCBaseObject@@Vhash_guid_compare@@V?$allocator@U?$pair@$$CBVCGUID@@PAVCBaseObject@@@std@@@std@@$0A@@stdext@@@stdext@@@Z PROC ; std::_Destroy<stdext::_Hash<stdext::_Hmap_traits<CGUID,CBaseObject *,hash_guid_compare,std::allocator<std::pair<CGUID const ,CBaseObject *> >,0> >::_List_position>, COMDAT

; 60   : 	_DESTRUCTOR(_Ty, _Ptr);
; 61   : 	}

  00000	c3		 ret	 0
??$_Destroy@U_List_position@?$_Hash@V?$_Hmap_traits@VCGUID@@PAVCBaseObject@@Vhash_guid_compare@@V?$allocator@U?$pair@$$CBVCGUID@@PAVCBaseObject@@@std@@@std@@$0A@@stdext@@@stdext@@@std@@YAXPAU_List_position@?$_Hash@V?$_Hmap_traits@VCGUID@@PAVCBaseObject@@Vhash_guid_compare@@V?$allocator@U?$pair@$$CBVCGUID@@PAVCBaseObject@@@std@@@std@@$0A@@stdext@@@stdext@@@Z ENDP ; std::_Destroy<stdext::_Hash<stdext::_Hmap_traits<CGUID,CBaseObject *,hash_guid_compare,std::allocator<std::pair<CGUID const ,CBaseObject *> >,0> >::_List_position>
_TEXT	ENDS
PUBLIC	?GetInfo@?$CListNode@E@XM_Tools@@QAEAAEXZ	; XM_Tools::CListNode<unsigned char>::GetInfo
; Function compile flags: /Ogtpy
; File d:\project_p6\trunk\public\memmanage\include\memlist.h
;	COMDAT ?GetInfo@?$CListNode@E@XM_Tools@@QAEAAEXZ
_TEXT	SEGMENT
?GetInfo@?$CListNode@E@XM_Tools@@QAEAAEXZ PROC		; XM_Tools::CListNode<unsigned char>::GetInfo, COMDAT
; _this$ = ecx

; 37   : 		inline _TNodeInfo& 		GetInfo(void)				{return m_pInfo;}

  00000	8b c1		 mov	 eax, ecx
  00002	c3		 ret	 0
?GetInfo@?$CListNode@E@XM_Tools@@QAEAAEXZ ENDP		; XM_Tools::CListNode<unsigned char>::GetInfo
_TEXT	ENDS
PUBLIC	?SetInfo@?$CListNode@E@XM_Tools@@QAEXAAE@Z	; XM_Tools::CListNode<unsigned char>::SetInfo
; Function compile flags: /Ogtpy
;	COMDAT ?SetInfo@?$CListNode@E@XM_Tools@@QAEXAAE@Z
_TEXT	SEGMENT
_Info$ = 8						; size = 4
?SetInfo@?$CListNode@E@XM_Tools@@QAEXAAE@Z PROC		; XM_Tools::CListNode<unsigned char>::SetInfo, COMDAT
; _this$ = ecx

; 38   : 		inline void 			SetInfo(_TNodeInfo &Info)	{m_pInfo = Info;}

  00000	8b 44 24 04	 mov	 eax, DWORD PTR _Info$[esp-4]
  00004	8a 10		 mov	 dl, BYTE PTR [eax]
  00006	88 11		 mov	 BYTE PTR [ecx], dl
  00008	c2 04 00	 ret	 4
?SetInfo@?$CListNode@E@XM_Tools@@QAEXAAE@Z ENDP		; XM_Tools::CListNode<unsigned char>::SetInfo
_TEXT	ENDS
PUBLIC	?GetReBuf@?$CListNode@E@XM_Tools@@QAEPAXXZ	; XM_Tools::CListNode<unsigned char>::GetReBuf
; Function compile flags: /Ogtpy
;	COMDAT ?GetReBuf@?$CListNode@E@XM_Tools@@QAEPAXXZ
_TEXT	SEGMENT
?GetReBuf@?$CListNode@E@XM_Tools@@QAEPAXXZ PROC		; XM_Tools::CListNode<unsigned char>::GetReBuf, COMDAT
; _this$ = ecx

; 41   : 		inline void*			GetReBuf(void)				{return &m_pNext;}

  00000	8d 41 04	 lea	 eax, DWORD PTR [ecx+4]
  00003	c3		 ret	 0
?GetReBuf@?$CListNode@E@XM_Tools@@QAEPAXXZ ENDP		; XM_Tools::CListNode<unsigned char>::GetReBuf
_TEXT	ENDS
PUBLIC	??0tagHeapMemInfo@?$CHeapPool@VLockOfWinWhileSleep@XM_Tools@@@XM_Tools@@QAE@K@Z ; XM_Tools::CHeapPool<XM_Tools::LockOfWinWhileSleep>::tagHeapMemInfo::tagHeapMemInfo
; Function compile flags: /Ogtpy
; File d:\project_p6\trunk\public\memmanage\include\heappool.h
;	COMDAT ??0tagHeapMemInfo@?$CHeapPool@VLockOfWinWhileSleep@XM_Tools@@@XM_Tools@@QAE@K@Z
_TEXT	SEGMENT
_uInSize$ = 8						; size = 4
??0tagHeapMemInfo@?$CHeapPool@VLockOfWinWhileSleep@XM_Tools@@@XM_Tools@@QAE@K@Z PROC ; XM_Tools::CHeapPool<XM_Tools::LockOfWinWhileSleep>::tagHeapMemInfo::tagHeapMemInfo, COMDAT
; _this$ = ecx

; 44   : 			tagHeapMemInfo(unsigned long uInSize):uSize(uInSize){}

  00000	8b c1		 mov	 eax, ecx
  00002	8b 4c 24 04	 mov	 ecx, DWORD PTR _uInSize$[esp-4]
  00006	89 08		 mov	 DWORD PTR [eax], ecx
  00008	c2 04 00	 ret	 4
??0tagHeapMemInfo@?$CHeapPool@VLockOfWinWhileSleep@XM_Tools@@@XM_Tools@@QAE@K@Z ENDP ; XM_Tools::CHeapPool<XM_Tools::LockOfWinWhileSleep>::tagHeapMemInfo::tagHeapMemInfo
_TEXT	ENDS
PUBLIC	?GetInfo@?$CListBNode@UtagHeapMemInfo@?$CHeapPool@VLockOfWinWhileSleep@XM_Tools@@@XM_Tools@@@XM_Tools@@QAEAAUtagHeapMemInfo@?$CHeapPool@VLockOfWinWhileSleep@XM_Tools@@@2@XZ ; XM_Tools::CListBNode<XM_Tools::CHeapPool<XM_Tools::LockOfWinWhileSleep>::tagHeapMemInfo>::GetInfo
; Function compile flags: /Ogtpy
; File d:\project_p6\trunk\public\memmanage\include\memlist.h
;	COMDAT ?GetInfo@?$CListBNode@UtagHeapMemInfo@?$CHeapPool@VLockOfWinWhileSleep@XM_Tools@@@XM_Tools@@@XM_Tools@@QAEAAUtagHeapMemInfo@?$CHeapPool@VLockOfWinWhileSleep@XM_Tools@@@2@XZ
_TEXT	SEGMENT
?GetInfo@?$CListBNode@UtagHeapMemInfo@?$CHeapPool@VLockOfWinWhileSleep@XM_Tools@@@XM_Tools@@@XM_Tools@@QAEAAUtagHeapMemInfo@?$CHeapPool@VLockOfWinWhileSleep@XM_Tools@@@2@XZ PROC ; XM_Tools::CListBNode<XM_Tools::CHeapPool<XM_Tools::LockOfWinWhileSleep>::tagHeapMemInfo>::GetInfo, COMDAT
; _this$ = ecx

; 123  : 		inline _TNodeInfo& 		GetInfo(void)				{return m_pInfo;}

  00000	8b c1		 mov	 eax, ecx
  00002	c3		 ret	 0
?GetInfo@?$CListBNode@UtagHeapMemInfo@?$CHeapPool@VLockOfWinWhileSleep@XM_Tools@@@XM_Tools@@@XM_Tools@@QAEAAUtagHeapMemInfo@?$CHeapPool@VLockOfWinWhileSleep@XM_Tools@@@2@XZ ENDP ; XM_Tools::CListBNode<XM_Tools::CHeapPool<XM_Tools::LockOfWinWhileSleep>::tagHeapMemInfo>::GetInfo
_TEXT	ENDS
PUBLIC	??0?$CBlockPool@VLockOfWinWhileSleep@XM_Tools@@V?$CHeapPool@VLockOfWinWhileSleep@XM_Tools@@@2@@XM_Tools@@QAE@AAV?$CHeapPool@VLockOfWinWhileSleep@XM_Tools@@@1@@Z ; XM_Tools::CBlockPool<XM_Tools::LockOfWinWhileSleep,XM_Tools::CHeapPool<XM_Tools::LockOfWinWhileSleep> >::CBlockPool<XM_Tools::LockOfWinWhileSleep,XM_Tools::CHeapPool<XM_Tools::LockOfWinWhileSleep> >
; Function compile flags: /Ogtpy
; File d:\project_p6\trunk\public\memmanage\cpp\blockpool.tcc
;	COMDAT ??0?$CBlockPool@VLockOfWinWhileSleep@XM_Tools@@V?$CHeapPool@VLockOfWinWhileSleep@XM_Tools@@@2@@XM_Tools@@QAE@AAV?$CHeapPool@VLockOfWinWhileSleep@XM_Tools@@@1@@Z
_TEXT	SEGMENT
_Allocator$ = 8						; size = 4
??0?$CBlockPool@VLockOfWinWhileSleep@XM_Tools@@V?$CHeapPool@VLockOfWinWhileSleep@XM_Tools@@@2@@XM_Tools@@QAE@AAV?$CHeapPool@VLockOfWinWhileSleep@XM_Tools@@@1@@Z PROC ; XM_Tools::CBlockPool<XM_Tools::LockOfWinWhileSleep,XM_Tools::CHeapPool<XM_Tools::LockOfWinWhileSleep> >::CBlockPool<XM_Tools::LockOfWinWhileSleep,XM_Tools::CHeapPool<XM_Tools::LockOfWinWhileSleep> >, COMDAT
; _this$ = ecx

; 34   : 	{

  00000	8b c1		 mov	 eax, ecx
  00002	8b 4c 24 04	 mov	 ecx, DWORD PTR _Allocator$[esp-4]
  00006	89 08		 mov	 DWORD PTR [eax], ecx
  00008	33 c9		 xor	 ecx, ecx
  0000a	83 ca ff	 or	 edx, -1
  0000d	89 48 04	 mov	 DWORD PTR [eax+4], ecx
  00010	89 48 08	 mov	 DWORD PTR [eax+8], ecx
  00013	89 48 0c	 mov	 DWORD PTR [eax+12], ecx
  00016	89 50 10	 mov	 DWORD PTR [eax+16], edx
  00019	89 50 14	 mov	 DWORD PTR [eax+20], edx
  0001c	89 48 38	 mov	 DWORD PTR [eax+56], ecx
  0001f	89 48 3c	 mov	 DWORD PTR [eax+60], ecx
  00022	89 48 58	 mov	 DWORD PTR [eax+88], ecx
  00025	89 48 5c	 mov	 DWORD PTR [eax+92], ecx

; 35   : 
; 36   : 	}

  00028	c2 04 00	 ret	 4
??0?$CBlockPool@VLockOfWinWhileSleep@XM_Tools@@V?$CHeapPool@VLockOfWinWhileSleep@XM_Tools@@@2@@XM_Tools@@QAE@AAV?$CHeapPool@VLockOfWinWhileSleep@XM_Tools@@@1@@Z ENDP ; XM_Tools::CBlockPool<XM_Tools::LockOfWinWhileSleep,XM_Tools::CHeapPool<XM_Tools::LockOfWinWhileSleep> >::CBlockPool<XM_Tools::LockOfWinWhileSleep,XM_Tools::CHeapPool<XM_Tools::LockOfWinWhileSleep> >
_TEXT	ENDS
PUBLIC	?GetListIndex@?$CTilePool@VLockOfWinWhileSleep@XM_Tools@@V?$CHeapPool@VLockOfWinWhileSleep@XM_Tools@@@2@@XM_Tools@@AAEKK@Z ; XM_Tools::CTilePool<XM_Tools::LockOfWinWhileSleep,XM_Tools::CHeapPool<XM_Tools::LockOfWinWhileSleep> >::GetListIndex
; Function compile flags: /Ogtpy
; File d:\project_p6\trunk\public\memmanage\cpp\tilepool.tcc
;	COMDAT ?GetListIndex@?$CTilePool@VLockOfWinWhileSleep@XM_Tools@@V?$CHeapPool@VLockOfWinWhileSleep@XM_Tools@@@2@@XM_Tools@@AAEKK@Z
_TEXT	SEGMENT
_uSize$ = 8						; size = 4
?GetListIndex@?$CTilePool@VLockOfWinWhileSleep@XM_Tools@@V?$CHeapPool@VLockOfWinWhileSleep@XM_Tools@@@2@@XM_Tools@@AAEKK@Z PROC ; XM_Tools::CTilePool<XM_Tools::LockOfWinWhileSleep,XM_Tools::CHeapPool<XM_Tools::LockOfWinWhileSleep> >::GetListIndex, COMDAT
; _this$ = ecx

; 175  : 		if(TILE_MAX_SIZE < uSize || 0 == uSize)

  00000	8b 44 24 04	 mov	 eax, DWORD PTR _uSize$[esp-4]
  00004	3d 00 01 00 00	 cmp	 eax, 256		; 00000100H
  00009	77 18		 ja	 SHORT $LN1@GetListInd
  0000b	85 c0		 test	 eax, eax
  0000d	74 14		 je	 SHORT $LN1@GetListInd

; 177  : 		return uSize / MIN_GRANULARITY - ((0 == uSize % MIN_GRANULARITY) ? 1 : 0);

  0000f	8b c8		 mov	 ecx, eax
  00011	83 e1 07	 and	 ecx, 7
  00014	f6 d9		 neg	 cl
  00016	1b c9		 sbb	 ecx, ecx
  00018	83 c1 01	 add	 ecx, 1
  0001b	c1 e8 03	 shr	 eax, 3
  0001e	2b c1		 sub	 eax, ecx

; 178  : 	}

  00020	c2 04 00	 ret	 4
$LN1@GetListInd:

; 176  : 			return 0xFFFFFFFF;

  00023	83 c8 ff	 or	 eax, -1

; 178  : 	}

  00026	c2 04 00	 ret	 4
?GetListIndex@?$CTilePool@VLockOfWinWhileSleep@XM_Tools@@V?$CHeapPool@VLockOfWinWhileSleep@XM_Tools@@@2@@XM_Tools@@AAEKK@Z ENDP ; XM_Tools::CTilePool<XM_Tools::LockOfWinWhileSleep,XM_Tools::CHeapPool<XM_Tools::LockOfWinWhileSleep> >::GetListIndex
_TEXT	ENDS
PUBLIC	?GetDefaultAddCount@?$CTilePool@VLockOfWinWhileSleep@XM_Tools@@V?$CHeapPool@VLockOfWinWhileSleep@XM_Tools@@@2@@XM_Tools@@AAEKK@Z ; XM_Tools::CTilePool<XM_Tools::LockOfWinWhileSleep,XM_Tools::CHeapPool<XM_Tools::LockOfWinWhileSleep> >::GetDefaultAddCount
; Function compile flags: /Ogtpy
;	COMDAT ?GetDefaultAddCount@?$CTilePool@VLockOfWinWhileSleep@XM_Tools@@V?$CHeapPool@VLockOfWinWhileSleep@XM_Tools@@@2@@XM_Tools@@AAEKK@Z
_TEXT	SEGMENT
_uIndex$ = 8						; size = 4
?GetDefaultAddCount@?$CTilePool@VLockOfWinWhileSleep@XM_Tools@@V?$CHeapPool@VLockOfWinWhileSleep@XM_Tools@@@2@@XM_Tools@@AAEKK@Z PROC ; XM_Tools::CTilePool<XM_Tools::LockOfWinWhileSleep,XM_Tools::CHeapPool<XM_Tools::LockOfWinWhileSleep> >::GetDefaultAddCount, COMDAT
; _this$ = ecx

; 186  : 		MM_ASSERY(TILE_POOL_NUM > uIndex);
; 187  : 		return m_uDefaultAddSize / (MIN_GRANULARITY * (uIndex + 1));

  00000	8b 44 24 04	 mov	 eax, DWORD PTR _uIndex$[esp-4]
  00004	56		 push	 esi
  00005	8d 34 c5 08 00
	00 00		 lea	 esi, DWORD PTR [eax*8+8]
  0000c	8b 41 04	 mov	 eax, DWORD PTR [ecx+4]
  0000f	33 d2		 xor	 edx, edx
  00011	f7 f6		 div	 esi
  00013	5e		 pop	 esi

; 188  : 	}

  00014	c2 04 00	 ret	 4
?GetDefaultAddCount@?$CTilePool@VLockOfWinWhileSleep@XM_Tools@@V?$CHeapPool@VLockOfWinWhileSleep@XM_Tools@@@2@@XM_Tools@@AAEKK@Z ENDP ; XM_Tools::CTilePool<XM_Tools::LockOfWinWhileSleep,XM_Tools::CHeapPool<XM_Tools::LockOfWinWhileSleep> >::GetDefaultAddCount
_TEXT	ENDS
PUBLIC	?GetNodeNum@?$CMemList@EVLockOfWinWhileSleep@XM_Tools@@@XM_Tools@@QBEKXZ ; XM_Tools::CMemList<unsigned char,XM_Tools::LockOfWinWhileSleep>::GetNodeNum
; Function compile flags: /Ogtpy
; File d:\project_p6\trunk\public\memmanage\cpp\memlist.tcc
;	COMDAT ?GetNodeNum@?$CMemList@EVLockOfWinWhileSleep@XM_Tools@@@XM_Tools@@QBEKXZ
_TEXT	SEGMENT
?GetNodeNum@?$CMemList@EVLockOfWinWhileSleep@XM_Tools@@@XM_Tools@@QBEKXZ PROC ; XM_Tools::CMemList<unsigned char,XM_Tools::LockOfWinWhileSleep>::GetNodeNum, COMDAT
; _this$ = ecx

; 67   : 		return m_uNum;

  00000	8b 41 44	 mov	 eax, DWORD PTR [ecx+68]

; 68   : 	}

  00003	c3		 ret	 0
?GetNodeNum@?$CMemList@EVLockOfWinWhileSleep@XM_Tools@@@XM_Tools@@QBEKXZ ENDP ; XM_Tools::CMemList<unsigned char,XM_Tools::LockOfWinWhileSleep>::GetNodeNum
_TEXT	ENDS
PUBLIC	?GetNodeNum@?$CMemSerialBList@UtagHeapMemInfo@?$CHeapPool@VLockOfWinWhileSleep@XM_Tools@@@XM_Tools@@VLockOfWinWhileSleep@3@VHeapMemInfoLikeCompare@23@@XM_Tools@@QBEKXZ ; XM_Tools::CMemSerialBList<XM_Tools::CHeapPool<XM_Tools::LockOfWinWhileSleep>::tagHeapMemInfo,XM_Tools::LockOfWinWhileSleep,XM_Tools::CHeapPool<XM_Tools::LockOfWinWhileSleep>::HeapMemInfoLikeCompare>::GetNodeNum
; Function compile flags: /Ogtpy
;	COMDAT ?GetNodeNum@?$CMemSerialBList@UtagHeapMemInfo@?$CHeapPool@VLockOfWinWhileSleep@XM_Tools@@@XM_Tools@@VLockOfWinWhileSleep@3@VHeapMemInfoLikeCompare@23@@XM_Tools@@QBEKXZ
_TEXT	SEGMENT
?GetNodeNum@?$CMemSerialBList@UtagHeapMemInfo@?$CHeapPool@VLockOfWinWhileSleep@XM_Tools@@@XM_Tools@@VLockOfWinWhileSleep@3@VHeapMemInfoLikeCompare@23@@XM_Tools@@QBEKXZ PROC ; XM_Tools::CMemSerialBList<XM_Tools::CHeapPool<XM_Tools::LockOfWinWhileSleep>::tagHeapMemInfo,XM_Tools::LockOfWinWhileSleep,XM_Tools::CHeapPool<XM_Tools::LockOfWinWhileSleep>::HeapMemInfoLikeCompare>::GetNodeNum, COMDAT
; _this$ = ecx

; 284  : 		return m_uNum;

  00000	8b 41 48	 mov	 eax, DWORD PTR [ecx+72]

; 285  : 	}

  00003	c3		 ret	 0
?GetNodeNum@?$CMemSerialBList@UtagHeapMemInfo@?$CHeapPool@VLockOfWinWhileSleep@XM_Tools@@@XM_Tools@@VLockOfWinWhileSleep@3@VHeapMemInfoLikeCompare@23@@XM_Tools@@QBEKXZ ENDP ; XM_Tools::CMemSerialBList<XM_Tools::CHeapPool<XM_Tools::LockOfWinWhileSleep>::tagHeapMemInfo,XM_Tools::LockOfWinWhileSleep,XM_Tools::CHeapPool<XM_Tools::LockOfWinWhileSleep>::HeapMemInfoLikeCompare>::GetNodeNum
_TEXT	ENDS
PUBLIC	??$_Copy_backward_opt@PAU_List_position@?$_Hash@V?$_Hmap_traits@VCGUID@@PAVCBaseObject@@Vhash_guid_compare@@V?$allocator@U?$pair@$$CBVCGUID@@PAVCBaseObject@@@std@@@std@@$0A@@stdext@@@stdext@@PAU123@Uforward_iterator_tag@std@@@std@@YAPAU_List_position@?$_Hash@V?$_Hmap_traits@VCGUID@@PAVCBaseObject@@Vhash_guid_compare@@V?$allocator@U?$pair@$$CBVCGUID@@PAVCBaseObject@@@std@@@std@@$0A@@stdext@@@stdext@@PAU123@00Uforward_iterator_tag@0@U_Nonscalar_ptr_iterator_tag@0@U_Range_checked_iterator_tag@0@@Z ; std::_Copy_backward_opt<stdext::_Hash<stdext::_Hmap_traits<CGUID,CBaseObject *,hash_guid_compare,std::allocator<std::pair<CGUID const ,CBaseObject *> >,0> >::_List_position *,stdext::_Hash<stdext::_Hmap_traits<CGUID,CBaseObject *,hash_guid_compare,std::allocator<std::pair<CGUID const ,CBaseObject *> >,0> >::_List_position *,std::forward_iterator_tag>
; Function compile flags: /Ogtpy
; File d:\program files\microsoft visual studio 8\vc\include\xutility
;	COMDAT ??$_Copy_backward_opt@PAU_List_position@?$_Hash@V?$_Hmap_traits@VCGUID@@PAVCBaseObject@@Vhash_guid_compare@@V?$allocator@U?$pair@$$CBVCGUID@@PAVCBaseObject@@@std@@@std@@$0A@@stdext@@@stdext@@PAU123@Uforward_iterator_tag@std@@@std@@YAPAU_List_position@?$_Hash@V?$_Hmap_traits@VCGUID@@PAVCBaseObject@@Vhash_guid_compare@@V?$allocator@U?$pair@$$CBVCGUID@@PAVCBaseObject@@@std@@@std@@$0A@@stdext@@@stdext@@PAU123@00Uforward_iterator_tag@0@U_Nonscalar_ptr_iterator_tag@0@U_Range_checked_iterator_tag@0@@Z
_TEXT	SEGMENT
__First$ = 8						; size = 4
__Last$ = 12						; size = 4
__Dest$ = 16						; size = 4
___formal$ = 20						; size = 1
___formal$ = 24						; size = 1
___formal$ = 28						; size = 1
??$_Copy_backward_opt@PAU_List_position@?$_Hash@V?$_Hmap_traits@VCGUID@@PAVCBaseObject@@Vhash_guid_compare@@V?$allocator@U?$pair@$$CBVCGUID@@PAVCBaseObject@@@std@@@std@@$0A@@stdext@@@stdext@@PAU123@Uforward_iterator_tag@std@@@std@@YAPAU_List_position@?$_Hash@V?$_Hmap_traits@VCGUID@@PAVCBaseObject@@Vhash_guid_compare@@V?$allocator@U?$pair@$$CBVCGUID@@PAVCBaseObject@@@std@@@std@@$0A@@stdext@@@stdext@@PAU123@00Uforward_iterator_tag@0@U_Nonscalar_ptr_iterator_tag@0@U_Range_checked_iterator_tag@0@@Z PROC ; std::_Copy_backward_opt<stdext::_Hash<stdext::_Hmap_traits<CGUID,CBaseObject *,hash_guid_compare,std::allocator<std::pair<CGUID const ,CBaseObject *> >,0> >::_List_position *,stdext::_Hash<stdext::_Hmap_traits<CGUID,CBaseObject *,hash_guid_compare,std::allocator<std::pair<CGUID const ,CBaseObject *> >,0> >::_List_position *,std::forward_iterator_tag>, COMDAT

; 2468 : 	_DEBUG_RANGE(_First, _Last);
; 2469 : 	while (_First != _Last)

  00000	8b 54 24 04	 mov	 edx, DWORD PTR __First$[esp-4]
  00004	8b 4c 24 08	 mov	 ecx, DWORD PTR __Last$[esp-4]
  00008	3b d1		 cmp	 edx, ecx
  0000a	8b 44 24 0c	 mov	 eax, DWORD PTR __Dest$[esp-4]
  0000e	74 17		 je	 SHORT $LN1@Copy_backw
  00010	56		 push	 esi
$LL2@Copy_backw:

; 2470 : 		*--_Dest = *--_Last;

  00011	8b 71 f8	 mov	 esi, DWORD PTR [ecx-8]
  00014	83 e9 08	 sub	 ecx, 8
  00017	83 e8 08	 sub	 eax, 8
  0001a	3b ca		 cmp	 ecx, edx
  0001c	89 30		 mov	 DWORD PTR [eax], esi
  0001e	8b 71 04	 mov	 esi, DWORD PTR [ecx+4]
  00021	89 70 04	 mov	 DWORD PTR [eax+4], esi
  00024	75 eb		 jne	 SHORT $LL2@Copy_backw
  00026	5e		 pop	 esi
$LN1@Copy_backw:

; 2471 : 	return (_Dest);
; 2472 : 	}

  00027	c3		 ret	 0
??$_Copy_backward_opt@PAU_List_position@?$_Hash@V?$_Hmap_traits@VCGUID@@PAVCBaseObject@@Vhash_guid_compare@@V?$allocator@U?$pair@$$CBVCGUID@@PAVCBaseObject@@@std@@@std@@$0A@@stdext@@@stdext@@PAU123@Uforward_iterator_tag@std@@@std@@YAPAU_List_position@?$_Hash@V?$_Hmap_traits@VCGUID@@PAVCBaseObject@@Vhash_guid_compare@@V?$allocator@U?$pair@$$CBVCGUID@@PAVCBaseObject@@@std@@@std@@$0A@@stdext@@@stdext@@PAU123@00Uforward_iterator_tag@0@U_Nonscalar_ptr_iterator_tag@0@U_Range_checked_iterator_tag@0@@Z ENDP ; std::_Copy_backward_opt<stdext::_Hash<stdext::_Hmap_traits<CGUID,CBaseObject *,hash_guid_compare,std::allocator<std::pair<CGUID const ,CBaseObject *> >,0> >::_List_position *,stdext::_Hash<stdext::_Hmap_traits<CGUID,CBaseObject *,hash_guid_compare,std::allocator<std::pair<CGUID const ,CBaseObject *> >,0> >::_List_position *,std::forward_iterator_tag>
_TEXT	ENDS
PUBLIC	?GetNext@?$CListNode@E@XM_Tools@@QAEPAV12@XZ	; XM_Tools::CListNode<unsigned char>::GetNext
; Function compile flags: /Ogtpy
; File d:\project_p6\trunk\public\memmanage\include\memlist.h
;	COMDAT ?GetNext@?$CListNode@E@XM_Tools@@QAEPAV12@XZ
_TEXT	SEGMENT
?GetNext@?$CListNode@E@XM_Tools@@QAEPAV12@XZ PROC	; XM_Tools::CListNode<unsigned char>::GetNext, COMDAT
; _this$ = ecx

; 35   : 		inline CListNode*		GetNext(void)				{return m_pNext;}

  00000	8b 41 04	 mov	 eax, DWORD PTR [ecx+4]
  00003	c3		 ret	 0
?GetNext@?$CListNode@E@XM_Tools@@QAEPAV12@XZ ENDP	; XM_Tools::CListNode<unsigned char>::GetNext
_TEXT	ENDS
PUBLIC	?SetNext@?$CListNode@E@XM_Tools@@QAEXPAV12@@Z	; XM_Tools::CListNode<unsigned char>::SetNext
; Function compile flags: /Ogtpy
;	COMDAT ?SetNext@?$CListNode@E@XM_Tools@@QAEXPAV12@@Z
_TEXT	SEGMENT
_pNext$ = 8						; size = 4
?SetNext@?$CListNode@E@XM_Tools@@QAEXPAV12@@Z PROC	; XM_Tools::CListNode<unsigned char>::SetNext, COMDAT
; _this$ = ecx

; 36   : 		inline void				SetNext(CListNode *pNext)	{m_pNext = pNext;}

  00000	8b 44 24 04	 mov	 eax, DWORD PTR _pNext$[esp-4]
  00004	89 41 04	 mov	 DWORD PTR [ecx+4], eax
  00007	c2 04 00	 ret	 4
?SetNext@?$CListNode@E@XM_Tools@@QAEXPAV12@@Z ENDP	; XM_Tools::CListNode<unsigned char>::SetNext
_TEXT	ENDS
PUBLIC	??MtagHeapMemInfo@?$CHeapPool@VLockOfWinWhileSleep@XM_Tools@@@XM_Tools@@QBE_NABU012@@Z ; XM_Tools::CHeapPool<XM_Tools::LockOfWinWhileSleep>::tagHeapMemInfo::operator<
; Function compile flags: /Ogtpy
; File d:\project_p6\trunk\public\memmanage\include\heappool.h
;	COMDAT ??MtagHeapMemInfo@?$CHeapPool@VLockOfWinWhileSleep@XM_Tools@@@XM_Tools@@QBE_NABU012@@Z
_TEXT	SEGMENT
_Info$ = 8						; size = 4
??MtagHeapMemInfo@?$CHeapPool@VLockOfWinWhileSleep@XM_Tools@@@XM_Tools@@QBE_NABU012@@Z PROC ; XM_Tools::CHeapPool<XM_Tools::LockOfWinWhileSleep>::tagHeapMemInfo::operator<, COMDAT
; _this$ = ecx

; 47   : 				return this->uSize < Info.uSize;

  00000	8b 01		 mov	 eax, DWORD PTR [ecx]
  00002	8b 4c 24 04	 mov	 ecx, DWORD PTR _Info$[esp-4]
  00006	3b 01		 cmp	 eax, DWORD PTR [ecx]
  00008	1b c0		 sbb	 eax, eax
  0000a	f7 d8		 neg	 eax

; 48   : 			}

  0000c	c2 04 00	 ret	 4
??MtagHeapMemInfo@?$CHeapPool@VLockOfWinWhileSleep@XM_Tools@@@XM_Tools@@QBE_NABU012@@Z ENDP ; XM_Tools::CHeapPool<XM_Tools::LockOfWinWhileSleep>::tagHeapMemInfo::operator<
_TEXT	ENDS
PUBLIC	?GetPrev@?$CListBNode@UtagHeapMemInfo@?$CHeapPool@VLockOfWinWhileSleep@XM_Tools@@@XM_Tools@@@XM_Tools@@QAEPAV12@XZ ; XM_Tools::CListBNode<XM_Tools::CHeapPool<XM_Tools::LockOfWinWhileSleep>::tagHeapMemInfo>::GetPrev
; Function compile flags: /Ogtpy
; File d:\project_p6\trunk\public\memmanage\include\memlist.h
;	COMDAT ?GetPrev@?$CListBNode@UtagHeapMemInfo@?$CHeapPool@VLockOfWinWhileSleep@XM_Tools@@@XM_Tools@@@XM_Tools@@QAEPAV12@XZ
_TEXT	SEGMENT
?GetPrev@?$CListBNode@UtagHeapMemInfo@?$CHeapPool@VLockOfWinWhileSleep@XM_Tools@@@XM_Tools@@@XM_Tools@@QAEPAV12@XZ PROC ; XM_Tools::CListBNode<XM_Tools::CHeapPool<XM_Tools::LockOfWinWhileSleep>::tagHeapMemInfo>::GetPrev, COMDAT
; _this$ = ecx

; 119  : 		inline CListBNode*		GetPrev(void)				{return m_pPrev;}

  00000	8b 41 04	 mov	 eax, DWORD PTR [ecx+4]
  00003	c3		 ret	 0
?GetPrev@?$CListBNode@UtagHeapMemInfo@?$CHeapPool@VLockOfWinWhileSleep@XM_Tools@@@XM_Tools@@@XM_Tools@@QAEPAV12@XZ ENDP ; XM_Tools::CListBNode<XM_Tools::CHeapPool<XM_Tools::LockOfWinWhileSleep>::tagHeapMemInfo>::GetPrev
_TEXT	ENDS
PUBLIC	?SetPrev@?$CListBNode@UtagHeapMemInfo@?$CHeapPool@VLockOfWinWhileSleep@XM_Tools@@@XM_Tools@@@XM_Tools@@QAEXPAV12@@Z ; XM_Tools::CListBNode<XM_Tools::CHeapPool<XM_Tools::LockOfWinWhileSleep>::tagHeapMemInfo>::SetPrev
; Function compile flags: /Ogtpy
;	COMDAT ?SetPrev@?$CListBNode@UtagHeapMemInfo@?$CHeapPool@VLockOfWinWhileSleep@XM_Tools@@@XM_Tools@@@XM_Tools@@QAEXPAV12@@Z
_TEXT	SEGMENT
_pPrev$ = 8						; size = 4
?SetPrev@?$CListBNode@UtagHeapMemInfo@?$CHeapPool@VLockOfWinWhileSleep@XM_Tools@@@XM_Tools@@@XM_Tools@@QAEXPAV12@@Z PROC ; XM_Tools::CListBNode<XM_Tools::CHeapPool<XM_Tools::LockOfWinWhileSleep>::tagHeapMemInfo>::SetPrev, COMDAT
; _this$ = ecx

; 120  : 		inline void				SetPrev(CListBNode *pPrev)	{m_pPrev = pPrev;}

  00000	8b 44 24 04	 mov	 eax, DWORD PTR _pPrev$[esp-4]
  00004	89 41 04	 mov	 DWORD PTR [ecx+4], eax
  00007	c2 04 00	 ret	 4
?SetPrev@?$CListBNode@UtagHeapMemInfo@?$CHeapPool@VLockOfWinWhileSleep@XM_Tools@@@XM_Tools@@@XM_Tools@@QAEXPAV12@@Z ENDP ; XM_Tools::CListBNode<XM_Tools::CHeapPool<XM_Tools::LockOfWinWhileSleep>::tagHeapMemInfo>::SetPrev
_TEXT	ENDS
PUBLIC	?GetNext@?$CListBNode@UtagHeapMemInfo@?$CHeapPool@VLockOfWinWhileSleep@XM_Tools@@@XM_Tools@@@XM_Tools@@QAEPAV12@XZ ; XM_Tools::CListBNode<XM_Tools::CHeapPool<XM_Tools::LockOfWinWhileSleep>::tagHeapMemInfo>::GetNext
; Function compile flags: /Ogtpy
;	COMDAT ?GetNext@?$CListBNode@UtagHeapMemInfo@?$CHeapPool@VLockOfWinWhileSleep@XM_Tools@@@XM_Tools@@@XM_Tools@@QAEPAV12@XZ
_TEXT	SEGMENT
?GetNext@?$CListBNode@UtagHeapMemInfo@?$CHeapPool@VLockOfWinWhileSleep@XM_Tools@@@XM_Tools@@@XM_Tools@@QAEPAV12@XZ PROC ; XM_Tools::CListBNode<XM_Tools::CHeapPool<XM_Tools::LockOfWinWhileSleep>::tagHeapMemInfo>::GetNext, COMDAT
; _this$ = ecx

; 121  : 		inline CListBNode*		GetNext(void)				{return m_pNext;}

  00000	8b 41 08	 mov	 eax, DWORD PTR [ecx+8]
  00003	c3		 ret	 0
?GetNext@?$CListBNode@UtagHeapMemInfo@?$CHeapPool@VLockOfWinWhileSleep@XM_Tools@@@XM_Tools@@@XM_Tools@@QAEPAV12@XZ ENDP ; XM_Tools::CListBNode<XM_Tools::CHeapPool<XM_Tools::LockOfWinWhileSleep>::tagHeapMemInfo>::GetNext
_TEXT	ENDS
PUBLIC	?SetNext@?$CListBNode@UtagHeapMemInfo@?$CHeapPool@VLockOfWinWhileSleep@XM_Tools@@@XM_Tools@@@XM_Tools@@QAEXPAV12@@Z ; XM_Tools::CListBNode<XM_Tools::CHeapPool<XM_Tools::LockOfWinWhileSleep>::tagHeapMemInfo>::SetNext
; Function compile flags: /Ogtpy
;	COMDAT ?SetNext@?$CListBNode@UtagHeapMemInfo@?$CHeapPool@VLockOfWinWhileSleep@XM_Tools@@@XM_Tools@@@XM_Tools@@QAEXPAV12@@Z
_TEXT	SEGMENT
_pNext$ = 8						; size = 4
?SetNext@?$CListBNode@UtagHeapMemInfo@?$CHeapPool@VLockOfWinWhileSleep@XM_Tools@@@XM_Tools@@@XM_Tools@@QAEXPAV12@@Z PROC ; XM_Tools::CListBNode<XM_Tools::CHeapPool<XM_Tools::LockOfWinWhileSleep>::tagHeapMemInfo>::SetNext, COMDAT
; _this$ = ecx

; 122  : 		inline void				SetNext(CListBNode *pNext)	{m_pNext = pNext;}

  00000	8b 44 24 04	 mov	 eax, DWORD PTR _pNext$[esp-4]
  00004	89 41 08	 mov	 DWORD PTR [ecx+8], eax
  00007	c2 04 00	 ret	 4
?SetNext@?$CListBNode@UtagHeapMemInfo@?$CHeapPool@VLockOfWinWhileSleep@XM_Tools@@@XM_Tools@@@XM_Tools@@QAEXPAV12@@Z ENDP ; XM_Tools::CListBNode<XM_Tools::CHeapPool<XM_Tools::LockOfWinWhileSleep>::tagHeapMemInfo>::SetNext
_TEXT	ENDS
PUBLIC	??RHeapMemInfoLikeCompare@?$CHeapPool@VLockOfWinWhileSleep@XM_Tools@@@XM_Tools@@QBE_NABUtagHeapMemInfo@12@0@Z ; XM_Tools::CHeapPool<XM_Tools::LockOfWinWhileSleep>::HeapMemInfoLikeCompare::operator()
; Function compile flags: /Ogtpy
; File d:\project_p6\trunk\public\memmanage\include\heappool.h
;	COMDAT ??RHeapMemInfoLikeCompare@?$CHeapPool@VLockOfWinWhileSleep@XM_Tools@@@XM_Tools@@QBE_NABUtagHeapMemInfo@12@0@Z
_TEXT	SEGMENT
_Info1$ = 8						; size = 4
_Info2$ = 12						; size = 4
??RHeapMemInfoLikeCompare@?$CHeapPool@VLockOfWinWhileSleep@XM_Tools@@@XM_Tools@@QBE_NABUtagHeapMemInfo@12@0@Z PROC ; XM_Tools::CHeapPool<XM_Tools::LockOfWinWhileSleep>::HeapMemInfoLikeCompare::operator(), COMDAT
; _this$ = ecx

; 55   : 				if(Info1.uSize >= Info2.uSize && HEAP_MIN_GRANULARITY >= (Info1.uSize - Info2.uSize))

  00000	8b 44 24 04	 mov	 eax, DWORD PTR _Info1$[esp-4]
  00004	8b 4c 24 08	 mov	 ecx, DWORD PTR _Info2$[esp-4]
  00008	8b 00		 mov	 eax, DWORD PTR [eax]
  0000a	8b 09		 mov	 ecx, DWORD PTR [ecx]
  0000c	3b c1		 cmp	 eax, ecx
  0000e	72 0e		 jb	 SHORT $LN1@operator@12
  00010	2b c1		 sub	 eax, ecx
  00012	3d 00 10 00 00	 cmp	 eax, 4096		; 00001000H
  00017	77 05		 ja	 SHORT $LN1@operator@12

; 56   : 					return true;

  00019	b0 01		 mov	 al, 1

; 58   : 			}

  0001b	c2 08 00	 ret	 8
$LN1@operator@12:

; 57   : 				return false;

  0001e	32 c0		 xor	 al, al

; 58   : 			}

  00020	c2 08 00	 ret	 8
??RHeapMemInfoLikeCompare@?$CHeapPool@VLockOfWinWhileSleep@XM_Tools@@@XM_Tools@@QBE_NABUtagHeapMemInfo@12@0@Z ENDP ; XM_Tools::CHeapPool<XM_Tools::LockOfWinWhileSleep>::HeapMemInfoLikeCompare::operator()
_TEXT	ENDS
PUBLIC	??0?$CMemSerialBList@UtagHeapMemInfo@?$CHeapPool@VLockOfWinWhileSleep@XM_Tools@@@XM_Tools@@VLockOfWinWhileSleep@3@VHeapMemInfoLikeCompare@23@@XM_Tools@@QAE@XZ ; XM_Tools::CMemSerialBList<XM_Tools::CHeapPool<XM_Tools::LockOfWinWhileSleep>::tagHeapMemInfo,XM_Tools::LockOfWinWhileSleep,XM_Tools::CHeapPool<XM_Tools::LockOfWinWhileSleep>::HeapMemInfoLikeCompare>::CMemSerialBList<XM_Tools::CHeapPool<XM_Tools::LockOfWinWhileSleep>::tagHeapMemInfo,XM_Tools::LockOfWinWhileSleep,XM_Tools::CHeapPool<XM_Tools::LockOfWinWhileSleep>::HeapMemInfoLikeCompare>
; Function compile flags: /Ogtpy
; File d:\project_p6\trunk\public\memmanage\cpp\memlist.tcc
;	COMDAT ??0?$CMemSerialBList@UtagHeapMemInfo@?$CHeapPool@VLockOfWinWhileSleep@XM_Tools@@@XM_Tools@@VLockOfWinWhileSleep@3@VHeapMemInfoLikeCompare@23@@XM_Tools@@QAE@XZ
_TEXT	SEGMENT
??0?$CMemSerialBList@UtagHeapMemInfo@?$CHeapPool@VLockOfWinWhileSleep@XM_Tools@@@XM_Tools@@VLockOfWinWhileSleep@3@VHeapMemInfoLikeCompare@23@@XM_Tools@@QAE@XZ PROC ; XM_Tools::CMemSerialBList<XM_Tools::CHeapPool<XM_Tools::LockOfWinWhileSleep>::tagHeapMemInfo,XM_Tools::LockOfWinWhileSleep,XM_Tools::CHeapPool<XM_Tools::LockOfWinWhileSleep>::HeapMemInfoLikeCompare>::CMemSerialBList<XM_Tools::CHeapPool<XM_Tools::LockOfWinWhileSleep>::tagHeapMemInfo,XM_Tools::LockOfWinWhileSleep,XM_Tools::CHeapPool<XM_Tools::LockOfWinWhileSleep>::HeapMemInfoLikeCompare>, COMDAT
; _this$ = ecx

; 87   : 	{

  00000	8b c1		 mov	 eax, ecx
  00002	33 c9		 xor	 ecx, ecx
  00004	89 48 04	 mov	 DWORD PTR [eax+4], ecx
  00007	89 48 28	 mov	 DWORD PTR [eax+40], ecx
  0000a	89 48 2c	 mov	 DWORD PTR [eax+44], ecx

; 88   : 		m_pHead = NULL;

  0000d	89 08		 mov	 DWORD PTR [eax], ecx

; 89   : 		m_uNum = 0;

  0000f	89 48 48	 mov	 DWORD PTR [eax+72], ecx

; 90   : 	}

  00012	c3		 ret	 0
??0?$CMemSerialBList@UtagHeapMemInfo@?$CHeapPool@VLockOfWinWhileSleep@XM_Tools@@@XM_Tools@@VLockOfWinWhileSleep@3@VHeapMemInfoLikeCompare@23@@XM_Tools@@QAE@XZ ENDP ; XM_Tools::CMemSerialBList<XM_Tools::CHeapPool<XM_Tools::LockOfWinWhileSleep>::tagHeapMemInfo,XM_Tools::LockOfWinWhileSleep,XM_Tools::CHeapPool<XM_Tools::LockOfWinWhileSleep>::HeapMemInfoLikeCompare>::CMemSerialBList<XM_Tools::CHeapPool<XM_Tools::LockOfWinWhileSleep>::tagHeapMemInfo,XM_Tools::LockOfWinWhileSleep,XM_Tools::CHeapPool<XM_Tools::LockOfWinWhileSleep>::HeapMemInfoLikeCompare>
_TEXT	ENDS
PUBLIC	??1?$CMemSerialBList@UtagHeapMemInfo@?$CHeapPool@VLockOfWinWhileSleep@XM_Tools@@@XM_Tools@@VLockOfWinWhileSleep@3@VHeapMemInfoLikeCompare@23@@XM_Tools@@QAE@XZ ; XM_Tools::CMemSerialBList<XM_Tools::CHeapPool<XM_Tools::LockOfWinWhileSleep>::tagHeapMemInfo,XM_Tools::LockOfWinWhileSleep,XM_Tools::CHeapPool<XM_Tools::LockOfWinWhileSleep>::HeapMemInfoLikeCompare>::~CMemSerialBList<XM_Tools::CHeapPool<XM_Tools::LockOfWinWhileSleep>::tagHeapMemInfo,XM_Tools::LockOfWinWhileSleep,XM_Tools::CHeapPool<XM_Tools::LockOfWinWhileSleep>::HeapMemInfoLikeCompare>
; Function compile flags: /Ogtpy
;	COMDAT ??1?$CMemSerialBList@UtagHeapMemInfo@?$CHeapPool@VLockOfWinWhileSleep@XM_Tools@@@XM_Tools@@VLockOfWinWhileSleep@3@VHeapMemInfoLikeCompare@23@@XM_Tools@@QAE@XZ
_TEXT	SEGMENT
??1?$CMemSerialBList@UtagHeapMemInfo@?$CHeapPool@VLockOfWinWhileSleep@XM_Tools@@@XM_Tools@@VLockOfWinWhileSleep@3@VHeapMemInfoLikeCompare@23@@XM_Tools@@QAE@XZ PROC ; XM_Tools::CMemSerialBList<XM_Tools::CHeapPool<XM_Tools::LockOfWinWhileSleep>::tagHeapMemInfo,XM_Tools::LockOfWinWhileSleep,XM_Tools::CHeapPool<XM_Tools::LockOfWinWhileSleep>::HeapMemInfoLikeCompare>::~CMemSerialBList<XM_Tools::CHeapPool<XM_Tools::LockOfWinWhileSleep>::tagHeapMemInfo,XM_Tools::LockOfWinWhileSleep,XM_Tools::CHeapPool<XM_Tools::LockOfWinWhileSleep>::HeapMemInfoLikeCompare>, COMDAT
; _this$ = ecx

; 95   : 
; 96   : 	}

  00000	c3		 ret	 0
??1?$CMemSerialBList@UtagHeapMemInfo@?$CHeapPool@VLockOfWinWhileSleep@XM_Tools@@@XM_Tools@@VLockOfWinWhileSleep@3@VHeapMemInfoLikeCompare@23@@XM_Tools@@QAE@XZ ENDP ; XM_Tools::CMemSerialBList<XM_Tools::CHeapPool<XM_Tools::LockOfWinWhileSleep>::tagHeapMemInfo,XM_Tools::LockOfWinWhileSleep,XM_Tools::CHeapPool<XM_Tools::LockOfWinWhileSleep>::HeapMemInfoLikeCompare>::~CMemSerialBList<XM_Tools::CHeapPool<XM_Tools::LockOfWinWhileSleep>::tagHeapMemInfo,XM_Tools::LockOfWinWhileSleep,XM_Tools::CHeapPool<XM_Tools::LockOfWinWhileSleep>::HeapMemInfoLikeCompare>
_TEXT	ENDS
PUBLIC	??0?$CMemList@XVLockOfWinWhileSleep@XM_Tools@@@XM_Tools@@QAE@XZ ; XM_Tools::CMemList<void,XM_Tools::LockOfWinWhileSleep>::CMemList<void,XM_Tools::LockOfWinWhileSleep>
; Function compile flags: /Ogtpy
;	COMDAT ??0?$CMemList@XVLockOfWinWhileSleep@XM_Tools@@@XM_Tools@@QAE@XZ
_TEXT	SEGMENT
??0?$CMemList@XVLockOfWinWhileSleep@XM_Tools@@@XM_Tools@@QAE@XZ PROC ; XM_Tools::CMemList<void,XM_Tools::LockOfWinWhileSleep>::CMemList<void,XM_Tools::LockOfWinWhileSleep>, COMDAT
; _this$ = ecx

; 21   : 	{

  00000	8b c1		 mov	 eax, ecx
  00002	33 c9		 xor	 ecx, ecx
  00004	89 08		 mov	 DWORD PTR [eax], ecx
  00006	89 48 24	 mov	 DWORD PTR [eax+36], ecx
  00009	89 48 28	 mov	 DWORD PTR [eax+40], ecx
  0000c	89 48 44	 mov	 DWORD PTR [eax+68], ecx

; 22   : 
; 23   : 	}

  0000f	c3		 ret	 0
??0?$CMemList@XVLockOfWinWhileSleep@XM_Tools@@@XM_Tools@@QAE@XZ ENDP ; XM_Tools::CMemList<void,XM_Tools::LockOfWinWhileSleep>::CMemList<void,XM_Tools::LockOfWinWhileSleep>
_TEXT	ENDS
PUBLIC	??1?$CMemList@XVLockOfWinWhileSleep@XM_Tools@@@XM_Tools@@QAE@XZ ; XM_Tools::CMemList<void,XM_Tools::LockOfWinWhileSleep>::~CMemList<void,XM_Tools::LockOfWinWhileSleep>
; Function compile flags: /Ogtpy
;	COMDAT ??1?$CMemList@XVLockOfWinWhileSleep@XM_Tools@@@XM_Tools@@QAE@XZ
_TEXT	SEGMENT
??1?$CMemList@XVLockOfWinWhileSleep@XM_Tools@@@XM_Tools@@QAE@XZ PROC ; XM_Tools::CMemList<void,XM_Tools::LockOfWinWhileSleep>::~CMemList<void,XM_Tools::LockOfWinWhileSleep>, COMDAT
; _this$ = ecx

; 28   : 		m_pHead = NULL;

  00000	c7 01 00 00 00
	00		 mov	 DWORD PTR [ecx], 0

; 29   : 		m_uNum = 0;

  00006	c7 41 44 00 00
	00 00		 mov	 DWORD PTR [ecx+68], 0

; 30   : 	}

  0000d	c3		 ret	 0
??1?$CMemList@XVLockOfWinWhileSleep@XM_Tools@@@XM_Tools@@QAE@XZ ENDP ; XM_Tools::CMemList<void,XM_Tools::LockOfWinWhileSleep>::~CMemList<void,XM_Tools::LockOfWinWhileSleep>
_TEXT	ENDS
PUBLIC	?PushNode@?$CMemList@XVLockOfWinWhileSleep@XM_Tools@@@XM_Tools@@QAEXPAV?$CListNode@X@2@@Z ; XM_Tools::CMemList<void,XM_Tools::LockOfWinWhileSleep>::PushNode
; Function compile flags: /Ogtpy
;	COMDAT ?PushNode@?$CMemList@XVLockOfWinWhileSleep@XM_Tools@@@XM_Tools@@QAEXPAV?$CListNode@X@2@@Z
_TEXT	SEGMENT
_pNode$ = 8						; size = 4
?PushNode@?$CMemList@XVLockOfWinWhileSleep@XM_Tools@@@XM_Tools@@QAEXPAV?$CListNode@X@2@@Z PROC ; XM_Tools::CMemList<void,XM_Tools::LockOfWinWhileSleep>::PushNode, COMDAT
; _this$ = ecx

; 35   : 	{

  00000	56		 push	 esi
  00001	8b f1		 mov	 esi, ecx

; 36   : 		m_Lock.Lock();

  00003	8d 4e 04	 lea	 ecx, DWORD PTR [esi+4]
  00006	e8 00 00 00 00	 call	 ?Lock@LockOfWinWhileSleep@XM_Tools@@QAEXXZ ; XM_Tools::LockOfWinWhileSleep::Lock

; 37   : 		{
; 38   : 			pNode->SetNext(m_pHead);

  0000b	8b 0e		 mov	 ecx, DWORD PTR [esi]
  0000d	8b 44 24 08	 mov	 eax, DWORD PTR _pNode$[esp]
  00011	89 08		 mov	 DWORD PTR [eax], ecx

; 39   : 			m_pHead = pNode;
; 40   : 			++m_uNum;

  00013	83 46 44 01	 add	 DWORD PTR [esi+68], 1

; 41   : 		}
; 42   : 		m_Lock.UnLock();

  00017	6a 01		 push	 1
  00019	89 06		 mov	 DWORD PTR [esi], eax
  0001b	6a 00		 push	 0
  0001d	83 c6 24	 add	 esi, 36			; 00000024H
  00020	56		 push	 esi
  00021	ff 15 00 00 00
	00		 call	 DWORD PTR __imp__InterlockedCompareExchange@12
  00027	5e		 pop	 esi

; 43   : 	}

  00028	c2 04 00	 ret	 4
?PushNode@?$CMemList@XVLockOfWinWhileSleep@XM_Tools@@@XM_Tools@@QAEXPAV?$CListNode@X@2@@Z ENDP ; XM_Tools::CMemList<void,XM_Tools::LockOfWinWhileSleep>::PushNode
_TEXT	ENDS
PUBLIC	??0?$CMemList@EVLockOfWinWhileSleep@XM_Tools@@@XM_Tools@@QAE@XZ ; XM_Tools::CMemList<unsigned char,XM_Tools::LockOfWinWhileSleep>::CMemList<unsigned char,XM_Tools::LockOfWinWhileSleep>
; Function compile flags: /Ogtpy
;	COMDAT ??0?$CMemList@EVLockOfWinWhileSleep@XM_Tools@@@XM_Tools@@QAE@XZ
_TEXT	SEGMENT
??0?$CMemList@EVLockOfWinWhileSleep@XM_Tools@@@XM_Tools@@QAE@XZ PROC ; XM_Tools::CMemList<unsigned char,XM_Tools::LockOfWinWhileSleep>::CMemList<unsigned char,XM_Tools::LockOfWinWhileSleep>, COMDAT
; _this$ = ecx

; 21   : 	{

  00000	8b c1		 mov	 eax, ecx
  00002	33 c9		 xor	 ecx, ecx
  00004	89 08		 mov	 DWORD PTR [eax], ecx
  00006	89 48 24	 mov	 DWORD PTR [eax+36], ecx
  00009	89 48 28	 mov	 DWORD PTR [eax+40], ecx
  0000c	89 48 44	 mov	 DWORD PTR [eax+68], ecx

; 22   : 
; 23   : 	}

  0000f	c3		 ret	 0
??0?$CMemList@EVLockOfWinWhileSleep@XM_Tools@@@XM_Tools@@QAE@XZ ENDP ; XM_Tools::CMemList<unsigned char,XM_Tools::LockOfWinWhileSleep>::CMemList<unsigned char,XM_Tools::LockOfWinWhileSleep>
_TEXT	ENDS
PUBLIC	??1?$CMemList@EVLockOfWinWhileSleep@XM_Tools@@@XM_Tools@@QAE@XZ ; XM_Tools::CMemList<unsigned char,XM_Tools::LockOfWinWhileSleep>::~CMemList<unsigned char,XM_Tools::LockOfWinWhileSleep>
; Function compile flags: /Ogtpy
;	COMDAT ??1?$CMemList@EVLockOfWinWhileSleep@XM_Tools@@@XM_Tools@@QAE@XZ
_TEXT	SEGMENT
??1?$CMemList@EVLockOfWinWhileSleep@XM_Tools@@@XM_Tools@@QAE@XZ PROC ; XM_Tools::CMemList<unsigned char,XM_Tools::LockOfWinWhileSleep>::~CMemList<unsigned char,XM_Tools::LockOfWinWhileSleep>, COMDAT
; _this$ = ecx

; 28   : 		m_pHead = NULL;

  00000	c7 01 00 00 00
	00		 mov	 DWORD PTR [ecx], 0

; 29   : 		m_uNum = 0;

  00006	c7 41 44 00 00
	00 00		 mov	 DWORD PTR [ecx+68], 0

; 30   : 	}

  0000d	c3		 ret	 0
??1?$CMemList@EVLockOfWinWhileSleep@XM_Tools@@@XM_Tools@@QAE@XZ ENDP ; XM_Tools::CMemList<unsigned char,XM_Tools::LockOfWinWhileSleep>::~CMemList<unsigned char,XM_Tools::LockOfWinWhileSleep>
_TEXT	ENDS
PUBLIC	?PopNode@?$CMemList@XVLockOfWinWhileSleep@XM_Tools@@@XM_Tools@@QAEPAV?$CListNode@X@2@XZ ; XM_Tools::CMemList<void,XM_Tools::LockOfWinWhileSleep>::PopNode
; Function compile flags: /Ogtpy
;	COMDAT ?PopNode@?$CMemList@XVLockOfWinWhileSleep@XM_Tools@@@XM_Tools@@QAEPAV?$CListNode@X@2@XZ
_TEXT	SEGMENT
?PopNode@?$CMemList@XVLockOfWinWhileSleep@XM_Tools@@@XM_Tools@@QAEPAV?$CListNode@X@2@XZ PROC ; XM_Tools::CMemList<void,XM_Tools::LockOfWinWhileSleep>::PopNode, COMDAT
; _this$ = ecx

; 48   : 	{

  00000	56		 push	 esi
  00001	8b f1		 mov	 esi, ecx
  00003	57		 push	 edi

; 49   : 		CListNode<_TNodeInfo>* pRe = NULL;
; 50   : 		m_Lock.Lock();

  00004	8d 4e 04	 lea	 ecx, DWORD PTR [esi+4]
  00007	e8 00 00 00 00	 call	 ?Lock@LockOfWinWhileSleep@XM_Tools@@QAEXXZ ; XM_Tools::LockOfWinWhileSleep::Lock

; 51   : 		{
; 52   : 			pRe = m_pHead;

  0000c	8b 3e		 mov	 edi, DWORD PTR [esi]

; 53   : 			if(NULL != m_pHead)

  0000e	85 ff		 test	 edi, edi
  00010	74 08		 je	 SHORT $LN1@PopNode

; 54   : 			{
; 55   : 				m_pHead = m_pHead->GetNext();

  00012	8b 07		 mov	 eax, DWORD PTR [edi]

; 56   : 				--m_uNum;

  00014	83 46 44 ff	 add	 DWORD PTR [esi+68], -1
  00018	89 06		 mov	 DWORD PTR [esi], eax
$LN1@PopNode:

; 57   : 			}
; 58   : 		}
; 59   : 		m_Lock.UnLock();

  0001a	6a 01		 push	 1
  0001c	6a 00		 push	 0
  0001e	83 c6 24	 add	 esi, 36			; 00000024H
  00021	56		 push	 esi
  00022	ff 15 00 00 00
	00		 call	 DWORD PTR __imp__InterlockedCompareExchange@12

; 60   : 		return pRe;

  00028	8b c7		 mov	 eax, edi
  0002a	5f		 pop	 edi
  0002b	5e		 pop	 esi

; 61   : 	}

  0002c	c3		 ret	 0
?PopNode@?$CMemList@XVLockOfWinWhileSleep@XM_Tools@@@XM_Tools@@QAEPAV?$CListNode@X@2@XZ ENDP ; XM_Tools::CMemList<void,XM_Tools::LockOfWinWhileSleep>::PopNode
_TEXT	ENDS
PUBLIC	?SetExID@CBaseObject@@QAEXABVCGUID@@@Z		; CBaseObject::SetExID
; Function compile flags: /Ogtpy
; File d:\project_p6\trunk\server\gameserver\app\baseobject.h
;	COMDAT ?SetExID@CBaseObject@@QAEXABVCGUID@@@Z
_TEXT	SEGMENT
_guid$ = 8						; size = 4
?SetExID@CBaseObject@@QAEXABVCGUID@@@Z PROC		; CBaseObject::SetExID, COMDAT
; _this$ = ecx

; 71   : 	void			SetExID(const CGUID& guid)			{m_guid = guid;						};

  00000	8d 41 08	 lea	 eax, DWORD PTR [ecx+8]
  00003	8b 4c 24 04	 mov	 ecx, DWORD PTR _guid$[esp-4]
  00007	3b c8		 cmp	 ecx, eax
  00009	74 12		 je	 SHORT $LN3@SetExID
  0000b	f3 0f 7e 01	 movq	 xmm0, QWORD PTR [ecx]
  0000f	66 0f d6 00	 movq	 QWORD PTR [eax], xmm0
  00013	f3 0f 7e 41 08	 movq	 xmm0, QWORD PTR [ecx+8]
  00018	66 0f d6 40 08	 movq	 QWORD PTR [eax+8], xmm0
$LN3@SetExID:
  0001d	c2 04 00	 ret	 4
?SetExID@CBaseObject@@QAEXABVCGUID@@@Z ENDP		; CBaseObject::SetExID
_TEXT	ENDS
PUBLIC	??0?$_String_val@DV?$allocator@D@std@@@std@@IAE@V?$allocator@D@1@@Z ; std::_String_val<char,std::allocator<char> >::_String_val<char,std::allocator<char> >
; Function compile flags: /Ogtpy
; File d:\program files\microsoft visual studio 8\vc\include\xstring
;	COMDAT ??0?$_String_val@DV?$allocator@D@std@@@std@@IAE@V?$allocator@D@1@@Z
_TEXT	SEGMENT
__Al$ = 8						; size = 1
??0?$_String_val@DV?$allocator@D@std@@@std@@IAE@V?$allocator@D@1@@Z PROC ; std::_String_val<char,std::allocator<char> >::_String_val<char,std::allocator<char> >, COMDAT
; _this$ = ecx

; 471  : 		{	// construct allocator from _Al

  00000	8b c1		 mov	 eax, ecx

; 472  : 		}

  00002	c2 04 00	 ret	 4
??0?$_String_val@DV?$allocator@D@std@@@std@@IAE@V?$allocator@D@1@@Z ENDP ; std::_String_val<char,std::allocator<char> >::_String_val<char,std::allocator<char> >
_TEXT	ENDS
PUBLIC	??0?$_String_val@DV?$allocator@D@std@@@std@@QAE@ABV01@@Z ; std::_String_val<char,std::allocator<char> >::_String_val<char,std::allocator<char> >
; Function compile flags: /Ogtpy
;	COMDAT ??0?$_String_val@DV?$allocator@D@std@@@std@@QAE@ABV01@@Z
_TEXT	SEGMENT
__Right$ = 8						; size = 4
??0?$_String_val@DV?$allocator@D@std@@@std@@QAE@ABV01@@Z PROC ; std::_String_val<char,std::allocator<char> >::_String_val<char,std::allocator<char> >, COMDAT
; _this$ = ecx

; 477  : 		{	// copy constructor

  00000	8b c1		 mov	 eax, ecx

; 478  : #if defined(_DEBUG)
; 479  : 		if (_Right._Myfirstiter == _IGNORE_MYITERLIST)
; 480  : 			{
; 481  : 			this->_Myfirstiter = _IGNORE_MYITERLIST;
; 482  : 			}
; 483  : #endif
; 484  : 		}

  00002	c2 04 00	 ret	 4
??0?$_String_val@DV?$allocator@D@std@@@std@@QAE@ABV01@@Z ENDP ; std::_String_val<char,std::allocator<char> >::_String_val<char,std::allocator<char> >
_TEXT	ENDS
PUBLIC	?allocate@?$allocator@D@std@@QAEPADI@Z		; std::allocator<char>::allocate
; Function compile flags: /Ogtpy
; File d:\program files\microsoft visual studio 8\vc\include\xmemory
;	COMDAT ?allocate@?$allocator@D@std@@QAEPADI@Z
_TEXT	SEGMENT
__Count$ = 8						; size = 4
?allocate@?$allocator@D@std@@QAEPADI@Z PROC		; std::allocator<char>::allocate, COMDAT
; _this$ = ecx

; 146  : 		return (_Allocate(_Count, (pointer)0));

  00000	8b 44 24 04	 mov	 eax, DWORD PTR __Count$[esp-4]
  00004	6a 00		 push	 0
  00006	50		 push	 eax
  00007	e8 00 00 00 00	 call	 ??$_Allocate@D@std@@YAPADIPAD@Z ; std::_Allocate<char>
  0000c	83 c4 08	 add	 esp, 8

; 147  : 		}

  0000f	c2 04 00	 ret	 4
?allocate@?$allocator@D@std@@QAEPADI@Z ENDP		; std::allocator<char>::allocate
_TEXT	ENDS
PUBLIC	?_Eos@?$basic_string@DU?$char_traits@D@std@@V?$allocator@D@2@@std@@IAEXI@Z ; std::basic_string<char,std::char_traits<char>,std::allocator<char> >::_Eos
; Function compile flags: /Ogtpy
; File d:\program files\microsoft visual studio 8\vc\include\xstring
;	COMDAT ?_Eos@?$basic_string@DU?$char_traits@D@std@@V?$allocator@D@2@@std@@IAEXI@Z
_TEXT	SEGMENT
__Newsize$ = 8						; size = 4
?_Eos@?$basic_string@DU?$char_traits@D@std@@V?$allocator@D@2@@std@@IAEXI@Z PROC ; std::basic_string<char,std::char_traits<char>,std::allocator<char> >::_Eos, COMDAT
; _this$ = ecx

; 2031 : 		_Traits::assign(_Myptr()[_Mysize = _Newsize], _Elem());

  00000	83 79 18 10	 cmp	 DWORD PTR [ecx+24], 16	; 00000010H
  00004	8b 44 24 04	 mov	 eax, DWORD PTR __Newsize$[esp-4]
  00008	89 41 14	 mov	 DWORD PTR [ecx+20], eax
  0000b	72 0a		 jb	 SHORT $LN5@Eos
  0000d	8b 49 04	 mov	 ecx, DWORD PTR [ecx+4]
  00010	c6 04 01 00	 mov	 BYTE PTR [ecx+eax], 0

; 2032 : 		}

  00014	c2 04 00	 ret	 4

; 2031 : 		_Traits::assign(_Myptr()[_Mysize = _Newsize], _Elem());

$LN5@Eos:
  00017	c6 44 01 04 00	 mov	 BYTE PTR [ecx+eax+4], 0

; 2032 : 		}

  0001c	c2 04 00	 ret	 4
?_Eos@?$basic_string@DU?$char_traits@D@std@@V?$allocator@D@2@@std@@IAEXI@Z ENDP ; std::basic_string<char,std::char_traits<char>,std::allocator<char> >::_Eos
_TEXT	ENDS
PUBLIC	?_Inside@?$basic_string@DU?$char_traits@D@std@@V?$allocator@D@2@@std@@IAE_NPBD@Z ; std::basic_string<char,std::char_traits<char>,std::allocator<char> >::_Inside
; Function compile flags: /Ogtpy
;	COMDAT ?_Inside@?$basic_string@DU?$char_traits@D@std@@V?$allocator@D@2@@std@@IAE_NPBD@Z
_TEXT	SEGMENT
__Ptr$ = 8						; size = 4
?_Inside@?$basic_string@DU?$char_traits@D@std@@V?$allocator@D@2@@std@@IAE_NPBD@Z PROC ; std::basic_string<char,std::char_traits<char>,std::allocator<char> >::_Inside, COMDAT
; _this$ = ecx

; 2050 : 		{	// test if _Ptr points inside string

  00000	56		 push	 esi

; 2051 : 		_DEBUG_POINTER(_Ptr);
; 2052 : 		if (_Ptr < _Myptr() || _Myptr() + _Mysize <= _Ptr)

  00001	8b 71 18	 mov	 esi, DWORD PTR [ecx+24]
  00004	83 fe 10	 cmp	 esi, 16			; 00000010H
  00007	57		 push	 edi
  00008	8d 41 04	 lea	 eax, DWORD PTR [ecx+4]
  0000b	72 04		 jb	 SHORT $LN8@Inside
  0000d	8b 10		 mov	 edx, DWORD PTR [eax]
  0000f	eb 02		 jmp	 SHORT $LN9@Inside
$LN8@Inside:
  00011	8b d0		 mov	 edx, eax
$LN9@Inside:
  00013	8b 7c 24 0c	 mov	 edi, DWORD PTR __Ptr$[esp+4]
  00017	3b fa		 cmp	 edi, edx
  00019	72 17		 jb	 SHORT $LN2@Inside
  0001b	83 fe 10	 cmp	 esi, 16			; 00000010H
  0001e	72 02		 jb	 SHORT $LN12@Inside
  00020	8b 00		 mov	 eax, DWORD PTR [eax]
$LN12@Inside:
  00022	8b 49 14	 mov	 ecx, DWORD PTR [ecx+20]
  00025	03 c8		 add	 ecx, eax
  00027	3b cf		 cmp	 ecx, edi
  00029	76 07		 jbe	 SHORT $LN2@Inside
  0002b	5f		 pop	 edi

; 2054 : 		else
; 2055 : 			return (true);

  0002c	b0 01		 mov	 al, 1
  0002e	5e		 pop	 esi

; 2056 : 		}

  0002f	c2 04 00	 ret	 4
$LN2@Inside:
  00032	5f		 pop	 edi

; 2053 : 			return (false);	// don't ask

  00033	32 c0		 xor	 al, al
  00035	5e		 pop	 esi

; 2056 : 		}

  00036	c2 04 00	 ret	 4
?_Inside@?$basic_string@DU?$char_traits@D@std@@V?$allocator@D@2@@std@@IAE_NPBD@Z ENDP ; std::basic_string<char,std::char_traits<char>,std::allocator<char> >::_Inside
_TEXT	ENDS
PUBLIC	?max_size@?$basic_string@DU?$char_traits@D@std@@V?$allocator@D@2@@std@@QBEIXZ ; std::basic_string<char,std::char_traits<char>,std::allocator<char> >::max_size
; Function compile flags: /Ogtpy
;	COMDAT ?max_size@?$basic_string@DU?$char_traits@D@std@@V?$allocator@D@2@@std@@QBEIXZ
_TEXT	SEGMENT
?max_size@?$basic_string@DU?$char_traits@D@std@@V?$allocator@D@2@@std@@QBEIXZ PROC ; std::basic_string<char,std::char_traits<char>,std::allocator<char> >::max_size, COMDAT
; _this$ = ecx

; 1642 : 		size_type _Num = _Mybase::_Alval.max_size();
; 1643 : 		return (_Num <= 1 ? 1 : _Num - 1);

  00000	b8 fe ff ff ff	 mov	 eax, -2			; fffffffeH

; 1644 : 		}

  00005	c3		 ret	 0
?max_size@?$basic_string@DU?$char_traits@D@std@@V?$allocator@D@2@@std@@QBEIXZ ENDP ; std::basic_string<char,std::char_traits<char>,std::allocator<char> >::max_size
_TEXT	ENDS
PUBLIC	??$copy_s@U?$char_traits@D@std@@@_Traits_helper@std@@YAPADPADIPBDI@Z ; std::_Traits_helper::copy_s<std::char_traits<char> >
; Function compile flags: /Ogtpy
; File d:\program files\microsoft visual studio 8\vc\include\iosfwd
;	COMDAT ??$copy_s@U?$char_traits@D@std@@@_Traits_helper@std@@YAPADPADIPBDI@Z
_TEXT	SEGMENT
__First1$ = 8						; size = 4
__Size$ = 12						; size = 4
__First2$ = 16						; size = 4
__Count$ = 20						; size = 4
??$copy_s@U?$char_traits@D@std@@@_Traits_helper@std@@YAPADPADIPBDI@Z PROC ; std::_Traits_helper::copy_s<std::char_traits<char> >, COMDAT

; 582  : 		return copy_s<_Traits>(_First1, _Size, _First2, _Count, _Char_traits_cat<_Traits>());

  00000	8b 44 24 10	 mov	 eax, DWORD PTR __Count$[esp-4]
  00004	8b 4c 24 0c	 mov	 ecx, DWORD PTR __First2$[esp-4]
  00008	8b 54 24 08	 mov	 edx, DWORD PTR __Size$[esp-4]
  0000c	56		 push	 esi
  0000d	8b 74 24 08	 mov	 esi, DWORD PTR __First1$[esp]
  00011	50		 push	 eax
  00012	51		 push	 ecx
  00013	52		 push	 edx
  00014	56		 push	 esi
  00015	e8 00 00 00 00	 call	 _memcpy_s
  0001a	83 c4 10	 add	 esp, 16			; 00000010H
  0001d	8b c6		 mov	 eax, esi
  0001f	5e		 pop	 esi

; 583  : 	}

  00020	c3		 ret	 0
??$copy_s@U?$char_traits@D@std@@@_Traits_helper@std@@YAPADPADIPBDI@Z ENDP ; std::_Traits_helper::copy_s<std::char_traits<char> >
_TEXT	ENDS
PUBLIC	??$move_s@U?$char_traits@D@std@@@_Traits_helper@std@@YAPADPADIPBDI@Z ; std::_Traits_helper::move_s<std::char_traits<char> >
; Function compile flags: /Ogtpy
;	COMDAT ??$move_s@U?$char_traits@D@std@@@_Traits_helper@std@@YAPADPADIPBDI@Z
_TEXT	SEGMENT
__First1$ = 8						; size = 4
__Size$ = 12						; size = 4
__First2$ = 16						; size = 4
__Count$ = 20						; size = 4
??$move_s@U?$char_traits@D@std@@@_Traits_helper@std@@YAPADPADIPBDI@Z PROC ; std::_Traits_helper::move_s<std::char_traits<char> >, COMDAT

; 609  : 		return move_s<_Traits>(_First1, _Size, _First2, _Count, _Char_traits_cat<_Traits>());

  00000	8b 44 24 10	 mov	 eax, DWORD PTR __Count$[esp-4]
  00004	8b 4c 24 0c	 mov	 ecx, DWORD PTR __First2$[esp-4]
  00008	8b 54 24 08	 mov	 edx, DWORD PTR __Size$[esp-4]
  0000c	56		 push	 esi
  0000d	8b 74 24 08	 mov	 esi, DWORD PTR __First1$[esp]
  00011	50		 push	 eax
  00012	51		 push	 ecx
  00013	52		 push	 edx
  00014	56		 push	 esi
  00015	e8 00 00 00 00	 call	 _memmove_s
  0001a	83 c4 10	 add	 esp, 16			; 00000010H
  0001d	8b c6		 mov	 eax, esi
  0001f	5e		 pop	 esi

; 610  : 	}

  00020	c3		 ret	 0
??$move_s@U?$char_traits@D@std@@@_Traits_helper@std@@YAPADPADIPBDI@Z ENDP ; std::_Traits_helper::move_s<std::char_traits<char> >
_TEXT	ENDS
PUBLIC	?size@?$_Hash@V?$_Hmap_traits@VCGUID@@PAVCBaseObject@@Vhash_guid_compare@@V?$allocator@U?$pair@$$CBVCGUID@@PAVCBaseObject@@@std@@@std@@$0A@@stdext@@@stdext@@QBEIXZ ; stdext::_Hash<stdext::_Hmap_traits<CGUID,CBaseObject *,hash_guid_compare,std::allocator<std::pair<CGUID const ,CBaseObject *> >,0> >::size
; Function compile flags: /Ogtpy
; File d:\program files\microsoft visual studio 8\vc\include\xhash
;	COMDAT ?size@?$_Hash@V?$_Hmap_traits@VCGUID@@PAVCBaseObject@@Vhash_guid_compare@@V?$allocator@U?$pair@$$CBVCGUID@@PAVCBaseObject@@@std@@@std@@$0A@@stdext@@@stdext@@QBEIXZ
_TEXT	SEGMENT
?size@?$_Hash@V?$_Hmap_traits@VCGUID@@PAVCBaseObject@@Vhash_guid_compare@@V?$allocator@U?$pair@$$CBVCGUID@@PAVCBaseObject@@@std@@@std@@$0A@@stdext@@@stdext@@QBEIXZ PROC ; stdext::_Hash<stdext::_Hmap_traits<CGUID,CBaseObject *,hash_guid_compare,std::allocator<std::pair<CGUID const ,CBaseObject *> >,0> >::size, COMDAT
; _this$ = ecx

; 345  : 		return (_List.size());

  00000	8b 41 0c	 mov	 eax, DWORD PTR [ecx+12]

; 346  : 		}

  00003	c3		 ret	 0
?size@?$_Hash@V?$_Hmap_traits@VCGUID@@PAVCBaseObject@@Vhash_guid_compare@@V?$allocator@U?$pair@$$CBVCGUID@@PAVCBaseObject@@@std@@@std@@$0A@@stdext@@@stdext@@QBEIXZ ENDP ; stdext::_Hash<stdext::_Hmap_traits<CGUID,CBaseObject *,hash_guid_compare,std::allocator<std::pair<CGUID const ,CBaseObject *> >,0> >::size
_TEXT	ENDS
PUBLIC	??E?$_Iterator@$00@?$list@U?$pair@$$CBVCGUID@@PAVCBaseObject@@@std@@V?$allocator@U?$pair@$$CBVCGUID@@PAVCBaseObject@@@std@@@2@@std@@QAEAAV012@XZ ; std::list<std::pair<CGUID const ,CBaseObject *>,std::allocator<std::pair<CGUID const ,CBaseObject *> > >::_Iterator<1>::operator++
; Function compile flags: /Ogtpy
; File d:\program files\microsoft visual studio 8\vc\include\list
;	COMDAT ??E?$_Iterator@$00@?$list@U?$pair@$$CBVCGUID@@PAVCBaseObject@@@std@@V?$allocator@U?$pair@$$CBVCGUID@@PAVCBaseObject@@@std@@@2@@std@@QAEAAV012@XZ
_TEXT	SEGMENT
??E?$_Iterator@$00@?$list@U?$pair@$$CBVCGUID@@PAVCBaseObject@@@std@@V?$allocator@U?$pair@$$CBVCGUID@@PAVCBaseObject@@@std@@@2@@std@@QAEAAV012@XZ PROC ; std::list<std::pair<CGUID const ,CBaseObject *>,std::allocator<std::pair<CGUID const ,CBaseObject *> > >::_Iterator<1>::operator++, COMDAT
; _this$ = ecx

; 397  : 			{	// preincrement

  00000	56		 push	 esi
  00001	8b f1		 mov	 esi, ecx

; 398  : 			++(*(_Mybase_iter *)this);

  00003	83 3e 00	 cmp	 DWORD PTR [esi], 0
  00006	75 05		 jne	 SHORT $LN5@operator@13
  00008	e8 00 00 00 00	 call	 __invalid_parameter_noinfo
$LN5@operator@13:
  0000d	8b 06		 mov	 eax, DWORD PTR [esi]
  0000f	8b 4e 04	 mov	 ecx, DWORD PTR [esi+4]
  00012	3b 48 04	 cmp	 ecx, DWORD PTR [eax+4]
  00015	75 05		 jne	 SHORT $LN3@operator@13
  00017	e8 00 00 00 00	 call	 __invalid_parameter_noinfo
$LN3@operator@13:
  0001c	8b 56 04	 mov	 edx, DWORD PTR [esi+4]
  0001f	8b 02		 mov	 eax, DWORD PTR [edx]
  00021	89 46 04	 mov	 DWORD PTR [esi+4], eax

; 399  : 			return (*this);

  00024	8b c6		 mov	 eax, esi
  00026	5e		 pop	 esi

; 400  : 			}

  00027	c3		 ret	 0
??E?$_Iterator@$00@?$list@U?$pair@$$CBVCGUID@@PAVCBaseObject@@@std@@V?$allocator@U?$pair@$$CBVCGUID@@PAVCBaseObject@@@std@@@2@@std@@QAEAAV012@XZ ENDP ; std::list<std::pair<CGUID const ,CBaseObject *>,std::allocator<std::pair<CGUID const ,CBaseObject *> > >::_Iterator<1>::operator++
_TEXT	ENDS
PUBLIC	??E?$_Iterator@$00@?$list@U?$pair@$$CBVCGUID@@PAVCBaseObject@@@std@@V?$allocator@U?$pair@$$CBVCGUID@@PAVCBaseObject@@@std@@@2@@std@@QAE?AV012@H@Z ; std::list<std::pair<CGUID const ,CBaseObject *>,std::allocator<std::pair<CGUID const ,CBaseObject *> > >::_Iterator<1>::operator++
; Function compile flags: /Ogtpy
;	COMDAT ??E?$_Iterator@$00@?$list@U?$pair@$$CBVCGUID@@PAVCBaseObject@@@std@@V?$allocator@U?$pair@$$CBVCGUID@@PAVCBaseObject@@@std@@@2@@std@@QAE?AV012@H@Z
_TEXT	SEGMENT
___$ReturnUdt$ = 8					; size = 4
___formal$ = 12						; size = 4
??E?$_Iterator@$00@?$list@U?$pair@$$CBVCGUID@@PAVCBaseObject@@@std@@V?$allocator@U?$pair@$$CBVCGUID@@PAVCBaseObject@@@std@@@2@@std@@QAE?AV012@H@Z PROC ; std::list<std::pair<CGUID const ,CBaseObject *>,std::allocator<std::pair<CGUID const ,CBaseObject *> > >::_Iterator<1>::operator++, COMDAT
; _this$ = ecx

; 403  : 			{	// postincrement

  00000	56		 push	 esi
  00001	8b f1		 mov	 esi, ecx

; 404  : 			_Myt_iter _Tmp = *this;

  00003	8b 06		 mov	 eax, DWORD PTR [esi]

; 405  : 			++*this;

  00005	85 c0		 test	 eax, eax
  00007	8b 4e 04	 mov	 ecx, DWORD PTR [esi+4]
  0000a	57		 push	 edi
  0000b	8b 7c 24 0c	 mov	 edi, DWORD PTR ___$ReturnUdt$[esp+4]
  0000f	89 07		 mov	 DWORD PTR [edi], eax
  00011	89 4f 04	 mov	 DWORD PTR [edi+4], ecx
  00014	75 05		 jne	 SHORT $LN7@operator@14
  00016	e8 00 00 00 00	 call	 __invalid_parameter_noinfo
$LN7@operator@14:
  0001b	8b 16		 mov	 edx, DWORD PTR [esi]
  0001d	8b 46 04	 mov	 eax, DWORD PTR [esi+4]
  00020	3b 42 04	 cmp	 eax, DWORD PTR [edx+4]
  00023	75 05		 jne	 SHORT $LN5@operator@14
  00025	e8 00 00 00 00	 call	 __invalid_parameter_noinfo
$LN5@operator@14:
  0002a	8b 4e 04	 mov	 ecx, DWORD PTR [esi+4]
  0002d	8b 11		 mov	 edx, DWORD PTR [ecx]

; 406  : 			return (_Tmp);

  0002f	8b c7		 mov	 eax, edi
  00031	5f		 pop	 edi
  00032	89 56 04	 mov	 DWORD PTR [esi+4], edx
  00035	5e		 pop	 esi

; 407  : 			}

  00036	c2 08 00	 ret	 8
??E?$_Iterator@$00@?$list@U?$pair@$$CBVCGUID@@PAVCBaseObject@@@std@@V?$allocator@U?$pair@$$CBVCGUID@@PAVCBaseObject@@@std@@@2@@std@@QAE?AV012@H@Z ENDP ; std::list<std::pair<CGUID const ,CBaseObject *>,std::allocator<std::pair<CGUID const ,CBaseObject *> > >::_Iterator<1>::operator++
_TEXT	ENDS
PUBLIC	??F?$_Iterator@$00@?$list@U?$pair@$$CBVCGUID@@PAVCBaseObject@@@std@@V?$allocator@U?$pair@$$CBVCGUID@@PAVCBaseObject@@@std@@@2@@std@@QAEAAV012@XZ ; std::list<std::pair<CGUID const ,CBaseObject *>,std::allocator<std::pair<CGUID const ,CBaseObject *> > >::_Iterator<1>::operator--
; Function compile flags: /Ogtpy
;	COMDAT ??F?$_Iterator@$00@?$list@U?$pair@$$CBVCGUID@@PAVCBaseObject@@@std@@V?$allocator@U?$pair@$$CBVCGUID@@PAVCBaseObject@@@std@@@2@@std@@QAEAAV012@XZ
_TEXT	SEGMENT
??F?$_Iterator@$00@?$list@U?$pair@$$CBVCGUID@@PAVCBaseObject@@@std@@V?$allocator@U?$pair@$$CBVCGUID@@PAVCBaseObject@@@std@@@2@@std@@QAEAAV012@XZ PROC ; std::list<std::pair<CGUID const ,CBaseObject *>,std::allocator<std::pair<CGUID const ,CBaseObject *> > >::_Iterator<1>::operator--, COMDAT
; _this$ = ecx

; 410  : 			{	// predecrement

  00000	56		 push	 esi
  00001	8b f1		 mov	 esi, ecx

; 411  : 			--(*(_Mybase_iter *)this);

  00003	83 3e 00	 cmp	 DWORD PTR [esi], 0
  00006	75 05		 jne	 SHORT $LN5@operator@15
  00008	e8 00 00 00 00	 call	 __invalid_parameter_noinfo
$LN5@operator@15:
  0000d	8b 46 04	 mov	 eax, DWORD PTR [esi+4]
  00010	8b 40 04	 mov	 eax, DWORD PTR [eax+4]
  00013	8b 0e		 mov	 ecx, DWORD PTR [esi]
  00015	89 46 04	 mov	 DWORD PTR [esi+4], eax
  00018	3b 41 04	 cmp	 eax, DWORD PTR [ecx+4]
  0001b	75 05		 jne	 SHORT $LN11@operator@15
  0001d	e8 00 00 00 00	 call	 __invalid_parameter_noinfo
$LN11@operator@15:

; 412  : 			return (*this);

  00022	8b c6		 mov	 eax, esi
  00024	5e		 pop	 esi

; 413  : 			}

  00025	c3		 ret	 0
??F?$_Iterator@$00@?$list@U?$pair@$$CBVCGUID@@PAVCBaseObject@@@std@@V?$allocator@U?$pair@$$CBVCGUID@@PAVCBaseObject@@@std@@@2@@std@@QAEAAV012@XZ ENDP ; std::list<std::pair<CGUID const ,CBaseObject *>,std::allocator<std::pair<CGUID const ,CBaseObject *> > >::_Iterator<1>::operator--
_TEXT	ENDS
PUBLIC	??D?$_Const_iterator@$00@?$list@U?$pair@$$CBVCGUID@@PAVCBaseObject@@@std@@V?$allocator@U?$pair@$$CBVCGUID@@PAVCBaseObject@@@std@@@2@@std@@QBEABU?$pair@$$CBVCGUID@@PAVCBaseObject@@@2@XZ ; std::list<std::pair<CGUID const ,CBaseObject *>,std::allocator<std::pair<CGUID const ,CBaseObject *> > >::_Const_iterator<1>::operator*
; Function compile flags: /Ogtpy
;	COMDAT ??D?$_Const_iterator@$00@?$list@U?$pair@$$CBVCGUID@@PAVCBaseObject@@@std@@V?$allocator@U?$pair@$$CBVCGUID@@PAVCBaseObject@@@std@@@2@@std@@QBEABU?$pair@$$CBVCGUID@@PAVCBaseObject@@@2@XZ
_TEXT	SEGMENT
??D?$_Const_iterator@$00@?$list@U?$pair@$$CBVCGUID@@PAVCBaseObject@@@std@@V?$allocator@U?$pair@$$CBVCGUID@@PAVCBaseObject@@@std@@@2@@std@@QBEABU?$pair@$$CBVCGUID@@PAVCBaseObject@@@2@XZ PROC ; std::list<std::pair<CGUID const ,CBaseObject *>,std::allocator<std::pair<CGUID const ,CBaseObject *> > >::_Const_iterator<1>::operator*, COMDAT
; _this$ = ecx

; 207  : 			{	// return designated value

  00000	56		 push	 esi
  00001	8b f1		 mov	 esi, ecx

; 208  : 
; 209  :  #if _HAS_ITERATOR_DEBUGGING
; 210  : 			if (this->_Mycont == 0
; 211  : 				|| _Ptr == ((_Myt *)this->_Mycont)->_Myhead)
; 212  : 				{
; 213  : 				_DEBUG_ERROR("list iterator not dereferencable");
; 214  : 				_SCL_SECURE_TRAITS_OUT_OF_RANGE;
; 215  : 				}
; 216  :  #else
; 217  : 			_SCL_SECURE_TRAITS_VALIDATE(this->_Mycont != NULL);

  00003	83 3e 00	 cmp	 DWORD PTR [esi], 0
  00006	75 05		 jne	 SHORT $LN3@operator@16
  00008	e8 00 00 00 00	 call	 __invalid_parameter_noinfo
$LN3@operator@16:

; 218  : 			_SCL_SECURE_TRAITS_VALIDATE_RANGE(_Ptr != ((_Myt *)(this->_Mycont))->_Myhead);

  0000d	8b 06		 mov	 eax, DWORD PTR [esi]
  0000f	8b 4e 04	 mov	 ecx, DWORD PTR [esi+4]
  00012	3b 48 04	 cmp	 ecx, DWORD PTR [eax+4]
  00015	75 05		 jne	 SHORT $LN1@operator@16
  00017	e8 00 00 00 00	 call	 __invalid_parameter_noinfo
$LN1@operator@16:

; 219  :  #endif /* _HAS_ITERATOR_DEBUGGING */
; 220  : 
; 221  : 			return (_Myval(_Ptr));

  0001c	8b 46 04	 mov	 eax, DWORD PTR [esi+4]
  0001f	83 c0 08	 add	 eax, 8
  00022	5e		 pop	 esi

; 222  : 			}

  00023	c3		 ret	 0
??D?$_Const_iterator@$00@?$list@U?$pair@$$CBVCGUID@@PAVCBaseObject@@@std@@V?$allocator@U?$pair@$$CBVCGUID@@PAVCBaseObject@@@std@@@2@@std@@QBEABU?$pair@$$CBVCGUID@@PAVCBaseObject@@@2@XZ ENDP ; std::list<std::pair<CGUID const ,CBaseObject *>,std::allocator<std::pair<CGUID const ,CBaseObject *> > >::_Const_iterator<1>::operator*
_TEXT	ENDS
PUBLIC	??8_List_position@?$_Hash@V?$_Hmap_traits@VCGUID@@PAVCBaseObject@@Vhash_guid_compare@@V?$allocator@U?$pair@$$CBVCGUID@@PAVCBaseObject@@@std@@@std@@$0A@@stdext@@@stdext@@QBE_NABV?$_Const_iterator@$00@?$list@U?$pair@$$CBVCGUID@@PAVCBaseObject@@@std@@V?$allocator@U?$pair@$$CBVCGUID@@PAVCBaseObject@@@std@@@2@@std@@@Z ; stdext::_Hash<stdext::_Hmap_traits<CGUID,CBaseObject *,hash_guid_compare,std::allocator<std::pair<CGUID const ,CBaseObject *> >,0> >::_List_position::operator==
; Function compile flags: /Ogtpy
; File d:\program files\microsoft visual studio 8\vc\include\xhash
;	COMDAT ??8_List_position@?$_Hash@V?$_Hmap_traits@VCGUID@@PAVCBaseObject@@Vhash_guid_compare@@V?$allocator@U?$pair@$$CBVCGUID@@PAVCBaseObject@@@std@@@std@@$0A@@stdext@@@stdext@@QBE_NABV?$_Const_iterator@$00@?$list@U?$pair@$$CBVCGUID@@PAVCBaseObject@@@std@@V?$allocator@U?$pair@$$CBVCGUID@@PAVCBaseObject@@@std@@@2@@std@@@Z
_TEXT	SEGMENT
__Right$ = 8						; size = 4
??8_List_position@?$_Hash@V?$_Hmap_traits@VCGUID@@PAVCBaseObject@@Vhash_guid_compare@@V?$allocator@U?$pair@$$CBVCGUID@@PAVCBaseObject@@@std@@@std@@$0A@@stdext@@@stdext@@QBE_NABV?$_Const_iterator@$00@?$list@U?$pair@$$CBVCGUID@@PAVCBaseObject@@@std@@V?$allocator@U?$pair@$$CBVCGUID@@PAVCBaseObject@@@std@@@2@@std@@@Z PROC ; stdext::_Hash<stdext::_Hmap_traits<CGUID,CBaseObject *,hash_guid_compare,std::allocator<std::pair<CGUID const ,CBaseObject *> >,0> >::_List_position::operator==, COMDAT
; _this$ = ecx

; 225  : 			return (_Mypos._Mynode() == _Right._Mynode());

  00000	8b 41 04	 mov	 eax, DWORD PTR [ecx+4]
  00003	8b 54 24 04	 mov	 edx, DWORD PTR __Right$[esp-4]
  00007	33 c9		 xor	 ecx, ecx
  00009	3b 42 04	 cmp	 eax, DWORD PTR [edx+4]
  0000c	0f 94 c1	 sete	 cl
  0000f	8a c1		 mov	 al, cl

; 226  : 			}

  00011	c2 04 00	 ret	 4
??8_List_position@?$_Hash@V?$_Hmap_traits@VCGUID@@PAVCBaseObject@@Vhash_guid_compare@@V?$allocator@U?$pair@$$CBVCGUID@@PAVCBaseObject@@@std@@@std@@$0A@@stdext@@@stdext@@QBE_NABV?$_Const_iterator@$00@?$list@U?$pair@$$CBVCGUID@@PAVCBaseObject@@@std@@V?$allocator@U?$pair@$$CBVCGUID@@PAVCBaseObject@@@std@@@2@@std@@@Z ENDP ; stdext::_Hash<stdext::_Hmap_traits<CGUID,CBaseObject *,hash_guid_compare,std::allocator<std::pair<CGUID const ,CBaseObject *> >,0> >::_List_position::operator==
_TEXT	ENDS
PUBLIC	??9_List_position@?$_Hash@V?$_Hmap_traits@VCGUID@@PAVCBaseObject@@Vhash_guid_compare@@V?$allocator@U?$pair@$$CBVCGUID@@PAVCBaseObject@@@std@@@std@@$0A@@stdext@@@stdext@@QBE_NABV?$_Const_iterator@$00@?$list@U?$pair@$$CBVCGUID@@PAVCBaseObject@@@std@@V?$allocator@U?$pair@$$CBVCGUID@@PAVCBaseObject@@@std@@@2@@std@@@Z ; stdext::_Hash<stdext::_Hmap_traits<CGUID,CBaseObject *,hash_guid_compare,std::allocator<std::pair<CGUID const ,CBaseObject *> >,0> >::_List_position::operator!=
; Function compile flags: /Ogtpy
;	COMDAT ??9_List_position@?$_Hash@V?$_Hmap_traits@VCGUID@@PAVCBaseObject@@Vhash_guid_compare@@V?$allocator@U?$pair@$$CBVCGUID@@PAVCBaseObject@@@std@@@std@@$0A@@stdext@@@stdext@@QBE_NABV?$_Const_iterator@$00@?$list@U?$pair@$$CBVCGUID@@PAVCBaseObject@@@std@@V?$allocator@U?$pair@$$CBVCGUID@@PAVCBaseObject@@@std@@@2@@std@@@Z
_TEXT	SEGMENT
__Right$ = 8						; size = 4
??9_List_position@?$_Hash@V?$_Hmap_traits@VCGUID@@PAVCBaseObject@@Vhash_guid_compare@@V?$allocator@U?$pair@$$CBVCGUID@@PAVCBaseObject@@@std@@@std@@$0A@@stdext@@@stdext@@QBE_NABV?$_Const_iterator@$00@?$list@U?$pair@$$CBVCGUID@@PAVCBaseObject@@@std@@V?$allocator@U?$pair@$$CBVCGUID@@PAVCBaseObject@@@std@@@2@@std@@@Z PROC ; stdext::_Hash<stdext::_Hmap_traits<CGUID,CBaseObject *,hash_guid_compare,std::allocator<std::pair<CGUID const ,CBaseObject *> >,0> >::_List_position::operator!=, COMDAT
; _this$ = ecx

; 230  : 			return (!(*this == _Right));

  00000	8b 41 04	 mov	 eax, DWORD PTR [ecx+4]
  00003	8b 54 24 04	 mov	 edx, DWORD PTR __Right$[esp-4]
  00007	33 c9		 xor	 ecx, ecx
  00009	3b 42 04	 cmp	 eax, DWORD PTR [edx+4]
  0000c	0f 95 c1	 setne	 cl
  0000f	8a c1		 mov	 al, cl

; 231  : 			}

  00011	c2 04 00	 ret	 4
??9_List_position@?$_Hash@V?$_Hmap_traits@VCGUID@@PAVCBaseObject@@Vhash_guid_compare@@V?$allocator@U?$pair@$$CBVCGUID@@PAVCBaseObject@@@std@@@std@@$0A@@stdext@@@stdext@@QBE_NABV?$_Const_iterator@$00@?$list@U?$pair@$$CBVCGUID@@PAVCBaseObject@@@std@@V?$allocator@U?$pair@$$CBVCGUID@@PAVCBaseObject@@@std@@@2@@std@@@Z ENDP ; stdext::_Hash<stdext::_Hmap_traits<CGUID,CBaseObject *,hash_guid_compare,std::allocator<std::pair<CGUID const ,CBaseObject *> >,0> >::_List_position::operator!=
_TEXT	ENDS
PUBLIC	??0?$_Iterator@$00@?$list@U?$pair@$$CBVCGUID@@PAVCBaseObject@@@std@@V?$allocator@U?$pair@$$CBVCGUID@@PAVCBaseObject@@@std@@@2@@std@@QAE@PAU_Node@?$_List_nod@U?$pair@$$CBVCGUID@@PAVCBaseObject@@@std@@V?$allocator@U?$pair@$$CBVCGUID@@PAVCBaseObject@@@std@@@2@@2@PBV12@@Z ; std::list<std::pair<CGUID const ,CBaseObject *>,std::allocator<std::pair<CGUID const ,CBaseObject *> > >::_Iterator<1>::_Iterator<1>
; Function compile flags: /Ogtpy
; File d:\program files\microsoft visual studio 8\vc\include\list
;	COMDAT ??0?$_Iterator@$00@?$list@U?$pair@$$CBVCGUID@@PAVCBaseObject@@@std@@V?$allocator@U?$pair@$$CBVCGUID@@PAVCBaseObject@@@std@@@2@@std@@QAE@PAU_Node@?$_List_nod@U?$pair@$$CBVCGUID@@PAVCBaseObject@@@std@@V?$allocator@U?$pair@$$CBVCGUID@@PAVCBaseObject@@@std@@@2@@2@PBV12@@Z
_TEXT	SEGMENT
__Pnode$ = 8						; size = 4
__Plist$ = 12						; size = 4
??0?$_Iterator@$00@?$list@U?$pair@$$CBVCGUID@@PAVCBaseObject@@@std@@V?$allocator@U?$pair@$$CBVCGUID@@PAVCBaseObject@@@std@@@2@@std@@QAE@PAU_Node@?$_List_nod@U?$pair@$$CBVCGUID@@PAVCBaseObject@@@std@@V?$allocator@U?$pair@$$CBVCGUID@@PAVCBaseObject@@@std@@@2@@2@PBV12@@Z PROC ; std::list<std::pair<CGUID const ,CBaseObject *>,std::allocator<std::pair<CGUID const ,CBaseObject *> > >::_Iterator<1>::_Iterator<1>, COMDAT
; _this$ = ecx

; 355  : 			{	// construct with node pointer _Pnode

  00000	8b 44 24 04	 mov	 eax, DWORD PTR __Pnode$[esp-4]
  00004	56		 push	 esi
  00005	57		 push	 edi
  00006	8b 7c 24 10	 mov	 edi, DWORD PTR __Plist$[esp+4]
  0000a	85 ff		 test	 edi, edi
  0000c	8b f1		 mov	 esi, ecx
  0000e	c7 06 00 00 00
	00		 mov	 DWORD PTR [esi], 0
  00014	89 46 04	 mov	 DWORD PTR [esi+4], eax
  00017	75 05		 jne	 SHORT $LN11@Iterator
  00019	e8 00 00 00 00	 call	 __invalid_parameter_noinfo
$LN11@Iterator:
  0001e	89 3e		 mov	 DWORD PTR [esi], edi
  00020	5f		 pop	 edi

; 356  : 			}

  00021	8b c6		 mov	 eax, esi
  00023	5e		 pop	 esi
  00024	c2 08 00	 ret	 8
??0?$_Iterator@$00@?$list@U?$pair@$$CBVCGUID@@PAVCBaseObject@@@std@@V?$allocator@U?$pair@$$CBVCGUID@@PAVCBaseObject@@@std@@@2@@std@@QAE@PAU_Node@?$_List_nod@U?$pair@$$CBVCGUID@@PAVCBaseObject@@@std@@V?$allocator@U?$pair@$$CBVCGUID@@PAVCBaseObject@@@std@@@2@@2@PBV12@@Z ENDP ; std::list<std::pair<CGUID const ,CBaseObject *>,std::allocator<std::pair<CGUID const ,CBaseObject *> > >::_Iterator<1>::_Iterator<1>
_TEXT	ENDS
PUBLIC	??0?$_Const_iterator@$00@?$list@U?$pair@$$CBVCGUID@@PAVCBaseObject@@@std@@V?$allocator@U?$pair@$$CBVCGUID@@PAVCBaseObject@@@std@@@2@@std@@QAE@XZ ; std::list<std::pair<CGUID const ,CBaseObject *>,std::allocator<std::pair<CGUID const ,CBaseObject *> > >::_Const_iterator<1>::_Const_iterator<1>
; Function compile flags: /Ogtpy
;	COMDAT ??0?$_Const_iterator@$00@?$list@U?$pair@$$CBVCGUID@@PAVCBaseObject@@@std@@V?$allocator@U?$pair@$$CBVCGUID@@PAVCBaseObject@@@std@@@2@@std@@QAE@XZ
_TEXT	SEGMENT
??0?$_Const_iterator@$00@?$list@U?$pair@$$CBVCGUID@@PAVCBaseObject@@@std@@V?$allocator@U?$pair@$$CBVCGUID@@PAVCBaseObject@@@std@@@2@@std@@QAE@XZ PROC ; std::list<std::pair<CGUID const ,CBaseObject *>,std::allocator<std::pair<CGUID const ,CBaseObject *> > >::_Const_iterator<1>::_Const_iterator<1>, COMDAT
; _this$ = ecx

; 159  : 			{	// construct with null node pointer

  00000	8b c1		 mov	 eax, ecx
  00002	c7 00 00 00 00
	00		 mov	 DWORD PTR [eax], 0
  00008	c7 40 04 00 00
	00 00		 mov	 DWORD PTR [eax+4], 0

; 160  : 			}

  0000f	c3		 ret	 0
??0?$_Const_iterator@$00@?$list@U?$pair@$$CBVCGUID@@PAVCBaseObject@@@std@@V?$allocator@U?$pair@$$CBVCGUID@@PAVCBaseObject@@@std@@@2@@std@@QAE@XZ ENDP ; std::list<std::pair<CGUID const ,CBaseObject *>,std::allocator<std::pair<CGUID const ,CBaseObject *> > >::_Const_iterator<1>::_Const_iterator<1>
_TEXT	ENDS
PUBLIC	?_Get_iter@_List_position@?$_Hash@V?$_Hmap_traits@VCGUID@@PAVCBaseObject@@Vhash_guid_compare@@V?$allocator@U?$pair@$$CBVCGUID@@PAVCBaseObject@@@std@@@std@@$0A@@stdext@@@stdext@@QBE?AV?$_Iterator@$00@?$list@U?$pair@$$CBVCGUID@@PAVCBaseObject@@@std@@V?$allocator@U?$pair@$$CBVCGUID@@PAVCBaseObject@@@std@@@2@@std@@ABV56@@Z ; stdext::_Hash<stdext::_Hmap_traits<CGUID,CBaseObject *,hash_guid_compare,std::allocator<std::pair<CGUID const ,CBaseObject *> >,0> >::_List_position::_Get_iter
; Function compile flags: /Ogtpy
; File d:\program files\microsoft visual studio 8\vc\include\xhash
;	COMDAT ?_Get_iter@_List_position@?$_Hash@V?$_Hmap_traits@VCGUID@@PAVCBaseObject@@Vhash_guid_compare@@V?$allocator@U?$pair@$$CBVCGUID@@PAVCBaseObject@@@std@@@std@@$0A@@stdext@@@stdext@@QBE?AV?$_Iterator@$00@?$list@U?$pair@$$CBVCGUID@@PAVCBaseObject@@@std@@V?$allocator@U?$pair@$$CBVCGUID@@PAVCBaseObject@@@std@@@2@@std@@ABV56@@Z
_TEXT	SEGMENT
___$ReturnUdt$ = 8					; size = 4
__List$ = 12						; size = 4
?_Get_iter@_List_position@?$_Hash@V?$_Hmap_traits@VCGUID@@PAVCBaseObject@@Vhash_guid_compare@@V?$allocator@U?$pair@$$CBVCGUID@@PAVCBaseObject@@@std@@@std@@$0A@@stdext@@@stdext@@QBE?AV?$_Iterator@$00@?$list@U?$pair@$$CBVCGUID@@PAVCBaseObject@@@std@@V?$allocator@U?$pair@$$CBVCGUID@@PAVCBaseObject@@@std@@@2@@std@@ABV56@@Z PROC ; stdext::_Hash<stdext::_Hmap_traits<CGUID,CBaseObject *,hash_guid_compare,std::allocator<std::pair<CGUID const ,CBaseObject *> >,0> >::_List_position::_Get_iter, COMDAT
; _this$ = ecx

; 209  : 			// reparent the iterator
; 210  : 			return _Myiterator(_Mypos._Mynode(), &_List);

  00000	8b 41 04	 mov	 eax, DWORD PTR [ecx+4]
  00003	56		 push	 esi
  00004	8b 74 24 08	 mov	 esi, DWORD PTR ___$ReturnUdt$[esp]
  00008	57		 push	 edi
  00009	8b 7c 24 10	 mov	 edi, DWORD PTR __List$[esp+4]
  0000d	85 ff		 test	 edi, edi
  0000f	c7 06 00 00 00
	00		 mov	 DWORD PTR [esi], 0
  00015	89 46 04	 mov	 DWORD PTR [esi+4], eax
  00018	75 05		 jne	 SHORT $LN15@Get_iter
  0001a	e8 00 00 00 00	 call	 __invalid_parameter_noinfo
$LN15@Get_iter:
  0001f	89 3e		 mov	 DWORD PTR [esi], edi
  00021	5f		 pop	 edi
  00022	8b c6		 mov	 eax, esi
  00024	5e		 pop	 esi

; 211  : 			}

  00025	c2 08 00	 ret	 8
?_Get_iter@_List_position@?$_Hash@V?$_Hmap_traits@VCGUID@@PAVCBaseObject@@Vhash_guid_compare@@V?$allocator@U?$pair@$$CBVCGUID@@PAVCBaseObject@@@std@@@std@@$0A@@stdext@@@stdext@@QBE?AV?$_Iterator@$00@?$list@U?$pair@$$CBVCGUID@@PAVCBaseObject@@@std@@V?$allocator@U?$pair@$$CBVCGUID@@PAVCBaseObject@@@std@@@2@@std@@ABV56@@Z ENDP ; stdext::_Hash<stdext::_Hmap_traits<CGUID,CBaseObject *,hash_guid_compare,std::allocator<std::pair<CGUID const ,CBaseObject *> >,0> >::_List_position::_Get_iter
_TEXT	ENDS
PUBLIC	??0?$_Iterator@$0A@@?$list@U?$pair@$$CBVCGUID@@PAVCBaseObject@@@std@@V?$allocator@U?$pair@$$CBVCGUID@@PAVCBaseObject@@@std@@@2@@std@@QAE@PAU_Node@?$_List_nod@U?$pair@$$CBVCGUID@@PAVCBaseObject@@@std@@V?$allocator@U?$pair@$$CBVCGUID@@PAVCBaseObject@@@std@@@2@@2@PBV12@@Z ; std::list<std::pair<CGUID const ,CBaseObject *>,std::allocator<std::pair<CGUID const ,CBaseObject *> > >::_Iterator<0>::_Iterator<0>
; Function compile flags: /Ogtpy
; File d:\program files\microsoft visual studio 8\vc\include\list
;	COMDAT ??0?$_Iterator@$0A@@?$list@U?$pair@$$CBVCGUID@@PAVCBaseObject@@@std@@V?$allocator@U?$pair@$$CBVCGUID@@PAVCBaseObject@@@std@@@2@@std@@QAE@PAU_Node@?$_List_nod@U?$pair@$$CBVCGUID@@PAVCBaseObject@@@std@@V?$allocator@U?$pair@$$CBVCGUID@@PAVCBaseObject@@@std@@@2@@2@PBV12@@Z
_TEXT	SEGMENT
__Pnode$ = 8						; size = 4
__Plist$ = 12						; size = 4
??0?$_Iterator@$0A@@?$list@U?$pair@$$CBVCGUID@@PAVCBaseObject@@@std@@V?$allocator@U?$pair@$$CBVCGUID@@PAVCBaseObject@@@std@@@2@@std@@QAE@PAU_Node@?$_List_nod@U?$pair@$$CBVCGUID@@PAVCBaseObject@@@std@@V?$allocator@U?$pair@$$CBVCGUID@@PAVCBaseObject@@@std@@@2@@2@PBV12@@Z PROC ; std::list<std::pair<CGUID const ,CBaseObject *>,std::allocator<std::pair<CGUID const ,CBaseObject *> > >::_Iterator<0>::_Iterator<0>, COMDAT
; _this$ = ecx

; 355  : 			{	// construct with node pointer _Pnode

  00000	8b 54 24 08	 mov	 edx, DWORD PTR __Plist$[esp-4]
  00004	8b c1		 mov	 eax, ecx
  00006	8b 4c 24 04	 mov	 ecx, DWORD PTR __Pnode$[esp-4]
  0000a	89 48 04	 mov	 DWORD PTR [eax+4], ecx
  0000d	89 10		 mov	 DWORD PTR [eax], edx

; 356  : 			}

  0000f	c2 08 00	 ret	 8
??0?$_Iterator@$0A@@?$list@U?$pair@$$CBVCGUID@@PAVCBaseObject@@@std@@V?$allocator@U?$pair@$$CBVCGUID@@PAVCBaseObject@@@std@@@2@@std@@QAE@PAU_Node@?$_List_nod@U?$pair@$$CBVCGUID@@PAVCBaseObject@@@std@@V?$allocator@U?$pair@$$CBVCGUID@@PAVCBaseObject@@@std@@@2@@2@PBV12@@Z ENDP ; std::list<std::pair<CGUID const ,CBaseObject *>,std::allocator<std::pair<CGUID const ,CBaseObject *> > >::_Iterator<0>::_Iterator<0>
_TEXT	ENDS
PUBLIC	?max_size@?$list@U?$pair@$$CBVCGUID@@PAVCBaseObject@@@std@@V?$allocator@U?$pair@$$CBVCGUID@@PAVCBaseObject@@@std@@@2@@std@@QBEIXZ ; std::list<std::pair<CGUID const ,CBaseObject *>,std::allocator<std::pair<CGUID const ,CBaseObject *> > >::max_size
; Function compile flags: /Ogtpy
;	COMDAT ?max_size@?$list@U?$pair@$$CBVCGUID@@PAVCBaseObject@@@std@@V?$allocator@U?$pair@$$CBVCGUID@@PAVCBaseObject@@@std@@@2@@std@@QBEIXZ
_TEXT	SEGMENT
?max_size@?$list@U?$pair@$$CBVCGUID@@PAVCBaseObject@@@std@@V?$allocator@U?$pair@$$CBVCGUID@@PAVCBaseObject@@@std@@@2@@std@@QBEIXZ PROC ; std::list<std::pair<CGUID const ,CBaseObject *>,std::allocator<std::pair<CGUID const ,CBaseObject *> > >::max_size, COMDAT
; _this$ = ecx

; 609  : 		return (this->_Alval.max_size());

  00000	b8 cc cc cc 0c	 mov	 eax, 214748364		; 0cccccccH

; 610  : 		}

  00005	c3		 ret	 0
?max_size@?$list@U?$pair@$$CBVCGUID@@PAVCBaseObject@@@std@@V?$allocator@U?$pair@$$CBVCGUID@@PAVCBaseObject@@@std@@@2@@std@@QBEIXZ ENDP ; std::list<std::pair<CGUID const ,CBaseObject *>,std::allocator<std::pair<CGUID const ,CBaseObject *> > >::max_size
_TEXT	ENDS
PUBLIC	?max_size@?$vector@U_List_position@?$_Hash@V?$_Hmap_traits@VCGUID@@PAVCBaseObject@@Vhash_guid_compare@@V?$allocator@U?$pair@$$CBVCGUID@@PAVCBaseObject@@@std@@@std@@$0A@@stdext@@@stdext@@V?$allocator@U_List_position@?$_Hash@V?$_Hmap_traits@VCGUID@@PAVCBaseObject@@Vhash_guid_compare@@V?$allocator@U?$pair@$$CBVCGUID@@PAVCBaseObject@@@std@@@std@@$0A@@stdext@@@stdext@@@std@@@std@@QBEIXZ ; std::vector<stdext::_Hash<stdext::_Hmap_traits<CGUID,CBaseObject *,hash_guid_compare,std::allocator<std::pair<CGUID const ,CBaseObject *> >,0> >::_List_position,std::allocator<stdext::_Hash<stdext::_Hmap_traits<CGUID,CBaseObject *,hash_guid_compare,std::allocator<std::pair<CGUID const ,CBaseObject *> >,0> >::_List_position> >::max_size
; Function compile flags: /Ogtpy
; File d:\program files\microsoft visual studio 8\vc\include\vector
;	COMDAT ?max_size@?$vector@U_List_position@?$_Hash@V?$_Hmap_traits@VCGUID@@PAVCBaseObject@@Vhash_guid_compare@@V?$allocator@U?$pair@$$CBVCGUID@@PAVCBaseObject@@@std@@@std@@$0A@@stdext@@@stdext@@V?$allocator@U_List_position@?$_Hash@V?$_Hmap_traits@VCGUID@@PAVCBaseObject@@Vhash_guid_compare@@V?$allocator@U?$pair@$$CBVCGUID@@PAVCBaseObject@@@std@@@std@@$0A@@stdext@@@stdext@@@std@@@std@@QBEIXZ
_TEXT	SEGMENT
?max_size@?$vector@U_List_position@?$_Hash@V?$_Hmap_traits@VCGUID@@PAVCBaseObject@@Vhash_guid_compare@@V?$allocator@U?$pair@$$CBVCGUID@@PAVCBaseObject@@@std@@@std@@$0A@@stdext@@@stdext@@V?$allocator@U_List_position@?$_Hash@V?$_Hmap_traits@VCGUID@@PAVCBaseObject@@Vhash_guid_compare@@V?$allocator@U?$pair@$$CBVCGUID@@PAVCBaseObject@@@std@@@std@@$0A@@stdext@@@stdext@@@std@@@std@@QBEIXZ PROC ; std::vector<stdext::_Hash<stdext::_Hmap_traits<CGUID,CBaseObject *,hash_guid_compare,std::allocator<std::pair<CGUID const ,CBaseObject *> >,0> >::_List_position,std::allocator<stdext::_Hash<stdext::_Hmap_traits<CGUID,CBaseObject *,hash_guid_compare,std::allocator<std::pair<CGUID const ,CBaseObject *> >,0> >::_List_position> >::max_size, COMDAT
; _this$ = ecx

; 708  : 		return (this->_Alval.max_size());

  00000	b8 ff ff ff 1f	 mov	 eax, 536870911		; 1fffffffH

; 709  : 		}

  00005	c3		 ret	 0
?max_size@?$vector@U_List_position@?$_Hash@V?$_Hmap_traits@VCGUID@@PAVCBaseObject@@Vhash_guid_compare@@V?$allocator@U?$pair@$$CBVCGUID@@PAVCBaseObject@@@std@@@std@@$0A@@stdext@@@stdext@@V?$allocator@U_List_position@?$_Hash@V?$_Hmap_traits@VCGUID@@PAVCBaseObject@@Vhash_guid_compare@@V?$allocator@U?$pair@$$CBVCGUID@@PAVCBaseObject@@@std@@@std@@$0A@@stdext@@@stdext@@@std@@@std@@QBEIXZ ENDP ; std::vector<stdext::_Hash<stdext::_Hmap_traits<CGUID,CBaseObject *,hash_guid_compare,std::allocator<std::pair<CGUID const ,CBaseObject *> >,0> >::_List_position,std::allocator<stdext::_Hash<stdext::_Hmap_traits<CGUID,CBaseObject *,hash_guid_compare,std::allocator<std::pair<CGUID const ,CBaseObject *> >,0> >::_List_position> >::max_size
_TEXT	ENDS
PUBLIC	?allocate@?$allocator@U_List_position@?$_Hash@V?$_Hmap_traits@VCGUID@@PAVCBaseObject@@Vhash_guid_compare@@V?$allocator@U?$pair@$$CBVCGUID@@PAVCBaseObject@@@std@@@std@@$0A@@stdext@@@stdext@@@std@@QAEPAU_List_position@?$_Hash@V?$_Hmap_traits@VCGUID@@PAVCBaseObject@@Vhash_guid_compare@@V?$allocator@U?$pair@$$CBVCGUID@@PAVCBaseObject@@@std@@@std@@$0A@@stdext@@@stdext@@I@Z ; std::allocator<stdext::_Hash<stdext::_Hmap_traits<CGUID,CBaseObject *,hash_guid_compare,std::allocator<std::pair<CGUID const ,CBaseObject *> >,0> >::_List_position>::allocate
; Function compile flags: /Ogtpy
; File d:\program files\microsoft visual studio 8\vc\include\xmemory
;	COMDAT ?allocate@?$allocator@U_List_position@?$_Hash@V?$_Hmap_traits@VCGUID@@PAVCBaseObject@@Vhash_guid_compare@@V?$allocator@U?$pair@$$CBVCGUID@@PAVCBaseObject@@@std@@@std@@$0A@@stdext@@@stdext@@@std@@QAEPAU_List_position@?$_Hash@V?$_Hmap_traits@VCGUID@@PAVCBaseObject@@Vhash_guid_compare@@V?$allocator@U?$pair@$$CBVCGUID@@PAVCBaseObject@@@std@@@std@@$0A@@stdext@@@stdext@@I@Z
_TEXT	SEGMENT
__Count$ = 8						; size = 4
?allocate@?$allocator@U_List_position@?$_Hash@V?$_Hmap_traits@VCGUID@@PAVCBaseObject@@Vhash_guid_compare@@V?$allocator@U?$pair@$$CBVCGUID@@PAVCBaseObject@@@std@@@std@@$0A@@stdext@@@stdext@@@std@@QAEPAU_List_position@?$_Hash@V?$_Hmap_traits@VCGUID@@PAVCBaseObject@@Vhash_guid_compare@@V?$allocator@U?$pair@$$CBVCGUID@@PAVCBaseObject@@@std@@@std@@$0A@@stdext@@@stdext@@I@Z PROC ; std::allocator<stdext::_Hash<stdext::_Hmap_traits<CGUID,CBaseObject *,hash_guid_compare,std::allocator<std::pair<CGUID const ,CBaseObject *> >,0> >::_List_position>::allocate, COMDAT
; _this$ = ecx

; 146  : 		return (_Allocate(_Count, (pointer)0));

  00000	8b 44 24 04	 mov	 eax, DWORD PTR __Count$[esp-4]
  00004	6a 00		 push	 0
  00006	50		 push	 eax
  00007	e8 00 00 00 00	 call	 ??$_Allocate@U_List_position@?$_Hash@V?$_Hmap_traits@VCGUID@@PAVCBaseObject@@Vhash_guid_compare@@V?$allocator@U?$pair@$$CBVCGUID@@PAVCBaseObject@@@std@@@std@@$0A@@stdext@@@stdext@@@std@@YAPAU_List_position@?$_Hash@V?$_Hmap_traits@VCGUID@@PAVCBaseObject@@Vhash_guid_compare@@V?$allocator@U?$pair@$$CBVCGUID@@PAVCBaseObject@@@std@@@std@@$0A@@stdext@@@stdext@@IPAU123@@Z ; std::_Allocate<stdext::_Hash<stdext::_Hmap_traits<CGUID,CBaseObject *,hash_guid_compare,std::allocator<std::pair<CGUID const ,CBaseObject *> >,0> >::_List_position>
  0000c	83 c4 08	 add	 esp, 8

; 147  : 		}

  0000f	c2 04 00	 ret	 4
?allocate@?$allocator@U_List_position@?$_Hash@V?$_Hmap_traits@VCGUID@@PAVCBaseObject@@Vhash_guid_compare@@V?$allocator@U?$pair@$$CBVCGUID@@PAVCBaseObject@@@std@@@std@@$0A@@stdext@@@stdext@@@std@@QAEPAU_List_position@?$_Hash@V?$_Hmap_traits@VCGUID@@PAVCBaseObject@@Vhash_guid_compare@@V?$allocator@U?$pair@$$CBVCGUID@@PAVCBaseObject@@@std@@@std@@$0A@@stdext@@@stdext@@I@Z ENDP ; std::allocator<stdext::_Hash<stdext::_Hmap_traits<CGUID,CBaseObject *,hash_guid_compare,std::allocator<std::pair<CGUID const ,CBaseObject *> >,0> >::_List_position>::allocate
_TEXT	ENDS
PUBLIC	??Y?$_Vector_iterator@U_List_position@?$_Hash@V?$_Hmap_traits@VCGUID@@PAVCBaseObject@@Vhash_guid_compare@@V?$allocator@U?$pair@$$CBVCGUID@@PAVCBaseObject@@@std@@@std@@$0A@@stdext@@@stdext@@V?$allocator@U_List_position@?$_Hash@V?$_Hmap_traits@VCGUID@@PAVCBaseObject@@Vhash_guid_compare@@V?$allocator@U?$pair@$$CBVCGUID@@PAVCBaseObject@@@std@@@std@@$0A@@stdext@@@stdext@@@std@@@std@@QAEAAV01@H@Z ; std::_Vector_iterator<stdext::_Hash<stdext::_Hmap_traits<CGUID,CBaseObject *,hash_guid_compare,std::allocator<std::pair<CGUID const ,CBaseObject *> >,0> >::_List_position,std::allocator<stdext::_Hash<stdext::_Hmap_traits<CGUID,CBaseObject *,hash_guid_compare,std::allocator<std::pair<CGUID const ,CBaseObject *> >,0> >::_List_position> >::operator+=
; Function compile flags: /Ogtpy
; File d:\program files\microsoft visual studio 8\vc\include\vector
;	COMDAT ??Y?$_Vector_iterator@U_List_position@?$_Hash@V?$_Hmap_traits@VCGUID@@PAVCBaseObject@@Vhash_guid_compare@@V?$allocator@U?$pair@$$CBVCGUID@@PAVCBaseObject@@@std@@@std@@$0A@@stdext@@@stdext@@V?$allocator@U_List_position@?$_Hash@V?$_Hmap_traits@VCGUID@@PAVCBaseObject@@Vhash_guid_compare@@V?$allocator@U?$pair@$$CBVCGUID@@PAVCBaseObject@@@std@@@std@@$0A@@stdext@@@stdext@@@std@@@std@@QAEAAV01@H@Z
_TEXT	SEGMENT
__Off$ = 8						; size = 4
??Y?$_Vector_iterator@U_List_position@?$_Hash@V?$_Hmap_traits@VCGUID@@PAVCBaseObject@@Vhash_guid_compare@@V?$allocator@U?$pair@$$CBVCGUID@@PAVCBaseObject@@@std@@@std@@$0A@@stdext@@@stdext@@V?$allocator@U_List_position@?$_Hash@V?$_Hmap_traits@VCGUID@@PAVCBaseObject@@Vhash_guid_compare@@V?$allocator@U?$pair@$$CBVCGUID@@PAVCBaseObject@@@std@@@std@@$0A@@stdext@@@stdext@@@std@@@std@@QAEAAV01@H@Z PROC ; std::_Vector_iterator<stdext::_Hash<stdext::_Hmap_traits<CGUID,CBaseObject *,hash_guid_compare,std::allocator<std::pair<CGUID const ,CBaseObject *> >,0> >::_List_position,std::allocator<stdext::_Hash<stdext::_Hmap_traits<CGUID,CBaseObject *,hash_guid_compare,std::allocator<std::pair<CGUID const ,CBaseObject *> >,0> >::_List_position> >::operator+=, COMDAT
; _this$ = ecx

; 361  : 		{	// increment by integer

  00000	56		 push	 esi
  00001	8b f1		 mov	 esi, ecx

; 362  : 		(*(_Mybase *)this) += _Off;

  00003	83 3e 00	 cmp	 DWORD PTR [esi], 0
  00006	57		 push	 edi
  00007	75 05		 jne	 SHORT $LN5@operator@17
  00009	e8 00 00 00 00	 call	 __invalid_parameter_noinfo
$LN5@operator@17:
  0000e	8b 7c 24 0c	 mov	 edi, DWORD PTR __Off$[esp+4]
  00012	8b 46 04	 mov	 eax, DWORD PTR [esi+4]
  00015	8b 0e		 mov	 ecx, DWORD PTR [esi]
  00017	03 ff		 add	 edi, edi
  00019	03 ff		 add	 edi, edi
  0001b	03 ff		 add	 edi, edi
  0001d	03 c7		 add	 eax, edi
  0001f	3b 41 08	 cmp	 eax, DWORD PTR [ecx+8]
  00022	77 05		 ja	 SHORT $LN3@operator@17
  00024	3b 41 04	 cmp	 eax, DWORD PTR [ecx+4]
  00027	73 05		 jae	 SHORT $LN8@operator@17
$LN3@operator@17:
  00029	e8 00 00 00 00	 call	 __invalid_parameter_noinfo
$LN8@operator@17:
  0002e	01 7e 04	 add	 DWORD PTR [esi+4], edi
  00031	5f		 pop	 edi

; 363  : 		return (*this);

  00032	8b c6		 mov	 eax, esi
  00034	5e		 pop	 esi

; 364  : 		}

  00035	c2 04 00	 ret	 4
??Y?$_Vector_iterator@U_List_position@?$_Hash@V?$_Hmap_traits@VCGUID@@PAVCBaseObject@@Vhash_guid_compare@@V?$allocator@U?$pair@$$CBVCGUID@@PAVCBaseObject@@@std@@@std@@$0A@@stdext@@@stdext@@V?$allocator@U_List_position@?$_Hash@V?$_Hmap_traits@VCGUID@@PAVCBaseObject@@Vhash_guid_compare@@V?$allocator@U?$pair@$$CBVCGUID@@PAVCBaseObject@@@std@@@std@@$0A@@stdext@@@stdext@@@std@@@std@@QAEAAV01@H@Z ENDP ; std::_Vector_iterator<stdext::_Hash<stdext::_Hmap_traits<CGUID,CBaseObject *,hash_guid_compare,std::allocator<std::pair<CGUID const ,CBaseObject *> >,0> >::_List_position,std::allocator<stdext::_Hash<stdext::_Hmap_traits<CGUID,CBaseObject *,hash_guid_compare,std::allocator<std::pair<CGUID const ,CBaseObject *> >,0> >::_List_position> >::operator+=
_TEXT	ENDS
PUBLIC	??9?$_Vector_const_iterator@U_List_position@?$_Hash@V?$_Hmap_traits@VCGUID@@PAVCBaseObject@@Vhash_guid_compare@@V?$allocator@U?$pair@$$CBVCGUID@@PAVCBaseObject@@@std@@@std@@$0A@@stdext@@@stdext@@V?$allocator@U_List_position@?$_Hash@V?$_Hmap_traits@VCGUID@@PAVCBaseObject@@Vhash_guid_compare@@V?$allocator@U?$pair@$$CBVCGUID@@PAVCBaseObject@@@std@@@std@@$0A@@stdext@@@stdext@@@std@@@std@@QBE_NABV01@@Z ; std::_Vector_const_iterator<stdext::_Hash<stdext::_Hmap_traits<CGUID,CBaseObject *,hash_guid_compare,std::allocator<std::pair<CGUID const ,CBaseObject *> >,0> >::_List_position,std::allocator<stdext::_Hash<stdext::_Hmap_traits<CGUID,CBaseObject *,hash_guid_compare,std::allocator<std::pair<CGUID const ,CBaseObject *> >,0> >::_List_position> >::operator!=
; Function compile flags: /Ogtpy
;	COMDAT ??9?$_Vector_const_iterator@U_List_position@?$_Hash@V?$_Hmap_traits@VCGUID@@PAVCBaseObject@@Vhash_guid_compare@@V?$allocator@U?$pair@$$CBVCGUID@@PAVCBaseObject@@@std@@@std@@$0A@@stdext@@@stdext@@V?$allocator@U_List_position@?$_Hash@V?$_Hmap_traits@VCGUID@@PAVCBaseObject@@Vhash_guid_compare@@V?$allocator@U?$pair@$$CBVCGUID@@PAVCBaseObject@@@std@@@std@@$0A@@stdext@@@stdext@@@std@@@std@@QBE_NABV01@@Z
_TEXT	SEGMENT
__Right$ = 8						; size = 4
??9?$_Vector_const_iterator@U_List_position@?$_Hash@V?$_Hmap_traits@VCGUID@@PAVCBaseObject@@Vhash_guid_compare@@V?$allocator@U?$pair@$$CBVCGUID@@PAVCBaseObject@@@std@@@std@@$0A@@stdext@@@stdext@@V?$allocator@U_List_position@?$_Hash@V?$_Hmap_traits@VCGUID@@PAVCBaseObject@@Vhash_guid_compare@@V?$allocator@U?$pair@$$CBVCGUID@@PAVCBaseObject@@@std@@@std@@$0A@@stdext@@@stdext@@@std@@@std@@QBE_NABV01@@Z PROC ; std::_Vector_const_iterator<stdext::_Hash<stdext::_Hmap_traits<CGUID,CBaseObject *,hash_guid_compare,std::allocator<std::pair<CGUID const ,CBaseObject *> >,0> >::_List_position,std::allocator<stdext::_Hash<stdext::_Hmap_traits<CGUID,CBaseObject *,hash_guid_compare,std::allocator<std::pair<CGUID const ,CBaseObject *> >,0> >::_List_position> >::operator!=, COMDAT
; _this$ = ecx

; 202  : 		{	// test for iterator inequality

  00000	56		 push	 esi
  00001	8b f1		 mov	 esi, ecx

; 203  : 		return (!(*this == _Right));

  00003	8b 06		 mov	 eax, DWORD PTR [esi]
  00005	85 c0		 test	 eax, eax
  00007	57		 push	 edi
  00008	8b 7c 24 0c	 mov	 edi, DWORD PTR __Right$[esp+4]
  0000c	74 04		 je	 SHORT $LN3@operator@18
  0000e	3b 07		 cmp	 eax, DWORD PTR [edi]
  00010	74 05		 je	 SHORT $LN4@operator@18
$LN3@operator@18:
  00012	e8 00 00 00 00	 call	 __invalid_parameter_noinfo
$LN4@operator@18:
  00017	8b 46 04	 mov	 eax, DWORD PTR [esi+4]
  0001a	33 c9		 xor	 ecx, ecx
  0001c	3b 47 04	 cmp	 eax, DWORD PTR [edi+4]
  0001f	5f		 pop	 edi
  00020	0f 95 c1	 setne	 cl
  00023	8a c1		 mov	 al, cl
  00025	5e		 pop	 esi

; 204  : 		}

  00026	c2 04 00	 ret	 4
??9?$_Vector_const_iterator@U_List_position@?$_Hash@V?$_Hmap_traits@VCGUID@@PAVCBaseObject@@Vhash_guid_compare@@V?$allocator@U?$pair@$$CBVCGUID@@PAVCBaseObject@@@std@@@std@@$0A@@stdext@@@stdext@@V?$allocator@U_List_position@?$_Hash@V?$_Hmap_traits@VCGUID@@PAVCBaseObject@@Vhash_guid_compare@@V?$allocator@U?$pair@$$CBVCGUID@@PAVCBaseObject@@@std@@@std@@$0A@@stdext@@@stdext@@@std@@@std@@QBE_NABV01@@Z ENDP ; std::_Vector_const_iterator<stdext::_Hash<stdext::_Hmap_traits<CGUID,CBaseObject *,hash_guid_compare,std::allocator<std::pair<CGUID const ,CBaseObject *> >,0> >::_List_position,std::allocator<stdext::_Hash<stdext::_Hmap_traits<CGUID,CBaseObject *,hash_guid_compare,std::allocator<std::pair<CGUID const ,CBaseObject *> >,0> >::_List_position> >::operator!=
_TEXT	ENDS
PUBLIC	?construct@?$allocator@U?$pair@$$CBVCGUID@@PAVCBaseObject@@@std@@@std@@QAEXPAU?$pair@$$CBVCGUID@@PAVCBaseObject@@@2@ABU32@@Z ; std::allocator<std::pair<CGUID const ,CBaseObject *> >::construct
; Function compile flags: /Ogtpy
; File d:\program files\microsoft visual studio 8\vc\include\xmemory
;	COMDAT ?construct@?$allocator@U?$pair@$$CBVCGUID@@PAVCBaseObject@@@std@@@std@@QAEXPAU?$pair@$$CBVCGUID@@PAVCBaseObject@@@2@ABU32@@Z
_TEXT	SEGMENT
__Ptr$ = 8						; size = 4
__Val$ = 12						; size = 4
?construct@?$allocator@U?$pair@$$CBVCGUID@@PAVCBaseObject@@@std@@@std@@QAEXPAU?$pair@$$CBVCGUID@@PAVCBaseObject@@@2@ABU32@@Z PROC ; std::allocator<std::pair<CGUID const ,CBaseObject *> >::construct, COMDAT
; _this$ = ecx

; 156  : 		_Construct(_Ptr, _Val);

  00000	8b 44 24 04	 mov	 eax, DWORD PTR __Ptr$[esp-4]
  00004	85 c0		 test	 eax, eax
  00006	74 1c		 je	 SHORT $LN5@construct
  00008	8b 4c 24 08	 mov	 ecx, DWORD PTR __Val$[esp-4]
  0000c	f3 0f 7e 01	 movq	 xmm0, QWORD PTR [ecx]
  00010	66 0f d6 00	 movq	 QWORD PTR [eax], xmm0
  00014	f3 0f 7e 41 08	 movq	 xmm0, QWORD PTR [ecx+8]
  00019	66 0f d6 40 08	 movq	 QWORD PTR [eax+8], xmm0
  0001e	8b 49 10	 mov	 ecx, DWORD PTR [ecx+16]
  00021	89 48 10	 mov	 DWORD PTR [eax+16], ecx
$LN5@construct:

; 157  : 		}

  00024	c2 08 00	 ret	 8
?construct@?$allocator@U?$pair@$$CBVCGUID@@PAVCBaseObject@@@std@@@std@@QAEXPAU?$pair@$$CBVCGUID@@PAVCBaseObject@@@2@ABU32@@Z ENDP ; std::allocator<std::pair<CGUID const ,CBaseObject *> >::construct
_TEXT	ENDS
PUBLIC	?allocate@?$allocator@U_Node@?$_List_nod@U?$pair@$$CBVCGUID@@PAVCBaseObject@@@std@@V?$allocator@U?$pair@$$CBVCGUID@@PAVCBaseObject@@@std@@@2@@std@@@std@@QAEPAU_Node@?$_List_nod@U?$pair@$$CBVCGUID@@PAVCBaseObject@@@std@@V?$allocator@U?$pair@$$CBVCGUID@@PAVCBaseObject@@@std@@@2@@2@I@Z ; std::allocator<std::_List_nod<std::pair<CGUID const ,CBaseObject *>,std::allocator<std::pair<CGUID const ,CBaseObject *> > >::_Node>::allocate
; Function compile flags: /Ogtpy
;	COMDAT ?allocate@?$allocator@U_Node@?$_List_nod@U?$pair@$$CBVCGUID@@PAVCBaseObject@@@std@@V?$allocator@U?$pair@$$CBVCGUID@@PAVCBaseObject@@@std@@@2@@std@@@std@@QAEPAU_Node@?$_List_nod@U?$pair@$$CBVCGUID@@PAVCBaseObject@@@std@@V?$allocator@U?$pair@$$CBVCGUID@@PAVCBaseObject@@@std@@@2@@2@I@Z
_TEXT	SEGMENT
__Count$ = 8						; size = 4
?allocate@?$allocator@U_Node@?$_List_nod@U?$pair@$$CBVCGUID@@PAVCBaseObject@@@std@@V?$allocator@U?$pair@$$CBVCGUID@@PAVCBaseObject@@@std@@@2@@std@@@std@@QAEPAU_Node@?$_List_nod@U?$pair@$$CBVCGUID@@PAVCBaseObject@@@std@@V?$allocator@U?$pair@$$CBVCGUID@@PAVCBaseObject@@@std@@@2@@2@I@Z PROC ; std::allocator<std::_List_nod<std::pair<CGUID const ,CBaseObject *>,std::allocator<std::pair<CGUID const ,CBaseObject *> > >::_Node>::allocate, COMDAT
; _this$ = ecx

; 146  : 		return (_Allocate(_Count, (pointer)0));

  00000	8b 44 24 04	 mov	 eax, DWORD PTR __Count$[esp-4]
  00004	6a 00		 push	 0
  00006	50		 push	 eax
  00007	e8 00 00 00 00	 call	 ??$_Allocate@U_Node@?$_List_nod@U?$pair@$$CBVCGUID@@PAVCBaseObject@@@std@@V?$allocator@U?$pair@$$CBVCGUID@@PAVCBaseObject@@@std@@@2@@std@@@std@@YAPAU_Node@?$_List_nod@U?$pair@$$CBVCGUID@@PAVCBaseObject@@@std@@V?$allocator@U?$pair@$$CBVCGUID@@PAVCBaseObject@@@std@@@2@@0@IPAU120@@Z ; std::_Allocate<std::_List_nod<std::pair<CGUID const ,CBaseObject *>,std::allocator<std::pair<CGUID const ,CBaseObject *> > >::_Node>
  0000c	83 c4 08	 add	 esp, 8

; 147  : 		}

  0000f	c2 04 00	 ret	 4
?allocate@?$allocator@U_Node@?$_List_nod@U?$pair@$$CBVCGUID@@PAVCBaseObject@@@std@@V?$allocator@U?$pair@$$CBVCGUID@@PAVCBaseObject@@@std@@@2@@std@@@std@@QAEPAU_Node@?$_List_nod@U?$pair@$$CBVCGUID@@PAVCBaseObject@@@std@@V?$allocator@U?$pair@$$CBVCGUID@@PAVCBaseObject@@@std@@@2@@2@I@Z ENDP ; std::allocator<std::_List_nod<std::pair<CGUID const ,CBaseObject *>,std::allocator<std::pair<CGUID const ,CBaseObject *> > >::_Node>::allocate
_TEXT	ENDS
PUBLIC	?construct@?$allocator@PAU_Node@?$_List_nod@U?$pair@$$CBVCGUID@@PAVCBaseObject@@@std@@V?$allocator@U?$pair@$$CBVCGUID@@PAVCBaseObject@@@std@@@2@@std@@@std@@QAEXPAPAU_Node@?$_List_nod@U?$pair@$$CBVCGUID@@PAVCBaseObject@@@std@@V?$allocator@U?$pair@$$CBVCGUID@@PAVCBaseObject@@@std@@@2@@2@ABQAU342@@Z ; std::allocator<std::_List_nod<std::pair<CGUID const ,CBaseObject *>,std::allocator<std::pair<CGUID const ,CBaseObject *> > >::_Node *>::construct
; Function compile flags: /Ogtpy
;	COMDAT ?construct@?$allocator@PAU_Node@?$_List_nod@U?$pair@$$CBVCGUID@@PAVCBaseObject@@@std@@V?$allocator@U?$pair@$$CBVCGUID@@PAVCBaseObject@@@std@@@2@@std@@@std@@QAEXPAPAU_Node@?$_List_nod@U?$pair@$$CBVCGUID@@PAVCBaseObject@@@std@@V?$allocator@U?$pair@$$CBVCGUID@@PAVCBaseObject@@@std@@@2@@2@ABQAU342@@Z
_TEXT	SEGMENT
__Ptr$ = 8						; size = 4
__Val$ = 12						; size = 4
?construct@?$allocator@PAU_Node@?$_List_nod@U?$pair@$$CBVCGUID@@PAVCBaseObject@@@std@@V?$allocator@U?$pair@$$CBVCGUID@@PAVCBaseObject@@@std@@@2@@std@@@std@@QAEXPAPAU_Node@?$_List_nod@U?$pair@$$CBVCGUID@@PAVCBaseObject@@@std@@V?$allocator@U?$pair@$$CBVCGUID@@PAVCBaseObject@@@std@@@2@@2@ABQAU342@@Z PROC ; std::allocator<std::_List_nod<std::pair<CGUID const ,CBaseObject *>,std::allocator<std::pair<CGUID const ,CBaseObject *> > >::_Node *>::construct, COMDAT
; _this$ = ecx

; 156  : 		_Construct(_Ptr, _Val);

  00000	8b 44 24 04	 mov	 eax, DWORD PTR __Ptr$[esp-4]
  00004	85 c0		 test	 eax, eax
  00006	74 08		 je	 SHORT $LN5@construct@2
  00008	8b 4c 24 08	 mov	 ecx, DWORD PTR __Val$[esp-4]
  0000c	8b 11		 mov	 edx, DWORD PTR [ecx]
  0000e	89 10		 mov	 DWORD PTR [eax], edx
$LN5@construct@2:

; 157  : 		}

  00010	c2 08 00	 ret	 8
?construct@?$allocator@PAU_Node@?$_List_nod@U?$pair@$$CBVCGUID@@PAVCBaseObject@@@std@@V?$allocator@U?$pair@$$CBVCGUID@@PAVCBaseObject@@@std@@@2@@std@@@std@@QAEXPAPAU_Node@?$_List_nod@U?$pair@$$CBVCGUID@@PAVCBaseObject@@@std@@V?$allocator@U?$pair@$$CBVCGUID@@PAVCBaseObject@@@std@@@2@@2@ABQAU342@@Z ENDP ; std::allocator<std::_List_nod<std::pair<CGUID const ,CBaseObject *>,std::allocator<std::pair<CGUID const ,CBaseObject *> > >::_Node *>::construct
_TEXT	ENDS
PUBLIC	?destroy@?$allocator@PAU_Node@?$_List_nod@U?$pair@$$CBVCGUID@@PAVCBaseObject@@@std@@V?$allocator@U?$pair@$$CBVCGUID@@PAVCBaseObject@@@std@@@2@@std@@@std@@QAEXPAPAU_Node@?$_List_nod@U?$pair@$$CBVCGUID@@PAVCBaseObject@@@std@@V?$allocator@U?$pair@$$CBVCGUID@@PAVCBaseObject@@@std@@@2@@2@@Z ; std::allocator<std::_List_nod<std::pair<CGUID const ,CBaseObject *>,std::allocator<std::pair<CGUID const ,CBaseObject *> > >::_Node *>::destroy
; Function compile flags: /Ogtpy
;	COMDAT ?destroy@?$allocator@PAU_Node@?$_List_nod@U?$pair@$$CBVCGUID@@PAVCBaseObject@@@std@@V?$allocator@U?$pair@$$CBVCGUID@@PAVCBaseObject@@@std@@@2@@std@@@std@@QAEXPAPAU_Node@?$_List_nod@U?$pair@$$CBVCGUID@@PAVCBaseObject@@@std@@V?$allocator@U?$pair@$$CBVCGUID@@PAVCBaseObject@@@std@@@2@@2@@Z
_TEXT	SEGMENT
__Ptr$ = 8						; size = 4
?destroy@?$allocator@PAU_Node@?$_List_nod@U?$pair@$$CBVCGUID@@PAVCBaseObject@@@std@@V?$allocator@U?$pair@$$CBVCGUID@@PAVCBaseObject@@@std@@@2@@std@@@std@@QAEXPAPAU_Node@?$_List_nod@U?$pair@$$CBVCGUID@@PAVCBaseObject@@@std@@V?$allocator@U?$pair@$$CBVCGUID@@PAVCBaseObject@@@std@@@2@@2@@Z PROC ; std::allocator<std::_List_nod<std::pair<CGUID const ,CBaseObject *>,std::allocator<std::pair<CGUID const ,CBaseObject *> > >::_Node *>::destroy, COMDAT
; _this$ = ecx

; 161  : 		_Destroy(_Ptr);
; 162  : 		}

  00000	c2 04 00	 ret	 4
?destroy@?$allocator@PAU_Node@?$_List_nod@U?$pair@$$CBVCGUID@@PAVCBaseObject@@@std@@V?$allocator@U?$pair@$$CBVCGUID@@PAVCBaseObject@@@std@@@2@@std@@@std@@QAEXPAPAU_Node@?$_List_nod@U?$pair@$$CBVCGUID@@PAVCBaseObject@@@std@@V?$allocator@U?$pair@$$CBVCGUID@@PAVCBaseObject@@@std@@@2@@2@@Z ENDP ; std::allocator<std::_List_nod<std::pair<CGUID const ,CBaseObject *>,std::allocator<std::pair<CGUID const ,CBaseObject *> > >::_Node *>::destroy
_TEXT	ENDS
PUBLIC	??0?$_Vector_const_iterator@U_List_position@?$_Hash@V?$_Hmap_traits@VCGUID@@PAVCBaseObject@@Vhash_guid_compare@@V?$allocator@U?$pair@$$CBVCGUID@@PAVCBaseObject@@@std@@@std@@$0A@@stdext@@@stdext@@V?$allocator@U_List_position@?$_Hash@V?$_Hmap_traits@VCGUID@@PAVCBaseObject@@Vhash_guid_compare@@V?$allocator@U?$pair@$$CBVCGUID@@PAVCBaseObject@@@std@@@std@@$0A@@stdext@@@stdext@@@std@@@std@@QAE@PAU_List_position@?$_Hash@V?$_Hmap_traits@VCGUID@@PAVCBaseObject@@Vhash_guid_compare@@V?$allocator@U?$pair@$$CBVCGUID@@PAVCBaseObject@@@std@@@std@@$0A@@stdext@@@stdext@@PBU_Container_base@1@@Z ; std::_Vector_const_iterator<stdext::_Hash<stdext::_Hmap_traits<CGUID,CBaseObject *,hash_guid_compare,std::allocator<std::pair<CGUID const ,CBaseObject *> >,0> >::_List_position,std::allocator<stdext::_Hash<stdext::_Hmap_traits<CGUID,CBaseObject *,hash_guid_compare,std::allocator<std::pair<CGUID const ,CBaseObject *> >,0> >::_List_position> >::_Vector_const_iterator<stdext::_Hash<stdext::_Hmap_traits<CGUID,CBaseObject *,hash_guid_compare,std::allocator<std::pair<CGUID const ,CBaseObject *> >,0> >::_List_position,std::allocator<stdext::_Hash<stdext::_Hmap_traits<CGUID,CBaseObject *,hash_guid_compare,std::allocator<std::pair<CGUID const ,CBaseObject *> >,0> >::_List_position> >
; Function compile flags: /Ogtpy
; File d:\program files\microsoft visual studio 8\vc\include\vector
;	COMDAT ??0?$_Vector_const_iterator@U_List_position@?$_Hash@V?$_Hmap_traits@VCGUID@@PAVCBaseObject@@Vhash_guid_compare@@V?$allocator@U?$pair@$$CBVCGUID@@PAVCBaseObject@@@std@@@std@@$0A@@stdext@@@stdext@@V?$allocator@U_List_position@?$_Hash@V?$_Hmap_traits@VCGUID@@PAVCBaseObject@@Vhash_guid_compare@@V?$allocator@U?$pair@$$CBVCGUID@@PAVCBaseObject@@@std@@@std@@$0A@@stdext@@@stdext@@@std@@@std@@QAE@PAU_List_position@?$_Hash@V?$_Hmap_traits@VCGUID@@PAVCBaseObject@@Vhash_guid_compare@@V?$allocator@U?$pair@$$CBVCGUID@@PAVCBaseObject@@@std@@@std@@$0A@@stdext@@@stdext@@PBU_Container_base@1@@Z
_TEXT	SEGMENT
__Ptr$ = 8						; size = 4
__Pvector$ = 12						; size = 4
??0?$_Vector_const_iterator@U_List_position@?$_Hash@V?$_Hmap_traits@VCGUID@@PAVCBaseObject@@Vhash_guid_compare@@V?$allocator@U?$pair@$$CBVCGUID@@PAVCBaseObject@@@std@@@std@@$0A@@stdext@@@stdext@@V?$allocator@U_List_position@?$_Hash@V?$_Hmap_traits@VCGUID@@PAVCBaseObject@@Vhash_guid_compare@@V?$allocator@U?$pair@$$CBVCGUID@@PAVCBaseObject@@@std@@@std@@$0A@@stdext@@@stdext@@@std@@@std@@QAE@PAU_List_position@?$_Hash@V?$_Hmap_traits@VCGUID@@PAVCBaseObject@@Vhash_guid_compare@@V?$allocator@U?$pair@$$CBVCGUID@@PAVCBaseObject@@@std@@@std@@$0A@@stdext@@@stdext@@PBU_Container_base@1@@Z PROC ; std::_Vector_const_iterator<stdext::_Hash<stdext::_Hmap_traits<CGUID,CBaseObject *,hash_guid_compare,std::allocator<std::pair<CGUID const ,CBaseObject *> >,0> >::_List_position,std::allocator<stdext::_Hash<stdext::_Hmap_traits<CGUID,CBaseObject *,hash_guid_compare,std::allocator<std::pair<CGUID const ,CBaseObject *> >,0> >::_List_position> >::_Vector_const_iterator<stdext::_Hash<stdext::_Hmap_traits<CGUID,CBaseObject *,hash_guid_compare,std::allocator<std::pair<CGUID const ,CBaseObject *> >,0> >::_List_position,std::allocator<stdext::_Hash<stdext::_Hmap_traits<CGUID,CBaseObject *,hash_guid_compare,std::allocator<std::pair<CGUID const ,CBaseObject *> >,0> >::_List_position> >, COMDAT
; _this$ = ecx

; 77   : 	_Vector_const_iterator(_Tptr _Ptr, const _Container_base *_Pvector)

  00000	53		 push	 ebx

; 78   : 		{	// construct with pointer _Ptr
; 79   : 		_SCL_SECURE_VALIDATE(_Pvector != NULL && ((_Myvec *)_Pvector)->_Myfirst <= _Ptr && _Ptr <= ((_Myvec *)_Pvector)->_Mylast);

  00001	8b 5c 24 08	 mov	 ebx, DWORD PTR __Ptr$[esp]
  00005	56		 push	 esi
  00006	57		 push	 edi
  00007	8b 7c 24 14	 mov	 edi, DWORD PTR __Pvector$[esp+8]
  0000b	85 ff		 test	 edi, edi
  0000d	8b f1		 mov	 esi, ecx
  0000f	c7 06 00 00 00
	00		 mov	 DWORD PTR [esi], 0
  00015	74 0a		 je	 SHORT $LN1@Vector_con
  00017	39 5f 04	 cmp	 DWORD PTR [edi+4], ebx
  0001a	77 05		 ja	 SHORT $LN1@Vector_con
  0001c	3b 5f 08	 cmp	 ebx, DWORD PTR [edi+8]
  0001f	76 05		 jbe	 SHORT $LN2@Vector_con
$LN1@Vector_con:
  00021	e8 00 00 00 00	 call	 __invalid_parameter_noinfo
$LN2@Vector_con:

; 80   : 		this->_Mycont = _Pvector;

  00026	89 3e		 mov	 DWORD PTR [esi], edi
  00028	5f		 pop	 edi

; 81   : 		_Myptr = _Ptr;

  00029	89 5e 04	 mov	 DWORD PTR [esi+4], ebx

; 82   : 		}

  0002c	8b c6		 mov	 eax, esi
  0002e	5e		 pop	 esi
  0002f	5b		 pop	 ebx
  00030	c2 08 00	 ret	 8
??0?$_Vector_const_iterator@U_List_position@?$_Hash@V?$_Hmap_traits@VCGUID@@PAVCBaseObject@@Vhash_guid_compare@@V?$allocator@U?$pair@$$CBVCGUID@@PAVCBaseObject@@@std@@@std@@$0A@@stdext@@@stdext@@V?$allocator@U_List_position@?$_Hash@V?$_Hmap_traits@VCGUID@@PAVCBaseObject@@Vhash_guid_compare@@V?$allocator@U?$pair@$$CBVCGUID@@PAVCBaseObject@@@std@@@std@@$0A@@stdext@@@stdext@@@std@@@std@@QAE@PAU_List_position@?$_Hash@V?$_Hmap_traits@VCGUID@@PAVCBaseObject@@Vhash_guid_compare@@V?$allocator@U?$pair@$$CBVCGUID@@PAVCBaseObject@@@std@@@std@@$0A@@stdext@@@stdext@@PBU_Container_base@1@@Z ENDP ; std::_Vector_const_iterator<stdext::_Hash<stdext::_Hmap_traits<CGUID,CBaseObject *,hash_guid_compare,std::allocator<std::pair<CGUID const ,CBaseObject *> >,0> >::_List_position,std::allocator<stdext::_Hash<stdext::_Hmap_traits<CGUID,CBaseObject *,hash_guid_compare,std::allocator<std::pair<CGUID const ,CBaseObject *> >,0> >::_List_position> >::_Vector_const_iterator<stdext::_Hash<stdext::_Hmap_traits<CGUID,CBaseObject *,hash_guid_compare,std::allocator<std::pair<CGUID const ,CBaseObject *> >,0> >::_List_position,std::allocator<stdext::_Hash<stdext::_Hmap_traits<CGUID,CBaseObject *,hash_guid_compare,std::allocator<std::pair<CGUID const ,CBaseObject *> >,0> >::_List_position> >
_TEXT	ENDS
PUBLIC	??_G_Node@?$_List_nod@U?$pair@$$CBVCGUID@@PAVCBaseObject@@@std@@V?$allocator@U?$pair@$$CBVCGUID@@PAVCBaseObject@@@std@@@2@@std@@QAEPAXI@Z ; std::_List_nod<std::pair<CGUID const ,CBaseObject *>,std::allocator<std::pair<CGUID const ,CBaseObject *> > >::_Node::`scalar deleting destructor'
; Function compile flags: /Ogtpy
;	COMDAT ??_G_Node@?$_List_nod@U?$pair@$$CBVCGUID@@PAVCBaseObject@@@std@@V?$allocator@U?$pair@$$CBVCGUID@@PAVCBaseObject@@@std@@@2@@std@@QAEPAXI@Z
_TEXT	SEGMENT
___flags$ = 8						; size = 4
??_G_Node@?$_List_nod@U?$pair@$$CBVCGUID@@PAVCBaseObject@@@std@@V?$allocator@U?$pair@$$CBVCGUID@@PAVCBaseObject@@@std@@@2@@std@@QAEPAXI@Z PROC ; std::_List_nod<std::pair<CGUID const ,CBaseObject *>,std::allocator<std::pair<CGUID const ,CBaseObject *> > >::_Node::`scalar deleting destructor', COMDAT
; _this$ = ecx
  00000	f6 44 24 04 01	 test	 BYTE PTR ___flags$[esp-4], 1
  00005	56		 push	 esi
  00006	8b f1		 mov	 esi, ecx
  00008	74 09		 je	 SHORT $LN4@scalar@2
  0000a	56		 push	 esi
  0000b	e8 00 00 00 00	 call	 ??3@YAXPAX@Z		; operator delete
  00010	83 c4 04	 add	 esp, 4
$LN4@scalar@2:
  00013	8b c6		 mov	 eax, esi
  00015	5e		 pop	 esi
  00016	c2 04 00	 ret	 4
??_G_Node@?$_List_nod@U?$pair@$$CBVCGUID@@PAVCBaseObject@@@std@@V?$allocator@U?$pair@$$CBVCGUID@@PAVCBaseObject@@@std@@@2@@std@@QAEPAXI@Z ENDP ; std::_List_nod<std::pair<CGUID const ,CBaseObject *>,std::allocator<std::pair<CGUID const ,CBaseObject *> > >::_Node::`scalar deleting destructor'
_TEXT	ENDS
PUBLIC	??$_Distance2@V?$_Iterator@$00@?$list@U?$pair@$$CBVCGUID@@PAVCBaseObject@@@std@@V?$allocator@U?$pair@$$CBVCGUID@@PAVCBaseObject@@@std@@@2@@std@@I@std@@YAXV?$_Iterator@$00@?$list@U?$pair@$$CBVCGUID@@PAVCBaseObject@@@std@@V?$allocator@U?$pair@$$CBVCGUID@@PAVCBaseObject@@@std@@@2@@0@0AAIUbidirectional_iterator_tag@0@@Z ; std::_Distance2<std::list<std::pair<CGUID const ,CBaseObject *>,std::allocator<std::pair<CGUID const ,CBaseObject *> > >::_Iterator<1>,unsigned int>
; Function compile flags: /Ogtpy
; File d:\program files\microsoft visual studio 8\vc\include\xutility
;	COMDAT ??$_Distance2@V?$_Iterator@$00@?$list@U?$pair@$$CBVCGUID@@PAVCBaseObject@@@std@@V?$allocator@U?$pair@$$CBVCGUID@@PAVCBaseObject@@@std@@@2@@std@@I@std@@YAXV?$_Iterator@$00@?$list@U?$pair@$$CBVCGUID@@PAVCBaseObject@@@std@@V?$allocator@U?$pair@$$CBVCGUID@@PAVCBaseObject@@@std@@@2@@0@0AAIUbidirectional_iterator_tag@0@@Z
_TEXT	SEGMENT
__First$ = 8						; size = 8
__Last$ = 16						; size = 8
__Off$ = 24						; size = 4
___formal$ = 28						; size = 1
??$_Distance2@V?$_Iterator@$00@?$list@U?$pair@$$CBVCGUID@@PAVCBaseObject@@@std@@V?$allocator@U?$pair@$$CBVCGUID@@PAVCBaseObject@@@std@@@2@@std@@I@std@@YAXV?$_Iterator@$00@?$list@U?$pair@$$CBVCGUID@@PAVCBaseObject@@@std@@V?$allocator@U?$pair@$$CBVCGUID@@PAVCBaseObject@@@std@@@2@@0@0AAIUbidirectional_iterator_tag@0@@Z PROC ; std::_Distance2<std::list<std::pair<CGUID const ,CBaseObject *>,std::allocator<std::pair<CGUID const ,CBaseObject *> > >::_Iterator<1>,unsigned int>, COMDAT

; 1666 : 	{	// add to _Off distance between bidirectional iterators (redundant)

  00000	53		 push	 ebx
  00001	8b 5c 24 0c	 mov	 ebx, DWORD PTR __First$[esp+4]
  00005	55		 push	 ebp
  00006	8b 6c 24 18	 mov	 ebp, DWORD PTR __Last$[esp+8]
  0000a	56		 push	 esi
  0000b	8b 74 24 10	 mov	 esi, DWORD PTR __First$[esp+8]
  0000f	57		 push	 edi
  00010	8b 7c 24 24	 mov	 edi, DWORD PTR __Off$[esp+12]

; 1667 : 	for (; _First != _Last; ++_First)

$LL12@Distance2:
  00014	85 f6		 test	 esi, esi
  00016	74 06		 je	 SHORT $LN18@Distance2
  00018	3b 74 24 1c	 cmp	 esi, DWORD PTR __Last$[esp+12]
  0001c	74 05		 je	 SHORT $LN19@Distance2
$LN18@Distance2:
  0001e	e8 00 00 00 00	 call	 __invalid_parameter_noinfo
$LN19@Distance2:
  00023	3b dd		 cmp	 ebx, ebp
  00025	74 1a		 je	 SHORT $LN1@Distance2

; 1668 : 		++_Off;

  00027	83 07 01	 add	 DWORD PTR [edi], 1
  0002a	85 f6		 test	 esi, esi
  0002c	75 05		 jne	 SHORT $LN10@Distance2

; 1667 : 	for (; _First != _Last; ++_First)

  0002e	e8 00 00 00 00	 call	 __invalid_parameter_noinfo
$LN10@Distance2:
  00033	3b 5e 04	 cmp	 ebx, DWORD PTR [esi+4]
  00036	75 05		 jne	 SHORT $LN8@Distance2
  00038	e8 00 00 00 00	 call	 __invalid_parameter_noinfo
$LN8@Distance2:
  0003d	8b 1b		 mov	 ebx, DWORD PTR [ebx]
  0003f	eb d3		 jmp	 SHORT $LL12@Distance2
$LN1@Distance2:
  00041	5f		 pop	 edi
  00042	5e		 pop	 esi
  00043	5d		 pop	 ebp
  00044	5b		 pop	 ebx

; 1669 : 	}

  00045	c3		 ret	 0
??$_Distance2@V?$_Iterator@$00@?$list@U?$pair@$$CBVCGUID@@PAVCBaseObject@@@std@@V?$allocator@U?$pair@$$CBVCGUID@@PAVCBaseObject@@@std@@@2@@std@@I@std@@YAXV?$_Iterator@$00@?$list@U?$pair@$$CBVCGUID@@PAVCBaseObject@@@std@@V?$allocator@U?$pair@$$CBVCGUID@@PAVCBaseObject@@@std@@@2@@0@0AAIUbidirectional_iterator_tag@0@@Z ENDP ; std::_Distance2<std::list<std::pair<CGUID const ,CBaseObject *>,std::allocator<std::pair<CGUID const ,CBaseObject *> > >::_Iterator<1>,unsigned int>
_TEXT	ENDS
PUBLIC	??$_Checked_base@PAU_List_position@?$_Hash@V?$_Hmap_traits@VCGUID@@PAVCBaseObject@@Vhash_guid_compare@@V?$allocator@U?$pair@$$CBVCGUID@@PAVCBaseObject@@@std@@@std@@$0A@@stdext@@@stdext@@@std@@YAPAU_List_position@?$_Hash@V?$_Hmap_traits@VCGUID@@PAVCBaseObject@@Vhash_guid_compare@@V?$allocator@U?$pair@$$CBVCGUID@@PAVCBaseObject@@@std@@@std@@$0A@@stdext@@@stdext@@AAPAU123@@Z ; std::_Checked_base<stdext::_Hash<stdext::_Hmap_traits<CGUID,CBaseObject *,hash_guid_compare,std::allocator<std::pair<CGUID const ,CBaseObject *> >,0> >::_List_position *>
; Function compile flags: /Ogtpy
;	COMDAT ??$_Checked_base@PAU_List_position@?$_Hash@V?$_Hmap_traits@VCGUID@@PAVCBaseObject@@Vhash_guid_compare@@V?$allocator@U?$pair@$$CBVCGUID@@PAVCBaseObject@@@std@@@std@@$0A@@stdext@@@stdext@@@std@@YAPAU_List_position@?$_Hash@V?$_Hmap_traits@VCGUID@@PAVCBaseObject@@Vhash_guid_compare@@V?$allocator@U?$pair@$$CBVCGUID@@PAVCBaseObject@@@std@@@std@@$0A@@stdext@@@stdext@@AAPAU123@@Z
_TEXT	SEGMENT
__It$ = 8						; size = 4
??$_Checked_base@PAU_List_position@?$_Hash@V?$_Hmap_traits@VCGUID@@PAVCBaseObject@@Vhash_guid_compare@@V?$allocator@U?$pair@$$CBVCGUID@@PAVCBaseObject@@@std@@@std@@$0A@@stdext@@@stdext@@@std@@YAPAU_List_position@?$_Hash@V?$_Hmap_traits@VCGUID@@PAVCBaseObject@@Vhash_guid_compare@@V?$allocator@U?$pair@$$CBVCGUID@@PAVCBaseObject@@@std@@@std@@$0A@@stdext@@@stdext@@AAPAU123@@Z PROC ; std::_Checked_base<stdext::_Hash<stdext::_Hmap_traits<CGUID,CBaseObject *,hash_guid_compare,std::allocator<std::pair<CGUID const ,CBaseObject *> >,0> >::_List_position *>, COMDAT

; 1010 : 		typename _Checked_iterator_base_helper<_Iter>::_Checked_iterator_base_type_tag _Base_tag;
; 1011 : 		return _Checked_base(_It, _Base_tag);

  00000	8b 44 24 04	 mov	 eax, DWORD PTR __It$[esp-4]
  00004	8b 00		 mov	 eax, DWORD PTR [eax]

; 1012 : 	}

  00006	c3		 ret	 0
??$_Checked_base@PAU_List_position@?$_Hash@V?$_Hmap_traits@VCGUID@@PAVCBaseObject@@Vhash_guid_compare@@V?$allocator@U?$pair@$$CBVCGUID@@PAVCBaseObject@@@std@@@std@@$0A@@stdext@@@stdext@@@std@@YAPAU_List_position@?$_Hash@V?$_Hmap_traits@VCGUID@@PAVCBaseObject@@Vhash_guid_compare@@V?$allocator@U?$pair@$$CBVCGUID@@PAVCBaseObject@@@std@@@std@@$0A@@stdext@@@stdext@@AAPAU123@@Z ENDP ; std::_Checked_base<stdext::_Hash<stdext::_Hmap_traits<CGUID,CBaseObject *,hash_guid_compare,std::allocator<std::pair<CGUID const ,CBaseObject *> >,0> >::_List_position *>
_TEXT	ENDS
PUBLIC	??$_Copy_opt@PAU_List_position@?$_Hash@V?$_Hmap_traits@VCGUID@@PAVCBaseObject@@Vhash_guid_compare@@V?$allocator@U?$pair@$$CBVCGUID@@PAVCBaseObject@@@std@@@std@@$0A@@stdext@@@stdext@@PAU123@@std@@YAPAU_List_position@?$_Hash@V?$_Hmap_traits@VCGUID@@PAVCBaseObject@@Vhash_guid_compare@@V?$allocator@U?$pair@$$CBVCGUID@@PAVCBaseObject@@@std@@@std@@$0A@@stdext@@@stdext@@PAU123@00Urandom_access_iterator_tag@0@U_Nonscalar_ptr_iterator_tag@0@U_Range_checked_iterator_tag@0@@Z ; std::_Copy_opt<stdext::_Hash<stdext::_Hmap_traits<CGUID,CBaseObject *,hash_guid_compare,std::allocator<std::pair<CGUID const ,CBaseObject *> >,0> >::_List_position *,stdext::_Hash<stdext::_Hmap_traits<CGUID,CBaseObject *,hash_guid_compare,std::allocator<std::pair<CGUID const ,CBaseObject *> >,0> >::_List_position *>
; Function compile flags: /Ogtpy
;	COMDAT ??$_Copy_opt@PAU_List_position@?$_Hash@V?$_Hmap_traits@VCGUID@@PAVCBaseObject@@Vhash_guid_compare@@V?$allocator@U?$pair@$$CBVCGUID@@PAVCBaseObject@@@std@@@std@@$0A@@stdext@@@stdext@@PAU123@@std@@YAPAU_List_position@?$_Hash@V?$_Hmap_traits@VCGUID@@PAVCBaseObject@@Vhash_guid_compare@@V?$allocator@U?$pair@$$CBVCGUID@@PAVCBaseObject@@@std@@@std@@$0A@@stdext@@@stdext@@PAU123@00Urandom_access_iterator_tag@0@U_Nonscalar_ptr_iterator_tag@0@U_Range_checked_iterator_tag@0@@Z
_TEXT	SEGMENT
__First$ = 8						; size = 4
__Last$ = 12						; size = 4
__Dest$ = 16						; size = 4
___formal$ = 20						; size = 1
___formal$ = 24						; size = 1
___formal$ = 28						; size = 1
??$_Copy_opt@PAU_List_position@?$_Hash@V?$_Hmap_traits@VCGUID@@PAVCBaseObject@@Vhash_guid_compare@@V?$allocator@U?$pair@$$CBVCGUID@@PAVCBaseObject@@@std@@@std@@$0A@@stdext@@@stdext@@PAU123@@std@@YAPAU_List_position@?$_Hash@V?$_Hmap_traits@VCGUID@@PAVCBaseObject@@Vhash_guid_compare@@V?$allocator@U?$pair@$$CBVCGUID@@PAVCBaseObject@@@std@@@std@@$0A@@stdext@@@stdext@@PAU123@00Urandom_access_iterator_tag@0@U_Nonscalar_ptr_iterator_tag@0@U_Range_checked_iterator_tag@0@@Z PROC ; std::_Copy_opt<stdext::_Hash<stdext::_Hmap_traits<CGUID,CBaseObject *,hash_guid_compare,std::allocator<std::pair<CGUID const ,CBaseObject *> >,0> >::_List_position *,stdext::_Hash<stdext::_Hmap_traits<CGUID,CBaseObject *,hash_guid_compare,std::allocator<std::pair<CGUID const ,CBaseObject *> >,0> >::_List_position *>, COMDAT

; 2276 : 	// if _OutIt is range checked, this will make sure there is enough space for the copy
; 2277 : 	_OutIt _Result = _Dest + (_Last - _First);

  00000	8b 4c 24 04	 mov	 ecx, DWORD PTR __First$[esp-4]
  00004	8b 54 24 0c	 mov	 edx, DWORD PTR __Dest$[esp-4]
  00008	56		 push	 esi
  00009	8b 74 24 0c	 mov	 esi, DWORD PTR __Last$[esp]
  0000d	8b c6		 mov	 eax, esi
  0000f	2b c1		 sub	 eax, ecx
  00011	c1 f8 03	 sar	 eax, 3

; 2278 : 	_Copy_opt(_First, _Last, _CHECKED_BASE(_Dest), 
; 2279 : 		forward_iterator_tag(), _Nonscalar_ptr_iterator_tag(), _Range_checked_iterator_tag());

  00014	3b ce		 cmp	 ecx, esi
  00016	8d 04 c2	 lea	 eax, DWORD PTR [edx+eax*8]
  00019	74 19		 je	 SHORT $LN7@Copy_opt@2
  0001b	2b d1		 sub	 edx, ecx
  0001d	57		 push	 edi
  0001e	8b ff		 npad	 2
$LL9@Copy_opt@2:
  00020	8b 39		 mov	 edi, DWORD PTR [ecx]
  00022	89 3c 0a	 mov	 DWORD PTR [edx+ecx], edi
  00025	8b 79 04	 mov	 edi, DWORD PTR [ecx+4]
  00028	89 7c 0a 04	 mov	 DWORD PTR [edx+ecx+4], edi
  0002c	83 c1 08	 add	 ecx, 8
  0002f	3b ce		 cmp	 ecx, esi
  00031	75 ed		 jne	 SHORT $LL9@Copy_opt@2
  00033	5f		 pop	 edi
$LN7@Copy_opt@2:
  00034	5e		 pop	 esi

; 2280 : 	return _Result;
; 2281 : 	}

  00035	c3		 ret	 0
??$_Copy_opt@PAU_List_position@?$_Hash@V?$_Hmap_traits@VCGUID@@PAVCBaseObject@@Vhash_guid_compare@@V?$allocator@U?$pair@$$CBVCGUID@@PAVCBaseObject@@@std@@@std@@$0A@@stdext@@@stdext@@PAU123@@std@@YAPAU_List_position@?$_Hash@V?$_Hmap_traits@VCGUID@@PAVCBaseObject@@Vhash_guid_compare@@V?$allocator@U?$pair@$$CBVCGUID@@PAVCBaseObject@@@std@@@std@@$0A@@stdext@@@stdext@@PAU123@00Urandom_access_iterator_tag@0@U_Nonscalar_ptr_iterator_tag@0@U_Range_checked_iterator_tag@0@@Z ENDP ; std::_Copy_opt<stdext::_Hash<stdext::_Hmap_traits<CGUID,CBaseObject *,hash_guid_compare,std::allocator<std::pair<CGUID const ,CBaseObject *> >,0> >::_List_position *,stdext::_Hash<stdext::_Hmap_traits<CGUID,CBaseObject *,hash_guid_compare,std::allocator<std::pair<CGUID const ,CBaseObject *> >,0> >::_List_position *>
_TEXT	ENDS
PUBLIC	?construct@?$allocator@U_List_position@?$_Hash@V?$_Hmap_traits@VCGUID@@PAVCBaseObject@@Vhash_guid_compare@@V?$allocator@U?$pair@$$CBVCGUID@@PAVCBaseObject@@@std@@@std@@$0A@@stdext@@@stdext@@@std@@QAEXPAU_List_position@?$_Hash@V?$_Hmap_traits@VCGUID@@PAVCBaseObject@@Vhash_guid_compare@@V?$allocator@U?$pair@$$CBVCGUID@@PAVCBaseObject@@@std@@@std@@$0A@@stdext@@@stdext@@ABU345@@Z ; std::allocator<stdext::_Hash<stdext::_Hmap_traits<CGUID,CBaseObject *,hash_guid_compare,std::allocator<std::pair<CGUID const ,CBaseObject *> >,0> >::_List_position>::construct
; Function compile flags: /Ogtpy
; File d:\program files\microsoft visual studio 8\vc\include\xmemory
;	COMDAT ?construct@?$allocator@U_List_position@?$_Hash@V?$_Hmap_traits@VCGUID@@PAVCBaseObject@@Vhash_guid_compare@@V?$allocator@U?$pair@$$CBVCGUID@@PAVCBaseObject@@@std@@@std@@$0A@@stdext@@@stdext@@@std@@QAEXPAU_List_position@?$_Hash@V?$_Hmap_traits@VCGUID@@PAVCBaseObject@@Vhash_guid_compare@@V?$allocator@U?$pair@$$CBVCGUID@@PAVCBaseObject@@@std@@@std@@$0A@@stdext@@@stdext@@ABU345@@Z
_TEXT	SEGMENT
__Ptr$ = 8						; size = 4
__Val$ = 12						; size = 4
?construct@?$allocator@U_List_position@?$_Hash@V?$_Hmap_traits@VCGUID@@PAVCBaseObject@@Vhash_guid_compare@@V?$allocator@U?$pair@$$CBVCGUID@@PAVCBaseObject@@@std@@@std@@$0A@@stdext@@@stdext@@@std@@QAEXPAU_List_position@?$_Hash@V?$_Hmap_traits@VCGUID@@PAVCBaseObject@@Vhash_guid_compare@@V?$allocator@U?$pair@$$CBVCGUID@@PAVCBaseObject@@@std@@@std@@$0A@@stdext@@@stdext@@ABU345@@Z PROC ; std::allocator<stdext::_Hash<stdext::_Hmap_traits<CGUID,CBaseObject *,hash_guid_compare,std::allocator<std::pair<CGUID const ,CBaseObject *> >,0> >::_List_position>::construct, COMDAT
; _this$ = ecx

; 156  : 		_Construct(_Ptr, _Val);

  00000	8b 44 24 04	 mov	 eax, DWORD PTR __Ptr$[esp-4]
  00004	85 c0		 test	 eax, eax
  00006	74 0e		 je	 SHORT $LN5@construct@3
  00008	8b 4c 24 08	 mov	 ecx, DWORD PTR __Val$[esp-4]
  0000c	8b 11		 mov	 edx, DWORD PTR [ecx]
  0000e	89 10		 mov	 DWORD PTR [eax], edx
  00010	8b 49 04	 mov	 ecx, DWORD PTR [ecx+4]
  00013	89 48 04	 mov	 DWORD PTR [eax+4], ecx
$LN5@construct@3:

; 157  : 		}

  00016	c2 08 00	 ret	 8
?construct@?$allocator@U_List_position@?$_Hash@V?$_Hmap_traits@VCGUID@@PAVCBaseObject@@Vhash_guid_compare@@V?$allocator@U?$pair@$$CBVCGUID@@PAVCBaseObject@@@std@@@std@@$0A@@stdext@@@stdext@@@std@@QAEXPAU_List_position@?$_Hash@V?$_Hmap_traits@VCGUID@@PAVCBaseObject@@Vhash_guid_compare@@V?$allocator@U?$pair@$$CBVCGUID@@PAVCBaseObject@@@std@@@std@@$0A@@stdext@@@stdext@@ABU345@@Z ENDP ; std::allocator<stdext::_Hash<stdext::_Hmap_traits<CGUID,CBaseObject *,hash_guid_compare,std::allocator<std::pair<CGUID const ,CBaseObject *> >,0> >::_List_position>::construct
_TEXT	ENDS
PUBLIC	?destroy@?$allocator@U_List_position@?$_Hash@V?$_Hmap_traits@VCGUID@@PAVCBaseObject@@Vhash_guid_compare@@V?$allocator@U?$pair@$$CBVCGUID@@PAVCBaseObject@@@std@@@std@@$0A@@stdext@@@stdext@@@std@@QAEXPAU_List_position@?$_Hash@V?$_Hmap_traits@VCGUID@@PAVCBaseObject@@Vhash_guid_compare@@V?$allocator@U?$pair@$$CBVCGUID@@PAVCBaseObject@@@std@@@std@@$0A@@stdext@@@stdext@@@Z ; std::allocator<stdext::_Hash<stdext::_Hmap_traits<CGUID,CBaseObject *,hash_guid_compare,std::allocator<std::pair<CGUID const ,CBaseObject *> >,0> >::_List_position>::destroy
; Function compile flags: /Ogtpy
;	COMDAT ?destroy@?$allocator@U_List_position@?$_Hash@V?$_Hmap_traits@VCGUID@@PAVCBaseObject@@Vhash_guid_compare@@V?$allocator@U?$pair@$$CBVCGUID@@PAVCBaseObject@@@std@@@std@@$0A@@stdext@@@stdext@@@std@@QAEXPAU_List_position@?$_Hash@V?$_Hmap_traits@VCGUID@@PAVCBaseObject@@Vhash_guid_compare@@V?$allocator@U?$pair@$$CBVCGUID@@PAVCBaseObject@@@std@@@std@@$0A@@stdext@@@stdext@@@Z
_TEXT	SEGMENT
__Ptr$ = 8						; size = 4
?destroy@?$allocator@U_List_position@?$_Hash@V?$_Hmap_traits@VCGUID@@PAVCBaseObject@@Vhash_guid_compare@@V?$allocator@U?$pair@$$CBVCGUID@@PAVCBaseObject@@@std@@@std@@$0A@@stdext@@@stdext@@@std@@QAEXPAU_List_position@?$_Hash@V?$_Hmap_traits@VCGUID@@PAVCBaseObject@@Vhash_guid_compare@@V?$allocator@U?$pair@$$CBVCGUID@@PAVCBaseObject@@@std@@@std@@$0A@@stdext@@@stdext@@@Z PROC ; std::allocator<stdext::_Hash<stdext::_Hmap_traits<CGUID,CBaseObject *,hash_guid_compare,std::allocator<std::pair<CGUID const ,CBaseObject *> >,0> >::_List_position>::destroy, COMDAT
; _this$ = ecx

; 161  : 		_Destroy(_Ptr);
; 162  : 		}

  00000	c2 04 00	 ret	 4
?destroy@?$allocator@U_List_position@?$_Hash@V?$_Hmap_traits@VCGUID@@PAVCBaseObject@@Vhash_guid_compare@@V?$allocator@U?$pair@$$CBVCGUID@@PAVCBaseObject@@@std@@@std@@$0A@@stdext@@@stdext@@@std@@QAEXPAU_List_position@?$_Hash@V?$_Hmap_traits@VCGUID@@PAVCBaseObject@@Vhash_guid_compare@@V?$allocator@U?$pair@$$CBVCGUID@@PAVCBaseObject@@@std@@@std@@$0A@@stdext@@@stdext@@@Z ENDP ; std::allocator<stdext::_Hash<stdext::_Hmap_traits<CGUID,CBaseObject *,hash_guid_compare,std::allocator<std::pair<CGUID const ,CBaseObject *> >,0> >::_List_position>::destroy
_TEXT	ENDS
PUBLIC	??$_Copy_backward_opt@PAU_List_position@?$_Hash@V?$_Hmap_traits@VCGUID@@PAVCBaseObject@@Vhash_guid_compare@@V?$allocator@U?$pair@$$CBVCGUID@@PAVCBaseObject@@@std@@@std@@$0A@@stdext@@@stdext@@PAU123@@std@@YAPAU_List_position@?$_Hash@V?$_Hmap_traits@VCGUID@@PAVCBaseObject@@Vhash_guid_compare@@V?$allocator@U?$pair@$$CBVCGUID@@PAVCBaseObject@@@std@@@std@@$0A@@stdext@@@stdext@@PAU123@00Urandom_access_iterator_tag@0@U_Nonscalar_ptr_iterator_tag@0@U_Range_checked_iterator_tag@0@@Z ; std::_Copy_backward_opt<stdext::_Hash<stdext::_Hmap_traits<CGUID,CBaseObject *,hash_guid_compare,std::allocator<std::pair<CGUID const ,CBaseObject *> >,0> >::_List_position *,stdext::_Hash<stdext::_Hmap_traits<CGUID,CBaseObject *,hash_guid_compare,std::allocator<std::pair<CGUID const ,CBaseObject *> >,0> >::_List_position *>
; Function compile flags: /Ogtpy
; File d:\program files\microsoft visual studio 8\vc\include\xutility
;	COMDAT ??$_Copy_backward_opt@PAU_List_position@?$_Hash@V?$_Hmap_traits@VCGUID@@PAVCBaseObject@@Vhash_guid_compare@@V?$allocator@U?$pair@$$CBVCGUID@@PAVCBaseObject@@@std@@@std@@$0A@@stdext@@@stdext@@PAU123@@std@@YAPAU_List_position@?$_Hash@V?$_Hmap_traits@VCGUID@@PAVCBaseObject@@Vhash_guid_compare@@V?$allocator@U?$pair@$$CBVCGUID@@PAVCBaseObject@@@std@@@std@@$0A@@stdext@@@stdext@@PAU123@00Urandom_access_iterator_tag@0@U_Nonscalar_ptr_iterator_tag@0@U_Range_checked_iterator_tag@0@@Z
_TEXT	SEGMENT
__First$ = 8						; size = 4
__Last$ = 12						; size = 4
__Dest$ = 16						; size = 4
___formal$ = 20						; size = 1
___formal$ = 24						; size = 1
___formal$ = 28						; size = 1
??$_Copy_backward_opt@PAU_List_position@?$_Hash@V?$_Hmap_traits@VCGUID@@PAVCBaseObject@@Vhash_guid_compare@@V?$allocator@U?$pair@$$CBVCGUID@@PAVCBaseObject@@@std@@@std@@$0A@@stdext@@@stdext@@PAU123@@std@@YAPAU_List_position@?$_Hash@V?$_Hmap_traits@VCGUID@@PAVCBaseObject@@Vhash_guid_compare@@V?$allocator@U?$pair@$$CBVCGUID@@PAVCBaseObject@@@std@@@std@@$0A@@stdext@@@stdext@@PAU123@00Urandom_access_iterator_tag@0@U_Nonscalar_ptr_iterator_tag@0@U_Range_checked_iterator_tag@0@@Z PROC ; std::_Copy_backward_opt<stdext::_Hash<stdext::_Hmap_traits<CGUID,CBaseObject *,hash_guid_compare,std::allocator<std::pair<CGUID const ,CBaseObject *> >,0> >::_List_position *,stdext::_Hash<stdext::_Hmap_traits<CGUID,CBaseObject *,hash_guid_compare,std::allocator<std::pair<CGUID const ,CBaseObject *> >,0> >::_List_position *>, COMDAT

; 2480 : 	// if _OutIt is range checked, this will make sure there is enough space for the copy
; 2481 : 	_OutIt _Result = _Dest - (_Last - _First);

  00000	8b 4c 24 08	 mov	 ecx, DWORD PTR __Last$[esp-4]
  00004	8b 54 24 0c	 mov	 edx, DWORD PTR __Dest$[esp-4]
  00008	56		 push	 esi
  00009	8b 74 24 08	 mov	 esi, DWORD PTR __First$[esp]
  0000d	8b c1		 mov	 eax, ecx
  0000f	2b c6		 sub	 eax, esi
  00011	c1 f8 03	 sar	 eax, 3
  00014	03 c0		 add	 eax, eax
  00016	03 c0		 add	 eax, eax
  00018	03 c0		 add	 eax, eax
  0001a	57		 push	 edi
  0001b	8b f8		 mov	 edi, eax
  0001d	8b c2		 mov	 eax, edx
  0001f	2b c7		 sub	 eax, edi

; 2482 : 	_Copy_backward_opt(_First, _Last, _CHECKED_BASE(_Dest),
; 2483 : 		forward_iterator_tag(), _Nonscalar_ptr_iterator_tag(), _Range_checked_iterator_tag());

  00021	3b f1		 cmp	 esi, ecx
  00023	74 16		 je	 SHORT $LN7@Copy_backw@2
  00025	2b d1		 sub	 edx, ecx
$LL8@Copy_backw@2:
  00027	8b 79 f8	 mov	 edi, DWORD PTR [ecx-8]
  0002a	83 e9 08	 sub	 ecx, 8
  0002d	3b ce		 cmp	 ecx, esi
  0002f	89 3c 0a	 mov	 DWORD PTR [edx+ecx], edi
  00032	8b 79 04	 mov	 edi, DWORD PTR [ecx+4]
  00035	89 7c 0a 04	 mov	 DWORD PTR [edx+ecx+4], edi
  00039	75 ec		 jne	 SHORT $LL8@Copy_backw@2
$LN7@Copy_backw@2:
  0003b	5f		 pop	 edi
  0003c	5e		 pop	 esi

; 2484 : 	return _Result;
; 2485 : 	}

  0003d	c3		 ret	 0
??$_Copy_backward_opt@PAU_List_position@?$_Hash@V?$_Hmap_traits@VCGUID@@PAVCBaseObject@@Vhash_guid_compare@@V?$allocator@U?$pair@$$CBVCGUID@@PAVCBaseObject@@@std@@@std@@$0A@@stdext@@@stdext@@PAU123@@std@@YAPAU_List_position@?$_Hash@V?$_Hmap_traits@VCGUID@@PAVCBaseObject@@Vhash_guid_compare@@V?$allocator@U?$pair@$$CBVCGUID@@PAVCBaseObject@@@std@@@std@@$0A@@stdext@@@stdext@@PAU123@00Urandom_access_iterator_tag@0@U_Nonscalar_ptr_iterator_tag@0@U_Range_checked_iterator_tag@0@@Z ENDP ; std::_Copy_backward_opt<stdext::_Hash<stdext::_Hmap_traits<CGUID,CBaseObject *,hash_guid_compare,std::allocator<std::pair<CGUID const ,CBaseObject *> >,0> >::_List_position *,stdext::_Hash<stdext::_Hmap_traits<CGUID,CBaseObject *,hash_guid_compare,std::allocator<std::pair<CGUID const ,CBaseObject *> >,0> >::_List_position *>
_TEXT	ENDS
PUBLIC	??0?$CHeapPool@VLockOfWinWhileSleep@XM_Tools@@@XM_Tools@@QAE@XZ ; XM_Tools::CHeapPool<XM_Tools::LockOfWinWhileSleep>::CHeapPool<XM_Tools::LockOfWinWhileSleep>
; Function compile flags: /Ogtpy
; File d:\project_p6\trunk\public\memmanage\cpp\heappool.tcc
;	COMDAT ??0?$CHeapPool@VLockOfWinWhileSleep@XM_Tools@@@XM_Tools@@QAE@XZ
_TEXT	SEGMENT
??0?$CHeapPool@VLockOfWinWhileSleep@XM_Tools@@@XM_Tools@@QAE@XZ PROC ; XM_Tools::CHeapPool<XM_Tools::LockOfWinWhileSleep>::CHeapPool<XM_Tools::LockOfWinWhileSleep>, COMDAT
; _this$ = ecx

; 16   : 	{

  00000	8b c1		 mov	 eax, ecx
  00002	33 c9		 xor	 ecx, ecx
  00004	89 48 04	 mov	 DWORD PTR [eax+4], ecx
  00007	89 48 28	 mov	 DWORD PTR [eax+40], ecx
  0000a	89 48 2c	 mov	 DWORD PTR [eax+44], ecx
  0000d	89 08		 mov	 DWORD PTR [eax], ecx
  0000f	89 48 48	 mov	 DWORD PTR [eax+72], ecx
  00012	89 48 50	 mov	 DWORD PTR [eax+80], ecx
  00015	89 48 74	 mov	 DWORD PTR [eax+116], ecx
  00018	89 48 78	 mov	 DWORD PTR [eax+120], ecx
  0001b	89 48 4c	 mov	 DWORD PTR [eax+76], ecx
  0001e	89 88 94 00 00
	00		 mov	 DWORD PTR [eax+148], ecx

; 17   : 
; 18   : 	}

  00024	c3		 ret	 0
??0?$CHeapPool@VLockOfWinWhileSleep@XM_Tools@@@XM_Tools@@QAE@XZ ENDP ; XM_Tools::CHeapPool<XM_Tools::LockOfWinWhileSleep>::CHeapPool<XM_Tools::LockOfWinWhileSleep>
_TEXT	ENDS
PUBLIC	?PushNode@?$CMemList@EVLockOfWinWhileSleep@XM_Tools@@@XM_Tools@@QAEXPAV?$CListNode@E@2@@Z ; XM_Tools::CMemList<unsigned char,XM_Tools::LockOfWinWhileSleep>::PushNode
; Function compile flags: /Ogtpy
; File d:\project_p6\trunk\public\memmanage\cpp\memlist.tcc
;	COMDAT ?PushNode@?$CMemList@EVLockOfWinWhileSleep@XM_Tools@@@XM_Tools@@QAEXPAV?$CListNode@E@2@@Z
_TEXT	SEGMENT
_pNode$ = 8						; size = 4
?PushNode@?$CMemList@EVLockOfWinWhileSleep@XM_Tools@@@XM_Tools@@QAEXPAV?$CListNode@E@2@@Z PROC ; XM_Tools::CMemList<unsigned char,XM_Tools::LockOfWinWhileSleep>::PushNode, COMDAT
; _this$ = ecx

; 35   : 	{

  00000	56		 push	 esi
  00001	8b f1		 mov	 esi, ecx

; 36   : 		m_Lock.Lock();

  00003	8d 4e 04	 lea	 ecx, DWORD PTR [esi+4]
  00006	e8 00 00 00 00	 call	 ?Lock@LockOfWinWhileSleep@XM_Tools@@QAEXXZ ; XM_Tools::LockOfWinWhileSleep::Lock

; 37   : 		{
; 38   : 			pNode->SetNext(m_pHead);

  0000b	8b 0e		 mov	 ecx, DWORD PTR [esi]
  0000d	8b 44 24 08	 mov	 eax, DWORD PTR _pNode$[esp]
  00011	89 48 04	 mov	 DWORD PTR [eax+4], ecx

; 39   : 			m_pHead = pNode;
; 40   : 			++m_uNum;

  00014	83 46 44 01	 add	 DWORD PTR [esi+68], 1

; 41   : 		}
; 42   : 		m_Lock.UnLock();

  00018	6a 01		 push	 1
  0001a	89 06		 mov	 DWORD PTR [esi], eax
  0001c	6a 00		 push	 0
  0001e	83 c6 24	 add	 esi, 36			; 00000024H
  00021	56		 push	 esi
  00022	ff 15 00 00 00
	00		 call	 DWORD PTR __imp__InterlockedCompareExchange@12
  00028	5e		 pop	 esi

; 43   : 	}

  00029	c2 04 00	 ret	 4
?PushNode@?$CMemList@EVLockOfWinWhileSleep@XM_Tools@@@XM_Tools@@QAEXPAV?$CListNode@E@2@@Z ENDP ; XM_Tools::CMemList<unsigned char,XM_Tools::LockOfWinWhileSleep>::PushNode
_TEXT	ENDS
PUBLIC	?PopNode@?$CMemList@EVLockOfWinWhileSleep@XM_Tools@@@XM_Tools@@QAEPAV?$CListNode@E@2@XZ ; XM_Tools::CMemList<unsigned char,XM_Tools::LockOfWinWhileSleep>::PopNode
; Function compile flags: /Ogtpy
;	COMDAT ?PopNode@?$CMemList@EVLockOfWinWhileSleep@XM_Tools@@@XM_Tools@@QAEPAV?$CListNode@E@2@XZ
_TEXT	SEGMENT
?PopNode@?$CMemList@EVLockOfWinWhileSleep@XM_Tools@@@XM_Tools@@QAEPAV?$CListNode@E@2@XZ PROC ; XM_Tools::CMemList<unsigned char,XM_Tools::LockOfWinWhileSleep>::PopNode, COMDAT
; _this$ = ecx

; 48   : 	{

  00000	56		 push	 esi
  00001	8b f1		 mov	 esi, ecx
  00003	57		 push	 edi

; 49   : 		CListNode<_TNodeInfo>* pRe = NULL;
; 50   : 		m_Lock.Lock();

  00004	8d 4e 04	 lea	 ecx, DWORD PTR [esi+4]
  00007	e8 00 00 00 00	 call	 ?Lock@LockOfWinWhileSleep@XM_Tools@@QAEXXZ ; XM_Tools::LockOfWinWhileSleep::Lock

; 51   : 		{
; 52   : 			pRe = m_pHead;

  0000c	8b 3e		 mov	 edi, DWORD PTR [esi]

; 53   : 			if(NULL != m_pHead)

  0000e	85 ff		 test	 edi, edi
  00010	74 09		 je	 SHORT $LN1@PopNode@2

; 54   : 			{
; 55   : 				m_pHead = m_pHead->GetNext();

  00012	8b 47 04	 mov	 eax, DWORD PTR [edi+4]

; 56   : 				--m_uNum;

  00015	83 46 44 ff	 add	 DWORD PTR [esi+68], -1
  00019	89 06		 mov	 DWORD PTR [esi], eax
$LN1@PopNode@2:

; 57   : 			}
; 58   : 		}
; 59   : 		m_Lock.UnLock();

  0001b	6a 01		 push	 1
  0001d	6a 00		 push	 0
  0001f	83 c6 24	 add	 esi, 36			; 00000024H
  00022	56		 push	 esi
  00023	ff 15 00 00 00
	00		 call	 DWORD PTR __imp__InterlockedCompareExchange@12

; 60   : 		return pRe;

  00029	8b c7		 mov	 eax, edi
  0002b	5f		 pop	 edi
  0002c	5e		 pop	 esi

; 61   : 	}

  0002d	c3		 ret	 0
?PopNode@?$CMemList@EVLockOfWinWhileSleep@XM_Tools@@@XM_Tools@@QAEPAV?$CListNode@E@2@XZ ENDP ; XM_Tools::CMemList<unsigned char,XM_Tools::LockOfWinWhileSleep>::PopNode
_TEXT	ENDS
PUBLIC	?PushNode@?$CMemSerialBList@UtagHeapMemInfo@?$CHeapPool@VLockOfWinWhileSleep@XM_Tools@@@XM_Tools@@VLockOfWinWhileSleep@3@VHeapMemInfoLikeCompare@23@@XM_Tools@@QAEXPAV?$CListBNode@UtagHeapMemInfo@?$CHeapPool@VLockOfWinWhileSleep@XM_Tools@@@XM_Tools@@@2@@Z ; XM_Tools::CMemSerialBList<XM_Tools::CHeapPool<XM_Tools::LockOfWinWhileSleep>::tagHeapMemInfo,XM_Tools::LockOfWinWhileSleep,XM_Tools::CHeapPool<XM_Tools::LockOfWinWhileSleep>::HeapMemInfoLikeCompare>::PushNode
; Function compile flags: /Ogtpy
;	COMDAT ?PushNode@?$CMemSerialBList@UtagHeapMemInfo@?$CHeapPool@VLockOfWinWhileSleep@XM_Tools@@@XM_Tools@@VLockOfWinWhileSleep@3@VHeapMemInfoLikeCompare@23@@XM_Tools@@QAEXPAV?$CListBNode@UtagHeapMemInfo@?$CHeapPool@VLockOfWinWhileSleep@XM_Tools@@@XM_Tools@@@2@@Z
_TEXT	SEGMENT
_pNode$ = 8						; size = 4
?PushNode@?$CMemSerialBList@UtagHeapMemInfo@?$CHeapPool@VLockOfWinWhileSleep@XM_Tools@@@XM_Tools@@VLockOfWinWhileSleep@3@VHeapMemInfoLikeCompare@23@@XM_Tools@@QAEXPAV?$CListBNode@UtagHeapMemInfo@?$CHeapPool@VLockOfWinWhileSleep@XM_Tools@@@XM_Tools@@@2@@Z PROC ; XM_Tools::CMemSerialBList<XM_Tools::CHeapPool<XM_Tools::LockOfWinWhileSleep>::tagHeapMemInfo,XM_Tools::LockOfWinWhileSleep,XM_Tools::CHeapPool<XM_Tools::LockOfWinWhileSleep>::HeapMemInfoLikeCompare>::PushNode, COMDAT
; _this$ = ecx

; 102  : 	{

  00000	56		 push	 esi
  00001	8b f1		 mov	 esi, ecx

; 103  : 		m_Lock.Lock();

  00003	8d 4e 08	 lea	 ecx, DWORD PTR [esi+8]
  00006	e8 00 00 00 00	 call	 ?Lock@LockOfWinWhileSleep@XM_Tools@@QAEXXZ ; XM_Tools::LockOfWinWhileSleep::Lock

; 104  : 		{
; 105  : 			if(NULL == m_pHead)

  0000b	8b 06		 mov	 eax, DWORD PTR [esi]
  0000d	85 c0		 test	 eax, eax
  0000f	75 19		 jne	 SHORT $LN13@PushNode

; 106  : 			{
; 107  : 				pNode->SetNext(NULL);

  00011	8b 44 24 08	 mov	 eax, DWORD PTR _pNode$[esp]
  00015	c7 40 08 00 00
	00 00		 mov	 DWORD PTR [eax+8], 0

; 108  : 				pNode->SetPrev(NULL);

  0001c	c7 40 04 00 00
	00 00		 mov	 DWORD PTR [eax+4], 0

; 109  : 				m_pHead = pNode;

  00023	89 06		 mov	 DWORD PTR [esi], eax

; 110  : 				m_pFoot = pNode;

  00025	89 46 04	 mov	 DWORD PTR [esi+4], eax

; 111  : 			}
; 112  : 			else

  00028	eb 50		 jmp	 SHORT $LN9@PushNode
$LN13@PushNode:

; 113  : 			{
; 114  : 				CListBNode<_TNodeInfo>* pCurr = m_pHead;
; 115  : 				do 
; 116  : 				{
; 117  : 					//! 
; 118  : 					if(pNode->GetInfo() < pCurr->GetInfo())

  0002a	8b 4c 24 08	 mov	 ecx, DWORD PTR _pNode$[esp]
  0002e	8b 11		 mov	 edx, DWORD PTR [ecx]
  00030	3b 10		 cmp	 edx, DWORD PTR [eax]
  00032	72 0f		 jb	 SHORT $LN63@PushNode
$LL11@PushNode:

; 128  : 						break;
; 129  : 					}
; 130  : 					//! 
; 131  : 					else if(NULL == pCurr->GetNext())

  00034	8b 50 08	 mov	 edx, DWORD PTR [eax+8]
  00037	85 d2		 test	 edx, edx
  00039	74 24		 je	 SHORT $LN64@PushNode

; 141  : 						break;
; 142  : 					}
; 143  : 					else
; 144  : 					{
; 145  : 						pCurr = pCurr->GetNext();

  0003b	8b c2		 mov	 eax, edx
  0003d	8b 11		 mov	 edx, DWORD PTR [ecx]
  0003f	3b 10		 cmp	 edx, DWORD PTR [eax]
  00041	73 f1		 jae	 SHORT $LL11@PushNode
$LN63@PushNode:

; 119  : 					{
; 120  : 						//! 
; 121  : 						pNode->SetNext(pCurr);

  00043	89 41 08	 mov	 DWORD PTR [ecx+8], eax

; 122  : 						pNode->SetPrev(pCurr->GetPrev());

  00046	8b 50 04	 mov	 edx, DWORD PTR [eax+4]
  00049	89 51 04	 mov	 DWORD PTR [ecx+4], edx

; 123  : 						pCurr->SetPrev(pNode);			

  0004c	89 48 04	 mov	 DWORD PTR [eax+4], ecx

; 124  : 						if(NULL == pNode->GetPrev())

  0004f	8b 41 04	 mov	 eax, DWORD PTR [ecx+4]
  00052	85 c0		 test	 eax, eax
  00054	75 04		 jne	 SHORT $LN7@PushNode

; 125  : 							m_pHead = pNode;

  00056	89 0e		 mov	 DWORD PTR [esi], ecx

; 126  : 						else

  00058	eb 20		 jmp	 SHORT $LN9@PushNode
$LN7@PushNode:

; 127  : 							pNode->GetPrev()->SetNext(pNode);

  0005a	89 48 08	 mov	 DWORD PTR [eax+8], ecx
  0005d	eb 1b		 jmp	 SHORT $LN9@PushNode
$LN64@PushNode:

; 132  : 					{
; 133  : 						//! 
; 134  : 						pNode->SetPrev(pCurr);

  0005f	89 41 04	 mov	 DWORD PTR [ecx+4], eax

; 135  : 						pNode->SetNext(pCurr->GetNext());

  00062	8b 50 08	 mov	 edx, DWORD PTR [eax+8]
  00065	89 51 08	 mov	 DWORD PTR [ecx+8], edx

; 136  : 						pCurr->SetNext(pNode);

  00068	89 48 08	 mov	 DWORD PTR [eax+8], ecx

; 137  : 						if(NULL == pNode->GetNext())

  0006b	8b 41 08	 mov	 eax, DWORD PTR [ecx+8]
  0006e	85 c0		 test	 eax, eax
  00070	75 05		 jne	 SHORT $LN3@PushNode

; 138  : 							m_pFoot = pNode;

  00072	89 4e 04	 mov	 DWORD PTR [esi+4], ecx

; 139  : 						else

  00075	eb 03		 jmp	 SHORT $LN9@PushNode
$LN3@PushNode:

; 140  : 							pNode->GetNext()->SetPrev(pNode);

  00077	89 48 04	 mov	 DWORD PTR [eax+4], ecx
$LN9@PushNode:

; 146  : 					}
; 147  : 				} while(true);
; 148  : 			}
; 149  : 
; 150  : 			++m_uNum;

  0007a	83 46 48 01	 add	 DWORD PTR [esi+72], 1

; 151  : 		}
; 152  : 		m_Lock.UnLock();

  0007e	6a 01		 push	 1
  00080	6a 00		 push	 0
  00082	83 c6 28	 add	 esi, 40			; 00000028H
  00085	56		 push	 esi
  00086	ff 15 00 00 00
	00		 call	 DWORD PTR __imp__InterlockedCompareExchange@12
  0008c	5e		 pop	 esi

; 153  : 	}

  0008d	c2 04 00	 ret	 4
?PushNode@?$CMemSerialBList@UtagHeapMemInfo@?$CHeapPool@VLockOfWinWhileSleep@XM_Tools@@@XM_Tools@@VLockOfWinWhileSleep@3@VHeapMemInfoLikeCompare@23@@XM_Tools@@QAEXPAV?$CListBNode@UtagHeapMemInfo@?$CHeapPool@VLockOfWinWhileSleep@XM_Tools@@@XM_Tools@@@2@@Z ENDP ; XM_Tools::CMemSerialBList<XM_Tools::CHeapPool<XM_Tools::LockOfWinWhileSleep>::tagHeapMemInfo,XM_Tools::LockOfWinWhileSleep,XM_Tools::CHeapPool<XM_Tools::LockOfWinWhileSleep>::HeapMemInfoLikeCompare>::PushNode
_TEXT	ENDS
PUBLIC	?PopNode@?$CMemSerialBList@UtagHeapMemInfo@?$CHeapPool@VLockOfWinWhileSleep@XM_Tools@@@XM_Tools@@VLockOfWinWhileSleep@3@VHeapMemInfoLikeCompare@23@@XM_Tools@@QAEPAV?$CListBNode@UtagHeapMemInfo@?$CHeapPool@VLockOfWinWhileSleep@XM_Tools@@@XM_Tools@@@2@PAV32@@Z ; XM_Tools::CMemSerialBList<XM_Tools::CHeapPool<XM_Tools::LockOfWinWhileSleep>::tagHeapMemInfo,XM_Tools::LockOfWinWhileSleep,XM_Tools::CHeapPool<XM_Tools::LockOfWinWhileSleep>::HeapMemInfoLikeCompare>::PopNode
; Function compile flags: /Ogtpy
;	COMDAT ?PopNode@?$CMemSerialBList@UtagHeapMemInfo@?$CHeapPool@VLockOfWinWhileSleep@XM_Tools@@@XM_Tools@@VLockOfWinWhileSleep@3@VHeapMemInfoLikeCompare@23@@XM_Tools@@QAEPAV?$CListBNode@UtagHeapMemInfo@?$CHeapPool@VLockOfWinWhileSleep@XM_Tools@@@XM_Tools@@@2@PAV32@@Z
_TEXT	SEGMENT
_pNode$ = 8						; size = 4
?PopNode@?$CMemSerialBList@UtagHeapMemInfo@?$CHeapPool@VLockOfWinWhileSleep@XM_Tools@@@XM_Tools@@VLockOfWinWhileSleep@3@VHeapMemInfoLikeCompare@23@@XM_Tools@@QAEPAV?$CListBNode@UtagHeapMemInfo@?$CHeapPool@VLockOfWinWhileSleep@XM_Tools@@@XM_Tools@@@2@PAV32@@Z PROC ; XM_Tools::CMemSerialBList<XM_Tools::CHeapPool<XM_Tools::LockOfWinWhileSleep>::tagHeapMemInfo,XM_Tools::LockOfWinWhileSleep,XM_Tools::CHeapPool<XM_Tools::LockOfWinWhileSleep>::HeapMemInfoLikeCompare>::PopNode, COMDAT
; _this$ = ecx

; 203  : 	{

  00000	56		 push	 esi
  00001	57		 push	 edi
  00002	8b f9		 mov	 edi, ecx

; 204  : 		MM_ASSERY(NULL != pNode);
; 205  : 		MM_ASSERY(Find(pNode));
; 206  : 
; 207  : 		m_Lock.Lock();

  00004	8d 4f 08	 lea	 ecx, DWORD PTR [edi+8]
  00007	e8 00 00 00 00	 call	 ?Lock@LockOfWinWhileSleep@XM_Tools@@QAEXXZ ; XM_Tools::LockOfWinWhileSleep::Lock

; 208  : 		{
; 209  : 			if(NULL != pNode->GetPrev())

  0000c	8b 74 24 0c	 mov	 esi, DWORD PTR _pNode$[esp+4]
  00010	8b 46 04	 mov	 eax, DWORD PTR [esi+4]
  00013	85 c0		 test	 eax, eax
  00015	74 08		 je	 SHORT $LN4@PopNode@3

; 210  : 				pNode->GetPrev()->SetNext(pNode->GetNext());

  00017	8b 4e 08	 mov	 ecx, DWORD PTR [esi+8]
  0001a	89 48 08	 mov	 DWORD PTR [eax+8], ecx

; 211  : 			else

  0001d	eb 05		 jmp	 SHORT $LN3@PopNode@3
$LN4@PopNode@3:

; 212  : 				m_pHead = pNode->GetNext();

  0001f	8b 56 08	 mov	 edx, DWORD PTR [esi+8]
  00022	89 17		 mov	 DWORD PTR [edi], edx
$LN3@PopNode@3:

; 213  : 			if(NULL != pNode->GetNext())

  00024	8b 46 08	 mov	 eax, DWORD PTR [esi+8]
  00027	85 c0		 test	 eax, eax
  00029	74 08		 je	 SHORT $LN2@PopNode@3

; 214  : 				pNode->GetNext()->SetPrev(pNode->GetPrev());

  0002b	8b 4e 04	 mov	 ecx, DWORD PTR [esi+4]
  0002e	89 48 04	 mov	 DWORD PTR [eax+4], ecx

; 215  : 			else

  00031	eb 06		 jmp	 SHORT $LN1@PopNode@3
$LN2@PopNode@3:

; 216  : 				m_pFoot = pNode->GetPrev();

  00033	8b 56 04	 mov	 edx, DWORD PTR [esi+4]
  00036	89 57 04	 mov	 DWORD PTR [edi+4], edx
$LN1@PopNode@3:

; 217  : 
; 218  : 			--m_uNum;	

  00039	83 47 48 ff	 add	 DWORD PTR [edi+72], -1

; 219  : 		}
; 220  : 		m_Lock.UnLock();

  0003d	6a 01		 push	 1
  0003f	6a 00		 push	 0
  00041	83 c7 28	 add	 edi, 40			; 00000028H
  00044	57		 push	 edi
  00045	ff 15 00 00 00
	00		 call	 DWORD PTR __imp__InterlockedCompareExchange@12
  0004b	5f		 pop	 edi

; 221  : 		return pNode;

  0004c	8b c6		 mov	 eax, esi
  0004e	5e		 pop	 esi

; 222  : 	}

  0004f	c2 04 00	 ret	 4
?PopNode@?$CMemSerialBList@UtagHeapMemInfo@?$CHeapPool@VLockOfWinWhileSleep@XM_Tools@@@XM_Tools@@VLockOfWinWhileSleep@3@VHeapMemInfoLikeCompare@23@@XM_Tools@@QAEPAV?$CListBNode@UtagHeapMemInfo@?$CHeapPool@VLockOfWinWhileSleep@XM_Tools@@@XM_Tools@@@2@PAV32@@Z ENDP ; XM_Tools::CMemSerialBList<XM_Tools::CHeapPool<XM_Tools::LockOfWinWhileSleep>::tagHeapMemInfo,XM_Tools::LockOfWinWhileSleep,XM_Tools::CHeapPool<XM_Tools::LockOfWinWhileSleep>::HeapMemInfoLikeCompare>::PopNode
_TEXT	ENDS
PUBLIC	?PopNode@?$CMemSerialBList@UtagHeapMemInfo@?$CHeapPool@VLockOfWinWhileSleep@XM_Tools@@@XM_Tools@@VLockOfWinWhileSleep@3@VHeapMemInfoLikeCompare@23@@XM_Tools@@QAEPAV?$CListBNode@UtagHeapMemInfo@?$CHeapPool@VLockOfWinWhileSleep@XM_Tools@@@XM_Tools@@@2@XZ ; XM_Tools::CMemSerialBList<XM_Tools::CHeapPool<XM_Tools::LockOfWinWhileSleep>::tagHeapMemInfo,XM_Tools::LockOfWinWhileSleep,XM_Tools::CHeapPool<XM_Tools::LockOfWinWhileSleep>::HeapMemInfoLikeCompare>::PopNode
; Function compile flags: /Ogtpy
;	COMDAT ?PopNode@?$CMemSerialBList@UtagHeapMemInfo@?$CHeapPool@VLockOfWinWhileSleep@XM_Tools@@@XM_Tools@@VLockOfWinWhileSleep@3@VHeapMemInfoLikeCompare@23@@XM_Tools@@QAEPAV?$CListBNode@UtagHeapMemInfo@?$CHeapPool@VLockOfWinWhileSleep@XM_Tools@@@XM_Tools@@@2@XZ
_TEXT	SEGMENT
?PopNode@?$CMemSerialBList@UtagHeapMemInfo@?$CHeapPool@VLockOfWinWhileSleep@XM_Tools@@@XM_Tools@@VLockOfWinWhileSleep@3@VHeapMemInfoLikeCompare@23@@XM_Tools@@QAEPAV?$CListBNode@UtagHeapMemInfo@?$CHeapPool@VLockOfWinWhileSleep@XM_Tools@@@XM_Tools@@@2@XZ PROC ; XM_Tools::CMemSerialBList<XM_Tools::CHeapPool<XM_Tools::LockOfWinWhileSleep>::tagHeapMemInfo,XM_Tools::LockOfWinWhileSleep,XM_Tools::CHeapPool<XM_Tools::LockOfWinWhileSleep>::HeapMemInfoLikeCompare>::PopNode, COMDAT
; _this$ = ecx

; 159  : 	{

  00000	56		 push	 esi
  00001	8b f1		 mov	 esi, ecx
  00003	57		 push	 edi

; 160  : 		CListBNode<_TNodeInfo>* pRe = NULL;
; 161  : 		m_Lock.Lock();

  00004	8d 4e 08	 lea	 ecx, DWORD PTR [esi+8]
  00007	e8 00 00 00 00	 call	 ?Lock@LockOfWinWhileSleep@XM_Tools@@QAEXXZ ; XM_Tools::LockOfWinWhileSleep::Lock

; 162  : 		{
; 163  : 			pRe = m_pHead;

  0000c	8b 3e		 mov	 edi, DWORD PTR [esi]

; 164  : 			if(NULL != m_pHead)

  0000e	33 c9		 xor	 ecx, ecx
  00010	3b f9		 cmp	 edi, ecx
  00012	74 15		 je	 SHORT $LN3@PopNode@4

; 165  : 			{
; 166  : 				m_pHead = m_pHead->GetNext();

  00014	8b 47 08	 mov	 eax, DWORD PTR [edi+8]

; 167  : 				if(NULL == m_pHead)

  00017	3b c1		 cmp	 eax, ecx
  00019	89 06		 mov	 DWORD PTR [esi], eax
  0001b	75 05		 jne	 SHORT $LN2@PopNode@4

; 168  : 					m_pFoot = NULL;

  0001d	89 4e 04	 mov	 DWORD PTR [esi+4], ecx

; 169  : 				else

  00020	eb 03		 jmp	 SHORT $LN8@PopNode@4
$LN2@PopNode@4:

; 170  : 					m_pHead->SetPrev(NULL);

  00022	89 48 04	 mov	 DWORD PTR [eax+4], ecx
$LN8@PopNode@4:

; 171  : 				--m_uNum;

  00025	83 46 48 ff	 add	 DWORD PTR [esi+72], -1
$LN3@PopNode@4:

; 172  : 			}
; 173  : 		}
; 174  : 		m_Lock.UnLock();

  00029	6a 01		 push	 1
  0002b	51		 push	 ecx
  0002c	83 c6 28	 add	 esi, 40			; 00000028H
  0002f	56		 push	 esi
  00030	ff 15 00 00 00
	00		 call	 DWORD PTR __imp__InterlockedCompareExchange@12

; 175  : 		return pRe;

  00036	8b c7		 mov	 eax, edi
  00038	5f		 pop	 edi
  00039	5e		 pop	 esi

; 176  : 	}

  0003a	c3		 ret	 0
?PopNode@?$CMemSerialBList@UtagHeapMemInfo@?$CHeapPool@VLockOfWinWhileSleep@XM_Tools@@@XM_Tools@@VLockOfWinWhileSleep@3@VHeapMemInfoLikeCompare@23@@XM_Tools@@QAEPAV?$CListBNode@UtagHeapMemInfo@?$CHeapPool@VLockOfWinWhileSleep@XM_Tools@@@XM_Tools@@@2@XZ ENDP ; XM_Tools::CMemSerialBList<XM_Tools::CHeapPool<XM_Tools::LockOfWinWhileSleep>::tagHeapMemInfo,XM_Tools::LockOfWinWhileSleep,XM_Tools::CHeapPool<XM_Tools::LockOfWinWhileSleep>::HeapMemInfoLikeCompare>::PopNode
_TEXT	ENDS
PUBLIC	?PopBackNode@?$CMemSerialBList@UtagHeapMemInfo@?$CHeapPool@VLockOfWinWhileSleep@XM_Tools@@@XM_Tools@@VLockOfWinWhileSleep@3@VHeapMemInfoLikeCompare@23@@XM_Tools@@QAEPAV?$CListBNode@UtagHeapMemInfo@?$CHeapPool@VLockOfWinWhileSleep@XM_Tools@@@XM_Tools@@@2@XZ ; XM_Tools::CMemSerialBList<XM_Tools::CHeapPool<XM_Tools::LockOfWinWhileSleep>::tagHeapMemInfo,XM_Tools::LockOfWinWhileSleep,XM_Tools::CHeapPool<XM_Tools::LockOfWinWhileSleep>::HeapMemInfoLikeCompare>::PopBackNode
; Function compile flags: /Ogtpy
;	COMDAT ?PopBackNode@?$CMemSerialBList@UtagHeapMemInfo@?$CHeapPool@VLockOfWinWhileSleep@XM_Tools@@@XM_Tools@@VLockOfWinWhileSleep@3@VHeapMemInfoLikeCompare@23@@XM_Tools@@QAEPAV?$CListBNode@UtagHeapMemInfo@?$CHeapPool@VLockOfWinWhileSleep@XM_Tools@@@XM_Tools@@@2@XZ
_TEXT	SEGMENT
?PopBackNode@?$CMemSerialBList@UtagHeapMemInfo@?$CHeapPool@VLockOfWinWhileSleep@XM_Tools@@@XM_Tools@@VLockOfWinWhileSleep@3@VHeapMemInfoLikeCompare@23@@XM_Tools@@QAEPAV?$CListBNode@UtagHeapMemInfo@?$CHeapPool@VLockOfWinWhileSleep@XM_Tools@@@XM_Tools@@@2@XZ PROC ; XM_Tools::CMemSerialBList<XM_Tools::CHeapPool<XM_Tools::LockOfWinWhileSleep>::tagHeapMemInfo,XM_Tools::LockOfWinWhileSleep,XM_Tools::CHeapPool<XM_Tools::LockOfWinWhileSleep>::HeapMemInfoLikeCompare>::PopBackNode, COMDAT
; _this$ = ecx

; 181  : 	{

  00000	56		 push	 esi
  00001	8b f1		 mov	 esi, ecx
  00003	57		 push	 edi

; 182  : 		CListBNode<_TNodeInfo>* pRe = NULL;
; 183  : 		m_Lock.Lock();

  00004	8d 4e 08	 lea	 ecx, DWORD PTR [esi+8]
  00007	e8 00 00 00 00	 call	 ?Lock@LockOfWinWhileSleep@XM_Tools@@QAEXXZ ; XM_Tools::LockOfWinWhileSleep::Lock

; 184  : 		{
; 185  : 			pRe = m_pFoot;

  0000c	8b 7e 04	 mov	 edi, DWORD PTR [esi+4]

; 186  : 			if(NULL != m_pFoot)

  0000f	85 ff		 test	 edi, edi
  00011	74 19		 je	 SHORT $LN3@PopBackNod

; 187  : 			{
; 188  : 				m_pFoot = m_pFoot->GetPrev();

  00013	8b 47 04	 mov	 eax, DWORD PTR [edi+4]

; 189  : 				if(NULL == m_pFoot)

  00016	85 c0		 test	 eax, eax
  00018	89 46 04	 mov	 DWORD PTR [esi+4], eax
  0001b	75 04		 jne	 SHORT $LN2@PopBackNod

; 190  : 					m_pHead = NULL;

  0001d	89 06		 mov	 DWORD PTR [esi], eax

; 191  : 				else

  0001f	eb 07		 jmp	 SHORT $LN8@PopBackNod
$LN2@PopBackNod:

; 192  : 					m_pFoot->SetNext(NULL);

  00021	c7 40 08 00 00
	00 00		 mov	 DWORD PTR [eax+8], 0
$LN8@PopBackNod:

; 193  : 				--m_uNum;

  00028	83 46 48 ff	 add	 DWORD PTR [esi+72], -1
$LN3@PopBackNod:

; 194  : 			}
; 195  : 		}
; 196  : 		m_Lock.UnLock();

  0002c	6a 01		 push	 1
  0002e	6a 00		 push	 0
  00030	83 c6 28	 add	 esi, 40			; 00000028H
  00033	56		 push	 esi
  00034	ff 15 00 00 00
	00		 call	 DWORD PTR __imp__InterlockedCompareExchange@12

; 197  : 		return pRe;

  0003a	8b c7		 mov	 eax, edi
  0003c	5f		 pop	 edi
  0003d	5e		 pop	 esi

; 198  : 	}

  0003e	c3		 ret	 0
?PopBackNode@?$CMemSerialBList@UtagHeapMemInfo@?$CHeapPool@VLockOfWinWhileSleep@XM_Tools@@@XM_Tools@@VLockOfWinWhileSleep@3@VHeapMemInfoLikeCompare@23@@XM_Tools@@QAEPAV?$CListBNode@UtagHeapMemInfo@?$CHeapPool@VLockOfWinWhileSleep@XM_Tools@@@XM_Tools@@@2@XZ ENDP ; XM_Tools::CMemSerialBList<XM_Tools::CHeapPool<XM_Tools::LockOfWinWhileSleep>::tagHeapMemInfo,XM_Tools::LockOfWinWhileSleep,XM_Tools::CHeapPool<XM_Tools::LockOfWinWhileSleep>::HeapMemInfoLikeCompare>::PopBackNode
_TEXT	ENDS
PUBLIC	?GetLikestNode@?$CMemSerialBList@UtagHeapMemInfo@?$CHeapPool@VLockOfWinWhileSleep@XM_Tools@@@XM_Tools@@VLockOfWinWhileSleep@3@VHeapMemInfoLikeCompare@23@@XM_Tools@@QAEPAV?$CListBNode@UtagHeapMemInfo@?$CHeapPool@VLockOfWinWhileSleep@XM_Tools@@@XM_Tools@@@2@AAUtagHeapMemInfo@?$CHeapPool@VLockOfWinWhileSleep@XM_Tools@@@2@@Z ; XM_Tools::CMemSerialBList<XM_Tools::CHeapPool<XM_Tools::LockOfWinWhileSleep>::tagHeapMemInfo,XM_Tools::LockOfWinWhileSleep,XM_Tools::CHeapPool<XM_Tools::LockOfWinWhileSleep>::HeapMemInfoLikeCompare>::GetLikestNode
; Function compile flags: /Ogtpy
;	COMDAT ?GetLikestNode@?$CMemSerialBList@UtagHeapMemInfo@?$CHeapPool@VLockOfWinWhileSleep@XM_Tools@@@XM_Tools@@VLockOfWinWhileSleep@3@VHeapMemInfoLikeCompare@23@@XM_Tools@@QAEPAV?$CListBNode@UtagHeapMemInfo@?$CHeapPool@VLockOfWinWhileSleep@XM_Tools@@@XM_Tools@@@2@AAUtagHeapMemInfo@?$CHeapPool@VLockOfWinWhileSleep@XM_Tools@@@2@@Z
_TEXT	SEGMENT
_NodeInfo$ = 8						; size = 4
?GetLikestNode@?$CMemSerialBList@UtagHeapMemInfo@?$CHeapPool@VLockOfWinWhileSleep@XM_Tools@@@XM_Tools@@VLockOfWinWhileSleep@3@VHeapMemInfoLikeCompare@23@@XM_Tools@@QAEPAV?$CListBNode@UtagHeapMemInfo@?$CHeapPool@VLockOfWinWhileSleep@XM_Tools@@@XM_Tools@@@2@AAUtagHeapMemInfo@?$CHeapPool@VLockOfWinWhileSleep@XM_Tools@@@2@@Z PROC ; XM_Tools::CMemSerialBList<XM_Tools::CHeapPool<XM_Tools::LockOfWinWhileSleep>::tagHeapMemInfo,XM_Tools::LockOfWinWhileSleep,XM_Tools::CHeapPool<XM_Tools::LockOfWinWhileSleep>::HeapMemInfoLikeCompare>::GetLikestNode, COMDAT
; _this$ = ecx

; 249  : 	{

  00000	56		 push	 esi
  00001	8b f1		 mov	 esi, ecx
  00003	57		 push	 edi

; 250  : 		CListBNode<_TNodeInfo> *pRe = NULL;
; 251  : 		m_Lock.Lock();

  00004	8d 4e 08	 lea	 ecx, DWORD PTR [esi+8]
  00007	33 ff		 xor	 edi, edi
  00009	e8 00 00 00 00	 call	 ?Lock@LockOfWinWhileSleep@XM_Tools@@QAEXXZ ; XM_Tools::LockOfWinWhileSleep::Lock

; 252  : 		{
; 253  : 			CListBNode<_TNodeInfo>* pCurr = m_pHead;

  0000e	8b 06		 mov	 eax, DWORD PTR [esi]

; 254  : 			while (NULL != pCurr)

  00010	85 c0		 test	 eax, eax
  00012	74 54		 je	 SHORT $LN6@GetLikestN
  00014	8b 4c 24 0c	 mov	 ecx, DWORD PTR _NodeInfo$[esp+4]
  00018	8b 11		 mov	 edx, DWORD PTR [ecx]
  0001a	8d 9b 00 00 00
	00		 npad	 6
$LL7@GetLikestN:

; 255  : 			{
; 256  : 				if(_TLikeCompare()(pCurr->GetInfo(), NodeInfo))

  00020	8b 08		 mov	 ecx, DWORD PTR [eax]
  00022	3b ca		 cmp	 ecx, edx
  00024	72 0a		 jb	 SHORT $LN12@GetLikestN
  00026	2b ca		 sub	 ecx, edx
  00028	81 f9 00 10 00
	00		 cmp	 ecx, 4096		; 00001000H
  0002e	76 09		 jbe	 SHORT $LN41@GetLikestN
$LN12@GetLikestN:

; 269  : 					break;
; 270  : 				}
; 271  : 
; 272  : 				pCurr = pCurr->GetNext();

  00030	8b 40 08	 mov	 eax, DWORD PTR [eax+8]
  00033	85 c0		 test	 eax, eax
  00035	75 e9		 jne	 SHORT $LL7@GetLikestN

; 254  : 			while (NULL != pCurr)

  00037	eb 2f		 jmp	 SHORT $LN6@GetLikestN
$LN41@GetLikestN:

; 257  : 				{
; 258  : 					pRe = pCurr;
; 259  : 					if(NULL != pCurr->GetPrev())

  00039	8b 48 04	 mov	 ecx, DWORD PTR [eax+4]
  0003c	85 c9		 test	 ecx, ecx
  0003e	8b f8		 mov	 edi, eax
  00040	74 08		 je	 SHORT $LN4@GetLikestN

; 260  : 						pCurr->GetPrev()->SetNext(pCurr->GetNext());

  00042	8b 50 08	 mov	 edx, DWORD PTR [eax+8]
  00045	89 51 08	 mov	 DWORD PTR [ecx+8], edx

; 261  : 					else

  00048	eb 05		 jmp	 SHORT $LN3@GetLikestN
$LN4@GetLikestN:

; 262  : 						m_pHead = pCurr->GetNext();

  0004a	8b 48 08	 mov	 ecx, DWORD PTR [eax+8]
  0004d	89 0e		 mov	 DWORD PTR [esi], ecx
$LN3@GetLikestN:

; 263  : 					if(NULL != pCurr->GetNext())

  0004f	8b 48 08	 mov	 ecx, DWORD PTR [eax+8]
  00052	85 c9		 test	 ecx, ecx
  00054	74 08		 je	 SHORT $LN2@GetLikestN

; 264  : 						pCurr->GetNext()->SetPrev(pCurr->GetPrev());

  00056	8b 50 04	 mov	 edx, DWORD PTR [eax+4]
  00059	89 51 04	 mov	 DWORD PTR [ecx+4], edx

; 265  : 					else

  0005c	eb 06		 jmp	 SHORT $LN1@GetLikestN
$LN2@GetLikestN:

; 266  : 						m_pFoot = pCurr->GetPrev();

  0005e	8b 40 04	 mov	 eax, DWORD PTR [eax+4]
  00061	89 46 04	 mov	 DWORD PTR [esi+4], eax
$LN1@GetLikestN:

; 267  : 
; 268  : 					--m_uNum;

  00064	83 46 48 ff	 add	 DWORD PTR [esi+72], -1
$LN6@GetLikestN:

; 273  : 			}
; 274  : 		}
; 275  : 		m_Lock.UnLock();

  00068	6a 01		 push	 1
  0006a	6a 00		 push	 0
  0006c	83 c6 28	 add	 esi, 40			; 00000028H
  0006f	56		 push	 esi
  00070	ff 15 00 00 00
	00		 call	 DWORD PTR __imp__InterlockedCompareExchange@12

; 276  : 
; 277  : 		return pRe;

  00076	8b c7		 mov	 eax, edi
  00078	5f		 pop	 edi
  00079	5e		 pop	 esi

; 278  : 	}

  0007a	c2 04 00	 ret	 4
?GetLikestNode@?$CMemSerialBList@UtagHeapMemInfo@?$CHeapPool@VLockOfWinWhileSleep@XM_Tools@@@XM_Tools@@VLockOfWinWhileSleep@3@VHeapMemInfoLikeCompare@23@@XM_Tools@@QAEPAV?$CListBNode@UtagHeapMemInfo@?$CHeapPool@VLockOfWinWhileSleep@XM_Tools@@@XM_Tools@@@2@AAUtagHeapMemInfo@?$CHeapPool@VLockOfWinWhileSleep@XM_Tools@@@2@@Z ENDP ; XM_Tools::CMemSerialBList<XM_Tools::CHeapPool<XM_Tools::LockOfWinWhileSleep>::tagHeapMemInfo,XM_Tools::LockOfWinWhileSleep,XM_Tools::CHeapPool<XM_Tools::LockOfWinWhileSleep>::HeapMemInfoLikeCompare>::GetLikestNode
_TEXT	ENDS
PUBLIC	??0tagTileManageInfo@?$CTilePool@VLockOfWinWhileSleep@XM_Tools@@V?$CHeapPool@VLockOfWinWhileSleep@XM_Tools@@@2@@XM_Tools@@QAE@XZ ; XM_Tools::CTilePool<XM_Tools::LockOfWinWhileSleep,XM_Tools::CHeapPool<XM_Tools::LockOfWinWhileSleep> >::tagTileManageInfo::tagTileManageInfo
; Function compile flags: /Ogtpy
;	COMDAT ??0tagTileManageInfo@?$CTilePool@VLockOfWinWhileSleep@XM_Tools@@V?$CHeapPool@VLockOfWinWhileSleep@XM_Tools@@@2@@XM_Tools@@QAE@XZ
_TEXT	SEGMENT
??0tagTileManageInfo@?$CTilePool@VLockOfWinWhileSleep@XM_Tools@@V?$CHeapPool@VLockOfWinWhileSleep@XM_Tools@@@2@@XM_Tools@@QAE@XZ PROC ; XM_Tools::CTilePool<XM_Tools::LockOfWinWhileSleep,XM_Tools::CHeapPool<XM_Tools::LockOfWinWhileSleep> >::tagTileManageInfo::tagTileManageInfo, COMDAT
; _this$ = ecx
  00000	8b c1		 mov	 eax, ecx
  00002	33 c9		 xor	 ecx, ecx
  00004	89 48 34	 mov	 DWORD PTR [eax+52], ecx
  00007	89 48 38	 mov	 DWORD PTR [eax+56], ecx
  0000a	89 48 54	 mov	 DWORD PTR [eax+84], ecx
  0000d	89 48 78	 mov	 DWORD PTR [eax+120], ecx
  00010	89 48 7c	 mov	 DWORD PTR [eax+124], ecx
  00013	89 88 98 00 00
	00		 mov	 DWORD PTR [eax+152], ecx
  00019	89 88 9c 00 00
	00		 mov	 DWORD PTR [eax+156], ecx
  0001f	89 88 c0 00 00
	00		 mov	 DWORD PTR [eax+192], ecx
  00025	89 88 c4 00 00
	00		 mov	 DWORD PTR [eax+196], ecx
  0002b	89 88 e0 00 00
	00		 mov	 DWORD PTR [eax+224], ecx
  00031	c3		 ret	 0
??0tagTileManageInfo@?$CTilePool@VLockOfWinWhileSleep@XM_Tools@@V?$CHeapPool@VLockOfWinWhileSleep@XM_Tools@@@2@@XM_Tools@@QAE@XZ ENDP ; XM_Tools::CTilePool<XM_Tools::LockOfWinWhileSleep,XM_Tools::CHeapPool<XM_Tools::LockOfWinWhileSleep> >::tagTileManageInfo::tagTileManageInfo
_TEXT	ENDS
PUBLIC	??1tagTileManageInfo@?$CTilePool@VLockOfWinWhileSleep@XM_Tools@@V?$CHeapPool@VLockOfWinWhileSleep@XM_Tools@@@2@@XM_Tools@@QAE@XZ ; XM_Tools::CTilePool<XM_Tools::LockOfWinWhileSleep,XM_Tools::CHeapPool<XM_Tools::LockOfWinWhileSleep> >::tagTileManageInfo::~tagTileManageInfo
; Function compile flags: /Ogtpy
;	COMDAT ??1tagTileManageInfo@?$CTilePool@VLockOfWinWhileSleep@XM_Tools@@V?$CHeapPool@VLockOfWinWhileSleep@XM_Tools@@@2@@XM_Tools@@QAE@XZ
_TEXT	SEGMENT
??1tagTileManageInfo@?$CTilePool@VLockOfWinWhileSleep@XM_Tools@@V?$CHeapPool@VLockOfWinWhileSleep@XM_Tools@@@2@@XM_Tools@@QAE@XZ PROC ; XM_Tools::CTilePool<XM_Tools::LockOfWinWhileSleep,XM_Tools::CHeapPool<XM_Tools::LockOfWinWhileSleep> >::tagTileManageInfo::~tagTileManageInfo, COMDAT
; _this$ = ecx
  00000	33 c0		 xor	 eax, eax
  00002	89 81 9c 00 00
	00		 mov	 DWORD PTR [ecx+156], eax
  00008	89 81 e0 00 00
	00		 mov	 DWORD PTR [ecx+224], eax
  0000e	89 41 54	 mov	 DWORD PTR [ecx+84], eax
  00011	89 81 98 00 00
	00		 mov	 DWORD PTR [ecx+152], eax
  00017	c3		 ret	 0
??1tagTileManageInfo@?$CTilePool@VLockOfWinWhileSleep@XM_Tools@@V?$CHeapPool@VLockOfWinWhileSleep@XM_Tools@@@2@@XM_Tools@@QAE@XZ ENDP ; XM_Tools::CTilePool<XM_Tools::LockOfWinWhileSleep,XM_Tools::CHeapPool<XM_Tools::LockOfWinWhileSleep> >::tagTileManageInfo::~tagTileManageInfo
_TEXT	ENDS
PUBLIC	?Release@?$CHeapPool@VLockOfWinWhileSleep@XM_Tools@@@XM_Tools@@QAEXXZ ; XM_Tools::CHeapPool<XM_Tools::LockOfWinWhileSleep>::Release
EXTRN	_free:PROC
; Function compile flags: /Ogtpy
; File d:\project_p6\trunk\public\memmanage\cpp\heappool.tcc
;	COMDAT ?Release@?$CHeapPool@VLockOfWinWhileSleep@XM_Tools@@@XM_Tools@@QAEXXZ
_TEXT	SEGMENT
?Release@?$CHeapPool@VLockOfWinWhileSleep@XM_Tools@@@XM_Tools@@QAEXXZ PROC ; XM_Tools::CHeapPool<XM_Tools::LockOfWinWhileSleep>::Release, COMDAT
; _this$ = ecx

; 28   : 	{

  00000	53		 push	 ebx
  00001	55		 push	 ebp
  00002	56		 push	 esi
  00003	8b f1		 mov	 esi, ecx
  00005	57		 push	 edi

; 29   : 		MM_ASSERY(0 == m_UsingList.GetNodeNum());
; 30   : 
; 31   : #ifdef DESTRUTOR_FREE_SYSMEM
; 32   : 		CListBNode<tagHeapMemInfo> *pBNode = m_FreeList.PopNode();

  00006	8d 4e 54	 lea	 ecx, DWORD PTR [esi+84]
  00009	e8 00 00 00 00	 call	 ?Lock@LockOfWinWhileSleep@XM_Tools@@QAEXXZ ; XM_Tools::LockOfWinWhileSleep::Lock
  0000e	8b 7e 4c	 mov	 edi, DWORD PTR [esi+76]
  00011	33 ed		 xor	 ebp, ebp
  00013	3b fd		 cmp	 edi, ebp
  00015	74 19		 je	 SHORT $LN7@Release
  00017	8b 47 08	 mov	 eax, DWORD PTR [edi+8]
  0001a	3b c5		 cmp	 eax, ebp
  0001c	89 46 4c	 mov	 DWORD PTR [esi+76], eax
  0001f	75 05		 jne	 SHORT $LN6@Release
  00021	89 6e 50	 mov	 DWORD PTR [esi+80], ebp
  00024	eb 03		 jmp	 SHORT $LN12@Release
$LN6@Release:
  00026	89 68 04	 mov	 DWORD PTR [eax+4], ebp
$LN12@Release:
  00029	83 86 94 00 00
	00 ff		 add	 DWORD PTR [esi+148], -1
$LN7@Release:
  00030	8b 1d 00 00 00
	00		 mov	 ebx, DWORD PTR __imp__InterlockedCompareExchange@12
  00036	6a 01		 push	 1
  00038	55		 push	 ebp
  00039	8d 46 74	 lea	 eax, DWORD PTR [esi+116]
  0003c	50		 push	 eax
  0003d	ff d3		 call	 ebx

; 33   : 		while (NULL != pBNode)

  0003f	3b fd		 cmp	 edi, ebp
  00041	8b c7		 mov	 eax, edi
  00043	74 40		 je	 SHORT $LN1@Release
$LL2@Release:

; 34   : 		{
; 35   : 			free(pBNode);

  00045	50		 push	 eax
  00046	e8 00 00 00 00	 call	 _free
  0004b	83 c4 04	 add	 esp, 4

; 36   : 			pBNode = m_FreeList.PopNode();

  0004e	8d 4e 54	 lea	 ecx, DWORD PTR [esi+84]
  00051	e8 00 00 00 00	 call	 ?Lock@LockOfWinWhileSleep@XM_Tools@@QAEXXZ ; XM_Tools::LockOfWinWhileSleep::Lock
  00056	8b 7e 4c	 mov	 edi, DWORD PTR [esi+76]
  00059	3b fd		 cmp	 edi, ebp
  0005b	74 19		 je	 SHORT $LN19@Release
  0005d	8b 47 08	 mov	 eax, DWORD PTR [edi+8]
  00060	3b c5		 cmp	 eax, ebp
  00062	89 46 4c	 mov	 DWORD PTR [esi+76], eax
  00065	75 05		 jne	 SHORT $LN18@Release
  00067	89 6e 50	 mov	 DWORD PTR [esi+80], ebp
  0006a	eb 03		 jmp	 SHORT $LN24@Release
$LN18@Release:
  0006c	89 68 04	 mov	 DWORD PTR [eax+4], ebp
$LN24@Release:
  0006f	83 86 94 00 00
	00 ff		 add	 DWORD PTR [esi+148], -1
$LN19@Release:
  00076	6a 01		 push	 1
  00078	55		 push	 ebp
  00079	8d 4e 74	 lea	 ecx, DWORD PTR [esi+116]
  0007c	51		 push	 ecx
  0007d	ff d3		 call	 ebx
  0007f	3b fd		 cmp	 edi, ebp
  00081	8b c7		 mov	 eax, edi
  00083	75 c0		 jne	 SHORT $LL2@Release
$LN1@Release:
  00085	5f		 pop	 edi
  00086	5e		 pop	 esi
  00087	5d		 pop	 ebp
  00088	5b		 pop	 ebx

; 37   : 		}
; 38   : #endif
; 39   : 	}

  00089	c3		 ret	 0
?Release@?$CHeapPool@VLockOfWinWhileSleep@XM_Tools@@@XM_Tools@@QAEXXZ ENDP ; XM_Tools::CHeapPool<XM_Tools::LockOfWinWhileSleep>::Release
_TEXT	ENDS
PUBLIC	??$_Uninit_copy@PAU_List_position@?$_Hash@V?$_Hmap_traits@VCGUID@@PAVCBaseObject@@Vhash_guid_compare@@V?$allocator@U?$pair@$$CBVCGUID@@PAVCBaseObject@@@std@@@std@@$0A@@stdext@@@stdext@@PAU123@V?$allocator@U_List_position@?$_Hash@V?$_Hmap_traits@VCGUID@@PAVCBaseObject@@Vhash_guid_compare@@V?$allocator@U?$pair@$$CBVCGUID@@PAVCBaseObject@@@std@@@std@@$0A@@stdext@@@stdext@@@std@@@std@@YAPAU_List_position@?$_Hash@V?$_Hmap_traits@VCGUID@@PAVCBaseObject@@Vhash_guid_compare@@V?$allocator@U?$pair@$$CBVCGUID@@PAVCBaseObject@@@std@@@std@@$0A@@stdext@@@stdext@@PAU123@00AAV?$allocator@U_List_position@?$_Hash@V?$_Hmap_traits@VCGUID@@PAVCBaseObject@@Vhash_guid_compare@@V?$allocator@U?$pair@$$CBVCGUID@@PAVCBaseObject@@@std@@@std@@$0A@@stdext@@@stdext@@@0@U_Nonscalar_ptr_iterator_tag@0@U_Range_checked_iterator_tag@0@@Z ; std::_Uninit_copy<stdext::_Hash<stdext::_Hmap_traits<CGUID,CBaseObject *,hash_guid_compare,std::allocator<std::pair<CGUID const ,CBaseObject *> >,0> >::_List_position *,stdext::_Hash<stdext::_Hmap_traits<CGUID,CBaseObject *,hash_guid_compare,std::allocator<std::pair<CGUID const ,CBaseObject *> >,0> >::_List_position *,std::allocator<stdext::_Hash<stdext::_Hmap_traits<CGUID,CBaseObject *,hash_guid_compare,std::allocator<std::pair<CGUID const ,CBaseObject *> >,0> >::_List_position> >
; Function compile flags: /Ogtpy
; File d:\program files\microsoft visual studio 8\vc\include\memory
;	COMDAT ??$_Uninit_copy@PAU_List_position@?$_Hash@V?$_Hmap_traits@VCGUID@@PAVCBaseObject@@Vhash_guid_compare@@V?$allocator@U?$pair@$$CBVCGUID@@PAVCBaseObject@@@std@@@std@@$0A@@stdext@@@stdext@@PAU123@V?$allocator@U_List_position@?$_Hash@V?$_Hmap_traits@VCGUID@@PAVCBaseObject@@Vhash_guid_compare@@V?$allocator@U?$pair@$$CBVCGUID@@PAVCBaseObject@@@std@@@std@@$0A@@stdext@@@stdext@@@std@@@std@@YAPAU_List_position@?$_Hash@V?$_Hmap_traits@VCGUID@@PAVCBaseObject@@Vhash_guid_compare@@V?$allocator@U?$pair@$$CBVCGUID@@PAVCBaseObject@@@std@@@std@@$0A@@stdext@@@stdext@@PAU123@00AAV?$allocator@U_List_position@?$_Hash@V?$_Hmap_traits@VCGUID@@PAVCBaseObject@@Vhash_guid_compare@@V?$allocator@U?$pair@$$CBVCGUID@@PAVCBaseObject@@@std@@@std@@$0A@@stdext@@@stdext@@@0@U_Nonscalar_ptr_iterator_tag@0@U_Range_checked_iterator_tag@0@@Z
_TEXT	SEGMENT
__First$ = 8						; size = 4
__Last$ = 12						; size = 4
__Dest$ = 16						; size = 4
__Al$ = 20						; size = 4
___formal$ = 24						; size = 1
___formal$ = 28						; size = 1
??$_Uninit_copy@PAU_List_position@?$_Hash@V?$_Hmap_traits@VCGUID@@PAVCBaseObject@@Vhash_guid_compare@@V?$allocator@U?$pair@$$CBVCGUID@@PAVCBaseObject@@@std@@@std@@$0A@@stdext@@@stdext@@PAU123@V?$allocator@U_List_position@?$_Hash@V?$_Hmap_traits@VCGUID@@PAVCBaseObject@@Vhash_guid_compare@@V?$allocator@U?$pair@$$CBVCGUID@@PAVCBaseObject@@@std@@@std@@$0A@@stdext@@@stdext@@@std@@@std@@YAPAU_List_position@?$_Hash@V?$_Hmap_traits@VCGUID@@PAVCBaseObject@@Vhash_guid_compare@@V?$allocator@U?$pair@$$CBVCGUID@@PAVCBaseObject@@@std@@@std@@$0A@@stdext@@@stdext@@PAU123@00AAV?$allocator@U_List_position@?$_Hash@V?$_Hmap_traits@VCGUID@@PAVCBaseObject@@Vhash_guid_compare@@V?$allocator@U?$pair@$$CBVCGUID@@PAVCBaseObject@@@std@@@std@@$0A@@stdext@@@stdext@@@0@U_Nonscalar_ptr_iterator_tag@0@U_Range_checked_iterator_tag@0@@Z PROC ; std::_Uninit_copy<stdext::_Hash<stdext::_Hmap_traits<CGUID,CBaseObject *,hash_guid_compare,std::allocator<std::pair<CGUID const ,CBaseObject *> >,0> >::_List_position *,stdext::_Hash<stdext::_Hmap_traits<CGUID,CBaseObject *,hash_guid_compare,std::allocator<std::pair<CGUID const ,CBaseObject *> >,0> >::_List_position *,std::allocator<stdext::_Hash<stdext::_Hmap_traits<CGUID,CBaseObject *,hash_guid_compare,std::allocator<std::pair<CGUID const ,CBaseObject *> >,0> >::_List_position> >, COMDAT

; 124  : 	_DEBUG_RANGE(_First, _Last);
; 125  : 	_DEBUG_POINTER(_Dest);
; 126  : 	_FwdIt _Next = _Dest;
; 127  : 
; 128  : 	_TRY_BEGIN
; 129  : 	for (; _First != _Last; ++_Dest, ++_First)

  00000	8b 4c 24 04	 mov	 ecx, DWORD PTR __First$[esp-4]
  00004	8b 54 24 08	 mov	 edx, DWORD PTR __Last$[esp-4]
  00008	3b ca		 cmp	 ecx, edx
  0000a	8b 44 24 0c	 mov	 eax, DWORD PTR __Dest$[esp-4]
  0000e	74 1a		 je	 SHORT $LN4@Uninit_cop
  00010	56		 push	 esi
$LL6@Uninit_cop:

; 130  : 		_Al.construct(_Dest, *_First);

  00011	85 c0		 test	 eax, eax
  00013	74 0a		 je	 SHORT $LN5@Uninit_cop
  00015	8b 31		 mov	 esi, DWORD PTR [ecx]
  00017	89 30		 mov	 DWORD PTR [eax], esi
  00019	8b 71 04	 mov	 esi, DWORD PTR [ecx+4]
  0001c	89 70 04	 mov	 DWORD PTR [eax+4], esi
$LN5@Uninit_cop:
  0001f	83 c1 08	 add	 ecx, 8
  00022	83 c0 08	 add	 eax, 8
  00025	3b ca		 cmp	 ecx, edx
  00027	75 e8		 jne	 SHORT $LL6@Uninit_cop
  00029	5e		 pop	 esi
$LN4@Uninit_cop:

; 131  : 	_CATCH_ALL
; 132  : 	for (; _Next != _Dest; ++_Next)
; 133  : 		_Al.destroy(_Next);
; 134  : 	_RERAISE;
; 135  : 	_CATCH_END
; 136  : 	return (_Dest);
; 137  : 	}

  0002a	c3		 ret	 0
??$_Uninit_copy@PAU_List_position@?$_Hash@V?$_Hmap_traits@VCGUID@@PAVCBaseObject@@Vhash_guid_compare@@V?$allocator@U?$pair@$$CBVCGUID@@PAVCBaseObject@@@std@@@std@@$0A@@stdext@@@stdext@@PAU123@V?$allocator@U_List_position@?$_Hash@V?$_Hmap_traits@VCGUID@@PAVCBaseObject@@Vhash_guid_compare@@V?$allocator@U?$pair@$$CBVCGUID@@PAVCBaseObject@@@std@@@std@@$0A@@stdext@@@stdext@@@std@@@std@@YAPAU_List_position@?$_Hash@V?$_Hmap_traits@VCGUID@@PAVCBaseObject@@Vhash_guid_compare@@V?$allocator@U?$pair@$$CBVCGUID@@PAVCBaseObject@@@std@@@std@@$0A@@stdext@@@stdext@@PAU123@00AAV?$allocator@U_List_position@?$_Hash@V?$_Hmap_traits@VCGUID@@PAVCBaseObject@@Vhash_guid_compare@@V?$allocator@U?$pair@$$CBVCGUID@@PAVCBaseObject@@@std@@@std@@$0A@@stdext@@@stdext@@@0@U_Nonscalar_ptr_iterator_tag@0@U_Range_checked_iterator_tag@0@@Z ENDP ; std::_Uninit_copy<stdext::_Hash<stdext::_Hmap_traits<CGUID,CBaseObject *,hash_guid_compare,std::allocator<std::pair<CGUID const ,CBaseObject *> >,0> >::_List_position *,stdext::_Hash<stdext::_Hmap_traits<CGUID,CBaseObject *,hash_guid_compare,std::allocator<std::pair<CGUID const ,CBaseObject *> >,0> >::_List_position *,std::allocator<stdext::_Hash<stdext::_Hmap_traits<CGUID,CBaseObject *,hash_guid_compare,std::allocator<std::pair<CGUID const ,CBaseObject *> >,0> >::_List_position> >
_TEXT	ENDS
PUBLIC	?erase@?$basic_string@DU?$char_traits@D@std@@V?$allocator@D@2@@std@@QAEAAV12@II@Z ; std::basic_string<char,std::char_traits<char>,std::allocator<char> >::erase
EXTRN	?_Xran@_String_base@std@@SAXXZ:PROC		; std::_String_base::_Xran
; Function compile flags: /Ogtpy
; File d:\program files\microsoft visual studio 8\vc\include\xstring
;	COMDAT ?erase@?$basic_string@DU?$char_traits@D@std@@V?$allocator@D@2@@std@@QAEAAV12@II@Z
_TEXT	SEGMENT
tv130 = 8						; size = 4
__Off$ = 8						; size = 4
__Count$ = 12						; size = 4
?erase@?$basic_string@DU?$char_traits@D@std@@V?$allocator@D@2@@std@@QAEAAV12@II@Z PROC ; std::basic_string<char,std::char_traits<char>,std::allocator<char> >::erase, COMDAT
; _this$ = ecx

; 1240 : 		{	// erase elements [_Off, _Off + _Count)

  00000	53		 push	 ebx

; 1241 : 		if (_Mysize < _Off)

  00001	8b 5c 24 08	 mov	 ebx, DWORD PTR __Off$[esp]
  00005	56		 push	 esi
  00006	8b f1		 mov	 esi, ecx
  00008	39 5e 14	 cmp	 DWORD PTR [esi+20], ebx
  0000b	57		 push	 edi
  0000c	73 05		 jae	 SHORT $LN3@erase

; 1242 : 			_String_base::_Xran();	// _Off off end

  0000e	e8 00 00 00 00	 call	 ?_Xran@_String_base@std@@SAXXZ ; std::_String_base::_Xran
$LN3@erase:

; 1243 : 		if (_Mysize - _Off < _Count)

  00013	8b 46 14	 mov	 eax, DWORD PTR [esi+20]
  00016	8b 7c 24 14	 mov	 edi, DWORD PTR __Count$[esp+8]
  0001a	2b c3		 sub	 eax, ebx
  0001c	3b c7		 cmp	 eax, edi

; 1244 : 			_Count = _Mysize - _Off;	// trim _Count

  0001e	0f 42 f8	 cmovb	 edi, eax

; 1245 : 		if (0 < _Count)

  00021	85 ff		 test	 edi, edi
  00023	76 55		 jbe	 SHORT $LN30@erase

; 1246 : 			{	// move elements down
; 1247 : 			_Traits_helper::move_s<_Traits>(_Myptr() + _Off, _Myres - _Off, _Myptr() + _Off + _Count,
; 1248 : 				_Mysize - _Off - _Count);

  00025	8b 4e 18	 mov	 ecx, DWORD PTR [esi+24]
  00028	83 f9 10	 cmp	 ecx, 16			; 00000010H
  0002b	55		 push	 ebp
  0002c	8d 6e 04	 lea	 ebp, DWORD PTR [esi+4]
  0002f	72 09		 jb	 SHORT $LN8@erase
  00031	8b 55 00	 mov	 edx, DWORD PTR [ebp]
  00034	89 54 24 14	 mov	 DWORD PTR tv130[esp+12], edx
  00038	eb 04		 jmp	 SHORT $LN9@erase
$LN8@erase:
  0003a	89 6c 24 14	 mov	 DWORD PTR tv130[esp+12], ebp
$LN9@erase:
  0003e	83 f9 10	 cmp	 ecx, 16			; 00000010H
  00041	72 05		 jb	 SHORT $LN12@erase
  00043	8b 55 00	 mov	 edx, DWORD PTR [ebp]
  00046	eb 02		 jmp	 SHORT $LN13@erase
$LN12@erase:
  00048	8b d5		 mov	 edx, ebp
$LN13@erase:
  0004a	2b c7		 sub	 eax, edi
  0004c	50		 push	 eax
  0004d	8b 44 24 18	 mov	 eax, DWORD PTR tv130[esp+16]
  00051	03 c3		 add	 eax, ebx
  00053	03 c7		 add	 eax, edi
  00055	50		 push	 eax
  00056	2b cb		 sub	 ecx, ebx
  00058	51		 push	 ecx
  00059	03 d3		 add	 edx, ebx
  0005b	52		 push	 edx
  0005c	e8 00 00 00 00	 call	 _memmove_s

; 1249 : 			size_type _Newsize = _Mysize - _Count;

  00061	8b 46 14	 mov	 eax, DWORD PTR [esi+20]
  00064	2b c7		 sub	 eax, edi
  00066	83 c4 10	 add	 esp, 16			; 00000010H

; 1250 : 			_Eos(_Newsize);

  00069	83 7e 18 10	 cmp	 DWORD PTR [esi+24], 16	; 00000010H
  0006d	89 46 14	 mov	 DWORD PTR [esi+20], eax
  00070	72 03		 jb	 SHORT $LN26@erase
  00072	8b 6d 00	 mov	 ebp, DWORD PTR [ebp]
$LN26@erase:
  00075	c6 04 28 00	 mov	 BYTE PTR [eax+ebp], 0
  00079	5d		 pop	 ebp
$LN30@erase:
  0007a	5f		 pop	 edi

; 1251 : 			}
; 1252 : 		return (*this);

  0007b	8b c6		 mov	 eax, esi
  0007d	5e		 pop	 esi
  0007e	5b		 pop	 ebx

; 1253 : 		}

  0007f	c2 08 00	 ret	 8
?erase@?$basic_string@DU?$char_traits@D@std@@V?$allocator@D@2@@std@@QAEAAV12@II@Z ENDP ; std::basic_string<char,std::char_traits<char>,std::allocator<char> >::erase
_TEXT	ENDS
PUBLIC	?_Tidy@?$basic_string@DU?$char_traits@D@std@@V?$allocator@D@2@@std@@IAEX_NI@Z ; std::basic_string<char,std::char_traits<char>,std::allocator<char> >::_Tidy
; Function compile flags: /Ogtpy
;	COMDAT ?_Tidy@?$basic_string@DU?$char_traits@D@std@@V?$allocator@D@2@@std@@IAEX_NI@Z
_TEXT	SEGMENT
__Built$ = 8						; size = 1
__Newsize$ = 12						; size = 4
?_Tidy@?$basic_string@DU?$char_traits@D@std@@V?$allocator@D@2@@std@@IAEX_NI@Z PROC ; std::basic_string<char,std::char_traits<char>,std::allocator<char> >::_Tidy, COMDAT
; _this$ = ecx

; 2067 : 		if (!_Built)

  00000	80 7c 24 04 00	 cmp	 BYTE PTR __Built$[esp-4], 0
  00005	56		 push	 esi
  00006	57		 push	 edi
  00007	8b 7c 24 10	 mov	 edi, DWORD PTR __Newsize$[esp+4]
  0000b	8b f1		 mov	 esi, ecx
  0000d	74 27		 je	 SHORT $LN15@Tidy

; 2068 : 			;
; 2069 : 		else if (_BUF_SIZE <= _Myres)

  0000f	83 7e 18 10	 cmp	 DWORD PTR [esi+24], 16	; 00000010H
  00013	72 21		 jb	 SHORT $LN15@Tidy

; 2070 : 			{	// copy any leftovers to small buffer and deallocate
; 2071 : 			_Elem *_Ptr = _Bx._Ptr;
; 2072 : 			if (0 < _Newsize)

  00015	85 ff		 test	 edi, edi
  00017	8d 46 04	 lea	 eax, DWORD PTR [esi+4]
  0001a	53		 push	 ebx
  0001b	8b 18		 mov	 ebx, DWORD PTR [eax]
  0001d	76 0d		 jbe	 SHORT $LN13@Tidy

; 2073 : 				_Traits_helper::copy_s<_Traits>(_Bx._Buf, _BUF_SIZE, _Ptr, _Newsize);

  0001f	57		 push	 edi
  00020	53		 push	 ebx
  00021	6a 10		 push	 16			; 00000010H
  00023	50		 push	 eax
  00024	e8 00 00 00 00	 call	 _memcpy_s
  00029	83 c4 10	 add	 esp, 16			; 00000010H
$LN13@Tidy:

; 2074 : 			_Mybase::_Alval.deallocate(_Ptr, _Myres + 1);

  0002c	53		 push	 ebx
  0002d	e8 00 00 00 00	 call	 ??3@YAXPAX@Z		; operator delete
  00032	83 c4 04	 add	 esp, 4
  00035	5b		 pop	 ebx
$LN15@Tidy:

; 2075 : 			}
; 2076 : 		_Myres = _BUF_SIZE - 1;
; 2077 : 		_Eos(_Newsize);

  00036	89 7e 14	 mov	 DWORD PTR [esi+20], edi
  00039	c7 46 18 0f 00
	00 00		 mov	 DWORD PTR [esi+24], 15	; 0000000fH
  00040	c6 44 3e 04 00	 mov	 BYTE PTR [esi+edi+4], 0
  00045	5f		 pop	 edi
  00046	5e		 pop	 esi

; 2078 : 		}

  00047	c2 08 00	 ret	 8
?_Tidy@?$basic_string@DU?$char_traits@D@std@@V?$allocator@D@2@@std@@IAEX_NI@Z ENDP ; std::basic_string<char,std::char_traits<char>,std::allocator<char> >::_Tidy
_TEXT	ENDS
PUBLIC	?_Copy@?$basic_string@DU?$char_traits@D@std@@V?$allocator@D@2@@std@@IAEXII@Z ; std::basic_string<char,std::char_traits<char>,std::allocator<char> >::_Copy
EXTRN	___security_cookie:DWORD
EXTRN	___CxxFrameHandler3:PROC
EXTRN	@__security_check_cookie@4:PROC
;	COMDAT xdata$x
; File d:\program files\microsoft visual studio 8\vc\include\iosfwd
xdata$x	SEGMENT
__catchsym$?_Copy@?$basic_string@DU?$char_traits@D@std@@V?$allocator@D@2@@std@@IAEXII@Z$5 DD 040H
	DD	00H
	DD	00H
	DD	FLAT:__catch$?_Copy@?$basic_string@DU?$char_traits@D@std@@V?$allocator@D@2@@std@@IAEXII@Z$0
__catchsym$?_Copy@?$basic_string@DU?$char_traits@D@std@@V?$allocator@D@2@@std@@IAEXII@Z$4 DD 040H
	DD	00H
	DD	00H
	DD	FLAT:__catch$?_Copy@?$basic_string@DU?$char_traits@D@std@@V?$allocator@D@2@@std@@IAEXII@Z$1
__unwindtable$?_Copy@?$basic_string@DU?$char_traits@D@std@@V?$allocator@D@2@@std@@IAEXII@Z DD 0ffffffffH
	DD	00H
	DD	0ffffffffH
	DD	00H
	DD	01H
	DD	00H
	DD	01H
	DD	00H
__ehfuncinfo$?_Copy@?$basic_string@DU?$char_traits@D@std@@V?$allocator@D@2@@std@@IAEXII@Z DD 019930522H
	DD	04H
	DD	FLAT:__unwindtable$?_Copy@?$basic_string@DU?$char_traits@D@std@@V?$allocator@D@2@@std@@IAEXII@Z
	DD	02H
	DD	FLAT:__tryblocktable$?_Copy@?$basic_string@DU?$char_traits@D@std@@V?$allocator@D@2@@std@@IAEXII@Z
	DD	2 DUP(00H)
	DD	00H
	DD	01H
__tryblocktable$?_Copy@?$basic_string@DU?$char_traits@D@std@@V?$allocator@D@2@@std@@IAEXII@Z DD 02H
	DD	02H
	DD	03H
	DD	01H
	DD	FLAT:__catchsym$?_Copy@?$basic_string@DU?$char_traits@D@std@@V?$allocator@D@2@@std@@IAEXII@Z$4
	DD	00H
	DD	00H
	DD	03H
	DD	01H
	DD	FLAT:__catchsym$?_Copy@?$basic_string@DU?$char_traits@D@std@@V?$allocator@D@2@@std@@IAEXII@Z$5
; Function compile flags: /Ogtpy
; File d:\program files\microsoft visual studio 8\vc\include\xstring
xdata$x	ENDS
;	COMDAT ?_Copy@?$basic_string@DU?$char_traits@D@std@@V?$allocator@D@2@@std@@IAEXII@Z
_TEXT	SEGMENT
__Newres$ = -24						; size = 4
_this$ = -20						; size = 4
__$EHRec$ = -16						; size = 16
__Ptr$ = 8						; size = 4
__Newsize$ = 8						; size = 4
__Oldlen$ = 12						; size = 4
?_Copy@?$basic_string@DU?$char_traits@D@std@@V?$allocator@D@2@@std@@IAEXII@Z PROC ; std::basic_string<char,std::char_traits<char>,std::allocator<char> >::_Copy, COMDAT
; _this$ = ecx

; 2000 : 		{	// copy _Oldlen elements to newly allocated buffer

  00000	55		 push	 ebp
  00001	8b ec		 mov	 ebp, esp
  00003	6a ff		 push	 -1
  00005	68 00 00 00 00	 push	 __ehhandler$?_Copy@?$basic_string@DU?$char_traits@D@std@@V?$allocator@D@2@@std@@IAEXII@Z
  0000a	64 a1 00 00 00
	00		 mov	 eax, DWORD PTR fs:0
  00010	50		 push	 eax
  00011	83 ec 0c	 sub	 esp, 12			; 0000000cH
  00014	53		 push	 ebx
  00015	56		 push	 esi
  00016	57		 push	 edi
  00017	a1 00 00 00 00	 mov	 eax, DWORD PTR ___security_cookie
  0001c	33 c5		 xor	 eax, ebp
  0001e	50		 push	 eax
  0001f	8d 45 f4	 lea	 eax, DWORD PTR __$EHRec$[ebp+4]
  00022	64 a3 00 00 00
	00		 mov	 DWORD PTR fs:0, eax
  00028	89 65 f0	 mov	 DWORD PTR __$EHRec$[ebp], esp
  0002b	8b f9		 mov	 edi, ecx
  0002d	89 7d ec	 mov	 DWORD PTR _this$[ebp], edi

; 2001 : 		size_type _Newres = _Newsize | _ALLOC_MASK;

  00030	8b 45 08	 mov	 eax, DWORD PTR __Newsize$[ebp]
  00033	8b f0		 mov	 esi, eax
  00035	83 ce 0f	 or	 esi, 15			; 0000000fH

; 2002 : 		if (max_size() < _Newres)

  00038	83 fe fe	 cmp	 esi, -2			; fffffffeH
  0003b	76 04		 jbe	 SHORT $LN6@Copy

; 2003 : 			_Newres = _Newsize;	// undo roundup if too big

  0003d	8b f0		 mov	 esi, eax

; 2004 : 		else if (_Newres / 3 < _Myres / 2

  0003f	eb 22		 jmp	 SHORT $LN4@Copy
$LN6@Copy:

; 2005 : 			&& _Myres <= max_size() - _Myres / 2)

  00041	8b 5f 18	 mov	 ebx, DWORD PTR [edi+24]
  00044	b8 ab aa aa aa	 mov	 eax, -1431655765	; aaaaaaabH
  00049	f7 e6		 mul	 esi
  0004b	8b cb		 mov	 ecx, ebx
  0004d	d1 e9		 shr	 ecx, 1
  0004f	d1 ea		 shr	 edx, 1
  00051	3b d1		 cmp	 edx, ecx
  00053	73 0e		 jae	 SHORT $LN4@Copy
  00055	b8 fe ff ff ff	 mov	 eax, -2			; fffffffeH
  0005a	2b c1		 sub	 eax, ecx
  0005c	3b d8		 cmp	 ebx, eax
  0005e	77 03		 ja	 SHORT $LN4@Copy

; 2006 : 			_Newres = _Myres + _Myres / 2;	// grow exponentially if possible

  00060	8d 34 19	 lea	 esi, DWORD PTR [ecx+ebx]
$LN4@Copy:

; 2007 : 		_Elem *_Ptr = 0;
; 2008 : 
; 2009 : 		_TRY_BEGIN
; 2010 : 			_Ptr = _Mybase::_Alval.allocate(_Newres + 1);

  00063	8d 4e 01	 lea	 ecx, DWORD PTR [esi+1]
  00066	6a 00		 push	 0
  00068	51		 push	 ecx
  00069	c7 45 fc 00 00
	00 00		 mov	 DWORD PTR __$EHRec$[ebp+12], 0
  00070	e8 00 00 00 00	 call	 ??$_Allocate@D@std@@YAPADIPAD@Z ; std::_Allocate<char>
  00075	83 c4 08	 add	 esp, 8
  00078	89 45 08	 mov	 DWORD PTR __Ptr$[ebp], eax

; 2018 : 			_CATCH_END
; 2019 : 		_CATCH_END

  0007b	eb 2a		 jmp	 SHORT $LN16@Copy
__catch$?_Copy@?$basic_string@DU?$char_traits@D@std@@V?$allocator@D@2@@std@@IAEXII@Z$0:

; 2011 : 		_CATCH_ALL
; 2012 : 			_Newres = _Newsize;	// allocation failed, undo roundup and retry

  0007d	8b 45 08	 mov	 eax, DWORD PTR __Newsize$[ebp]
  00080	89 65 f0	 mov	 DWORD PTR __$EHRec$[ebp], esp
  00083	89 45 e8	 mov	 DWORD PTR __Newres$[ebp], eax

; 2013 : 			_TRY_BEGIN
; 2014 : 				_Ptr = _Mybase::_Alval.allocate(_Newres + 1);

  00086	83 c0 01	 add	 eax, 1
  00089	6a 00		 push	 0
  0008b	50		 push	 eax
  0008c	c6 45 fc 02	 mov	 BYTE PTR __$EHRec$[ebp+12], 2
  00090	e8 00 00 00 00	 call	 ??$_Allocate@D@std@@YAPADIPAD@Z ; std::_Allocate<char>
  00095	89 45 08	 mov	 DWORD PTR __Ptr$[ebp], eax
  00098	83 c4 08	 add	 esp, 8

; 2018 : 			_CATCH_END
; 2019 : 		_CATCH_END

  0009b	b8 00 00 00 00	 mov	 eax, $LN106@Copy
  000a0	c3		 ret	 0
$LN106@Copy:
  000a1	8b 7d ec	 mov	 edi, DWORD PTR _this$[ebp]
  000a4	8b 75 e8	 mov	 esi, DWORD PTR __Newres$[ebp]
$LN16@Copy:

; 2020 : 
; 2021 : 		if (0 < _Oldlen)

  000a7	8b 5d 0c	 mov	 ebx, DWORD PTR __Oldlen$[ebp]
  000aa	85 db		 test	 ebx, ebx
  000ac	76 20		 jbe	 SHORT $LN71@Copy

; 2022 : 			_Traits_helper::copy_s<_Traits>(_Ptr, _Newres + 1, _Myptr(), _Oldlen);	// copy existing elements

  000ae	83 7f 18 10	 cmp	 DWORD PTR [edi+24], 16	; 00000010H
  000b2	72 05		 jb	 SHORT $LN63@Copy
  000b4	8b 47 04	 mov	 eax, DWORD PTR [edi+4]
  000b7	eb 03		 jmp	 SHORT $LN64@Copy
$LN63@Copy:
  000b9	8d 47 04	 lea	 eax, DWORD PTR [edi+4]
$LN64@Copy:
  000bc	53		 push	 ebx
  000bd	50		 push	 eax
  000be	8b 45 08	 mov	 eax, DWORD PTR __Ptr$[ebp]
  000c1	8d 56 01	 lea	 edx, DWORD PTR [esi+1]
  000c4	52		 push	 edx
  000c5	50		 push	 eax
  000c6	e8 00 00 00 00	 call	 _memcpy_s
  000cb	83 c4 10	 add	 esp, 16			; 00000010H
$LN71@Copy:

; 2023 : 		_Tidy(true);

  000ce	83 7f 18 10	 cmp	 DWORD PTR [edi+24], 16	; 00000010H
  000d2	72 0c		 jb	 SHORT $LN87@Copy
  000d4	8b 4f 04	 mov	 ecx, DWORD PTR [edi+4]
  000d7	51		 push	 ecx
  000d8	e8 00 00 00 00	 call	 ??3@YAXPAX@Z		; operator delete
  000dd	83 c4 04	 add	 esp, 4
$LN87@Copy:

; 2024 : 		_Bx._Ptr = _Ptr;
; 2025 : 		_Myres = _Newres;
; 2026 : 		_Eos(_Oldlen);

  000e0	83 fe 10	 cmp	 esi, 16			; 00000010H
  000e3	8b 4d 08	 mov	 ecx, DWORD PTR __Ptr$[ebp]
  000e6	8d 47 04	 lea	 eax, DWORD PTR [edi+4]
  000e9	c6 00 00	 mov	 BYTE PTR [eax], 0
  000ec	89 08		 mov	 DWORD PTR [eax], ecx
  000ee	89 77 18	 mov	 DWORD PTR [edi+24], esi
  000f1	89 5f 14	 mov	 DWORD PTR [edi+20], ebx
  000f4	72 02		 jb	 SHORT $LN101@Copy
  000f6	8b c1		 mov	 eax, ecx
$LN101@Copy:
  000f8	c6 04 18 00	 mov	 BYTE PTR [eax+ebx], 0

; 2027 : 		}

  000fc	8b 4d f4	 mov	 ecx, DWORD PTR __$EHRec$[ebp+4]
  000ff	64 89 0d 00 00
	00 00		 mov	 DWORD PTR fs:0, ecx
  00106	59		 pop	 ecx
  00107	5f		 pop	 edi
  00108	5e		 pop	 esi
  00109	5b		 pop	 ebx
  0010a	8b e5		 mov	 esp, ebp
  0010c	5d		 pop	 ebp
  0010d	c2 08 00	 ret	 8
__catch$?_Copy@?$basic_string@DU?$char_traits@D@std@@V?$allocator@D@2@@std@@IAEXII@Z$1:

; 2015 : 			_CATCH_ALL
; 2016 : 			_Tidy(true);	// failed again, discard storage and reraise

  00110	8b 75 ec	 mov	 esi, DWORD PTR _this$[ebp]
  00113	83 7e 18 10	 cmp	 DWORD PTR [esi+24], 16	; 00000010H
  00117	72 0c		 jb	 SHORT $LN51@Copy
  00119	8b 56 04	 mov	 edx, DWORD PTR [esi+4]
  0011c	52		 push	 edx
  0011d	e8 00 00 00 00	 call	 ??3@YAXPAX@Z		; operator delete
  00122	83 c4 04	 add	 esp, 4
$LN51@Copy:

; 2017 : 			_RERAISE;

  00125	6a 00		 push	 0
  00127	c7 46 18 0f 00
	00 00		 mov	 DWORD PTR [esi+24], 15	; 0000000fH
  0012e	c7 46 14 00 00
	00 00		 mov	 DWORD PTR [esi+20], 0
  00135	6a 00		 push	 0
  00137	c6 46 04 00	 mov	 BYTE PTR [esi+4], 0
  0013b	e8 00 00 00 00	 call	 __CxxThrowException@8
$LN110@Copy:
$LN109@Copy:
  00140	cc		 int	 3
_TEXT	ENDS
;	COMDAT text$x
text$x	SEGMENT
__ehhandler$?_Copy@?$basic_string@DU?$char_traits@D@std@@V?$allocator@D@2@@std@@IAEXII@Z:
  00000	8b 54 24 08	 mov	 edx, DWORD PTR [esp+8]
  00004	8d 42 0c	 lea	 eax, DWORD PTR [edx+12]
  00007	8b 4a e4	 mov	 ecx, DWORD PTR [edx-28]
  0000a	33 c8		 xor	 ecx, eax
  0000c	e8 00 00 00 00	 call	 @__security_check_cookie@4
  00011	b8 00 00 00 00	 mov	 eax, OFFSET __ehfuncinfo$?_Copy@?$basic_string@DU?$char_traits@D@std@@V?$allocator@D@2@@std@@IAEXII@Z
  00016	e9 00 00 00 00	 jmp	 ___CxxFrameHandler3
text$x	ENDS
?_Copy@?$basic_string@DU?$char_traits@D@std@@V?$allocator@D@2@@std@@IAEXII@Z ENDP ; std::basic_string<char,std::char_traits<char>,std::allocator<char> >::_Copy
PUBLIC	??D?$_Iterator@$00@?$list@U?$pair@$$CBVCGUID@@PAVCBaseObject@@@std@@V?$allocator@U?$pair@$$CBVCGUID@@PAVCBaseObject@@@std@@@2@@std@@QBEAAU?$pair@$$CBVCGUID@@PAVCBaseObject@@@2@XZ ; std::list<std::pair<CGUID const ,CBaseObject *>,std::allocator<std::pair<CGUID const ,CBaseObject *> > >::_Iterator<1>::operator*
; Function compile flags: /Ogtpy
; File d:\program files\microsoft visual studio 8\vc\include\list
;	COMDAT ??D?$_Iterator@$00@?$list@U?$pair@$$CBVCGUID@@PAVCBaseObject@@@std@@V?$allocator@U?$pair@$$CBVCGUID@@PAVCBaseObject@@@std@@@2@@std@@QBEAAU?$pair@$$CBVCGUID@@PAVCBaseObject@@@2@XZ
_TEXT	SEGMENT
??D?$_Iterator@$00@?$list@U?$pair@$$CBVCGUID@@PAVCBaseObject@@@std@@V?$allocator@U?$pair@$$CBVCGUID@@PAVCBaseObject@@@std@@@2@@std@@QBEAAU?$pair@$$CBVCGUID@@PAVCBaseObject@@@2@XZ PROC ; std::list<std::pair<CGUID const ,CBaseObject *>,std::allocator<std::pair<CGUID const ,CBaseObject *> > >::_Iterator<1>::operator*, COMDAT
; _this$ = ecx

; 387  : 			{	// return designated value

  00000	56		 push	 esi
  00001	8b f1		 mov	 esi, ecx

; 388  : 			return ((reference)**(_Mybase_iter *)this);

  00003	83 3e 00	 cmp	 DWORD PTR [esi], 0
  00006	75 05		 jne	 SHORT $LN5@operator@19
  00008	e8 00 00 00 00	 call	 __invalid_parameter_noinfo
$LN5@operator@19:
  0000d	8b 06		 mov	 eax, DWORD PTR [esi]
  0000f	8b 4e 04	 mov	 ecx, DWORD PTR [esi+4]
  00012	3b 48 04	 cmp	 ecx, DWORD PTR [eax+4]
  00015	75 05		 jne	 SHORT $LN3@operator@19
  00017	e8 00 00 00 00	 call	 __invalid_parameter_noinfo
$LN3@operator@19:
  0001c	8b 46 04	 mov	 eax, DWORD PTR [esi+4]
  0001f	83 c0 08	 add	 eax, 8
  00022	5e		 pop	 esi

; 389  : 			}

  00023	c3		 ret	 0
??D?$_Iterator@$00@?$list@U?$pair@$$CBVCGUID@@PAVCBaseObject@@@std@@V?$allocator@U?$pair@$$CBVCGUID@@PAVCBaseObject@@@std@@@2@@std@@QBEAAU?$pair@$$CBVCGUID@@PAVCBaseObject@@@2@XZ ENDP ; std::list<std::pair<CGUID const ,CBaseObject *>,std::allocator<std::pair<CGUID const ,CBaseObject *> > >::_Iterator<1>::operator*
_TEXT	ENDS
PUBLIC	?_Get_iter_from_vec@?$_Hash@V?$_Hmap_traits@VCGUID@@PAVCBaseObject@@Vhash_guid_compare@@V?$allocator@U?$pair@$$CBVCGUID@@PAVCBaseObject@@@std@@@std@@$0A@@stdext@@@stdext@@QBE?AV?$_Iterator@$00@?$list@U?$pair@$$CBVCGUID@@PAVCBaseObject@@@std@@V?$allocator@U?$pair@$$CBVCGUID@@PAVCBaseObject@@@std@@@2@@std@@ABU_List_position@12@@Z ; stdext::_Hash<stdext::_Hmap_traits<CGUID,CBaseObject *,hash_guid_compare,std::allocator<std::pair<CGUID const ,CBaseObject *> >,0> >::_Get_iter_from_vec
; Function compile flags: /Ogtpy
; File d:\program files\microsoft visual studio 8\vc\include\xhash
;	COMDAT ?_Get_iter_from_vec@?$_Hash@V?$_Hmap_traits@VCGUID@@PAVCBaseObject@@Vhash_guid_compare@@V?$allocator@U?$pair@$$CBVCGUID@@PAVCBaseObject@@@std@@@std@@$0A@@stdext@@@stdext@@QBE?AV?$_Iterator@$00@?$list@U?$pair@$$CBVCGUID@@PAVCBaseObject@@@std@@V?$allocator@U?$pair@$$CBVCGUID@@PAVCBaseObject@@@std@@@2@@std@@ABU_List_position@12@@Z
_TEXT	SEGMENT
___$ReturnUdt$ = 8					; size = 4
__Pos$ = 12						; size = 4
?_Get_iter_from_vec@?$_Hash@V?$_Hmap_traits@VCGUID@@PAVCBaseObject@@Vhash_guid_compare@@V?$allocator@U?$pair@$$CBVCGUID@@PAVCBaseObject@@@std@@@std@@$0A@@stdext@@@stdext@@QBE?AV?$_Iterator@$00@?$list@U?$pair@$$CBVCGUID@@PAVCBaseObject@@@std@@V?$allocator@U?$pair@$$CBVCGUID@@PAVCBaseObject@@@std@@@2@@std@@ABU_List_position@12@@Z PROC ; stdext::_Hash<stdext::_Hmap_traits<CGUID,CBaseObject *,hash_guid_compare,std::allocator<std::pair<CGUID const ,CBaseObject *> >,0> >::_Get_iter_from_vec, COMDAT
; _this$ = ecx

; 241  : 		return _Pos._Get_iter(_List);

  00000	8b 44 24 08	 mov	 eax, DWORD PTR __Pos$[esp-4]
  00004	56		 push	 esi
  00005	8b 74 24 08	 mov	 esi, DWORD PTR ___$ReturnUdt$[esp]
  00009	57		 push	 edi
  0000a	8d 79 04	 lea	 edi, DWORD PTR [ecx+4]
  0000d	85 ff		 test	 edi, edi
  0000f	8b 48 04	 mov	 ecx, DWORD PTR [eax+4]
  00012	c7 06 00 00 00
	00		 mov	 DWORD PTR [esi], 0
  00018	89 4e 04	 mov	 DWORD PTR [esi+4], ecx
  0001b	75 05		 jne	 SHORT $LN17@Get_iter_f
  0001d	e8 00 00 00 00	 call	 __invalid_parameter_noinfo
$LN17@Get_iter_f:
  00022	89 3e		 mov	 DWORD PTR [esi], edi
  00024	5f		 pop	 edi
  00025	8b c6		 mov	 eax, esi
  00027	5e		 pop	 esi

; 242  : 	}

  00028	c2 08 00	 ret	 8
?_Get_iter_from_vec@?$_Hash@V?$_Hmap_traits@VCGUID@@PAVCBaseObject@@Vhash_guid_compare@@V?$allocator@U?$pair@$$CBVCGUID@@PAVCBaseObject@@@std@@@std@@$0A@@stdext@@@stdext@@QBE?AV?$_Iterator@$00@?$list@U?$pair@$$CBVCGUID@@PAVCBaseObject@@@std@@V?$allocator@U?$pair@$$CBVCGUID@@PAVCBaseObject@@@std@@@2@@std@@ABU_List_position@12@@Z ENDP ; stdext::_Hash<stdext::_Hmap_traits<CGUID,CBaseObject *,hash_guid_compare,std::allocator<std::pair<CGUID const ,CBaseObject *> >,0> >::_Get_iter_from_vec
_TEXT	ENDS
PUBLIC	?end@?$list@U?$pair@$$CBVCGUID@@PAVCBaseObject@@@std@@V?$allocator@U?$pair@$$CBVCGUID@@PAVCBaseObject@@@std@@@2@@std@@QAE?AV?$_Iterator@$00@12@XZ ; std::list<std::pair<CGUID const ,CBaseObject *>,std::allocator<std::pair<CGUID const ,CBaseObject *> > >::end
; Function compile flags: /Ogtpy
; File d:\program files\microsoft visual studio 8\vc\include\list
;	COMDAT ?end@?$list@U?$pair@$$CBVCGUID@@PAVCBaseObject@@@std@@V?$allocator@U?$pair@$$CBVCGUID@@PAVCBaseObject@@@std@@@2@@std@@QAE?AV?$_Iterator@$00@12@XZ
_TEXT	SEGMENT
___$ReturnUdt$ = 8					; size = 4
?end@?$list@U?$pair@$$CBVCGUID@@PAVCBaseObject@@@std@@V?$allocator@U?$pair@$$CBVCGUID@@PAVCBaseObject@@@std@@@2@@std@@QAE?AV?$_Iterator@$00@12@XZ PROC ; std::list<std::pair<CGUID const ,CBaseObject *>,std::allocator<std::pair<CGUID const ,CBaseObject *> > >::end, COMDAT
; _this$ = ecx

; 538  : 		return (iterator(_Myhead, this));

  00000	8b 44 24 04	 mov	 eax, DWORD PTR ___$ReturnUdt$[esp-4]
  00004	8b 51 04	 mov	 edx, DWORD PTR [ecx+4]
  00007	89 50 04	 mov	 DWORD PTR [eax+4], edx
  0000a	89 08		 mov	 DWORD PTR [eax], ecx

; 539  : 		}

  0000c	c2 04 00	 ret	 4
?end@?$list@U?$pair@$$CBVCGUID@@PAVCBaseObject@@@std@@V?$allocator@U?$pair@$$CBVCGUID@@PAVCBaseObject@@@std@@@2@@std@@QAE?AV?$_Iterator@$00@12@XZ ENDP ; std::list<std::pair<CGUID const ,CBaseObject *>,std::allocator<std::pair<CGUID const ,CBaseObject *> > >::end
_TEXT	ENDS
PUBLIC	??0?$_Iterator@$00@?$list@U?$pair@$$CBVCGUID@@PAVCBaseObject@@@std@@V?$allocator@U?$pair@$$CBVCGUID@@PAVCBaseObject@@@std@@@2@@std@@QAE@XZ ; std::list<std::pair<CGUID const ,CBaseObject *>,std::allocator<std::pair<CGUID const ,CBaseObject *> > >::_Iterator<1>::_Iterator<1>
; Function compile flags: /Ogtpy
;	COMDAT ??0?$_Iterator@$00@?$list@U?$pair@$$CBVCGUID@@PAVCBaseObject@@@std@@V?$allocator@U?$pair@$$CBVCGUID@@PAVCBaseObject@@@std@@@2@@std@@QAE@XZ
_TEXT	SEGMENT
??0?$_Iterator@$00@?$list@U?$pair@$$CBVCGUID@@PAVCBaseObject@@@std@@V?$allocator@U?$pair@$$CBVCGUID@@PAVCBaseObject@@@std@@@2@@std@@QAE@XZ PROC ; std::list<std::pair<CGUID const ,CBaseObject *>,std::allocator<std::pair<CGUID const ,CBaseObject *> > >::_Iterator<1>::_Iterator<1>, COMDAT
; _this$ = ecx

; 342  : 		_Iterator()

  00000	8b c1		 mov	 eax, ecx
  00002	c7 00 00 00 00
	00		 mov	 DWORD PTR [eax], 0
  00008	c7 40 04 00 00
	00 00		 mov	 DWORD PTR [eax+4], 0

; 343  : 			{	// construct with null node
; 344  : 			}

  0000f	c3		 ret	 0
??0?$_Iterator@$00@?$list@U?$pair@$$CBVCGUID@@PAVCBaseObject@@@std@@V?$allocator@U?$pair@$$CBVCGUID@@PAVCBaseObject@@@std@@@2@@std@@QAE@XZ ENDP ; std::list<std::pair<CGUID const ,CBaseObject *>,std::allocator<std::pair<CGUID const ,CBaseObject *> > >::_Iterator<1>::_Iterator<1>
_TEXT	ENDS
PUBLIC	??0_List_position@?$_Hash@V?$_Hmap_traits@VCGUID@@PAVCBaseObject@@Vhash_guid_compare@@V?$allocator@U?$pair@$$CBVCGUID@@PAVCBaseObject@@@std@@@std@@$0A@@stdext@@@stdext@@QAE@V?$_Iterator@$00@?$list@U?$pair@$$CBVCGUID@@PAVCBaseObject@@@std@@V?$allocator@U?$pair@$$CBVCGUID@@PAVCBaseObject@@@std@@@2@@std@@@Z ; stdext::_Hash<stdext::_Hmap_traits<CGUID,CBaseObject *,hash_guid_compare,std::allocator<std::pair<CGUID const ,CBaseObject *> >,0> >::_List_position::_List_position
; Function compile flags: /Ogtpy
; File d:\program files\microsoft visual studio 8\vc\include\xhash
;	COMDAT ??0_List_position@?$_Hash@V?$_Hmap_traits@VCGUID@@PAVCBaseObject@@Vhash_guid_compare@@V?$allocator@U?$pair@$$CBVCGUID@@PAVCBaseObject@@@std@@@std@@$0A@@stdext@@@stdext@@QAE@V?$_Iterator@$00@?$list@U?$pair@$$CBVCGUID@@PAVCBaseObject@@@std@@V?$allocator@U?$pair@$$CBVCGUID@@PAVCBaseObject@@@std@@@2@@std@@@Z
_TEXT	SEGMENT
__Iter$ = 8						; size = 8
??0_List_position@?$_Hash@V?$_Hmap_traits@VCGUID@@PAVCBaseObject@@Vhash_guid_compare@@V?$allocator@U?$pair@$$CBVCGUID@@PAVCBaseObject@@@std@@@std@@$0A@@stdext@@@stdext@@QAE@V?$_Iterator@$00@?$list@U?$pair@$$CBVCGUID@@PAVCBaseObject@@@std@@V?$allocator@U?$pair@$$CBVCGUID@@PAVCBaseObject@@@std@@@2@@std@@@Z PROC ; stdext::_Hash<stdext::_Hmap_traits<CGUID,CBaseObject *,hash_guid_compare,std::allocator<std::pair<CGUID const ,CBaseObject *> >,0> >::_List_position::_List_position, COMDAT
; _this$ = ecx

; 197  : 			{

  00000	8b 54 24 04	 mov	 edx, DWORD PTR __Iter$[esp-4]
  00004	8b c1		 mov	 eax, ecx
  00006	8b 4c 24 08	 mov	 ecx, DWORD PTR __Iter$[esp]
  0000a	89 48 04	 mov	 DWORD PTR [eax+4], ecx
  0000d	89 10		 mov	 DWORD PTR [eax], edx

; 198  : 			}

  0000f	c2 08 00	 ret	 8
??0_List_position@?$_Hash@V?$_Hmap_traits@VCGUID@@PAVCBaseObject@@Vhash_guid_compare@@V?$allocator@U?$pair@$$CBVCGUID@@PAVCBaseObject@@@std@@@std@@$0A@@stdext@@@stdext@@QAE@V?$_Iterator@$00@?$list@U?$pair@$$CBVCGUID@@PAVCBaseObject@@@std@@V?$allocator@U?$pair@$$CBVCGUID@@PAVCBaseObject@@@std@@@2@@std@@@Z ENDP ; stdext::_Hash<stdext::_Hmap_traits<CGUID,CBaseObject *,hash_guid_compare,std::allocator<std::pair<CGUID const ,CBaseObject *> >,0> >::_List_position::_List_position
_TEXT	ENDS
PUBLIC	?begin@?$list@U?$pair@$$CBVCGUID@@PAVCBaseObject@@@std@@V?$allocator@U?$pair@$$CBVCGUID@@PAVCBaseObject@@@std@@@2@@std@@QAE?AV?$_Iterator@$00@12@XZ ; std::list<std::pair<CGUID const ,CBaseObject *>,std::allocator<std::pair<CGUID const ,CBaseObject *> > >::begin
; Function compile flags: /Ogtpy
; File d:\program files\microsoft visual studio 8\vc\include\list
;	COMDAT ?begin@?$list@U?$pair@$$CBVCGUID@@PAVCBaseObject@@@std@@V?$allocator@U?$pair@$$CBVCGUID@@PAVCBaseObject@@@std@@@2@@std@@QAE?AV?$_Iterator@$00@12@XZ
_TEXT	SEGMENT
___$ReturnUdt$ = 8					; size = 4
?begin@?$list@U?$pair@$$CBVCGUID@@PAVCBaseObject@@@std@@V?$allocator@U?$pair@$$CBVCGUID@@PAVCBaseObject@@@std@@@2@@std@@QAE?AV?$_Iterator@$00@12@XZ PROC ; std::list<std::pair<CGUID const ,CBaseObject *>,std::allocator<std::pair<CGUID const ,CBaseObject *> > >::begin, COMDAT
; _this$ = ecx

; 528  : 		return (iterator(_Nextnode(_Myhead), this));

  00000	8b 41 04	 mov	 eax, DWORD PTR [ecx+4]
  00003	8b 10		 mov	 edx, DWORD PTR [eax]
  00005	8b 44 24 04	 mov	 eax, DWORD PTR ___$ReturnUdt$[esp-4]
  00009	89 50 04	 mov	 DWORD PTR [eax+4], edx
  0000c	89 08		 mov	 DWORD PTR [eax], ecx

; 529  : 		}

  0000e	c2 04 00	 ret	 4
?begin@?$list@U?$pair@$$CBVCGUID@@PAVCBaseObject@@@std@@V?$allocator@U?$pair@$$CBVCGUID@@PAVCBaseObject@@@std@@@2@@std@@QAE?AV?$_Iterator@$00@12@XZ ENDP ; std::list<std::pair<CGUID const ,CBaseObject *>,std::allocator<std::pair<CGUID const ,CBaseObject *> > >::begin
_TEXT	ENDS
PUBLIC	??H?$_Vector_iterator@U_List_position@?$_Hash@V?$_Hmap_traits@VCGUID@@PAVCBaseObject@@Vhash_guid_compare@@V?$allocator@U?$pair@$$CBVCGUID@@PAVCBaseObject@@@std@@@std@@$0A@@stdext@@@stdext@@V?$allocator@U_List_position@?$_Hash@V?$_Hmap_traits@VCGUID@@PAVCBaseObject@@Vhash_guid_compare@@V?$allocator@U?$pair@$$CBVCGUID@@PAVCBaseObject@@@std@@@std@@$0A@@stdext@@@stdext@@@std@@@std@@QBE?AV01@H@Z ; std::_Vector_iterator<stdext::_Hash<stdext::_Hmap_traits<CGUID,CBaseObject *,hash_guid_compare,std::allocator<std::pair<CGUID const ,CBaseObject *> >,0> >::_List_position,std::allocator<stdext::_Hash<stdext::_Hmap_traits<CGUID,CBaseObject *,hash_guid_compare,std::allocator<std::pair<CGUID const ,CBaseObject *> >,0> >::_List_position> >::operator+
; Function compile flags: /Ogtpy
; File d:\program files\microsoft visual studio 8\vc\include\vector
;	COMDAT ??H?$_Vector_iterator@U_List_position@?$_Hash@V?$_Hmap_traits@VCGUID@@PAVCBaseObject@@Vhash_guid_compare@@V?$allocator@U?$pair@$$CBVCGUID@@PAVCBaseObject@@@std@@@std@@$0A@@stdext@@@stdext@@V?$allocator@U_List_position@?$_Hash@V?$_Hmap_traits@VCGUID@@PAVCBaseObject@@Vhash_guid_compare@@V?$allocator@U?$pair@$$CBVCGUID@@PAVCBaseObject@@@std@@@std@@$0A@@stdext@@@stdext@@@std@@@std@@QBE?AV01@H@Z
_TEXT	SEGMENT
___$ReturnUdt$ = 8					; size = 4
__Off$ = 12						; size = 4
??H?$_Vector_iterator@U_List_position@?$_Hash@V?$_Hmap_traits@VCGUID@@PAVCBaseObject@@Vhash_guid_compare@@V?$allocator@U?$pair@$$CBVCGUID@@PAVCBaseObject@@@std@@@std@@$0A@@stdext@@@stdext@@V?$allocator@U_List_position@?$_Hash@V?$_Hmap_traits@VCGUID@@PAVCBaseObject@@Vhash_guid_compare@@V?$allocator@U?$pair@$$CBVCGUID@@PAVCBaseObject@@@std@@@std@@$0A@@stdext@@@stdext@@@std@@@std@@QBE?AV01@H@Z PROC ; std::_Vector_iterator<stdext::_Hash<stdext::_Hmap_traits<CGUID,CBaseObject *,hash_guid_compare,std::allocator<std::pair<CGUID const ,CBaseObject *> >,0> >::_List_position,std::allocator<stdext::_Hash<stdext::_Hmap_traits<CGUID,CBaseObject *,hash_guid_compare,std::allocator<std::pair<CGUID const ,CBaseObject *> >,0> >::_List_position> >::operator+, COMDAT
; _this$ = ecx

; 367  : 		{	// return this + integer

  00000	56		 push	 esi

; 368  : 		_Myt _Tmp = *this;

  00001	8b 31		 mov	 esi, DWORD PTR [ecx]

; 369  : 		return (_Tmp += _Off);

  00003	85 f6		 test	 esi, esi
  00005	57		 push	 edi
  00006	8b 79 04	 mov	 edi, DWORD PTR [ecx+4]
  00009	75 05		 jne	 SHORT $LN7@operator@20
  0000b	e8 00 00 00 00	 call	 __invalid_parameter_noinfo
$LN7@operator@20:
  00010	8b 44 24 10	 mov	 eax, DWORD PTR __Off$[esp+4]
  00014	8d 3c c7	 lea	 edi, DWORD PTR [edi+eax*8]
  00017	3b 7e 08	 cmp	 edi, DWORD PTR [esi+8]
  0001a	77 05		 ja	 SHORT $LN5@operator@20
  0001c	3b 7e 04	 cmp	 edi, DWORD PTR [esi+4]
  0001f	73 05		 jae	 SHORT $LN6@operator@20
$LN5@operator@20:
  00021	e8 00 00 00 00	 call	 __invalid_parameter_noinfo
$LN6@operator@20:
  00026	8b 44 24 0c	 mov	 eax, DWORD PTR ___$ReturnUdt$[esp+4]
  0002a	89 78 04	 mov	 DWORD PTR [eax+4], edi
  0002d	5f		 pop	 edi
  0002e	89 30		 mov	 DWORD PTR [eax], esi
  00030	5e		 pop	 esi

; 370  : 		}

  00031	c2 08 00	 ret	 8
??H?$_Vector_iterator@U_List_position@?$_Hash@V?$_Hmap_traits@VCGUID@@PAVCBaseObject@@Vhash_guid_compare@@V?$allocator@U?$pair@$$CBVCGUID@@PAVCBaseObject@@@std@@@std@@$0A@@stdext@@@stdext@@V?$allocator@U_List_position@?$_Hash@V?$_Hmap_traits@VCGUID@@PAVCBaseObject@@Vhash_guid_compare@@V?$allocator@U?$pair@$$CBVCGUID@@PAVCBaseObject@@@std@@@std@@$0A@@stdext@@@stdext@@@std@@@std@@QBE?AV01@H@Z ENDP ; std::_Vector_iterator<stdext::_Hash<stdext::_Hmap_traits<CGUID,CBaseObject *,hash_guid_compare,std::allocator<std::pair<CGUID const ,CBaseObject *> >,0> >::_List_position,std::allocator<stdext::_Hash<stdext::_Hmap_traits<CGUID,CBaseObject *,hash_guid_compare,std::allocator<std::pair<CGUID const ,CBaseObject *> >,0> >::_List_position> >::operator+
_TEXT	ENDS
PUBLIC	?_Buynode@?$list@U?$pair@$$CBVCGUID@@PAVCBaseObject@@@std@@V?$allocator@U?$pair@$$CBVCGUID@@PAVCBaseObject@@@std@@@2@@std@@IAEPAU_Node@?$_List_nod@U?$pair@$$CBVCGUID@@PAVCBaseObject@@@std@@V?$allocator@U?$pair@$$CBVCGUID@@PAVCBaseObject@@@std@@@2@@2@PAU342@0ABU?$pair@$$CBVCGUID@@PAVCBaseObject@@@2@@Z ; std::list<std::pair<CGUID const ,CBaseObject *>,std::allocator<std::pair<CGUID const ,CBaseObject *> > >::_Buynode
; Function compile flags: /Ogtpy
; File d:\program files\microsoft visual studio 8\vc\include\list
;	COMDAT ?_Buynode@?$list@U?$pair@$$CBVCGUID@@PAVCBaseObject@@@std@@V?$allocator@U?$pair@$$CBVCGUID@@PAVCBaseObject@@@std@@@2@@std@@IAEPAU_Node@?$_List_nod@U?$pair@$$CBVCGUID@@PAVCBaseObject@@@std@@V?$allocator@U?$pair@$$CBVCGUID@@PAVCBaseObject@@@std@@@2@@2@PAU342@0ABU?$pair@$$CBVCGUID@@PAVCBaseObject@@@2@@Z
_TEXT	SEGMENT
__Next$ = 8						; size = 4
__Prev$ = 12						; size = 4
__Val$ = 16						; size = 4
?_Buynode@?$list@U?$pair@$$CBVCGUID@@PAVCBaseObject@@@std@@V?$allocator@U?$pair@$$CBVCGUID@@PAVCBaseObject@@@std@@@2@@std@@IAEPAU_Node@?$_List_nod@U?$pair@$$CBVCGUID@@PAVCBaseObject@@@std@@V?$allocator@U?$pair@$$CBVCGUID@@PAVCBaseObject@@@std@@@2@@2@PAU342@0ABU?$pair@$$CBVCGUID@@PAVCBaseObject@@@2@@Z PROC ; std::list<std::pair<CGUID const ,CBaseObject *>,std::allocator<std::pair<CGUID const ,CBaseObject *> > >::_Buynode, COMDAT
; _this$ = ecx

; 1162 : 		_Nodeptr _Pnode = this->_Alnod.allocate(1);

  00000	6a 1c		 push	 28			; 0000001cH
  00002	e8 00 00 00 00	 call	 ??2@YAPAXI@Z		; operator new
  00007	83 c4 04	 add	 esp, 4

; 1163 : 		int _Linkcnt = 0;
; 1164 : 
; 1165 : 		_TRY_BEGIN
; 1166 : 		this->_Alptr.construct(&_Nextnode(_Pnode), _Next);

  0000a	85 c0		 test	 eax, eax
  0000c	74 06		 je	 SHORT $LN27@Buynode
  0000e	8b 4c 24 04	 mov	 ecx, DWORD PTR __Next$[esp-4]
  00012	89 08		 mov	 DWORD PTR [eax], ecx
$LN27@Buynode:

; 1167 : 		++_Linkcnt;
; 1168 : 		this->_Alptr.construct(&_Prevnode(_Pnode), _Prev);

  00014	8d 48 04	 lea	 ecx, DWORD PTR [eax+4]
  00017	85 c9		 test	 ecx, ecx
  00019	74 06		 je	 SHORT $LN37@Buynode
  0001b	8b 54 24 08	 mov	 edx, DWORD PTR __Prev$[esp-4]
  0001f	89 11		 mov	 DWORD PTR [ecx], edx
$LN37@Buynode:

; 1169 : 		++_Linkcnt;
; 1170 : 		this->_Alval.construct(&_Myval(_Pnode), _Val);

  00021	8d 48 08	 lea	 ecx, DWORD PTR [eax+8]
  00024	85 c9		 test	 ecx, ecx
  00026	74 1c		 je	 SHORT $LN47@Buynode
  00028	8b 54 24 0c	 mov	 edx, DWORD PTR __Val$[esp-4]
  0002c	f3 0f 7e 02	 movq	 xmm0, QWORD PTR [edx]
  00030	66 0f d6 01	 movq	 QWORD PTR [ecx], xmm0
  00034	f3 0f 7e 42 08	 movq	 xmm0, QWORD PTR [edx+8]
  00039	66 0f d6 41 08	 movq	 QWORD PTR [ecx+8], xmm0
  0003e	8b 52 10	 mov	 edx, DWORD PTR [edx+16]
  00041	89 51 10	 mov	 DWORD PTR [ecx+16], edx
$LN47@Buynode:

; 1171 : 		_CATCH_ALL
; 1172 : 		if (1 < _Linkcnt)
; 1173 : 			this->_Alptr.destroy(&_Prevnode(_Pnode));
; 1174 : 		if (0 < _Linkcnt)
; 1175 : 			this->_Alptr.destroy(&_Nextnode(_Pnode));
; 1176 : 		this->_Alnod.deallocate(_Pnode, 1);
; 1177 : 		_RERAISE;
; 1178 : 		_CATCH_END
; 1179 : 		return (_Pnode);
; 1180 : 		}

  00044	c2 0c 00	 ret	 12			; 0000000cH
?_Buynode@?$list@U?$pair@$$CBVCGUID@@PAVCBaseObject@@@std@@V?$allocator@U?$pair@$$CBVCGUID@@PAVCBaseObject@@@std@@@2@@std@@IAEPAU_Node@?$_List_nod@U?$pair@$$CBVCGUID@@PAVCBaseObject@@@std@@V?$allocator@U?$pair@$$CBVCGUID@@PAVCBaseObject@@@std@@@2@@2@PAU342@0ABU?$pair@$$CBVCGUID@@PAVCBaseObject@@@2@@Z ENDP ; std::list<std::pair<CGUID const ,CBaseObject *>,std::allocator<std::pair<CGUID const ,CBaseObject *> > >::_Buynode
_TEXT	ENDS
PUBLIC	??0?$_Vector_iterator@U_List_position@?$_Hash@V?$_Hmap_traits@VCGUID@@PAVCBaseObject@@Vhash_guid_compare@@V?$allocator@U?$pair@$$CBVCGUID@@PAVCBaseObject@@@std@@@std@@$0A@@stdext@@@stdext@@V?$allocator@U_List_position@?$_Hash@V?$_Hmap_traits@VCGUID@@PAVCBaseObject@@Vhash_guid_compare@@V?$allocator@U?$pair@$$CBVCGUID@@PAVCBaseObject@@@std@@@std@@$0A@@stdext@@@stdext@@@std@@@std@@QAE@PAU_List_position@?$_Hash@V?$_Hmap_traits@VCGUID@@PAVCBaseObject@@Vhash_guid_compare@@V?$allocator@U?$pair@$$CBVCGUID@@PAVCBaseObject@@@std@@@std@@$0A@@stdext@@@stdext@@PBU_Container_base@1@@Z ; std::_Vector_iterator<stdext::_Hash<stdext::_Hmap_traits<CGUID,CBaseObject *,hash_guid_compare,std::allocator<std::pair<CGUID const ,CBaseObject *> >,0> >::_List_position,std::allocator<stdext::_Hash<stdext::_Hmap_traits<CGUID,CBaseObject *,hash_guid_compare,std::allocator<std::pair<CGUID const ,CBaseObject *> >,0> >::_List_position> >::_Vector_iterator<stdext::_Hash<stdext::_Hmap_traits<CGUID,CBaseObject *,hash_guid_compare,std::allocator<std::pair<CGUID const ,CBaseObject *> >,0> >::_List_position,std::allocator<stdext::_Hash<stdext::_Hmap_traits<CGUID,CBaseObject *,hash_guid_compare,std::allocator<std::pair<CGUID const ,CBaseObject *> >,0> >::_List_position> >
; Function compile flags: /Ogtpy
; File d:\program files\microsoft visual studio 8\vc\include\vector
;	COMDAT ??0?$_Vector_iterator@U_List_position@?$_Hash@V?$_Hmap_traits@VCGUID@@PAVCBaseObject@@Vhash_guid_compare@@V?$allocator@U?$pair@$$CBVCGUID@@PAVCBaseObject@@@std@@@std@@$0A@@stdext@@@stdext@@V?$allocator@U_List_position@?$_Hash@V?$_Hmap_traits@VCGUID@@PAVCBaseObject@@Vhash_guid_compare@@V?$allocator@U?$pair@$$CBVCGUID@@PAVCBaseObject@@@std@@@std@@$0A@@stdext@@@stdext@@@std@@@std@@QAE@PAU_List_position@?$_Hash@V?$_Hmap_traits@VCGUID@@PAVCBaseObject@@Vhash_guid_compare@@V?$allocator@U?$pair@$$CBVCGUID@@PAVCBaseObject@@@std@@@std@@$0A@@stdext@@@stdext@@PBU_Container_base@1@@Z
_TEXT	SEGMENT
__Ptr$ = 8						; size = 4
__Pvector$ = 12						; size = 4
??0?$_Vector_iterator@U_List_position@?$_Hash@V?$_Hmap_traits@VCGUID@@PAVCBaseObject@@Vhash_guid_compare@@V?$allocator@U?$pair@$$CBVCGUID@@PAVCBaseObject@@@std@@@std@@$0A@@stdext@@@stdext@@V?$allocator@U_List_position@?$_Hash@V?$_Hmap_traits@VCGUID@@PAVCBaseObject@@Vhash_guid_compare@@V?$allocator@U?$pair@$$CBVCGUID@@PAVCBaseObject@@@std@@@std@@$0A@@stdext@@@stdext@@@std@@@std@@QAE@PAU_List_position@?$_Hash@V?$_Hmap_traits@VCGUID@@PAVCBaseObject@@Vhash_guid_compare@@V?$allocator@U?$pair@$$CBVCGUID@@PAVCBaseObject@@@std@@@std@@$0A@@stdext@@@stdext@@PBU_Container_base@1@@Z PROC ; std::_Vector_iterator<stdext::_Hash<stdext::_Hmap_traits<CGUID,CBaseObject *,hash_guid_compare,std::allocator<std::pair<CGUID const ,CBaseObject *> >,0> >::_List_position,std::allocator<stdext::_Hash<stdext::_Hmap_traits<CGUID,CBaseObject *,hash_guid_compare,std::allocator<std::pair<CGUID const ,CBaseObject *> >,0> >::_List_position> >::_Vector_iterator<stdext::_Hash<stdext::_Hmap_traits<CGUID,CBaseObject *,hash_guid_compare,std::allocator<std::pair<CGUID const ,CBaseObject *> >,0> >::_List_position,std::allocator<stdext::_Hash<stdext::_Hmap_traits<CGUID,CBaseObject *,hash_guid_compare,std::allocator<std::pair<CGUID const ,CBaseObject *> >,0> >::_List_position> >, COMDAT
; _this$ = ecx

; 314  : 		{	// construct with pointer _Ptr

  00000	53		 push	 ebx
  00001	8b 5c 24 08	 mov	 ebx, DWORD PTR __Ptr$[esp]
  00005	56		 push	 esi
  00006	57		 push	 edi
  00007	8b 7c 24 14	 mov	 edi, DWORD PTR __Pvector$[esp+8]
  0000b	85 ff		 test	 edi, edi
  0000d	8b f1		 mov	 esi, ecx
  0000f	c7 06 00 00 00
	00		 mov	 DWORD PTR [esi], 0
  00015	74 0a		 je	 SHORT $LN3@Vector_ite
  00017	39 5f 04	 cmp	 DWORD PTR [edi+4], ebx
  0001a	77 05		 ja	 SHORT $LN3@Vector_ite
  0001c	3b 5f 08	 cmp	 ebx, DWORD PTR [edi+8]
  0001f	76 05		 jbe	 SHORT $LN4@Vector_ite
$LN3@Vector_ite:
  00021	e8 00 00 00 00	 call	 __invalid_parameter_noinfo
$LN4@Vector_ite:
  00026	89 3e		 mov	 DWORD PTR [esi], edi
  00028	5f		 pop	 edi
  00029	89 5e 04	 mov	 DWORD PTR [esi+4], ebx

; 315  : 		}

  0002c	8b c6		 mov	 eax, esi
  0002e	5e		 pop	 esi
  0002f	5b		 pop	 ebx
  00030	c2 08 00	 ret	 8
??0?$_Vector_iterator@U_List_position@?$_Hash@V?$_Hmap_traits@VCGUID@@PAVCBaseObject@@Vhash_guid_compare@@V?$allocator@U?$pair@$$CBVCGUID@@PAVCBaseObject@@@std@@@std@@$0A@@stdext@@@stdext@@V?$allocator@U_List_position@?$_Hash@V?$_Hmap_traits@VCGUID@@PAVCBaseObject@@Vhash_guid_compare@@V?$allocator@U?$pair@$$CBVCGUID@@PAVCBaseObject@@@std@@@std@@$0A@@stdext@@@stdext@@@std@@@std@@QAE@PAU_List_position@?$_Hash@V?$_Hmap_traits@VCGUID@@PAVCBaseObject@@Vhash_guid_compare@@V?$allocator@U?$pair@$$CBVCGUID@@PAVCBaseObject@@@std@@@std@@$0A@@stdext@@@stdext@@PBU_Container_base@1@@Z ENDP ; std::_Vector_iterator<stdext::_Hash<stdext::_Hmap_traits<CGUID,CBaseObject *,hash_guid_compare,std::allocator<std::pair<CGUID const ,CBaseObject *> >,0> >::_List_position,std::allocator<stdext::_Hash<stdext::_Hmap_traits<CGUID,CBaseObject *,hash_guid_compare,std::allocator<std::pair<CGUID const ,CBaseObject *> >,0> >::_List_position> >::_Vector_iterator<stdext::_Hash<stdext::_Hmap_traits<CGUID,CBaseObject *,hash_guid_compare,std::allocator<std::pair<CGUID const ,CBaseObject *> >,0> >::_List_position,std::allocator<stdext::_Hash<stdext::_Hmap_traits<CGUID,CBaseObject *,hash_guid_compare,std::allocator<std::pair<CGUID const ,CBaseObject *> >,0> >::_List_position> >
_TEXT	ENDS
PUBLIC	??$_Distance@V?$_Iterator@$00@?$list@U?$pair@$$CBVCGUID@@PAVCBaseObject@@@std@@V?$allocator@U?$pair@$$CBVCGUID@@PAVCBaseObject@@@std@@@2@@std@@I@std@@YAXV?$_Iterator@$00@?$list@U?$pair@$$CBVCGUID@@PAVCBaseObject@@@std@@V?$allocator@U?$pair@$$CBVCGUID@@PAVCBaseObject@@@std@@@2@@0@0AAI@Z ; std::_Distance<std::list<std::pair<CGUID const ,CBaseObject *>,std::allocator<std::pair<CGUID const ,CBaseObject *> > >::_Iterator<1>,unsigned int>
; Function compile flags: /Ogtpy
; File d:\program files\microsoft visual studio 8\vc\include\xutility
;	COMDAT ??$_Distance@V?$_Iterator@$00@?$list@U?$pair@$$CBVCGUID@@PAVCBaseObject@@@std@@V?$allocator@U?$pair@$$CBVCGUID@@PAVCBaseObject@@@std@@@2@@std@@I@std@@YAXV?$_Iterator@$00@?$list@U?$pair@$$CBVCGUID@@PAVCBaseObject@@@std@@V?$allocator@U?$pair@$$CBVCGUID@@PAVCBaseObject@@@std@@@2@@0@0AAI@Z
_TEXT	SEGMENT
$T297495 = -4						; size = 1
__First$ = 8						; size = 8
__Last$ = 16						; size = 8
__Off$ = 24						; size = 4
??$_Distance@V?$_Iterator@$00@?$list@U?$pair@$$CBVCGUID@@PAVCBaseObject@@@std@@V?$allocator@U?$pair@$$CBVCGUID@@PAVCBaseObject@@@std@@@2@@std@@I@std@@YAXV?$_Iterator@$00@?$list@U?$pair@$$CBVCGUID@@PAVCBaseObject@@@std@@V?$allocator@U?$pair@$$CBVCGUID@@PAVCBaseObject@@@std@@@2@@0@0AAI@Z PROC ; std::_Distance<std::list<std::pair<CGUID const ,CBaseObject *>,std::allocator<std::pair<CGUID const ,CBaseObject *> > >::_Iterator<1>,unsigned int>, COMDAT

; 1701 : 	{	// add to _Off distance between iterators

  00000	51		 push	 ecx

; 1702 : 	_Distance2(_First, _Last, _Off, _Iter_cat(_First));

  00001	8b 04 24	 mov	 eax, DWORD PTR $T297495[esp+4]
  00004	8b 4c 24 18	 mov	 ecx, DWORD PTR __Off$[esp]
  00008	8b 54 24 14	 mov	 edx, DWORD PTR __Last$[esp+4]
  0000c	50		 push	 eax
  0000d	8b 44 24 14	 mov	 eax, DWORD PTR __Last$[esp+4]
  00011	51		 push	 ecx
  00012	8b 4c 24 14	 mov	 ecx, DWORD PTR __First$[esp+12]
  00016	52		 push	 edx
  00017	8b 54 24 14	 mov	 edx, DWORD PTR __First$[esp+12]
  0001b	50		 push	 eax
  0001c	51		 push	 ecx
  0001d	52		 push	 edx
  0001e	e8 00 00 00 00	 call	 ??$_Distance2@V?$_Iterator@$00@?$list@U?$pair@$$CBVCGUID@@PAVCBaseObject@@@std@@V?$allocator@U?$pair@$$CBVCGUID@@PAVCBaseObject@@@std@@@2@@std@@I@std@@YAXV?$_Iterator@$00@?$list@U?$pair@$$CBVCGUID@@PAVCBaseObject@@@std@@V?$allocator@U?$pair@$$CBVCGUID@@PAVCBaseObject@@@std@@@2@@0@0AAIUbidirectional_iterator_tag@0@@Z ; std::_Distance2<std::list<std::pair<CGUID const ,CBaseObject *>,std::allocator<std::pair<CGUID const ,CBaseObject *> > >::_Iterator<1>,unsigned int>

; 1703 : 	}

  00023	83 c4 1c	 add	 esp, 28			; 0000001cH
  00026	c3		 ret	 0
??$_Distance@V?$_Iterator@$00@?$list@U?$pair@$$CBVCGUID@@PAVCBaseObject@@@std@@V?$allocator@U?$pair@$$CBVCGUID@@PAVCBaseObject@@@std@@@2@@std@@I@std@@YAXV?$_Iterator@$00@?$list@U?$pair@$$CBVCGUID@@PAVCBaseObject@@@std@@V?$allocator@U?$pair@$$CBVCGUID@@PAVCBaseObject@@@std@@@2@@0@0AAI@Z ENDP ; std::_Distance<std::list<std::pair<CGUID const ,CBaseObject *>,std::allocator<std::pair<CGUID const ,CBaseObject *> > >::_Iterator<1>,unsigned int>
_TEXT	ENDS
PUBLIC	??$unchecked_copy@PAU_List_position@?$_Hash@V?$_Hmap_traits@VCGUID@@PAVCBaseObject@@Vhash_guid_compare@@V?$allocator@U?$pair@$$CBVCGUID@@PAVCBaseObject@@@std@@@std@@$0A@@stdext@@@stdext@@PAU123@@stdext@@YAPAU_List_position@?$_Hash@V?$_Hmap_traits@VCGUID@@PAVCBaseObject@@Vhash_guid_compare@@V?$allocator@U?$pair@$$CBVCGUID@@PAVCBaseObject@@@std@@@std@@$0A@@stdext@@@0@PAU120@00@Z ; stdext::unchecked_copy<stdext::_Hash<stdext::_Hmap_traits<CGUID,CBaseObject *,hash_guid_compare,std::allocator<std::pair<CGUID const ,CBaseObject *> >,0> >::_List_position *,stdext::_Hash<stdext::_Hmap_traits<CGUID,CBaseObject *,hash_guid_compare,std::allocator<std::pair<CGUID const ,CBaseObject *> >,0> >::_List_position *>
; Function compile flags: /Ogtpy
;	COMDAT ??$unchecked_copy@PAU_List_position@?$_Hash@V?$_Hmap_traits@VCGUID@@PAVCBaseObject@@Vhash_guid_compare@@V?$allocator@U?$pair@$$CBVCGUID@@PAVCBaseObject@@@std@@@std@@$0A@@stdext@@@stdext@@PAU123@@stdext@@YAPAU_List_position@?$_Hash@V?$_Hmap_traits@VCGUID@@PAVCBaseObject@@Vhash_guid_compare@@V?$allocator@U?$pair@$$CBVCGUID@@PAVCBaseObject@@@std@@@std@@$0A@@stdext@@@0@PAU120@00@Z
_TEXT	SEGMENT
__First$ = 8						; size = 4
__Last$ = 12						; size = 4
__Dest$ = 16						; size = 4
??$unchecked_copy@PAU_List_position@?$_Hash@V?$_Hmap_traits@VCGUID@@PAVCBaseObject@@Vhash_guid_compare@@V?$allocator@U?$pair@$$CBVCGUID@@PAVCBaseObject@@@std@@@std@@$0A@@stdext@@@stdext@@PAU123@@stdext@@YAPAU_List_position@?$_Hash@V?$_Hmap_traits@VCGUID@@PAVCBaseObject@@Vhash_guid_compare@@V?$allocator@U?$pair@$$CBVCGUID@@PAVCBaseObject@@@std@@@std@@$0A@@stdext@@@0@PAU120@00@Z PROC ; stdext::unchecked_copy<stdext::_Hash<stdext::_Hmap_traits<CGUID,CBaseObject *,hash_guid_compare,std::allocator<std::pair<CGUID const ,CBaseObject *> >,0> >::_List_position *,stdext::_Hash<stdext::_Hmap_traits<CGUID,CBaseObject *,hash_guid_compare,std::allocator<std::pair<CGUID const ,CBaseObject *> >,0> >::_List_position *>, COMDAT

; 3408 : 		return (_STD _Copy_opt(_CHECKED_BASE(_First), _CHECKED_BASE(_Last), _Dest,
; 3409 : 			_STD _Iter_random(_First, _Dest), _STD _Ptr_cat(_First, _Dest), _STD _Range_checked_iterator_tag()));

  00000	8b 4c 24 04	 mov	 ecx, DWORD PTR __First$[esp-4]
  00004	8b 54 24 0c	 mov	 edx, DWORD PTR __Dest$[esp-4]
  00008	56		 push	 esi
  00009	8b 74 24 0c	 mov	 esi, DWORD PTR __Last$[esp]
  0000d	8b c6		 mov	 eax, esi
  0000f	2b c1		 sub	 eax, ecx
  00011	c1 f8 03	 sar	 eax, 3
  00014	3b ce		 cmp	 ecx, esi
  00016	8d 04 c2	 lea	 eax, DWORD PTR [edx+eax*8]
  00019	74 19		 je	 SHORT $LN21@unchecked_
  0001b	2b d1		 sub	 edx, ecx
  0001d	57		 push	 edi
  0001e	8b ff		 npad	 2
$LL23@unchecked_:
  00020	8b 39		 mov	 edi, DWORD PTR [ecx]
  00022	89 3c 0a	 mov	 DWORD PTR [edx+ecx], edi
  00025	8b 79 04	 mov	 edi, DWORD PTR [ecx+4]
  00028	89 7c 0a 04	 mov	 DWORD PTR [edx+ecx+4], edi
  0002c	83 c1 08	 add	 ecx, 8
  0002f	3b ce		 cmp	 ecx, esi
  00031	75 ed		 jne	 SHORT $LL23@unchecked_
  00033	5f		 pop	 edi
$LN21@unchecked_:
  00034	5e		 pop	 esi

; 3410 : 	}

  00035	c3		 ret	 0
??$unchecked_copy@PAU_List_position@?$_Hash@V?$_Hmap_traits@VCGUID@@PAVCBaseObject@@Vhash_guid_compare@@V?$allocator@U?$pair@$$CBVCGUID@@PAVCBaseObject@@@std@@@std@@$0A@@stdext@@@stdext@@PAU123@@stdext@@YAPAU_List_position@?$_Hash@V?$_Hmap_traits@VCGUID@@PAVCBaseObject@@Vhash_guid_compare@@V?$allocator@U?$pair@$$CBVCGUID@@PAVCBaseObject@@@std@@@std@@$0A@@stdext@@@0@PAU120@00@Z ENDP ; stdext::unchecked_copy<stdext::_Hash<stdext::_Hmap_traits<CGUID,CBaseObject *,hash_guid_compare,std::allocator<std::pair<CGUID const ,CBaseObject *> >,0> >::_List_position *,stdext::_Hash<stdext::_Hmap_traits<CGUID,CBaseObject *,hash_guid_compare,std::allocator<std::pair<CGUID const ,CBaseObject *> >,0> >::_List_position *>
_TEXT	ENDS
PUBLIC	??$fill@PAU_List_position@?$_Hash@V?$_Hmap_traits@VCGUID@@PAVCBaseObject@@Vhash_guid_compare@@V?$allocator@U?$pair@$$CBVCGUID@@PAVCBaseObject@@@std@@@std@@$0A@@stdext@@@stdext@@U123@@std@@YAXPAU_List_position@?$_Hash@V?$_Hmap_traits@VCGUID@@PAVCBaseObject@@Vhash_guid_compare@@V?$allocator@U?$pair@$$CBVCGUID@@PAVCBaseObject@@@std@@@std@@$0A@@stdext@@@stdext@@0ABU123@@Z ; std::fill<stdext::_Hash<stdext::_Hmap_traits<CGUID,CBaseObject *,hash_guid_compare,std::allocator<std::pair<CGUID const ,CBaseObject *> >,0> >::_List_position *,stdext::_Hash<stdext::_Hmap_traits<CGUID,CBaseObject *,hash_guid_compare,std::allocator<std::pair<CGUID const ,CBaseObject *> >,0> >::_List_position>
; Function compile flags: /Ogtpy
;	COMDAT ??$fill@PAU_List_position@?$_Hash@V?$_Hmap_traits@VCGUID@@PAVCBaseObject@@Vhash_guid_compare@@V?$allocator@U?$pair@$$CBVCGUID@@PAVCBaseObject@@@std@@@std@@$0A@@stdext@@@stdext@@U123@@std@@YAXPAU_List_position@?$_Hash@V?$_Hmap_traits@VCGUID@@PAVCBaseObject@@Vhash_guid_compare@@V?$allocator@U?$pair@$$CBVCGUID@@PAVCBaseObject@@@std@@@std@@$0A@@stdext@@@stdext@@0ABU123@@Z
_TEXT	SEGMENT
__First$ = 8						; size = 4
__Last$ = 12						; size = 4
__Val$ = 16						; size = 4
??$fill@PAU_List_position@?$_Hash@V?$_Hmap_traits@VCGUID@@PAVCBaseObject@@Vhash_guid_compare@@V?$allocator@U?$pair@$$CBVCGUID@@PAVCBaseObject@@@std@@@std@@$0A@@stdext@@@stdext@@U123@@std@@YAXPAU_List_position@?$_Hash@V?$_Hmap_traits@VCGUID@@PAVCBaseObject@@Vhash_guid_compare@@V?$allocator@U?$pair@$$CBVCGUID@@PAVCBaseObject@@@std@@@std@@$0A@@stdext@@@stdext@@0ABU123@@Z PROC ; std::fill<stdext::_Hash<stdext::_Hmap_traits<CGUID,CBaseObject *,hash_guid_compare,std::allocator<std::pair<CGUID const ,CBaseObject *> >,0> >::_List_position *,stdext::_Hash<stdext::_Hmap_traits<CGUID,CBaseObject *,hash_guid_compare,std::allocator<std::pair<CGUID const ,CBaseObject *> >,0> >::_List_position>, COMDAT

; 2977 : 	_Fill(_CHECKED_BASE(_First), _CHECKED_BASE(_Last), _Val);

  00000	8b 44 24 04	 mov	 eax, DWORD PTR __First$[esp-4]
  00004	8b 54 24 08	 mov	 edx, DWORD PTR __Last$[esp-4]
  00008	3b c2		 cmp	 eax, edx
  0000a	74 17		 je	 SHORT $LN11@fill
  0000c	8b 4c 24 0c	 mov	 ecx, DWORD PTR __Val$[esp-4]
  00010	56		 push	 esi
$LL13@fill:
  00011	8b 31		 mov	 esi, DWORD PTR [ecx]
  00013	89 30		 mov	 DWORD PTR [eax], esi
  00015	8b 71 04	 mov	 esi, DWORD PTR [ecx+4]
  00018	89 70 04	 mov	 DWORD PTR [eax+4], esi
  0001b	83 c0 08	 add	 eax, 8
  0001e	3b c2		 cmp	 eax, edx
  00020	75 ef		 jne	 SHORT $LL13@fill
  00022	5e		 pop	 esi
$LN11@fill:

; 2978 : 	}

  00023	c3		 ret	 0
??$fill@PAU_List_position@?$_Hash@V?$_Hmap_traits@VCGUID@@PAVCBaseObject@@Vhash_guid_compare@@V?$allocator@U?$pair@$$CBVCGUID@@PAVCBaseObject@@@std@@@std@@$0A@@stdext@@@stdext@@U123@@std@@YAXPAU_List_position@?$_Hash@V?$_Hmap_traits@VCGUID@@PAVCBaseObject@@Vhash_guid_compare@@V?$allocator@U?$pair@$$CBVCGUID@@PAVCBaseObject@@@std@@@std@@$0A@@stdext@@@stdext@@0ABU123@@Z ENDP ; std::fill<stdext::_Hash<stdext::_Hmap_traits<CGUID,CBaseObject *,hash_guid_compare,std::allocator<std::pair<CGUID const ,CBaseObject *> >,0> >::_List_position *,stdext::_Hash<stdext::_Hmap_traits<CGUID,CBaseObject *,hash_guid_compare,std::allocator<std::pair<CGUID const ,CBaseObject *> >,0> >::_List_position>
_TEXT	ENDS
PUBLIC	??$_Destroy@U_Node@?$_List_nod@U?$pair@$$CBVCGUID@@PAVCBaseObject@@@std@@V?$allocator@U?$pair@$$CBVCGUID@@PAVCBaseObject@@@std@@@2@@std@@@std@@YAXPAU_Node@?$_List_nod@U?$pair@$$CBVCGUID@@PAVCBaseObject@@@std@@V?$allocator@U?$pair@$$CBVCGUID@@PAVCBaseObject@@@std@@@2@@0@@Z ; std::_Destroy<std::_List_nod<std::pair<CGUID const ,CBaseObject *>,std::allocator<std::pair<CGUID const ,CBaseObject *> > >::_Node>
; Function compile flags: /Ogtpy
; File d:\program files\microsoft visual studio 8\vc\include\xmemory
;	COMDAT ??$_Destroy@U_Node@?$_List_nod@U?$pair@$$CBVCGUID@@PAVCBaseObject@@@std@@V?$allocator@U?$pair@$$CBVCGUID@@PAVCBaseObject@@@std@@@2@@std@@@std@@YAXPAU_Node@?$_List_nod@U?$pair@$$CBVCGUID@@PAVCBaseObject@@@std@@V?$allocator@U?$pair@$$CBVCGUID@@PAVCBaseObject@@@std@@@2@@0@@Z
_TEXT	SEGMENT
__Ptr$ = 8						; size = 4
??$_Destroy@U_Node@?$_List_nod@U?$pair@$$CBVCGUID@@PAVCBaseObject@@@std@@V?$allocator@U?$pair@$$CBVCGUID@@PAVCBaseObject@@@std@@@2@@std@@@std@@YAXPAU_Node@?$_List_nod@U?$pair@$$CBVCGUID@@PAVCBaseObject@@@std@@V?$allocator@U?$pair@$$CBVCGUID@@PAVCBaseObject@@@std@@@2@@0@@Z PROC ; std::_Destroy<std::_List_nod<std::pair<CGUID const ,CBaseObject *>,std::allocator<std::pair<CGUID const ,CBaseObject *> > >::_Node>, COMDAT

; 60   : 	_DESTRUCTOR(_Ty, _Ptr);
; 61   : 	}

  00000	c3		 ret	 0
??$_Destroy@U_Node@?$_List_nod@U?$pair@$$CBVCGUID@@PAVCBaseObject@@@std@@V?$allocator@U?$pair@$$CBVCGUID@@PAVCBaseObject@@@std@@@2@@std@@@std@@YAXPAU_Node@?$_List_nod@U?$pair@$$CBVCGUID@@PAVCBaseObject@@@std@@V?$allocator@U?$pair@$$CBVCGUID@@PAVCBaseObject@@@std@@@2@@0@@Z ENDP ; std::_Destroy<std::_List_nod<std::pair<CGUID const ,CBaseObject *>,std::allocator<std::pair<CGUID const ,CBaseObject *> > >::_Node>
_TEXT	ENDS
PUBLIC	??$_Move_backward_opt@PAU_List_position@?$_Hash@V?$_Hmap_traits@VCGUID@@PAVCBaseObject@@Vhash_guid_compare@@V?$allocator@U?$pair@$$CBVCGUID@@PAVCBaseObject@@@std@@@std@@$0A@@stdext@@@stdext@@PAU123@Urandom_access_iterator_tag@std@@U_Undefined_move_tag@5@@std@@YAPAU_List_position@?$_Hash@V?$_Hmap_traits@VCGUID@@PAVCBaseObject@@Vhash_guid_compare@@V?$allocator@U?$pair@$$CBVCGUID@@PAVCBaseObject@@@std@@@std@@$0A@@stdext@@@stdext@@PAU123@00Urandom_access_iterator_tag@0@U_Undefined_move_tag@0@U_Range_checked_iterator_tag@0@@Z ; std::_Move_backward_opt<stdext::_Hash<stdext::_Hmap_traits<CGUID,CBaseObject *,hash_guid_compare,std::allocator<std::pair<CGUID const ,CBaseObject *> >,0> >::_List_position *,stdext::_Hash<stdext::_Hmap_traits<CGUID,CBaseObject *,hash_guid_compare,std::allocator<std::pair<CGUID const ,CBaseObject *> >,0> >::_List_position *,std::random_access_iterator_tag,std::_Undefined_move_tag>
; Function compile flags: /Ogtpy
; File d:\program files\microsoft visual studio 8\vc\include\xutility
;	COMDAT ??$_Move_backward_opt@PAU_List_position@?$_Hash@V?$_Hmap_traits@VCGUID@@PAVCBaseObject@@Vhash_guid_compare@@V?$allocator@U?$pair@$$CBVCGUID@@PAVCBaseObject@@@std@@@std@@$0A@@stdext@@@stdext@@PAU123@Urandom_access_iterator_tag@std@@U_Undefined_move_tag@5@@std@@YAPAU_List_position@?$_Hash@V?$_Hmap_traits@VCGUID@@PAVCBaseObject@@Vhash_guid_compare@@V?$allocator@U?$pair@$$CBVCGUID@@PAVCBaseObject@@@std@@@std@@$0A@@stdext@@@stdext@@PAU123@00Urandom_access_iterator_tag@0@U_Undefined_move_tag@0@U_Range_checked_iterator_tag@0@@Z
_TEXT	SEGMENT
__First$ = 8						; size = 4
__Last$ = 12						; size = 4
__Dest$ = 16						; size = 4
__First_dest_cat$ = 20					; size = 1
___formal$ = 24						; size = 1
___formal$ = 28						; size = 1
??$_Move_backward_opt@PAU_List_position@?$_Hash@V?$_Hmap_traits@VCGUID@@PAVCBaseObject@@Vhash_guid_compare@@V?$allocator@U?$pair@$$CBVCGUID@@PAVCBaseObject@@@std@@@std@@$0A@@stdext@@@stdext@@PAU123@Urandom_access_iterator_tag@std@@U_Undefined_move_tag@5@@std@@YAPAU_List_position@?$_Hash@V?$_Hmap_traits@VCGUID@@PAVCBaseObject@@Vhash_guid_compare@@V?$allocator@U?$pair@$$CBVCGUID@@PAVCBaseObject@@@std@@@std@@$0A@@stdext@@@stdext@@PAU123@00Urandom_access_iterator_tag@0@U_Undefined_move_tag@0@U_Range_checked_iterator_tag@0@@Z PROC ; std::_Move_backward_opt<stdext::_Hash<stdext::_Hmap_traits<CGUID,CBaseObject *,hash_guid_compare,std::allocator<std::pair<CGUID const ,CBaseObject *> >,0> >::_List_position *,stdext::_Hash<stdext::_Hmap_traits<CGUID,CBaseObject *,hash_guid_compare,std::allocator<std::pair<CGUID const ,CBaseObject *> >,0> >::_List_position *,std::random_access_iterator_tag,std::_Undefined_move_tag>, COMDAT

; 2547 : 	return _Copy_backward_opt(_First, _Last, _Dest,
; 2548 : 		_First_dest_cat, _Ptr_cat(_First, _Dest), _Range_checked_iterator_tag());

  00000	8b 4c 24 08	 mov	 ecx, DWORD PTR __Last$[esp-4]
  00004	8b 54 24 0c	 mov	 edx, DWORD PTR __Dest$[esp-4]
  00008	56		 push	 esi
  00009	8b 74 24 08	 mov	 esi, DWORD PTR __First$[esp]
  0000d	8b c1		 mov	 eax, ecx
  0000f	2b c6		 sub	 eax, esi
  00011	c1 f8 03	 sar	 eax, 3
  00014	03 c0		 add	 eax, eax
  00016	03 c0		 add	 eax, eax
  00018	03 c0		 add	 eax, eax
  0001a	57		 push	 edi
  0001b	8b f8		 mov	 edi, eax
  0001d	8b c2		 mov	 eax, edx
  0001f	2b c7		 sub	 eax, edi
  00021	3b f1		 cmp	 esi, ecx
  00023	74 16		 je	 SHORT $LN11@Move_backw
  00025	2b d1		 sub	 edx, ecx
$LL12@Move_backw:
  00027	8b 79 f8	 mov	 edi, DWORD PTR [ecx-8]
  0002a	83 e9 08	 sub	 ecx, 8
  0002d	3b ce		 cmp	 ecx, esi
  0002f	89 3c 0a	 mov	 DWORD PTR [edx+ecx], edi
  00032	8b 79 04	 mov	 edi, DWORD PTR [ecx+4]
  00035	89 7c 0a 04	 mov	 DWORD PTR [edx+ecx+4], edi
  00039	75 ec		 jne	 SHORT $LL12@Move_backw
$LN11@Move_backw:
  0003b	5f		 pop	 edi
  0003c	5e		 pop	 esi

; 2549 : 	}

  0003d	c3		 ret	 0
??$_Move_backward_opt@PAU_List_position@?$_Hash@V?$_Hmap_traits@VCGUID@@PAVCBaseObject@@Vhash_guid_compare@@V?$allocator@U?$pair@$$CBVCGUID@@PAVCBaseObject@@@std@@@std@@$0A@@stdext@@@stdext@@PAU123@Urandom_access_iterator_tag@std@@U_Undefined_move_tag@5@@std@@YAPAU_List_position@?$_Hash@V?$_Hmap_traits@VCGUID@@PAVCBaseObject@@Vhash_guid_compare@@V?$allocator@U?$pair@$$CBVCGUID@@PAVCBaseObject@@@std@@@std@@$0A@@stdext@@@stdext@@PAU123@00Urandom_access_iterator_tag@0@U_Undefined_move_tag@0@U_Range_checked_iterator_tag@0@@Z ENDP ; std::_Move_backward_opt<stdext::_Hash<stdext::_Hmap_traits<CGUID,CBaseObject *,hash_guid_compare,std::allocator<std::pair<CGUID const ,CBaseObject *> >,0> >::_List_position *,stdext::_Hash<stdext::_Hmap_traits<CGUID,CBaseObject *,hash_guid_compare,std::allocator<std::pair<CGUID const ,CBaseObject *> >,0> >::_List_position *,std::random_access_iterator_tag,std::_Undefined_move_tag>
_TEXT	ENDS
PUBLIC	??$_Destroy_range@U_List_position@?$_Hash@V?$_Hmap_traits@VCGUID@@PAVCBaseObject@@Vhash_guid_compare@@V?$allocator@U?$pair@$$CBVCGUID@@PAVCBaseObject@@@std@@@std@@$0A@@stdext@@@stdext@@V?$allocator@U_List_position@?$_Hash@V?$_Hmap_traits@VCGUID@@PAVCBaseObject@@Vhash_guid_compare@@V?$allocator@U?$pair@$$CBVCGUID@@PAVCBaseObject@@@std@@@std@@$0A@@stdext@@@stdext@@@std@@@std@@YAXPAU_List_position@?$_Hash@V?$_Hmap_traits@VCGUID@@PAVCBaseObject@@Vhash_guid_compare@@V?$allocator@U?$pair@$$CBVCGUID@@PAVCBaseObject@@@std@@@std@@$0A@@stdext@@@stdext@@0AAV?$allocator@U_List_position@?$_Hash@V?$_Hmap_traits@VCGUID@@PAVCBaseObject@@Vhash_guid_compare@@V?$allocator@U?$pair@$$CBVCGUID@@PAVCBaseObject@@@std@@@std@@$0A@@stdext@@@stdext@@@0@U_Nonscalar_ptr_iterator_tag@0@@Z ; std::_Destroy_range<stdext::_Hash<stdext::_Hmap_traits<CGUID,CBaseObject *,hash_guid_compare,std::allocator<std::pair<CGUID const ,CBaseObject *> >,0> >::_List_position,std::allocator<stdext::_Hash<stdext::_Hmap_traits<CGUID,CBaseObject *,hash_guid_compare,std::allocator<std::pair<CGUID const ,CBaseObject *> >,0> >::_List_position> >
; Function compile flags: /Ogtpy
; File d:\program files\microsoft visual studio 8\vc\include\xmemory
;	COMDAT ??$_Destroy_range@U_List_position@?$_Hash@V?$_Hmap_traits@VCGUID@@PAVCBaseObject@@Vhash_guid_compare@@V?$allocator@U?$pair@$$CBVCGUID@@PAVCBaseObject@@@std@@@std@@$0A@@stdext@@@stdext@@V?$allocator@U_List_position@?$_Hash@V?$_Hmap_traits@VCGUID@@PAVCBaseObject@@Vhash_guid_compare@@V?$allocator@U?$pair@$$CBVCGUID@@PAVCBaseObject@@@std@@@std@@$0A@@stdext@@@stdext@@@std@@@std@@YAXPAU_List_position@?$_Hash@V?$_Hmap_traits@VCGUID@@PAVCBaseObject@@Vhash_guid_compare@@V?$allocator@U?$pair@$$CBVCGUID@@PAVCBaseObject@@@std@@@std@@$0A@@stdext@@@stdext@@0AAV?$allocator@U_List_position@?$_Hash@V?$_Hmap_traits@VCGUID@@PAVCBaseObject@@Vhash_guid_compare@@V?$allocator@U?$pair@$$CBVCGUID@@PAVCBaseObject@@@std@@@std@@$0A@@stdext@@@stdext@@@0@U_Nonscalar_ptr_iterator_tag@0@@Z
_TEXT	SEGMENT
__First$ = 8						; size = 4
__Last$ = 12						; size = 4
__Al$ = 16						; size = 4
___formal$ = 20						; size = 1
??$_Destroy_range@U_List_position@?$_Hash@V?$_Hmap_traits@VCGUID@@PAVCBaseObject@@Vhash_guid_compare@@V?$allocator@U?$pair@$$CBVCGUID@@PAVCBaseObject@@@std@@@std@@$0A@@stdext@@@stdext@@V?$allocator@U_List_position@?$_Hash@V?$_Hmap_traits@VCGUID@@PAVCBaseObject@@Vhash_guid_compare@@V?$allocator@U?$pair@$$CBVCGUID@@PAVCBaseObject@@@std@@@std@@$0A@@stdext@@@stdext@@@std@@@std@@YAXPAU_List_position@?$_Hash@V?$_Hmap_traits@VCGUID@@PAVCBaseObject@@Vhash_guid_compare@@V?$allocator@U?$pair@$$CBVCGUID@@PAVCBaseObject@@@std@@@std@@$0A@@stdext@@@stdext@@0AAV?$allocator@U_List_position@?$_Hash@V?$_Hmap_traits@VCGUID@@PAVCBaseObject@@Vhash_guid_compare@@V?$allocator@U?$pair@$$CBVCGUID@@PAVCBaseObject@@@std@@@std@@$0A@@stdext@@@stdext@@@0@U_Nonscalar_ptr_iterator_tag@0@@Z PROC ; std::_Destroy_range<stdext::_Hash<stdext::_Hmap_traits<CGUID,CBaseObject *,hash_guid_compare,std::allocator<std::pair<CGUID const ,CBaseObject *> >,0> >::_List_position,std::allocator<stdext::_Hash<stdext::_Hmap_traits<CGUID,CBaseObject *,hash_guid_compare,std::allocator<std::pair<CGUID const ,CBaseObject *> >,0> >::_List_position> >, COMDAT

; 234  : 	for (; _First != _Last; ++_First)
; 235  : 		_Al.destroy(_First);
; 236  : 	}

  00000	c3		 ret	 0
??$_Destroy_range@U_List_position@?$_Hash@V?$_Hmap_traits@VCGUID@@PAVCBaseObject@@Vhash_guid_compare@@V?$allocator@U?$pair@$$CBVCGUID@@PAVCBaseObject@@@std@@@std@@$0A@@stdext@@@stdext@@V?$allocator@U_List_position@?$_Hash@V?$_Hmap_traits@VCGUID@@PAVCBaseObject@@Vhash_guid_compare@@V?$allocator@U?$pair@$$CBVCGUID@@PAVCBaseObject@@@std@@@std@@$0A@@stdext@@@stdext@@@std@@@std@@YAXPAU_List_position@?$_Hash@V?$_Hmap_traits@VCGUID@@PAVCBaseObject@@Vhash_guid_compare@@V?$allocator@U?$pair@$$CBVCGUID@@PAVCBaseObject@@@std@@@std@@$0A@@stdext@@@stdext@@0AAV?$allocator@U_List_position@?$_Hash@V?$_Hmap_traits@VCGUID@@PAVCBaseObject@@Vhash_guid_compare@@V?$allocator@U?$pair@$$CBVCGUID@@PAVCBaseObject@@@std@@@std@@$0A@@stdext@@@stdext@@@0@U_Nonscalar_ptr_iterator_tag@0@@Z ENDP ; std::_Destroy_range<stdext::_Hash<stdext::_Hmap_traits<CGUID,CBaseObject *,hash_guid_compare,std::allocator<std::pair<CGUID const ,CBaseObject *> >,0> >::_List_position,std::allocator<stdext::_Hash<stdext::_Hmap_traits<CGUID,CBaseObject *,hash_guid_compare,std::allocator<std::pair<CGUID const ,CBaseObject *> >,0> >::_List_position> >
_TEXT	ENDS
PUBLIC	??$_Uninit_fill_n@PAU_List_position@?$_Hash@V?$_Hmap_traits@VCGUID@@PAVCBaseObject@@Vhash_guid_compare@@V?$allocator@U?$pair@$$CBVCGUID@@PAVCBaseObject@@@std@@@std@@$0A@@stdext@@@stdext@@IU123@V?$allocator@U_List_position@?$_Hash@V?$_Hmap_traits@VCGUID@@PAVCBaseObject@@Vhash_guid_compare@@V?$allocator@U?$pair@$$CBVCGUID@@PAVCBaseObject@@@std@@@std@@$0A@@stdext@@@stdext@@@std@@@std@@YAXPAU_List_position@?$_Hash@V?$_Hmap_traits@VCGUID@@PAVCBaseObject@@Vhash_guid_compare@@V?$allocator@U?$pair@$$CBVCGUID@@PAVCBaseObject@@@std@@@std@@$0A@@stdext@@@stdext@@IABU123@AAV?$allocator@U_List_position@?$_Hash@V?$_Hmap_traits@VCGUID@@PAVCBaseObject@@Vhash_guid_compare@@V?$allocator@U?$pair@$$CBVCGUID@@PAVCBaseObject@@@std@@@std@@$0A@@stdext@@@stdext@@@0@U_Nonscalar_ptr_iterator_tag@0@U_Range_checked_iterator_tag@0@@Z ; std::_Uninit_fill_n<stdext::_Hash<stdext::_Hmap_traits<CGUID,CBaseObject *,hash_guid_compare,std::allocator<std::pair<CGUID const ,CBaseObject *> >,0> >::_List_position *,unsigned int,stdext::_Hash<stdext::_Hmap_traits<CGUID,CBaseObject *,hash_guid_compare,std::allocator<std::pair<CGUID const ,CBaseObject *> >,0> >::_List_position,std::allocator<stdext::_Hash<stdext::_Hmap_traits<CGUID,CBaseObject *,hash_guid_compare,std::allocator<std::pair<CGUID const ,CBaseObject *> >,0> >::_List_position> >
; Function compile flags: /Ogtpy
; File d:\program files\microsoft visual studio 8\vc\include\memory
;	COMDAT ??$_Uninit_fill_n@PAU_List_position@?$_Hash@V?$_Hmap_traits@VCGUID@@PAVCBaseObject@@Vhash_guid_compare@@V?$allocator@U?$pair@$$CBVCGUID@@PAVCBaseObject@@@std@@@std@@$0A@@stdext@@@stdext@@IU123@V?$allocator@U_List_position@?$_Hash@V?$_Hmap_traits@VCGUID@@PAVCBaseObject@@Vhash_guid_compare@@V?$allocator@U?$pair@$$CBVCGUID@@PAVCBaseObject@@@std@@@std@@$0A@@stdext@@@stdext@@@std@@@std@@YAXPAU_List_position@?$_Hash@V?$_Hmap_traits@VCGUID@@PAVCBaseObject@@Vhash_guid_compare@@V?$allocator@U?$pair@$$CBVCGUID@@PAVCBaseObject@@@std@@@std@@$0A@@stdext@@@stdext@@IABU123@AAV?$allocator@U_List_position@?$_Hash@V?$_Hmap_traits@VCGUID@@PAVCBaseObject@@Vhash_guid_compare@@V?$allocator@U?$pair@$$CBVCGUID@@PAVCBaseObject@@@std@@@std@@$0A@@stdext@@@stdext@@@0@U_Nonscalar_ptr_iterator_tag@0@U_Range_checked_iterator_tag@0@@Z
_TEXT	SEGMENT
__First$ = 8						; size = 4
__Count$ = 12						; size = 4
__Val$ = 16						; size = 4
__Al$ = 20						; size = 4
___formal$ = 24						; size = 1
___formal$ = 28						; size = 1
??$_Uninit_fill_n@PAU_List_position@?$_Hash@V?$_Hmap_traits@VCGUID@@PAVCBaseObject@@Vhash_guid_compare@@V?$allocator@U?$pair@$$CBVCGUID@@PAVCBaseObject@@@std@@@std@@$0A@@stdext@@@stdext@@IU123@V?$allocator@U_List_position@?$_Hash@V?$_Hmap_traits@VCGUID@@PAVCBaseObject@@Vhash_guid_compare@@V?$allocator@U?$pair@$$CBVCGUID@@PAVCBaseObject@@@std@@@std@@$0A@@stdext@@@stdext@@@std@@@std@@YAXPAU_List_position@?$_Hash@V?$_Hmap_traits@VCGUID@@PAVCBaseObject@@Vhash_guid_compare@@V?$allocator@U?$pair@$$CBVCGUID@@PAVCBaseObject@@@std@@@std@@$0A@@stdext@@@stdext@@IABU123@AAV?$allocator@U_List_position@?$_Hash@V?$_Hmap_traits@VCGUID@@PAVCBaseObject@@Vhash_guid_compare@@V?$allocator@U?$pair@$$CBVCGUID@@PAVCBaseObject@@@std@@@std@@$0A@@stdext@@@stdext@@@0@U_Nonscalar_ptr_iterator_tag@0@U_Range_checked_iterator_tag@0@@Z PROC ; std::_Uninit_fill_n<stdext::_Hash<stdext::_Hmap_traits<CGUID,CBaseObject *,hash_guid_compare,std::allocator<std::pair<CGUID const ,CBaseObject *> >,0> >::_List_position *,unsigned int,stdext::_Hash<stdext::_Hmap_traits<CGUID,CBaseObject *,hash_guid_compare,std::allocator<std::pair<CGUID const ,CBaseObject *> >,0> >::_List_position,std::allocator<stdext::_Hash<stdext::_Hmap_traits<CGUID,CBaseObject *,hash_guid_compare,std::allocator<std::pair<CGUID const ,CBaseObject *> >,0> >::_List_position> >, COMDAT

; 391  : 
; 392  :  #if _HAS_ITERATOR_DEBUGGING
; 393  : //	if (_Count < 0)
; 394  : //		_DEBUG_ERROR("negative count in uninitialized fill");
; 395  :  #endif /* _HAS_ITERATOR_DEBUGGING */
; 396  : 
; 397  : 	_FwdIt _Next = _First;
; 398  : 
; 399  : 	_TRY_BEGIN
; 400  : 	for (; 0 < _Count; --_Count, ++_First)

  00000	8b 4c 24 08	 mov	 ecx, DWORD PTR __Count$[esp-4]
  00004	85 c9		 test	 ecx, ecx
  00006	76 22		 jbe	 SHORT $LN4@Uninit_fil
  00008	8b 54 24 0c	 mov	 edx, DWORD PTR __Val$[esp-4]
  0000c	8b 44 24 04	 mov	 eax, DWORD PTR __First$[esp-4]
  00010	56		 push	 esi
$LL6@Uninit_fil:

; 401  : 		_Al.construct(_First, _Val);

  00011	85 c0		 test	 eax, eax
  00013	74 0a		 je	 SHORT $LN5@Uninit_fil
  00015	8b 32		 mov	 esi, DWORD PTR [edx]
  00017	89 30		 mov	 DWORD PTR [eax], esi
  00019	8b 72 04	 mov	 esi, DWORD PTR [edx+4]
  0001c	89 70 04	 mov	 DWORD PTR [eax+4], esi
$LN5@Uninit_fil:
  0001f	83 e9 01	 sub	 ecx, 1
  00022	83 c0 08	 add	 eax, 8
  00025	85 c9		 test	 ecx, ecx
  00027	77 e8		 ja	 SHORT $LL6@Uninit_fil
  00029	5e		 pop	 esi
$LN4@Uninit_fil:

; 402  : 	_CATCH_ALL
; 403  : 	for (; _Next != _First; ++_Next)
; 404  : 		_Al.destroy(_Next);
; 405  : 	_RERAISE;
; 406  : 	_CATCH_END
; 407  : 	}

  0002a	c3		 ret	 0
??$_Uninit_fill_n@PAU_List_position@?$_Hash@V?$_Hmap_traits@VCGUID@@PAVCBaseObject@@Vhash_guid_compare@@V?$allocator@U?$pair@$$CBVCGUID@@PAVCBaseObject@@@std@@@std@@$0A@@stdext@@@stdext@@IU123@V?$allocator@U_List_position@?$_Hash@V?$_Hmap_traits@VCGUID@@PAVCBaseObject@@Vhash_guid_compare@@V?$allocator@U?$pair@$$CBVCGUID@@PAVCBaseObject@@@std@@@std@@$0A@@stdext@@@stdext@@@std@@@std@@YAXPAU_List_position@?$_Hash@V?$_Hmap_traits@VCGUID@@PAVCBaseObject@@Vhash_guid_compare@@V?$allocator@U?$pair@$$CBVCGUID@@PAVCBaseObject@@@std@@@std@@$0A@@stdext@@@stdext@@IABU123@AAV?$allocator@U_List_position@?$_Hash@V?$_Hmap_traits@VCGUID@@PAVCBaseObject@@Vhash_guid_compare@@V?$allocator@U?$pair@$$CBVCGUID@@PAVCBaseObject@@@std@@@std@@$0A@@stdext@@@stdext@@@0@U_Nonscalar_ptr_iterator_tag@0@U_Range_checked_iterator_tag@0@@Z ENDP ; std::_Uninit_fill_n<stdext::_Hash<stdext::_Hmap_traits<CGUID,CBaseObject *,hash_guid_compare,std::allocator<std::pair<CGUID const ,CBaseObject *> >,0> >::_List_position *,unsigned int,stdext::_Hash<stdext::_Hmap_traits<CGUID,CBaseObject *,hash_guid_compare,std::allocator<std::pair<CGUID const ,CBaseObject *> >,0> >::_List_position,std::allocator<stdext::_Hash<stdext::_Hmap_traits<CGUID,CBaseObject *,hash_guid_compare,std::allocator<std::pair<CGUID const ,CBaseObject *> >,0> >::_List_position> >
_TEXT	ENDS
PUBLIC	?Free@?$CTilePool@VLockOfWinWhileSleep@XM_Tools@@V?$CHeapPool@VLockOfWinWhileSleep@XM_Tools@@@2@@XM_Tools@@QAEXPAX@Z ; XM_Tools::CTilePool<XM_Tools::LockOfWinWhileSleep,XM_Tools::CHeapPool<XM_Tools::LockOfWinWhileSleep> >::Free
; Function compile flags: /Ogtpy
; File d:\project_p6\trunk\public\memmanage\cpp\tilepool.tcc
;	COMDAT ?Free@?$CTilePool@VLockOfWinWhileSleep@XM_Tools@@V?$CHeapPool@VLockOfWinWhileSleep@XM_Tools@@@2@@XM_Tools@@QAEXPAX@Z
_TEXT	SEGMENT
_pMem$ = 8						; size = 4
?Free@?$CTilePool@VLockOfWinWhileSleep@XM_Tools@@V?$CHeapPool@VLockOfWinWhileSleep@XM_Tools@@@2@@XM_Tools@@QAEXPAX@Z PROC ; XM_Tools::CTilePool<XM_Tools::LockOfWinWhileSleep,XM_Tools::CHeapPool<XM_Tools::LockOfWinWhileSleep> >::Free, COMDAT
; _this$ = ecx

; 148  : 	{

  00000	53		 push	 ebx
  00001	56		 push	 esi
  00002	57		 push	 edi

; 149  : #ifndef USE_TILE_MANAGE
; 150  : 		free(pMem);
; 151  : 		return;
; 152  : #endif
; 153  : 		//! 
; 154  : 		CListNode<unsigned char> *pFreeNode = (CListNode<unsigned char>*)(((char*)pMem) - SNAP_TO_GRID(sizeof(unsigned char), LIST_NODE_GRID_SIZE));

  00003	8b 7c 24 10	 mov	 edi, DWORD PTR _pMem$[esp+8]

; 155  : 		unsigned long uIdx = pFreeNode->GetInfo();

  00007	0f b6 47 fc	 movzx	 eax, BYTE PTR [edi-4]
  0000b	83 c7 fc	 add	 edi, -4			; fffffffcH

; 156  : 		if(0xFFFFFFFF == uIdx)
; 157  : 			RETURN_THROW_VOID;
; 158  : 		
; 159  : 		tagTileManageInfo &TileManageInfo = m_arrMemList[uIdx];

  0000e	69 c0 e4 00 00
	00		 imul	 eax, 228		; 000000e4H
  00014	8d 34 08	 lea	 esi, DWORD PTR [eax+ecx]

; 160  : 		//! 
; 161  : 		TileManageInfo.InfoLock.Lock();

  00017	8d 4e 1c	 lea	 ecx, DWORD PTR [esi+28]
  0001a	e8 00 00 00 00	 call	 ?Lock@LockOfWinWhileSleep@XM_Tools@@QAEXXZ ; XM_Tools::LockOfWinWhileSleep::Lock

; 162  : 		--TileManageInfo.uUseCount;
; 163  : 		TileManageInfo.InfoLock.UnLock();

  0001f	8b 1d 00 00 00
	00		 mov	 ebx, DWORD PTR __imp__InterlockedCompareExchange@12
  00025	83 46 14 ff	 add	 DWORD PTR [esi+20], -1
  00029	6a 01		 push	 1
  0002b	6a 00		 push	 0
  0002d	8d 46 3c	 lea	 eax, DWORD PTR [esi+60]
  00030	50		 push	 eax
  00031	ff d3		 call	 ebx

; 164  : 
; 165  : 		m_arrMemList[uIdx].FreeList.PushNode(pFreeNode);

  00033	8d 8e a8 00 00
	00		 lea	 ecx, DWORD PTR [esi+168]
  00039	e8 00 00 00 00	 call	 ?Lock@LockOfWinWhileSleep@XM_Tools@@QAEXXZ ; XM_Tools::LockOfWinWhileSleep::Lock
  0003e	8b 8e a4 00 00
	00		 mov	 ecx, DWORD PTR [esi+164]
  00044	89 4f 04	 mov	 DWORD PTR [edi+4], ecx
  00047	83 86 e8 00 00
	00 01		 add	 DWORD PTR [esi+232], 1
  0004e	6a 01		 push	 1
  00050	89 be a4 00 00
	00		 mov	 DWORD PTR [esi+164], edi
  00056	6a 00		 push	 0
  00058	81 c6 c8 00 00
	00		 add	 esi, 200		; 000000c8H
  0005e	56		 push	 esi
  0005f	ff d3		 call	 ebx
  00061	5f		 pop	 edi
  00062	5e		 pop	 esi
  00063	5b		 pop	 ebx

; 166  : 	}

  00064	c2 04 00	 ret	 4
?Free@?$CTilePool@VLockOfWinWhileSleep@XM_Tools@@V?$CHeapPool@VLockOfWinWhileSleep@XM_Tools@@@2@@XM_Tools@@QAEXPAX@Z ENDP ; XM_Tools::CTilePool<XM_Tools::LockOfWinWhileSleep,XM_Tools::CHeapPool<XM_Tools::LockOfWinWhileSleep> >::Free
_TEXT	ENDS
PUBLIC	?Alloc@?$CHeapPool@VLockOfWinWhileSleep@XM_Tools@@@XM_Tools@@QAEPAXK@Z ; XM_Tools::CHeapPool<XM_Tools::LockOfWinWhileSleep>::Alloc
EXTRN	_malloc:PROC
; Function compile flags: /Ogtpy
; File d:\project_p6\trunk\public\memmanage\cpp\heappool.tcc
;	COMDAT ?Alloc@?$CHeapPool@VLockOfWinWhileSleep@XM_Tools@@@XM_Tools@@QAEPAXK@Z
_TEXT	SEGMENT
_uSize$ = 8						; size = 4
?Alloc@?$CHeapPool@VLockOfWinWhileSleep@XM_Tools@@@XM_Tools@@QAEPAXK@Z PROC ; XM_Tools::CHeapPool<XM_Tools::LockOfWinWhileSleep>::Alloc, COMDAT
; _this$ = ecx

; 61   : #ifndef USE_HEAP_MANAGE
; 62   : 		return malloc(uSize);

  00000	8b 44 24 04	 mov	 eax, DWORD PTR _uSize$[esp-4]
  00004	50		 push	 eax
  00005	e8 00 00 00 00	 call	 _malloc
  0000a	83 c4 04	 add	 esp, 4

; 63   : #endif
; 64   : 
; 65   : 		CListBNode<tagHeapMemInfo> *pBNode = m_FreeList.GetLikestNode(tagHeapMemInfo(uSize));
; 66   : 		if(NULL == pBNode)
; 67   : 		{
; 68   : 			pBNode = (CListBNode<tagHeapMemInfo>*)malloc(uSize + sizeof(CListBNode<tagHeapMemInfo>));
; 69   : 			pBNode->GetInfo().uSize = uSize;
; 70   : #ifdef LOG_ALLOC_FREE_INFO
; 71   : 			m_InfoLock.Lock();
; 72   : 			m_uAllocSize += uSize;
; 73   : 			if(m_mapAllocInfo.end() == m_mapAllocInfo.find(uSize))
; 74   : 				m_mapAllocInfo[uSize] = 1;
; 75   : 			else
; 76   : 				++m_mapAllocInfo[uSize];
; 77   : 			m_InfoLock.UnLock();
; 78   : #endif
; 79   : 		}
; 80   : 		
; 81   : 		MM_ASSERY(NULL != pBNode);
; 82   : 		m_UsingList.PushNode(pBNode);
; 83   : 		void *pRe = NULL;
; 84   : 		if (NULL != pBNode)
; 85   : 			pRe = pBNode + 1;
; 86   : 		return pRe;
; 87   : 	}

  0000d	c2 04 00	 ret	 4
?Alloc@?$CHeapPool@VLockOfWinWhileSleep@XM_Tools@@@XM_Tools@@QAEPAXK@Z ENDP ; XM_Tools::CHeapPool<XM_Tools::LockOfWinWhileSleep>::Alloc
_TEXT	ENDS
PUBLIC	?Free@?$CHeapPool@VLockOfWinWhileSleep@XM_Tools@@@XM_Tools@@QAEXPAX@Z ; XM_Tools::CHeapPool<XM_Tools::LockOfWinWhileSleep>::Free
; Function compile flags: /Ogtpy
;	COMDAT ?Free@?$CHeapPool@VLockOfWinWhileSleep@XM_Tools@@@XM_Tools@@QAEXPAX@Z
_TEXT	SEGMENT
_pMem$ = 8						; size = 4
?Free@?$CHeapPool@VLockOfWinWhileSleep@XM_Tools@@@XM_Tools@@QAEXPAX@Z PROC ; XM_Tools::CHeapPool<XM_Tools::LockOfWinWhileSleep>::Free, COMDAT
; _this$ = ecx

; 93   : #ifndef USE_HEAP_MANAGE
; 94   : 		free(pMem);

  00000	8b 44 24 04	 mov	 eax, DWORD PTR _pMem$[esp-4]
  00004	50		 push	 eax
  00005	e8 00 00 00 00	 call	 _free
  0000a	59		 pop	 ecx

; 95   : 		return;
; 96   : #endif
; 97   : 		CListBNode<tagHeapMemInfo> *pBNode = ((CListBNode<tagHeapMemInfo>*)pMem) - 1;
; 98   : 		MM_ASSERY(m_UsingList.Find(pBNode));
; 99   : 		m_UsingList.PopNode(pBNode);
; 100  : 
; 101  : 		if(0 < MAX_MANAGE_COUNT)
; 102  : 		{
; 103  : 			m_FreeList.PushNode(pBNode);
; 104  : 
; 105  : 			//! 
; 106  : 			if(MAX_MANAGE_COUNT <= m_FreeList.GetNodeNum())
; 107  : 			{
; 108  : 				for (unsigned long i = 0; FREE_COUNT > i; ++i)
; 109  : 				{
; 110  : 					if((FREE_COUNT >> 1) < i)
; 111  : 						pBNode = m_FreeList.PopNode();
; 112  : 					else
; 113  : 						pBNode = m_FreeList.PopBackNode();
; 114  : #ifdef LOG_ALLOC_FREE_INFO
; 115  : 					std::map<unsigned long, unsigned long>::iterator ite = m_mapAllocInfo.find(pBNode->GetInfo().uSize);
; 116  : 					MM_ASSERY(m_mapAllocInfo.end() != ite);
; 117  : 					if (m_mapAllocInfo.end() != ite)
; 118  : 					{
; 119  : 						if(1 < ite->second)
; 120  : 							--ite->second;
; 121  : 						else
; 122  : 							m_mapAllocInfo.erase(ite);
; 123  : 					}
; 124  : #endif
; 125  : 					MM_ASSERY(NULL != pBNode);
; 126  : 					free(pBNode);
; 127  : 				}
; 128  : 			}
; 129  : 		}
; 130  : 		else
; 131  : 			free(pBNode);
; 132  : 	}

  0000b	c2 04 00	 ret	 4
?Free@?$CHeapPool@VLockOfWinWhileSleep@XM_Tools@@@XM_Tools@@QAEXPAX@Z ENDP ; XM_Tools::CHeapPool<XM_Tools::LockOfWinWhileSleep>::Free
_TEXT	ENDS
PUBLIC	??1?$CHeapPool@VLockOfWinWhileSleep@XM_Tools@@@XM_Tools@@QAE@XZ ; XM_Tools::CHeapPool<XM_Tools::LockOfWinWhileSleep>::~CHeapPool<XM_Tools::LockOfWinWhileSleep>
; Function compile flags: /Ogtpy
;	COMDAT ??1?$CHeapPool@VLockOfWinWhileSleep@XM_Tools@@@XM_Tools@@QAE@XZ
_TEXT	SEGMENT
??1?$CHeapPool@VLockOfWinWhileSleep@XM_Tools@@@XM_Tools@@QAE@XZ PROC ; XM_Tools::CHeapPool<XM_Tools::LockOfWinWhileSleep>::~CHeapPool<XM_Tools::LockOfWinWhileSleep>, COMDAT
; _this$ = ecx

; 22   : 		Release();

  00000	e9 00 00 00 00	 jmp	 ?Release@?$CHeapPool@VLockOfWinWhileSleep@XM_Tools@@@XM_Tools@@QAEXXZ ; XM_Tools::CHeapPool<XM_Tools::LockOfWinWhileSleep>::Release
??1?$CHeapPool@VLockOfWinWhileSleep@XM_Tools@@@XM_Tools@@QAE@XZ ENDP ; XM_Tools::CHeapPool<XM_Tools::LockOfWinWhileSleep>::~CHeapPool<XM_Tools::LockOfWinWhileSleep>
_TEXT	ENDS
PUBLIC	??0?$CTilePool@VLockOfWinWhileSleep@XM_Tools@@V?$CHeapPool@VLockOfWinWhileSleep@XM_Tools@@@2@@XM_Tools@@QAE@AAV?$CHeapPool@VLockOfWinWhileSleep@XM_Tools@@@1@K@Z ; XM_Tools::CTilePool<XM_Tools::LockOfWinWhileSleep,XM_Tools::CHeapPool<XM_Tools::LockOfWinWhileSleep> >::CTilePool<XM_Tools::LockOfWinWhileSleep,XM_Tools::CHeapPool<XM_Tools::LockOfWinWhileSleep> >
EXTRN	??_L@YGXPAXIHP6EX0@Z1@Z:PROC			; `eh vector constructor iterator'
; Function compile flags: /Ogtpy
; File d:\project_p6\trunk\public\memmanage\cpp\tilepool.tcc
;	COMDAT ??0?$CTilePool@VLockOfWinWhileSleep@XM_Tools@@V?$CHeapPool@VLockOfWinWhileSleep@XM_Tools@@@2@@XM_Tools@@QAE@AAV?$CHeapPool@VLockOfWinWhileSleep@XM_Tools@@@1@K@Z
_TEXT	SEGMENT
_Allocator$ = 8						; size = 4
_uDefaultAddSize$ = 12					; size = 4
??0?$CTilePool@VLockOfWinWhileSleep@XM_Tools@@V?$CHeapPool@VLockOfWinWhileSleep@XM_Tools@@@2@@XM_Tools@@QAE@AAV?$CHeapPool@VLockOfWinWhileSleep@XM_Tools@@@1@K@Z PROC ; XM_Tools::CTilePool<XM_Tools::LockOfWinWhileSleep,XM_Tools::CHeapPool<XM_Tools::LockOfWinWhileSleep> >::CTilePool<XM_Tools::LockOfWinWhileSleep,XM_Tools::CHeapPool<XM_Tools::LockOfWinWhileSleep> >, COMDAT
; _this$ = ecx

; 16   : 	{

  00000	8b 44 24 04	 mov	 eax, DWORD PTR _Allocator$[esp-4]
  00004	56		 push	 esi
  00005	68 00 00 00 00	 push	 OFFSET ??1tagTileManageInfo@?$CTilePool@VLockOfWinWhileSleep@XM_Tools@@V?$CHeapPool@VLockOfWinWhileSleep@XM_Tools@@@2@@XM_Tools@@QAE@XZ
  0000a	68 00 00 00 00	 push	 OFFSET ??0tagTileManageInfo@?$CTilePool@VLockOfWinWhileSleep@XM_Tools@@V?$CHeapPool@VLockOfWinWhileSleep@XM_Tools@@@2@@XM_Tools@@QAE@XZ
  0000f	8b f1		 mov	 esi, ecx
  00011	8b 4c 24 14	 mov	 ecx, DWORD PTR _uDefaultAddSize$[esp+8]
  00015	6a 20		 push	 32			; 00000020H
  00017	68 e4 00 00 00	 push	 228			; 000000e4H
  0001c	8d 56 08	 lea	 edx, DWORD PTR [esi+8]
  0001f	52		 push	 edx
  00020	89 06		 mov	 DWORD PTR [esi], eax
  00022	89 4e 04	 mov	 DWORD PTR [esi+4], ecx
  00025	e8 00 00 00 00	 call	 ??_L@YGXPAXIHP6EX0@Z1@Z

; 17   : #ifndef USE_TILE_MANAGE
; 18   : 		return;
; 19   : #endif
; 20   : 		for (unsigned long i = 0; i < TILE_POOL_NUM; ++i)

  0002a	33 d2		 xor	 edx, edx
  0002c	33 c9		 xor	 ecx, ecx
  0002e	8d 46 0c	 lea	 eax, DWORD PTR [esi+12]
$LL3@CTilePool:

; 21   : 		{
; 22   : 			//! 
; 23   : 			m_arrMemList[i].uIndex			= i;

  00031	89 48 fc	 mov	 DWORD PTR [eax-4], ecx

; 24   : 			//!	
; 25   : 			m_arrMemList[i].uSize			= 0;

  00034	89 10		 mov	 DWORD PTR [eax], edx

; 26   : 			//! 
; 27   : 			m_arrMemList[i].uTileSum		= 0;

  00036	89 50 04	 mov	 DWORD PTR [eax+4], edx

; 28   : 			//! 
; 29   : 			m_arrMemList[i].uUseCount		= 0;

  00039	89 50 08	 mov	 DWORD PTR [eax+8], edx

; 30   : 			//! 
; 31   : 			m_arrMemList[i].uLastAllocCount	= 0;

  0003c	89 50 0c	 mov	 DWORD PTR [eax+12], edx
  0003f	83 c1 01	 add	 ecx, 1
  00042	05 e4 00 00 00	 add	 eax, 228		; 000000e4H
  00047	83 f9 20	 cmp	 ecx, 32			; 00000020H
  0004a	72 e5		 jb	 SHORT $LL3@CTilePool

; 32   : 		}
; 33   : 	}

  0004c	8b c6		 mov	 eax, esi
  0004e	5e		 pop	 esi
  0004f	c2 08 00	 ret	 8
??0?$CTilePool@VLockOfWinWhileSleep@XM_Tools@@V?$CHeapPool@VLockOfWinWhileSleep@XM_Tools@@@2@@XM_Tools@@QAE@AAV?$CHeapPool@VLockOfWinWhileSleep@XM_Tools@@@1@K@Z ENDP ; XM_Tools::CTilePool<XM_Tools::LockOfWinWhileSleep,XM_Tools::CHeapPool<XM_Tools::LockOfWinWhileSleep> >::CTilePool<XM_Tools::LockOfWinWhileSleep,XM_Tools::CHeapPool<XM_Tools::LockOfWinWhileSleep> >
_TEXT	ENDS
PUBLIC	?AddNewTile@?$CTilePool@VLockOfWinWhileSleep@XM_Tools@@V?$CHeapPool@VLockOfWinWhileSleep@XM_Tools@@@2@@XM_Tools@@AAE_NAAUtagTileManageInfo@12@K@Z ; XM_Tools::CTilePool<XM_Tools::LockOfWinWhileSleep,XM_Tools::CHeapPool<XM_Tools::LockOfWinWhileSleep> >::AddNewTile
; Function compile flags: /Ogtpy
;	COMDAT ?AddNewTile@?$CTilePool@VLockOfWinWhileSleep@XM_Tools@@V?$CHeapPool@VLockOfWinWhileSleep@XM_Tools@@@2@@XM_Tools@@AAE_NAAUtagTileManageInfo@12@K@Z
_TEXT	SEGMENT
tv198 = -4						; size = 4
_uNodeSize$ = 8						; size = 4
_TileManageInfo$ = 8					; size = 4
_uAddCount$ = 12					; size = 4
?AddNewTile@?$CTilePool@VLockOfWinWhileSleep@XM_Tools@@V?$CHeapPool@VLockOfWinWhileSleep@XM_Tools@@@2@@XM_Tools@@AAE_NAAUtagTileManageInfo@12@K@Z PROC ; XM_Tools::CTilePool<XM_Tools::LockOfWinWhileSleep,XM_Tools::CHeapPool<XM_Tools::LockOfWinWhileSleep> >::AddNewTile, COMDAT
; _this$ = ecx

; 194  : 	{

  00000	51		 push	 ecx
  00001	53		 push	 ebx
  00002	56		 push	 esi

; 195  : 		MM_ASSERY(GetDefaultAddCount(TileManageInfo.uIndex) >= uAddCount && 0 != uAddCount && 0 == (uAddCount % GetDefaultAddCount(TileManageInfo.uIndex)));
; 196  : 		//!  =  + Next
; 197  : 		unsigned long uNodeSize = SNAP_TO_GRID(sizeof(unsigned char), LIST_NODE_GRID_SIZE) + max(sizeof(CListNode<unsigned char>), (TileManageInfo.uIndex + 1) * MIN_GRANULARITY);

  00003	8b 74 24 10	 mov	 esi, DWORD PTR _TileManageInfo$[esp+8]
  00007	8b 06		 mov	 eax, DWORD PTR [esi]
  00009	8d 04 c5 08 00
	00 00		 lea	 eax, DWORD PTR [eax*8+8]
  00010	83 f8 08	 cmp	 eax, 8
  00013	57		 push	 edi
  00014	73 05		 jae	 SHORT $LN7@AddNewTile
  00016	b8 08 00 00 00	 mov	 eax, 8
$LN7@AddNewTile:

; 198  : 
; 199  : 		//! 
; 200  : 		char *pMem = (char*)m_Allocator.Alloc(sizeof(CListNode<void>) + uNodeSize * uAddCount);

  0001b	8b 5c 24 18	 mov	 ebx, DWORD PTR _uAddCount$[esp+12]
  0001f	83 c0 04	 add	 eax, 4
  00022	89 44 24 14	 mov	 DWORD PTR _uNodeSize$[esp+12], eax
  00026	0f af c3	 imul	 eax, ebx
  00029	89 44 24 0c	 mov	 DWORD PTR tv198[esp+16], eax
  0002d	83 c0 04	 add	 eax, 4
  00030	50		 push	 eax
  00031	e8 00 00 00 00	 call	 _malloc
  00036	8b f8		 mov	 edi, eax
  00038	83 c4 04	 add	 esp, 4

; 201  : 		if(NULL == pMem)

  0003b	85 ff		 test	 edi, edi
  0003d	75 09		 jne	 SHORT $LN4@AddNewTile
  0003f	5f		 pop	 edi
  00040	5e		 pop	 esi

; 202  : 			return false;

  00041	32 c0		 xor	 al, al
  00043	5b		 pop	 ebx

; 228  : 	}

  00044	59		 pop	 ecx
  00045	c2 08 00	 ret	 8
$LN4@AddNewTile:
  00048	55		 push	 ebp

; 203  : 
; 204  : 		//! 
; 205  : 		TileManageInfo.SysMemList.PushNode((CListNode<void>*)pMem);

  00049	8d 4e 58	 lea	 ecx, DWORD PTR [esi+88]
  0004c	e8 00 00 00 00	 call	 ?Lock@LockOfWinWhileSleep@XM_Tools@@QAEXXZ ; XM_Tools::LockOfWinWhileSleep::Lock
  00051	8b 46 54	 mov	 eax, DWORD PTR [esi+84]
  00054	8b 2d 00 00 00
	00		 mov	 ebp, DWORD PTR __imp__InterlockedCompareExchange@12
  0005a	6a 01		 push	 1
  0005c	6a 00		 push	 0
  0005e	8d 4e 78	 lea	 ecx, DWORD PTR [esi+120]
  00061	89 07		 mov	 DWORD PTR [edi], eax
  00063	83 86 98 00 00
	00 01		 add	 DWORD PTR [esi+152], 1
  0006a	51		 push	 ecx
  0006b	89 7e 54	 mov	 DWORD PTR [esi+84], edi
  0006e	ff d5		 call	 ebp

; 206  : 		pMem += sizeof(CListNode<void>);

  00070	83 c7 04	 add	 edi, 4

; 207  : 
; 208  : 		//! 
; 209  : 		for (unsigned long i = 0; i < uAddCount; ++i)

  00073	85 db		 test	 ebx, ebx
  00075	76 48		 jbe	 SHORT $LN1@AddNewTile
  00077	eb 07 8d a4 24
	00 00 00 00	 npad	 9
$LL3@AddNewTile:

; 210  : 		{
; 211  : 			CListNode<unsigned char> *pFreeNode = (CListNode<unsigned char>*)(pMem + i * uNodeSize);
; 212  : 			pFreeNode->GetInfo() = (unsigned char)TileManageInfo.uIndex;

  00080	8a 16		 mov	 dl, BYTE PTR [esi]

; 213  : 			TileManageInfo.FreeList.PushNode(pFreeNode);

  00082	8d 8e a0 00 00
	00		 lea	 ecx, DWORD PTR [esi+160]
  00088	88 17		 mov	 BYTE PTR [edi], dl
  0008a	e8 00 00 00 00	 call	 ?Lock@LockOfWinWhileSleep@XM_Tools@@QAEXXZ ; XM_Tools::LockOfWinWhileSleep::Lock
  0008f	8b 86 9c 00 00
	00		 mov	 eax, DWORD PTR [esi+156]
  00095	89 47 04	 mov	 DWORD PTR [edi+4], eax
  00098	83 86 e0 00 00
	00 01		 add	 DWORD PTR [esi+224], 1
  0009f	6a 01		 push	 1
  000a1	6a 00		 push	 0
  000a3	8d 86 c0 00 00
	00		 lea	 eax, DWORD PTR [esi+192]
  000a9	50		 push	 eax
  000aa	89 be 9c 00 00
	00		 mov	 DWORD PTR [esi+156], edi
  000b0	ff d5		 call	 ebp
  000b2	03 7c 24 18	 add	 edi, DWORD PTR _uNodeSize$[esp+16]
  000b6	83 eb 01	 sub	 ebx, 1
  000b9	75 c5		 jne	 SHORT $LL3@AddNewTile

; 207  : 
; 208  : 		//! 
; 209  : 		for (unsigned long i = 0; i < uAddCount; ++i)

  000bb	8b 5c 24 1c	 mov	 ebx, DWORD PTR _uAddCount$[esp+16]
$LN1@AddNewTile:

; 214  : 		}
; 215  : 
; 216  : 		TileManageInfo.InfoLock.Lock();

  000bf	8d 4e 14	 lea	 ecx, DWORD PTR [esi+20]
  000c2	e8 00 00 00 00	 call	 ?Lock@LockOfWinWhileSleep@XM_Tools@@QAEXXZ ; XM_Tools::LockOfWinWhileSleep::Lock

; 217  : 		{
; 218  : 			//!	
; 219  : 			TileManageInfo.uSize			+= uNodeSize * uAddCount;

  000c7	8b 4c 24 10	 mov	 ecx, DWORD PTR tv198[esp+20]
  000cb	01 4e 04	 add	 DWORD PTR [esi+4], ecx

; 220  : 			//! 
; 221  : 			TileManageInfo.uTileSum			+= uAddCount;

  000ce	01 5e 08	 add	 DWORD PTR [esi+8], ebx

; 222  : 			//! 
; 223  : 			TileManageInfo.uLastAllocCount	= uAddCount;
; 224  : 		}
; 225  : 		TileManageInfo.InfoLock.UnLock();

  000d1	6a 01		 push	 1
  000d3	89 5e 10	 mov	 DWORD PTR [esi+16], ebx
  000d6	6a 00		 push	 0
  000d8	83 c6 34	 add	 esi, 52			; 00000034H
  000db	56		 push	 esi
  000dc	ff d5		 call	 ebp
  000de	5d		 pop	 ebp
  000df	5f		 pop	 edi
  000e0	5e		 pop	 esi

; 226  : 		
; 227  : 		return true;

  000e1	b0 01		 mov	 al, 1
  000e3	5b		 pop	 ebx

; 228  : 	}

  000e4	59		 pop	 ecx
  000e5	c2 08 00	 ret	 8
?AddNewTile@?$CTilePool@VLockOfWinWhileSleep@XM_Tools@@V?$CHeapPool@VLockOfWinWhileSleep@XM_Tools@@@2@@XM_Tools@@AAE_NAAUtagTileManageInfo@12@K@Z ENDP ; XM_Tools::CTilePool<XM_Tools::LockOfWinWhileSleep,XM_Tools::CHeapPool<XM_Tools::LockOfWinWhileSleep> >::AddNewTile
_TEXT	ENDS
PUBLIC	??$unchecked_uninitialized_copy@PAU_List_position@?$_Hash@V?$_Hmap_traits@VCGUID@@PAVCBaseObject@@Vhash_guid_compare@@V?$allocator@U?$pair@$$CBVCGUID@@PAVCBaseObject@@@std@@@std@@$0A@@stdext@@@stdext@@PAU123@V?$allocator@U_List_position@?$_Hash@V?$_Hmap_traits@VCGUID@@PAVCBaseObject@@Vhash_guid_compare@@V?$allocator@U?$pair@$$CBVCGUID@@PAVCBaseObject@@@std@@@std@@$0A@@stdext@@@stdext@@@std@@@stdext@@YAPAU_List_position@?$_Hash@V?$_Hmap_traits@VCGUID@@PAVCBaseObject@@Vhash_guid_compare@@V?$allocator@U?$pair@$$CBVCGUID@@PAVCBaseObject@@@std@@@std@@$0A@@stdext@@@0@PAU120@00AAV?$allocator@U_List_position@?$_Hash@V?$_Hmap_traits@VCGUID@@PAVCBaseObject@@Vhash_guid_compare@@V?$allocator@U?$pair@$$CBVCGUID@@PAVCBaseObject@@@std@@@std@@$0A@@stdext@@@stdext@@@std@@@Z ; stdext::unchecked_uninitialized_copy<stdext::_Hash<stdext::_Hmap_traits<CGUID,CBaseObject *,hash_guid_compare,std::allocator<std::pair<CGUID const ,CBaseObject *> >,0> >::_List_position *,stdext::_Hash<stdext::_Hmap_traits<CGUID,CBaseObject *,hash_guid_compare,std::allocator<std::pair<CGUID const ,CBaseObject *> >,0> >::_List_position *,std::allocator<stdext::_Hash<stdext::_Hmap_traits<CGUID,CBaseObject *,hash_guid_compare,std::allocator<std::pair<CGUID const ,CBaseObject *> >,0> >::_List_position> >
; Function compile flags: /Ogtpy
; File d:\program files\microsoft visual studio 8\vc\include\memory
;	COMDAT ??$unchecked_uninitialized_copy@PAU_List_position@?$_Hash@V?$_Hmap_traits@VCGUID@@PAVCBaseObject@@Vhash_guid_compare@@V?$allocator@U?$pair@$$CBVCGUID@@PAVCBaseObject@@@std@@@std@@$0A@@stdext@@@stdext@@PAU123@V?$allocator@U_List_position@?$_Hash@V?$_Hmap_traits@VCGUID@@PAVCBaseObject@@Vhash_guid_compare@@V?$allocator@U?$pair@$$CBVCGUID@@PAVCBaseObject@@@std@@@std@@$0A@@stdext@@@stdext@@@std@@@stdext@@YAPAU_List_position@?$_Hash@V?$_Hmap_traits@VCGUID@@PAVCBaseObject@@Vhash_guid_compare@@V?$allocator@U?$pair@$$CBVCGUID@@PAVCBaseObject@@@std@@@std@@$0A@@stdext@@@0@PAU120@00AAV?$allocator@U_List_position@?$_Hash@V?$_Hmap_traits@VCGUID@@PAVCBaseObject@@Vhash_guid_compare@@V?$allocator@U?$pair@$$CBVCGUID@@PAVCBaseObject@@@std@@@std@@$0A@@stdext@@@stdext@@@std@@@Z
_TEXT	SEGMENT
$T297844 = -4						; size = 1
__First$ = 8						; size = 4
__Cat$297848 = 12					; size = 1
__Last$ = 12						; size = 4
__Dest$ = 16						; size = 4
__Al$ = 20						; size = 4
??$unchecked_uninitialized_copy@PAU_List_position@?$_Hash@V?$_Hmap_traits@VCGUID@@PAVCBaseObject@@Vhash_guid_compare@@V?$allocator@U?$pair@$$CBVCGUID@@PAVCBaseObject@@@std@@@std@@$0A@@stdext@@@stdext@@PAU123@V?$allocator@U_List_position@?$_Hash@V?$_Hmap_traits@VCGUID@@PAVCBaseObject@@Vhash_guid_compare@@V?$allocator@U?$pair@$$CBVCGUID@@PAVCBaseObject@@@std@@@std@@$0A@@stdext@@@stdext@@@std@@@stdext@@YAPAU_List_position@?$_Hash@V?$_Hmap_traits@VCGUID@@PAVCBaseObject@@Vhash_guid_compare@@V?$allocator@U?$pair@$$CBVCGUID@@PAVCBaseObject@@@std@@@std@@$0A@@stdext@@@0@PAU120@00AAV?$allocator@U_List_position@?$_Hash@V?$_Hmap_traits@VCGUID@@PAVCBaseObject@@Vhash_guid_compare@@V?$allocator@U?$pair@$$CBVCGUID@@PAVCBaseObject@@@std@@@std@@$0A@@stdext@@@stdext@@@std@@@Z PROC ; stdext::unchecked_uninitialized_copy<stdext::_Hash<stdext::_Hmap_traits<CGUID,CBaseObject *,hash_guid_compare,std::allocator<std::pair<CGUID const ,CBaseObject *> >,0> >::_List_position *,stdext::_Hash<stdext::_Hmap_traits<CGUID,CBaseObject *,hash_guid_compare,std::allocator<std::pair<CGUID const ,CBaseObject *> >,0> >::_List_position *,std::allocator<stdext::_Hash<stdext::_Hmap_traits<CGUID,CBaseObject *,hash_guid_compare,std::allocator<std::pair<CGUID const ,CBaseObject *> >,0> >::_List_position> >, COMDAT

; 803  : 	{	// copy [_First, _Last) to raw _Dest, using _Al

  00000	51		 push	 ecx

; 804  : 		return (_STD _Uninit_copy(_CHECKED_BASE(_First), _CHECKED_BASE(_Last), _Dest, _Al,
; 805  : 			_STD _Ptr_cat(_First, _Dest), _STD _Range_checked_iterator_tag()));

  00001	8b 4c 24 0c	 mov	 ecx, DWORD PTR __Cat$297848[esp]
  00005	8b 54 24 14	 mov	 edx, DWORD PTR __Al$[esp]
  00009	c6 04 24 00	 mov	 BYTE PTR $T297844[esp+4], 0
  0000d	8b 04 24	 mov	 eax, DWORD PTR $T297844[esp+4]
  00010	50		 push	 eax
  00011	8b 44 24 14	 mov	 eax, DWORD PTR __Dest$[esp+4]
  00015	51		 push	 ecx
  00016	8b 4c 24 14	 mov	 ecx, DWORD PTR __Last$[esp+8]
  0001a	52		 push	 edx
  0001b	8b 54 24 14	 mov	 edx, DWORD PTR __First$[esp+12]
  0001f	50		 push	 eax
  00020	51		 push	 ecx
  00021	52		 push	 edx
  00022	e8 00 00 00 00	 call	 ??$_Uninit_copy@PAU_List_position@?$_Hash@V?$_Hmap_traits@VCGUID@@PAVCBaseObject@@Vhash_guid_compare@@V?$allocator@U?$pair@$$CBVCGUID@@PAVCBaseObject@@@std@@@std@@$0A@@stdext@@@stdext@@PAU123@V?$allocator@U_List_position@?$_Hash@V?$_Hmap_traits@VCGUID@@PAVCBaseObject@@Vhash_guid_compare@@V?$allocator@U?$pair@$$CBVCGUID@@PAVCBaseObject@@@std@@@std@@$0A@@stdext@@@stdext@@@std@@@std@@YAPAU_List_position@?$_Hash@V?$_Hmap_traits@VCGUID@@PAVCBaseObject@@Vhash_guid_compare@@V?$allocator@U?$pair@$$CBVCGUID@@PAVCBaseObject@@@std@@@std@@$0A@@stdext@@@stdext@@PAU123@00AAV?$allocator@U_List_position@?$_Hash@V?$_Hmap_traits@VCGUID@@PAVCBaseObject@@Vhash_guid_compare@@V?$allocator@U?$pair@$$CBVCGUID@@PAVCBaseObject@@@std@@@std@@$0A@@stdext@@@stdext@@@0@U_Nonscalar_ptr_iterator_tag@0@U_Range_checked_iterator_tag@0@@Z ; std::_Uninit_copy<stdext::_Hash<stdext::_Hmap_traits<CGUID,CBaseObject *,hash_guid_compare,std::allocator<std::pair<CGUID const ,CBaseObject *> >,0> >::_List_position *,stdext::_Hash<stdext::_Hmap_traits<CGUID,CBaseObject *,hash_guid_compare,std::allocator<std::pair<CGUID const ,CBaseObject *> >,0> >::_List_position *,std::allocator<stdext::_Hash<stdext::_Hmap_traits<CGUID,CBaseObject *,hash_guid_compare,std::allocator<std::pair<CGUID const ,CBaseObject *> >,0> >::_List_position> >

; 806  : 	}

  00027	83 c4 1c	 add	 esp, 28			; 0000001cH
  0002a	c3		 ret	 0
??$unchecked_uninitialized_copy@PAU_List_position@?$_Hash@V?$_Hmap_traits@VCGUID@@PAVCBaseObject@@Vhash_guid_compare@@V?$allocator@U?$pair@$$CBVCGUID@@PAVCBaseObject@@@std@@@std@@$0A@@stdext@@@stdext@@PAU123@V?$allocator@U_List_position@?$_Hash@V?$_Hmap_traits@VCGUID@@PAVCBaseObject@@Vhash_guid_compare@@V?$allocator@U?$pair@$$CBVCGUID@@PAVCBaseObject@@@std@@@std@@$0A@@stdext@@@stdext@@@std@@@stdext@@YAPAU_List_position@?$_Hash@V?$_Hmap_traits@VCGUID@@PAVCBaseObject@@Vhash_guid_compare@@V?$allocator@U?$pair@$$CBVCGUID@@PAVCBaseObject@@@std@@@std@@$0A@@stdext@@@0@PAU120@00AAV?$allocator@U_List_position@?$_Hash@V?$_Hmap_traits@VCGUID@@PAVCBaseObject@@Vhash_guid_compare@@V?$allocator@U?$pair@$$CBVCGUID@@PAVCBaseObject@@@std@@@std@@$0A@@stdext@@@stdext@@@std@@@Z ENDP ; stdext::unchecked_uninitialized_copy<stdext::_Hash<stdext::_Hmap_traits<CGUID,CBaseObject *,hash_guid_compare,std::allocator<std::pair<CGUID const ,CBaseObject *> >,0> >::_List_position *,stdext::_Hash<stdext::_Hmap_traits<CGUID,CBaseObject *,hash_guid_compare,std::allocator<std::pair<CGUID const ,CBaseObject *> >,0> >::_List_position *,std::allocator<stdext::_Hash<stdext::_Hmap_traits<CGUID,CBaseObject *,hash_guid_compare,std::allocator<std::pair<CGUID const ,CBaseObject *> >,0> >::_List_position> >
_TEXT	ENDS
PUBLIC	?InitForSize@?$CTilePool@VLockOfWinWhileSleep@XM_Tools@@V?$CHeapPool@VLockOfWinWhileSleep@XM_Tools@@@2@@XM_Tools@@QAE_NKK@Z ; XM_Tools::CTilePool<XM_Tools::LockOfWinWhileSleep,XM_Tools::CHeapPool<XM_Tools::LockOfWinWhileSleep> >::InitForSize
; Function compile flags: /Ogtpy
; File d:\project_p6\trunk\public\memmanage\cpp\tilepool.tcc
;	COMDAT ?InitForSize@?$CTilePool@VLockOfWinWhileSleep@XM_Tools@@V?$CHeapPool@VLockOfWinWhileSleep@XM_Tools@@@2@@XM_Tools@@QAE_NKK@Z
_TEXT	SEGMENT
_uSize$ = 8						; size = 4
_uProvideCount$ = 12					; size = 4
?InitForSize@?$CTilePool@VLockOfWinWhileSleep@XM_Tools@@V?$CHeapPool@VLockOfWinWhileSleep@XM_Tools@@@2@@XM_Tools@@QAE_NKK@Z PROC ; XM_Tools::CTilePool<XM_Tools::LockOfWinWhileSleep,XM_Tools::CHeapPool<XM_Tools::LockOfWinWhileSleep> >::InitForSize, COMDAT
; _this$ = ecx

; 48   : #ifndef USE_TILE_MANAGE
; 49   : 		return true;
; 50   : #endif
; 51   : 		unsigned long uIdx = GetListIndex(uSize);

  00000	8b 44 24 04	 mov	 eax, DWORD PTR _uSize$[esp-4]
  00004	3d 00 01 00 00	 cmp	 eax, 256		; 00000100H
  00009	57		 push	 edi
  0000a	77 70		 ja	 SHORT $LN1@InitForSiz
  0000c	85 c0		 test	 eax, eax
  0000e	74 6c		 je	 SHORT $LN1@InitForSiz
  00010	8b d0		 mov	 edx, eax
  00012	83 e2 07	 and	 edx, 7
  00015	f6 da		 neg	 dl
  00017	1b d2		 sbb	 edx, edx
  00019	83 c2 01	 add	 edx, 1
  0001c	c1 e8 03	 shr	 eax, 3
  0001f	2b c2		 sub	 eax, edx

; 52   : 		if(0xFFFFFFFF == uIdx || 0 == uProvideCount)

  00021	83 f8 ff	 cmp	 eax, -1
  00024	74 56		 je	 SHORT $LN1@InitForSiz
  00026	8b 7c 24 0c	 mov	 edi, DWORD PTR _uProvideCount$[esp]
  0002a	85 ff		 test	 edi, edi
  0002c	74 4e		 je	 SHORT $LN1@InitForSiz

; 54   : 
; 55   : 		tagTileManageInfo &TileManageInfo = m_arrMemList[uIdx];

  0002e	8b d0		 mov	 edx, eax
  00030	69 d2 e4 00 00
	00		 imul	 edx, 228		; 000000e4H

; 56   : 		//! 0xFFFF
; 57   : 		uProvideCount = (0xFFFF < uProvideCount) ? 0xFFFF : uProvideCount;

  00036	81 ff ff ff 00
	00		 cmp	 edi, 65535		; 0000ffffH
  0003c	55		 push	 ebp
  0003d	56		 push	 esi
  0003e	8d 6c 0a 08	 lea	 ebp, DWORD PTR [edx+ecx+8]
  00042	76 05		 jbe	 SHORT $LN5@InitForSiz
  00044	bf ff ff 00 00	 mov	 edi, 65535		; 0000ffffH
$LN5@InitForSiz:

; 58   : 
; 59   : 		//! 
; 60   : 		uProvideCount = SNAP_TO_GRID(uProvideCount, GetDefaultAddCount(uIdx));

  00049	8d 34 c5 08 00
	00 00		 lea	 esi, DWORD PTR [eax*8+8]
  00050	8b 41 04	 mov	 eax, DWORD PTR [ecx+4]
  00053	33 d2		 xor	 edx, edx
  00055	f7 f6		 div	 esi
  00057	33 d2		 xor	 edx, edx
  00059	8b f0		 mov	 esi, eax
  0005b	8b c7		 mov	 eax, edi
  0005d	f7 f6		 div	 esi
  0005f	8b f8		 mov	 edi, eax
  00061	33 c0		 xor	 eax, eax
  00063	85 d2		 test	 edx, edx
  00065	0f 95 c0	 setne	 al
  00068	03 c7		 add	 eax, edi
  0006a	0f af c6	 imul	 eax, esi

; 61   : 		AddNewTile(TileManageInfo, uProvideCount);

  0006d	50		 push	 eax
  0006e	55		 push	 ebp
  0006f	e8 00 00 00 00	 call	 ?AddNewTile@?$CTilePool@VLockOfWinWhileSleep@XM_Tools@@V?$CHeapPool@VLockOfWinWhileSleep@XM_Tools@@@2@@XM_Tools@@AAE_NAAUtagTileManageInfo@12@K@Z ; XM_Tools::CTilePool<XM_Tools::LockOfWinWhileSleep,XM_Tools::CHeapPool<XM_Tools::LockOfWinWhileSleep> >::AddNewTile
  00074	5e		 pop	 esi
  00075	5d		 pop	 ebp

; 62   : 
; 63   : 		return true;

  00076	b0 01		 mov	 al, 1
  00078	5f		 pop	 edi

; 64   : 	}

  00079	c2 08 00	 ret	 8
$LN1@InitForSiz:

; 53   : 			RETURN_THROW(false);

  0007c	32 c0		 xor	 al, al
  0007e	5f		 pop	 edi

; 64   : 	}

  0007f	c2 08 00	 ret	 8
?InitForSize@?$CTilePool@VLockOfWinWhileSleep@XM_Tools@@V?$CHeapPool@VLockOfWinWhileSleep@XM_Tools@@@2@@XM_Tools@@QAE_NKK@Z ENDP ; XM_Tools::CTilePool<XM_Tools::LockOfWinWhileSleep,XM_Tools::CHeapPool<XM_Tools::LockOfWinWhileSleep> >::InitForSize
_TEXT	ENDS
PUBLIC	?Release@?$CTilePool@VLockOfWinWhileSleep@XM_Tools@@V?$CHeapPool@VLockOfWinWhileSleep@XM_Tools@@@2@@XM_Tools@@QAEXXZ ; XM_Tools::CTilePool<XM_Tools::LockOfWinWhileSleep,XM_Tools::CHeapPool<XM_Tools::LockOfWinWhileSleep> >::Release
; Function compile flags: /Ogtpy
;	COMDAT ?Release@?$CTilePool@VLockOfWinWhileSleep@XM_Tools@@V?$CHeapPool@VLockOfWinWhileSleep@XM_Tools@@@2@@XM_Tools@@QAEXXZ
_TEXT	SEGMENT
tv191 = -4						; size = 4
?Release@?$CTilePool@VLockOfWinWhileSleep@XM_Tools@@V?$CHeapPool@VLockOfWinWhileSleep@XM_Tools@@@2@@XM_Tools@@QAEXXZ PROC ; XM_Tools::CTilePool<XM_Tools::LockOfWinWhileSleep,XM_Tools::CHeapPool<XM_Tools::LockOfWinWhileSleep> >::Release, COMDAT
; _this$ = ecx

; 69   : 	{

  00000	51		 push	 ecx
  00001	53		 push	 ebx
  00002	55		 push	 ebp

; 70   : #ifndef USE_TILE_MANAGE
; 71   : 		return;
; 72   : #endif
; 73   : 		for (unsigned long i = 0; i < TILE_POOL_NUM; ++i)

  00003	8b 2d 00 00 00
	00		 mov	 ebp, DWORD PTR __imp__InterlockedCompareExchange@12
  00009	56		 push	 esi
  0000a	57		 push	 edi
  0000b	8d 71 5c	 lea	 esi, DWORD PTR [ecx+92]
  0000e	c7 44 24 10 20
	00 00 00	 mov	 DWORD PTR tv191[esp+20], 32 ; 00000020H
$LL5@Release@2:

; 74   : 		{
; 75   : 			//! 
; 76   : 			MM_ASSERY(0 == m_arrMemList[i].uUseCount);
; 77   : 			//! 
; 78   : #ifdef LOG_ALLOC_FREE_INFO
; 79   : 
; 80   : #endif 
; 81   : 
; 82   : 			//! 
; 83   : #ifdef DESTRUTOR_FREE_SYSMEM
; 84   : 			CListNode<void> *pCListNode = m_arrMemList[i].SysMemList.PopNode();

  00016	8d 5e 04	 lea	 ebx, DWORD PTR [esi+4]
  00019	8b cb		 mov	 ecx, ebx
  0001b	e8 00 00 00 00	 call	 ?Lock@LockOfWinWhileSleep@XM_Tools@@QAEXXZ ; XM_Tools::LockOfWinWhileSleep::Lock
  00020	8b 3e		 mov	 edi, DWORD PTR [esi]
  00022	85 ff		 test	 edi, edi
  00024	74 08		 je	 SHORT $LN8@Release@2
  00026	8b 07		 mov	 eax, DWORD PTR [edi]
  00028	83 46 44 ff	 add	 DWORD PTR [esi+68], -1
  0002c	89 06		 mov	 DWORD PTR [esi], eax
$LN8@Release@2:
  0002e	6a 01		 push	 1
  00030	6a 00		 push	 0
  00032	8d 4e 24	 lea	 ecx, DWORD PTR [esi+36]
  00035	51		 push	 ecx
  00036	ff d5		 call	 ebp

; 85   : 			while(NULL != pCListNode)

  00038	85 ff		 test	 edi, edi
  0003a	8b c7		 mov	 eax, edi
  0003c	74 30		 je	 SHORT $LN4@Release@2
  0003e	8b ff		 npad	 2
$LL2@Release@2:

; 86   : 			{
; 87   : 				m_Allocator.Free(pCListNode);

  00040	50		 push	 eax
  00041	e8 00 00 00 00	 call	 _free
  00046	83 c4 04	 add	 esp, 4

; 88   : 				pCListNode = m_arrMemList[i].SysMemList.PopNode();

  00049	8b cb		 mov	 ecx, ebx
  0004b	e8 00 00 00 00	 call	 ?Lock@LockOfWinWhileSleep@XM_Tools@@QAEXXZ ; XM_Tools::LockOfWinWhileSleep::Lock
  00050	8b 3e		 mov	 edi, DWORD PTR [esi]
  00052	85 ff		 test	 edi, edi
  00054	74 08		 je	 SHORT $LN28@Release@2
  00056	8b 17		 mov	 edx, DWORD PTR [edi]
  00058	83 46 44 ff	 add	 DWORD PTR [esi+68], -1
  0005c	89 16		 mov	 DWORD PTR [esi], edx
$LN28@Release@2:
  0005e	6a 01		 push	 1
  00060	6a 00		 push	 0
  00062	8d 46 24	 lea	 eax, DWORD PTR [esi+36]
  00065	50		 push	 eax
  00066	ff d5		 call	 ebp
  00068	85 ff		 test	 edi, edi
  0006a	8b c7		 mov	 eax, edi
  0006c	75 d2		 jne	 SHORT $LL2@Release@2
$LN4@Release@2:

; 70   : #ifndef USE_TILE_MANAGE
; 71   : 		return;
; 72   : #endif
; 73   : 		for (unsigned long i = 0; i < TILE_POOL_NUM; ++i)

  0006e	81 c6 e4 00 00
	00		 add	 esi, 228		; 000000e4H
  00074	83 6c 24 10 01	 sub	 DWORD PTR tv191[esp+20], 1
  00079	75 9b		 jne	 SHORT $LL5@Release@2
  0007b	5f		 pop	 edi
  0007c	5e		 pop	 esi
  0007d	5d		 pop	 ebp
  0007e	5b		 pop	 ebx

; 89   : 			}
; 90   : #endif
; 91   : 		}
; 92   : 	}

  0007f	59		 pop	 ecx
  00080	c3		 ret	 0
?Release@?$CTilePool@VLockOfWinWhileSleep@XM_Tools@@V?$CHeapPool@VLockOfWinWhileSleep@XM_Tools@@@2@@XM_Tools@@QAEXXZ ENDP ; XM_Tools::CTilePool<XM_Tools::LockOfWinWhileSleep,XM_Tools::CHeapPool<XM_Tools::LockOfWinWhileSleep> >::Release
_TEXT	ENDS
PUBLIC	?Release@?$CBlockPool@VLockOfWinWhileSleep@XM_Tools@@V?$CHeapPool@VLockOfWinWhileSleep@XM_Tools@@@2@@XM_Tools@@QAEXXZ ; XM_Tools::CBlockPool<XM_Tools::LockOfWinWhileSleep,XM_Tools::CHeapPool<XM_Tools::LockOfWinWhileSleep> >::Release
; Function compile flags: /Ogtpy
; File d:\project_p6\trunk\public\memmanage\cpp\blockpool.tcc
;	COMDAT ?Release@?$CBlockPool@VLockOfWinWhileSleep@XM_Tools@@V?$CHeapPool@VLockOfWinWhileSleep@XM_Tools@@@2@@XM_Tools@@QAEXXZ
_TEXT	SEGMENT
?Release@?$CBlockPool@VLockOfWinWhileSleep@XM_Tools@@V?$CHeapPool@VLockOfWinWhileSleep@XM_Tools@@@2@@XM_Tools@@QAEXXZ PROC ; XM_Tools::CBlockPool<XM_Tools::LockOfWinWhileSleep,XM_Tools::CHeapPool<XM_Tools::LockOfWinWhileSleep> >::Release, COMDAT
; _this$ = ecx

; 75   : 	{

  00000	56		 push	 esi
  00001	8b f1		 mov	 esi, ecx

; 76   : 		MM_ASSERY(0 == m_uFirsthandCount);
; 77   : #ifdef LOG_ALLOC_FREE_INFO
; 78   : 		MM_ASSERY(0 == m_PoolAllocCount);
; 79   : #endif
; 80   : #ifdef DESTRUTOR_FREE_SYSMEM
; 81   : 		if(NULL != m_pFlag)

  00003	8b 46 58	 mov	 eax, DWORD PTR [esi+88]
  00006	85 c0		 test	 eax, eax
  00008	74 10		 je	 SHORT $LN1@Release@3

; 82   : 		{
; 83   : 			m_Allocator.Free(m_pFlag);

  0000a	50		 push	 eax
  0000b	e8 00 00 00 00	 call	 _free
  00010	83 c4 04	 add	 esp, 4

; 84   : 			m_pFlag = NULL;

  00013	c7 46 58 00 00
	00 00		 mov	 DWORD PTR [esi+88], 0
$LN1@Release@3:
  0001a	5e		 pop	 esi

; 85   : 		}
; 86   : #endif
; 87   : 	}

  0001b	c3		 ret	 0
?Release@?$CBlockPool@VLockOfWinWhileSleep@XM_Tools@@V?$CHeapPool@VLockOfWinWhileSleep@XM_Tools@@@2@@XM_Tools@@QAEXXZ ENDP ; XM_Tools::CBlockPool<XM_Tools::LockOfWinWhileSleep,XM_Tools::CHeapPool<XM_Tools::LockOfWinWhileSleep> >::Release
_TEXT	ENDS
PUBLIC	??1?$basic_string@DU?$char_traits@D@std@@V?$allocator@D@2@@std@@QAE@XZ ; std::basic_string<char,std::char_traits<char>,std::allocator<char> >::~basic_string<char,std::char_traits<char>,std::allocator<char> >
; Function compile flags: /Ogtpy
; File d:\program files\microsoft visual studio 8\vc\include\xstring
;	COMDAT ??1?$basic_string@DU?$char_traits@D@std@@V?$allocator@D@2@@std@@QAE@XZ
_TEXT	SEGMENT
??1?$basic_string@DU?$char_traits@D@std@@V?$allocator@D@2@@std@@QAE@XZ PROC ; std::basic_string<char,std::char_traits<char>,std::allocator<char> >::~basic_string<char,std::char_traits<char>,std::allocator<char> >, COMDAT
; _this$ = ecx

; 904  : 		{	// destroy the string

  00000	56		 push	 esi
  00001	8b f1		 mov	 esi, ecx

; 905  : 		_Tidy(true);

  00003	83 7e 18 10	 cmp	 DWORD PTR [esi+24], 16	; 00000010H
  00007	72 0c		 jb	 SHORT $LN17@basic_stri
  00009	8b 46 04	 mov	 eax, DWORD PTR [esi+4]
  0000c	50		 push	 eax
  0000d	e8 00 00 00 00	 call	 ??3@YAXPAX@Z		; operator delete
  00012	83 c4 04	 add	 esp, 4
$LN17@basic_stri:
  00015	33 c0		 xor	 eax, eax
  00017	c7 46 18 0f 00
	00 00		 mov	 DWORD PTR [esi+24], 15	; 0000000fH
  0001e	89 46 14	 mov	 DWORD PTR [esi+20], eax
  00021	88 46 04	 mov	 BYTE PTR [esi+4], al
  00024	5e		 pop	 esi

; 906  : 		}

  00025	c3		 ret	 0
??1?$basic_string@DU?$char_traits@D@std@@V?$allocator@D@2@@std@@QAE@XZ ENDP ; std::basic_string<char,std::char_traits<char>,std::allocator<char> >::~basic_string<char,std::char_traits<char>,std::allocator<char> >
_TEXT	ENDS
PUBLIC	?_Grow@?$basic_string@DU?$char_traits@D@std@@V?$allocator@D@2@@std@@IAE_NI_N@Z ; std::basic_string<char,std::char_traits<char>,std::allocator<char> >::_Grow
EXTRN	?_Xlen@_String_base@std@@SAXXZ:PROC		; std::_String_base::_Xlen
; Function compile flags: /Ogtpy
;	COMDAT ?_Grow@?$basic_string@DU?$char_traits@D@std@@V?$allocator@D@2@@std@@IAE_NI_N@Z
_TEXT	SEGMENT
__Newsize$ = 8						; size = 4
__Trim$ = 12						; size = 1
?_Grow@?$basic_string@DU?$char_traits@D@std@@V?$allocator@D@2@@std@@IAE_NI_N@Z PROC ; std::basic_string<char,std::char_traits<char>,std::allocator<char> >::_Grow, COMDAT
; _this$ = ecx

; 2036 : 		{	// ensure buffer is big enough, trim to size if _Trim is true

  00000	53		 push	 ebx

; 2037 : 			if (max_size() < _Newsize)

  00001	8b 5c 24 08	 mov	 ebx, DWORD PTR __Newsize$[esp]
  00005	83 fb fe	 cmp	 ebx, -2			; fffffffeH
  00008	56		 push	 esi
  00009	8b f1		 mov	 esi, ecx
  0000b	76 05		 jbe	 SHORT $LN6@Grow

; 2038 : 			_String_base::_Xlen();	// result too long

  0000d	e8 00 00 00 00	 call	 ?_Xlen@_String_base@std@@SAXXZ ; std::_String_base::_Xlen
$LN6@Grow:

; 2039 : 		if (_Myres < _Newsize)

  00012	8b 46 18	 mov	 eax, DWORD PTR [esi+24]
  00015	3b c3		 cmp	 eax, ebx
  00017	73 19		 jae	 SHORT $LN5@Grow

; 2040 : 			_Copy(_Newsize, _Mysize);	// reallocate to grow

  00019	8b 46 14	 mov	 eax, DWORD PTR [esi+20]
  0001c	50		 push	 eax
  0001d	53		 push	 ebx
  0001e	8b ce		 mov	 ecx, esi
  00020	e8 00 00 00 00	 call	 ?_Copy@?$basic_string@DU?$char_traits@D@std@@V?$allocator@D@2@@std@@IAEXII@Z ; std::basic_string<char,std::char_traits<char>,std::allocator<char> >::_Copy

; 2046 : 		return (0 < _Newsize);	// return true only if more work to do

  00025	33 c9		 xor	 ecx, ecx
  00027	3b cb		 cmp	 ecx, ebx
  00029	1b c0		 sbb	 eax, eax
  0002b	5e		 pop	 esi
  0002c	f7 d8		 neg	 eax
  0002e	5b		 pop	 ebx

; 2047 : 		}

  0002f	c2 08 00	 ret	 8
$LN5@Grow:

; 2041 : 		else if (_Trim && _Newsize < _BUF_SIZE)

  00032	80 7c 24 10 00	 cmp	 BYTE PTR __Trim$[esp+4], 0
  00037	74 52		 je	 SHORT $LN3@Grow
  00039	83 fb 10	 cmp	 ebx, 16			; 00000010H
  0003c	73 4d		 jae	 SHORT $LN3@Grow
  0003e	57		 push	 edi

; 2042 : 			_Tidy(true,	// copy and deallocate if trimming to small string
; 2043 : 				_Newsize < _Mysize ? _Newsize : _Mysize);

  0003f	8b 7e 14	 mov	 edi, DWORD PTR [esi+20]
  00042	3b df		 cmp	 ebx, edi
  00044	73 02		 jae	 SHORT $LN9@Grow
  00046	8b fb		 mov	 edi, ebx
$LN9@Grow:
  00048	83 f8 10	 cmp	 eax, 16			; 00000010H
  0004b	72 21		 jb	 SHORT $LN33@Grow
  0004d	85 ff		 test	 edi, edi
  0004f	8d 46 04	 lea	 eax, DWORD PTR [esi+4]
  00052	55		 push	 ebp
  00053	8b 28		 mov	 ebp, DWORD PTR [eax]
  00055	76 0d		 jbe	 SHORT $LN31@Grow
  00057	57		 push	 edi
  00058	55		 push	 ebp
  00059	6a 10		 push	 16			; 00000010H
  0005b	50		 push	 eax
  0005c	e8 00 00 00 00	 call	 _memcpy_s
  00061	83 c4 10	 add	 esp, 16			; 00000010H
$LN31@Grow:
  00064	55		 push	 ebp
  00065	e8 00 00 00 00	 call	 ??3@YAXPAX@Z		; operator delete
  0006a	83 c4 04	 add	 esp, 4
  0006d	5d		 pop	 ebp
$LN33@Grow:
  0006e	89 7e 14	 mov	 DWORD PTR [esi+20], edi
  00071	c7 46 18 0f 00
	00 00		 mov	 DWORD PTR [esi+24], 15	; 0000000fH

; 2046 : 		return (0 < _Newsize);	// return true only if more work to do

  00078	33 c9		 xor	 ecx, ecx
  0007a	c6 44 3e 04 00	 mov	 BYTE PTR [esi+edi+4], 0
  0007f	3b cb		 cmp	 ecx, ebx
  00081	5f		 pop	 edi
  00082	1b c0		 sbb	 eax, eax
  00084	5e		 pop	 esi
  00085	f7 d8		 neg	 eax
  00087	5b		 pop	 ebx

; 2047 : 		}

  00088	c2 08 00	 ret	 8
$LN3@Grow:

; 2044 : 		else if (_Newsize == 0)

  0008b	85 db		 test	 ebx, ebx
  0008d	75 20		 jne	 SHORT $LN49@Grow

; 2045 : 			_Eos(0);	// new size is zero, just null terminate

  0008f	83 f8 10	 cmp	 eax, 16			; 00000010H
  00092	89 5e 14	 mov	 DWORD PTR [esi+20], ebx
  00095	72 12		 jb	 SHORT $LN47@Grow
  00097	8b 76 04	 mov	 esi, DWORD PTR [esi+4]

; 2046 : 		return (0 < _Newsize);	// return true only if more work to do

  0009a	33 c9		 xor	 ecx, ecx
  0009c	3b cb		 cmp	 ecx, ebx
  0009e	88 1e		 mov	 BYTE PTR [esi], bl
  000a0	1b c0		 sbb	 eax, eax
  000a2	5e		 pop	 esi
  000a3	f7 d8		 neg	 eax
  000a5	5b		 pop	 ebx

; 2047 : 		}

  000a6	c2 08 00	 ret	 8

; 2045 : 			_Eos(0);	// new size is zero, just null terminate

$LN47@Grow:
  000a9	83 c6 04	 add	 esi, 4
  000ac	c6 06 00	 mov	 BYTE PTR [esi], 0
$LN49@Grow:

; 2046 : 		return (0 < _Newsize);	// return true only if more work to do

  000af	33 c9		 xor	 ecx, ecx
  000b1	3b cb		 cmp	 ecx, ebx
  000b3	1b c0		 sbb	 eax, eax
  000b5	5e		 pop	 esi
  000b6	f7 d8		 neg	 eax
  000b8	5b		 pop	 ebx

; 2047 : 		}

  000b9	c2 08 00	 ret	 8
?_Grow@?$basic_string@DU?$char_traits@D@std@@V?$allocator@D@2@@std@@IAE_NI_N@Z ENDP ; std::basic_string<char,std::char_traits<char>,std::allocator<char> >::_Grow
_TEXT	ENDS
PUBLIC	?end@?$_Hash@V?$_Hmap_traits@VCGUID@@PAVCBaseObject@@Vhash_guid_compare@@V?$allocator@U?$pair@$$CBVCGUID@@PAVCBaseObject@@@std@@@std@@$0A@@stdext@@@stdext@@QAE?AV?$_Iterator@$00@?$list@U?$pair@$$CBVCGUID@@PAVCBaseObject@@@std@@V?$allocator@U?$pair@$$CBVCGUID@@PAVCBaseObject@@@std@@@2@@std@@XZ ; stdext::_Hash<stdext::_Hmap_traits<CGUID,CBaseObject *,hash_guid_compare,std::allocator<std::pair<CGUID const ,CBaseObject *> >,0> >::end
; Function compile flags: /Ogtpy
; File d:\program files\microsoft visual studio 8\vc\include\xhash
;	COMDAT ?end@?$_Hash@V?$_Hmap_traits@VCGUID@@PAVCBaseObject@@Vhash_guid_compare@@V?$allocator@U?$pair@$$CBVCGUID@@PAVCBaseObject@@@std@@@std@@$0A@@stdext@@@stdext@@QAE?AV?$_Iterator@$00@?$list@U?$pair@$$CBVCGUID@@PAVCBaseObject@@@std@@V?$allocator@U?$pair@$$CBVCGUID@@PAVCBaseObject@@@std@@@2@@std@@XZ
_TEXT	SEGMENT
___$ReturnUdt$ = 8					; size = 4
?end@?$_Hash@V?$_Hmap_traits@VCGUID@@PAVCBaseObject@@Vhash_guid_compare@@V?$allocator@U?$pair@$$CBVCGUID@@PAVCBaseObject@@@std@@@std@@$0A@@stdext@@@stdext@@QAE?AV?$_Iterator@$00@?$list@U?$pair@$$CBVCGUID@@PAVCBaseObject@@@std@@V?$allocator@U?$pair@$$CBVCGUID@@PAVCBaseObject@@@std@@@2@@std@@XZ PROC ; stdext::_Hash<stdext::_Hmap_traits<CGUID,CBaseObject *,hash_guid_compare,std::allocator<std::pair<CGUID const ,CBaseObject *> >,0> >::end, COMDAT
; _this$ = ecx

; 315  : 		return (_List.end());

  00000	8b 44 24 04	 mov	 eax, DWORD PTR ___$ReturnUdt$[esp-4]
  00004	8b 51 08	 mov	 edx, DWORD PTR [ecx+8]
  00007	83 c1 04	 add	 ecx, 4
  0000a	89 50 04	 mov	 DWORD PTR [eax+4], edx
  0000d	89 08		 mov	 DWORD PTR [eax], ecx

; 316  : 		}

  0000f	c2 04 00	 ret	 4
?end@?$_Hash@V?$_Hmap_traits@VCGUID@@PAVCBaseObject@@Vhash_guid_compare@@V?$allocator@U?$pair@$$CBVCGUID@@PAVCBaseObject@@@std@@@std@@$0A@@stdext@@@stdext@@QAE?AV?$_Iterator@$00@?$list@U?$pair@$$CBVCGUID@@PAVCBaseObject@@@std@@V?$allocator@U?$pair@$$CBVCGUID@@PAVCBaseObject@@@std@@@2@@std@@XZ ENDP ; stdext::_Hash<stdext::_Hmap_traits<CGUID,CBaseObject *,hash_guid_compare,std::allocator<std::pair<CGUID const ,CBaseObject *> >,0> >::end
_TEXT	ENDS
PUBLIC	?lower_bound@?$_Hash@V?$_Hmap_traits@VCGUID@@PAVCBaseObject@@Vhash_guid_compare@@V?$allocator@U?$pair@$$CBVCGUID@@PAVCBaseObject@@@std@@@std@@$0A@@stdext@@@stdext@@QAE?AV?$_Iterator@$00@?$list@U?$pair@$$CBVCGUID@@PAVCBaseObject@@@std@@V?$allocator@U?$pair@$$CBVCGUID@@PAVCBaseObject@@@std@@@2@@std@@ABVCGUID@@@Z ; stdext::_Hash<stdext::_Hmap_traits<CGUID,CBaseObject *,hash_guid_compare,std::allocator<std::pair<CGUID const ,CBaseObject *> >,0> >::lower_bound
; Function compile flags: /Ogtpy
;	COMDAT ?lower_bound@?$_Hash@V?$_Hmap_traits@VCGUID@@PAVCBaseObject@@Vhash_guid_compare@@V?$allocator@U?$pair@$$CBVCGUID@@PAVCBaseObject@@@std@@@std@@$0A@@stdext@@@stdext@@QAE?AV?$_Iterator@$00@?$list@U?$pair@$$CBVCGUID@@PAVCBaseObject@@@std@@V?$allocator@U?$pair@$$CBVCGUID@@PAVCBaseObject@@@std@@@2@@std@@ABVCGUID@@@Z
_TEXT	SEGMENT
__Where$ = -16						; size = 8
$T298238 = -8						; size = 8
$T298236 = -8						; size = 8
___$ReturnUdt$ = 8					; size = 4
tv356 = 12						; size = 4
__Keyval$ = 12						; size = 4
?lower_bound@?$_Hash@V?$_Hmap_traits@VCGUID@@PAVCBaseObject@@Vhash_guid_compare@@V?$allocator@U?$pair@$$CBVCGUID@@PAVCBaseObject@@@std@@@std@@$0A@@stdext@@@stdext@@QAE?AV?$_Iterator@$00@?$list@U?$pair@$$CBVCGUID@@PAVCBaseObject@@@std@@V?$allocator@U?$pair@$$CBVCGUID@@PAVCBaseObject@@@std@@@2@@std@@ABVCGUID@@@Z PROC ; stdext::_Hash<stdext::_Hmap_traits<CGUID,CBaseObject *,hash_guid_compare,std::allocator<std::pair<CGUID const ,CBaseObject *> >,0> >::lower_bound, COMDAT
; _this$ = ecx

; 554  : 		{	// find leftmost not less than _Keyval in mutable hash table

  00000	83 ec 10	 sub	 esp, 16			; 00000010H
  00003	53		 push	 ebx

; 555  : 		size_type _Bucket = _Hashval(_Keyval);

  00004	8b 5c 24 1c	 mov	 ebx, DWORD PTR __Keyval$[esp+16]
  00008	55		 push	 ebp
  00009	56		 push	 esi
  0000a	8b 73 04	 mov	 esi, DWORD PTR [ebx+4]
  0000d	03 73 08	 add	 esi, DWORD PTR [ebx+8]
  00010	8b e9		 mov	 ebp, ecx
  00012	03 33		 add	 esi, DWORD PTR [ebx]
  00014	8b 45 20	 mov	 eax, DWORD PTR [ebp+32]
  00017	03 73 0c	 add	 esi, DWORD PTR [ebx+12]
  0001a	57		 push	 edi
  0001b	23 f0		 and	 esi, eax
  0001d	39 75 24	 cmp	 DWORD PTR [ebp+36], esi
  00020	77 09		 ja	 SHORT $LN9@lower_boun
  00022	d1 e8		 shr	 eax, 1
  00024	83 c9 ff	 or	 ecx, -1
  00027	2b c8		 sub	 ecx, eax
  00029	03 f1		 add	 esi, ecx
$LN9@lower_boun:

; 556  : 		iterator _Where;
; 557  : 		for (_Where = _Get_iter_from_vec(_Vec[_Bucket]); _Vec[_Bucket + 1] != _Where; ++_Where)

  0002b	8b 4d 14	 mov	 ecx, DWORD PTR [ebp+20]
  0002e	85 c9		 test	 ecx, ecx
  00030	74 0c		 je	 SHORT $LN158@lower_boun
  00032	8b 45 18	 mov	 eax, DWORD PTR [ebp+24]
  00035	2b c1		 sub	 eax, ecx
  00037	c1 f8 03	 sar	 eax, 3
  0003a	3b f0		 cmp	 esi, eax
  0003c	72 05		 jb	 SHORT $LN22@lower_boun
$LN158@lower_boun:
  0003e	e8 00 00 00 00	 call	 __invalid_parameter_noinfo
$LN22@lower_boun:
  00043	8b 55 14	 mov	 edx, DWORD PTR [ebp+20]
  00046	8b 44 f2 04	 mov	 eax, DWORD PTR [edx+esi*8+4]
  0004a	8d 7d 04	 lea	 edi, DWORD PTR [ebp+4]
  0004d	85 ff		 test	 edi, edi
  0004f	89 7c 24 28	 mov	 DWORD PTR tv356[esp+28], edi
  00053	89 44 24 1c	 mov	 DWORD PTR $T298236[esp+36], eax
  00057	75 05		 jne	 SHORT $LN37@lower_boun
  00059	e8 00 00 00 00	 call	 __invalid_parameter_noinfo
$LN37@lower_boun:
  0005e	89 7c 24 10	 mov	 DWORD PTR __Where$[esp+32], edi
  00062	8b 7c 24 1c	 mov	 edi, DWORD PTR $T298236[esp+36]
  00066	89 7c 24 14	 mov	 DWORD PTR __Where$[esp+36], edi
  0006a	83 c6 01	 add	 esi, 1
  0006d	8d 49 00	 npad	 3
$LL51@lower_boun:
  00070	8b 4d 14	 mov	 ecx, DWORD PTR [ebp+20]
  00073	85 c9		 test	 ecx, ecx
  00075	74 0c		 je	 SHORT $LN159@lower_boun
  00077	8b 45 18	 mov	 eax, DWORD PTR [ebp+24]
  0007a	2b c1		 sub	 eax, ecx
  0007c	c1 f8 03	 sar	 eax, 3
  0007f	3b f0		 cmp	 esi, eax
  00081	72 05		 jb	 SHORT $LN55@lower_boun
$LN159@lower_boun:
  00083	e8 00 00 00 00	 call	 __invalid_parameter_noinfo
$LN55@lower_boun:
  00088	8b 4d 14	 mov	 ecx, DWORD PTR [ebp+20]
  0008b	39 7c f1 04	 cmp	 DWORD PTR [ecx+esi*8+4], edi
  0008f	0f 84 db 00 00
	00		 je	 $LN2@lower_boun

; 558  : 			if (!this->comp(this->_Kfn(*_Where), _Keyval))

  00095	83 7c 24 10 00	 cmp	 DWORD PTR __Where$[esp+32], 0
  0009a	75 05		 jne	 SHORT $LN74@lower_boun
  0009c	e8 00 00 00 00	 call	 __invalid_parameter_noinfo
$LN74@lower_boun:
  000a1	8b 54 24 10	 mov	 edx, DWORD PTR __Where$[esp+32]
  000a5	3b 7a 04	 cmp	 edi, DWORD PTR [edx+4]
  000a8	75 05		 jne	 SHORT $LN72@lower_boun
  000aa	e8 00 00 00 00	 call	 __invalid_parameter_noinfo
$LN72@lower_boun:
  000af	8b 47 08	 mov	 eax, DWORD PTR [edi+8]
  000b2	8b 0b		 mov	 ecx, DWORD PTR [ebx]
  000b4	3b c1		 cmp	 eax, ecx
  000b6	72 22		 jb	 SHORT $LN160@lower_boun
  000b8	75 32		 jne	 SHORT $LN167@lower_boun
  000ba	8b 47 0c	 mov	 eax, DWORD PTR [edi+12]
  000bd	8b 4b 04	 mov	 ecx, DWORD PTR [ebx+4]
  000c0	3b c1		 cmp	 eax, ecx
  000c2	72 16		 jb	 SHORT $LN160@lower_boun
  000c4	75 26		 jne	 SHORT $LN167@lower_boun
  000c6	8b 47 10	 mov	 eax, DWORD PTR [edi+16]
  000c9	8b 4b 08	 mov	 ecx, DWORD PTR [ebx+8]
  000cc	3b c1		 cmp	 eax, ecx
  000ce	72 0a		 jb	 SHORT $LN160@lower_boun
  000d0	75 1a		 jne	 SHORT $LN167@lower_boun
  000d2	8b 47 14	 mov	 eax, DWORD PTR [edi+20]
  000d5	3b 43 0c	 cmp	 eax, DWORD PTR [ebx+12]
  000d8	73 12		 jae	 SHORT $LN167@lower_boun
$LN160@lower_boun:

; 556  : 		iterator _Where;
; 557  : 		for (_Where = _Get_iter_from_vec(_Vec[_Bucket]); _Vec[_Bucket + 1] != _Where; ++_Where)

  000da	8b 4c 24 10	 mov	 ecx, DWORD PTR __Where$[esp+32]
  000de	3b 79 04	 cmp	 edi, DWORD PTR [ecx+4]
  000e1	75 05		 jne	 SHORT $LN47@lower_boun
  000e3	e8 00 00 00 00	 call	 __invalid_parameter_noinfo
$LN47@lower_boun:
  000e8	8b 3f		 mov	 edi, DWORD PTR [edi]
  000ea	eb 84		 jmp	 SHORT $LL51@lower_boun
$LN167@lower_boun:

; 559  : 				return (this->comp(_Keyval,
; 560  : 					this->_Kfn(*_Where)) ? end() : _Where);

  000ec	8b 54 24 10	 mov	 edx, DWORD PTR __Where$[esp+32]
  000f0	3b 7a 04	 cmp	 edi, DWORD PTR [edx+4]
  000f3	89 7c 24 14	 mov	 DWORD PTR __Where$[esp+36], edi
  000f7	75 05		 jne	 SHORT $LN101@lower_boun
  000f9	e8 00 00 00 00	 call	 __invalid_parameter_noinfo
$LN101@lower_boun:
  000fe	8b 03		 mov	 eax, DWORD PTR [ebx]
  00100	8b 4f 08	 mov	 ecx, DWORD PTR [edi+8]
  00103	3b c1		 cmp	 eax, ecx
  00105	72 22		 jb	 SHORT $LN163@lower_boun
  00107	75 4b		 jne	 SHORT $LN7@lower_boun
  00109	8b 43 04	 mov	 eax, DWORD PTR [ebx+4]
  0010c	8b 4f 0c	 mov	 ecx, DWORD PTR [edi+12]
  0010f	3b c1		 cmp	 eax, ecx
  00111	72 16		 jb	 SHORT $LN163@lower_boun
  00113	75 3f		 jne	 SHORT $LN7@lower_boun
  00115	8b 43 08	 mov	 eax, DWORD PTR [ebx+8]
  00118	8b 4f 10	 mov	 ecx, DWORD PTR [edi+16]
  0011b	3b c1		 cmp	 eax, ecx
  0011d	72 0a		 jb	 SHORT $LN163@lower_boun
  0011f	75 33		 jne	 SHORT $LN7@lower_boun
  00121	8b 43 0c	 mov	 eax, DWORD PTR [ebx+12]
  00124	3b 47 14	 cmp	 eax, DWORD PTR [edi+20]
  00127	73 2b		 jae	 SHORT $LN7@lower_boun
$LN163@lower_boun:
  00129	8b 44 24 28	 mov	 eax, DWORD PTR tv356[esp+28]
  0012d	8b 48 04	 mov	 ecx, DWORD PTR [eax+4]
  00130	89 4c 24 1c	 mov	 DWORD PTR $T298238[esp+36], ecx
  00134	5f		 pop	 edi
  00135	89 44 24 14	 mov	 DWORD PTR $T298238[esp+28], eax
  00139	8b 44 24 20	 mov	 eax, DWORD PTR ___$ReturnUdt$[esp+24]
  0013d	8d 4c 24 14	 lea	 ecx, DWORD PTR $T298238[esp+28]
  00141	8b 11		 mov	 edx, DWORD PTR [ecx]
  00143	8b 49 04	 mov	 ecx, DWORD PTR [ecx+4]
  00146	5e		 pop	 esi
  00147	5d		 pop	 ebp
  00148	89 10		 mov	 DWORD PTR [eax], edx
  0014a	89 48 04	 mov	 DWORD PTR [eax+4], ecx
  0014d	5b		 pop	 ebx

; 562  : 		}

  0014e	83 c4 10	 add	 esp, 16			; 00000010H
  00151	c2 08 00	 ret	 8
$LN7@lower_boun:

; 559  : 				return (this->comp(_Keyval,
; 560  : 					this->_Kfn(*_Where)) ? end() : _Where);

  00154	8b 44 24 24	 mov	 eax, DWORD PTR ___$ReturnUdt$[esp+28]
  00158	5f		 pop	 edi
  00159	8d 4c 24 0c	 lea	 ecx, DWORD PTR __Where$[esp+28]
  0015d	8b 11		 mov	 edx, DWORD PTR [ecx]
  0015f	8b 49 04	 mov	 ecx, DWORD PTR [ecx+4]
  00162	5e		 pop	 esi
  00163	5d		 pop	 ebp
  00164	89 10		 mov	 DWORD PTR [eax], edx
  00166	89 48 04	 mov	 DWORD PTR [eax+4], ecx
  00169	5b		 pop	 ebx

; 562  : 		}

  0016a	83 c4 10	 add	 esp, 16			; 00000010H
  0016d	c2 08 00	 ret	 8
$LN2@lower_boun:

; 561  : 		return (end());

  00170	8b 4c 24 28	 mov	 ecx, DWORD PTR tv356[esp+28]
  00174	8b 44 24 24	 mov	 eax, DWORD PTR ___$ReturnUdt$[esp+28]
  00178	8b 51 04	 mov	 edx, DWORD PTR [ecx+4]
  0017b	89 7c 24 14	 mov	 DWORD PTR __Where$[esp+36], edi
  0017f	5f		 pop	 edi
  00180	5e		 pop	 esi
  00181	5d		 pop	 ebp
  00182	89 50 04	 mov	 DWORD PTR [eax+4], edx
  00185	89 08		 mov	 DWORD PTR [eax], ecx
  00187	5b		 pop	 ebx

; 562  : 		}

  00188	83 c4 10	 add	 esp, 16			; 00000010H
  0018b	c2 08 00	 ret	 8
?lower_bound@?$_Hash@V?$_Hmap_traits@VCGUID@@PAVCBaseObject@@Vhash_guid_compare@@V?$allocator@U?$pair@$$CBVCGUID@@PAVCBaseObject@@@std@@@std@@$0A@@stdext@@@stdext@@QAE?AV?$_Iterator@$00@?$list@U?$pair@$$CBVCGUID@@PAVCBaseObject@@@std@@V?$allocator@U?$pair@$$CBVCGUID@@PAVCBaseObject@@@std@@@2@@std@@ABVCGUID@@@Z ENDP ; stdext::_Hash<stdext::_Hmap_traits<CGUID,CBaseObject *,hash_guid_compare,std::allocator<std::pair<CGUID const ,CBaseObject *> >,0> >::lower_bound
_TEXT	ENDS
PUBLIC	?equal_range@?$_Hash@V?$_Hmap_traits@VCGUID@@PAVCBaseObject@@Vhash_guid_compare@@V?$allocator@U?$pair@$$CBVCGUID@@PAVCBaseObject@@@std@@@std@@$0A@@stdext@@@stdext@@QAE?AU?$pair@V?$_Iterator@$00@?$list@U?$pair@$$CBVCGUID@@PAVCBaseObject@@@std@@V?$allocator@U?$pair@$$CBVCGUID@@PAVCBaseObject@@@std@@@2@@std@@V123@@std@@ABVCGUID@@@Z ; stdext::_Hash<stdext::_Hmap_traits<CGUID,CBaseObject *,hash_guid_compare,std::allocator<std::pair<CGUID const ,CBaseObject *> >,0> >::equal_range
; Function compile flags: /Ogtpy
;	COMDAT ?equal_range@?$_Hash@V?$_Hmap_traits@VCGUID@@PAVCBaseObject@@Vhash_guid_compare@@V?$allocator@U?$pair@$$CBVCGUID@@PAVCBaseObject@@@std@@@std@@$0A@@stdext@@@stdext@@QAE?AU?$pair@V?$_Iterator@$00@?$list@U?$pair@$$CBVCGUID@@PAVCBaseObject@@@std@@V?$allocator@U?$pair@$$CBVCGUID@@PAVCBaseObject@@@std@@@2@@std@@V123@@std@@ABVCGUID@@@Z
_TEXT	SEGMENT
tv665 = -20						; size = 4
__Where$ = -16						; size = 8
__First$ = -8						; size = 8
___$ReturnUdt$ = 8					; size = 4
tv452 = 12						; size = 4
__Keyval$ = 12						; size = 4
?equal_range@?$_Hash@V?$_Hmap_traits@VCGUID@@PAVCBaseObject@@Vhash_guid_compare@@V?$allocator@U?$pair@$$CBVCGUID@@PAVCBaseObject@@@std@@@std@@$0A@@stdext@@@stdext@@QAE?AU?$pair@V?$_Iterator@$00@?$list@U?$pair@$$CBVCGUID@@PAVCBaseObject@@@std@@V?$allocator@U?$pair@$$CBVCGUID@@PAVCBaseObject@@@std@@@2@@std@@V123@@std@@ABVCGUID@@@Z PROC ; stdext::_Hash<stdext::_Hmap_traits<CGUID,CBaseObject *,hash_guid_compare,std::allocator<std::pair<CGUID const ,CBaseObject *> >,0> >::equal_range, COMDAT
; _this$ = ecx

; 598  : 		{	// find range equivalent to _Keyval in mutable hash table

  00000	83 ec 14	 sub	 esp, 20			; 00000014H
  00003	53		 push	 ebx

; 599  : 		size_type _Bucket = _Hashval(_Keyval);

  00004	8b 5c 24 20	 mov	 ebx, DWORD PTR __Keyval$[esp+20]
  00008	55		 push	 ebp
  00009	56		 push	 esi
  0000a	57		 push	 edi
  0000b	8b 7b 04	 mov	 edi, DWORD PTR [ebx+4]
  0000e	03 7b 08	 add	 edi, DWORD PTR [ebx+8]
  00011	8b e9		 mov	 ebp, ecx
  00013	03 3b		 add	 edi, DWORD PTR [ebx]
  00015	8b 45 20	 mov	 eax, DWORD PTR [ebp+32]
  00018	03 7b 0c	 add	 edi, DWORD PTR [ebx+12]
  0001b	23 f8		 and	 edi, eax
  0001d	39 7d 24	 cmp	 DWORD PTR [ebp+36], edi
  00020	77 09		 ja	 SHORT $LN12@equal_rang
  00022	d1 e8		 shr	 eax, 1
  00024	83 c9 ff	 or	 ecx, -1
  00027	2b c8		 sub	 ecx, eax
  00029	03 f9		 add	 edi, ecx
$LN12@equal_rang:

; 600  : 		iterator _First, _Where;
; 601  : 		for (_Where = _Get_iter_from_vec(_Vec[_Bucket]); _Vec[_Bucket + 1] != _Where; ++_Where)

  0002b	8b 4d 14	 mov	 ecx, DWORD PTR [ebp+20]
  0002e	85 c9		 test	 ecx, ecx
  00030	74 0c		 je	 SHORT $LN205@equal_rang
  00032	8b 45 18	 mov	 eax, DWORD PTR [ebp+24]
  00035	2b c1		 sub	 eax, ecx
  00037	c1 f8 03	 sar	 eax, 3
  0003a	3b f8		 cmp	 edi, eax
  0003c	72 05		 jb	 SHORT $LN33@equal_rang
$LN205@equal_rang:
  0003e	e8 00 00 00 00	 call	 __invalid_parameter_noinfo
$LN33@equal_rang:
  00043	8b 55 14	 mov	 edx, DWORD PTR [ebp+20]
  00046	8b 74 fa 04	 mov	 esi, DWORD PTR [edx+edi*8+4]
  0004a	8d 45 04	 lea	 eax, DWORD PTR [ebp+4]
  0004d	85 c0		 test	 eax, eax
  0004f	89 44 24 2c	 mov	 DWORD PTR tv452[esp+32], eax
  00053	75 05		 jne	 SHORT $LN48@equal_rang
  00055	e8 00 00 00 00	 call	 __invalid_parameter_noinfo
$LN48@equal_rang:
  0005a	8b 44 24 2c	 mov	 eax, DWORD PTR tv452[esp+32]
  0005e	83 c7 01	 add	 edi, 1
  00061	89 44 24 14	 mov	 DWORD PTR __Where$[esp+36], eax

; 608  : 					break;
; 609  : 				return (_Pairii(_First, _Where));

  00065	89 7c 24 10	 mov	 DWORD PTR tv665[esp+36], edi
  00069	8d a4 24 00 00
	00 00		 npad	 7
$LL62@equal_rang:
  00070	8b 4d 14	 mov	 ecx, DWORD PTR [ebp+20]
  00073	85 c9		 test	 ecx, ecx
  00075	74 0c		 je	 SHORT $LN206@equal_rang
  00077	8b 45 18	 mov	 eax, DWORD PTR [ebp+24]
  0007a	2b c1		 sub	 eax, ecx
  0007c	c1 f8 03	 sar	 eax, 3
  0007f	3b f8		 cmp	 edi, eax
  00081	72 05		 jb	 SHORT $LN66@equal_rang
$LN206@equal_rang:

; 600  : 		iterator _First, _Where;
; 601  : 		for (_Where = _Get_iter_from_vec(_Vec[_Bucket]); _Vec[_Bucket + 1] != _Where; ++_Where)

  00083	e8 00 00 00 00	 call	 __invalid_parameter_noinfo
$LN66@equal_rang:
  00088	8b 4d 14	 mov	 ecx, DWORD PTR [ebp+20]
  0008b	39 74 f9 04	 cmp	 DWORD PTR [ecx+edi*8+4], esi
  0008f	0f 84 05 01 00
	00		 je	 $LN7@equal_rang

; 602  : 			if (!this->comp(this->_Kfn(*_Where), _Keyval))

  00095	83 7c 24 14 00	 cmp	 DWORD PTR __Where$[esp+36], 0
  0009a	75 05		 jne	 SHORT $LN85@equal_rang
  0009c	e8 00 00 00 00	 call	 __invalid_parameter_noinfo
$LN85@equal_rang:
  000a1	8b 54 24 14	 mov	 edx, DWORD PTR __Where$[esp+36]
  000a5	3b 72 04	 cmp	 esi, DWORD PTR [edx+4]
  000a8	75 05		 jne	 SHORT $LN83@equal_rang
  000aa	e8 00 00 00 00	 call	 __invalid_parameter_noinfo
$LN83@equal_rang:
  000af	8b 46 08	 mov	 eax, DWORD PTR [esi+8]
  000b2	8b 0b		 mov	 ecx, DWORD PTR [ebx]
  000b4	3b c1		 cmp	 eax, ecx
  000b6	72 22		 jb	 SHORT $LN207@equal_rang
  000b8	75 32		 jne	 SHORT $LN98@equal_rang
  000ba	8b 46 0c	 mov	 eax, DWORD PTR [esi+12]
  000bd	8b 4b 04	 mov	 ecx, DWORD PTR [ebx+4]
  000c0	3b c1		 cmp	 eax, ecx
  000c2	72 16		 jb	 SHORT $LN207@equal_rang
  000c4	75 26		 jne	 SHORT $LN98@equal_rang
  000c6	8b 46 10	 mov	 eax, DWORD PTR [esi+16]
  000c9	8b 4b 08	 mov	 ecx, DWORD PTR [ebx+8]
  000cc	3b c1		 cmp	 eax, ecx
  000ce	72 0a		 jb	 SHORT $LN207@equal_rang
  000d0	75 1a		 jne	 SHORT $LN98@equal_rang
  000d2	8b 46 14	 mov	 eax, DWORD PTR [esi+20]
  000d5	3b 43 0c	 cmp	 eax, DWORD PTR [ebx+12]
  000d8	73 12		 jae	 SHORT $LN98@equal_rang
$LN207@equal_rang:

; 600  : 		iterator _First, _Where;
; 601  : 		for (_Where = _Get_iter_from_vec(_Vec[_Bucket]); _Vec[_Bucket + 1] != _Where; ++_Where)

  000da	8b 4c 24 14	 mov	 ecx, DWORD PTR __Where$[esp+36]
  000de	3b 71 04	 cmp	 esi, DWORD PTR [ecx+4]
  000e1	75 05		 jne	 SHORT $LN58@equal_rang
  000e3	e8 00 00 00 00	 call	 __invalid_parameter_noinfo
$LN58@equal_rang:
  000e8	8b 36		 mov	 esi, DWORD PTR [esi]
  000ea	eb 84		 jmp	 SHORT $LL62@equal_rang

; 602  : 			if (!this->comp(this->_Kfn(*_Where), _Keyval))

$LN98@equal_rang:

; 603  : 				{	// found _First, look for end of range
; 604  : 				for (_First = _Where; _Vec[_Bucket + 1] != _Where; ++_Where)

  000ec	8b 7c 24 14	 mov	 edi, DWORD PTR __Where$[esp+36]
  000f0	89 74 24 20	 mov	 DWORD PTR __First$[esp+40], esi
$LL116@equal_rang:
  000f4	8b 4d 14	 mov	 ecx, DWORD PTR [ebp+20]
  000f7	85 c9		 test	 ecx, ecx
  000f9	74 0e		 je	 SHORT $LN209@equal_rang
  000fb	8b 45 18	 mov	 eax, DWORD PTR [ebp+24]
  000fe	2b c1		 sub	 eax, ecx
  00100	c1 f8 03	 sar	 eax, 3
  00103	39 44 24 10	 cmp	 DWORD PTR tv665[esp+36], eax
  00107	72 05		 jb	 SHORT $LN120@equal_rang
$LN209@equal_rang:
  00109	e8 00 00 00 00	 call	 __invalid_parameter_noinfo
$LN120@equal_rang:
  0010e	8b 55 14	 mov	 edx, DWORD PTR [ebp+20]
  00111	8b 44 24 10	 mov	 eax, DWORD PTR tv665[esp+36]
  00115	39 74 c2 04	 cmp	 DWORD PTR [edx+eax*8+4], esi
  00119	74 4b		 je	 SHORT $LN215@equal_rang

; 605  : 					if (this->comp(_Keyval, this->_Kfn(*_Where)))

  0011b	8b 4c 24 14	 mov	 ecx, DWORD PTR __Where$[esp+36]
  0011f	3b 71 04	 cmp	 esi, DWORD PTR [ecx+4]
  00122	75 05		 jne	 SHORT $LN137@equal_rang
  00124	e8 00 00 00 00	 call	 __invalid_parameter_noinfo
$LN137@equal_rang:
  00129	8b 03		 mov	 eax, DWORD PTR [ebx]
  0012b	8b 4e 08	 mov	 ecx, DWORD PTR [esi+8]
  0012e	3b c1		 cmp	 eax, ecx
  00130	72 34		 jb	 SHORT $LN215@equal_rang
  00132	75 20		 jne	 SHORT $LN152@equal_rang
  00134	8b 43 04	 mov	 eax, DWORD PTR [ebx+4]
  00137	8b 4e 0c	 mov	 ecx, DWORD PTR [esi+12]
  0013a	3b c1		 cmp	 eax, ecx
  0013c	72 28		 jb	 SHORT $LN215@equal_rang
  0013e	75 14		 jne	 SHORT $LN152@equal_rang
  00140	8b 43 08	 mov	 eax, DWORD PTR [ebx+8]
  00143	8b 4e 10	 mov	 ecx, DWORD PTR [esi+16]
  00146	3b c1		 cmp	 eax, ecx
  00148	72 1c		 jb	 SHORT $LN215@equal_rang
  0014a	75 08		 jne	 SHORT $LN152@equal_rang
  0014c	8b 53 0c	 mov	 edx, DWORD PTR [ebx+12]
  0014f	3b 56 14	 cmp	 edx, DWORD PTR [esi+20]
  00152	72 12		 jb	 SHORT $LN215@equal_rang
$LN152@equal_rang:
  00154	8b 44 24 14	 mov	 eax, DWORD PTR __Where$[esp+36]
  00158	3b 70 04	 cmp	 esi, DWORD PTR [eax+4]
  0015b	75 05		 jne	 SHORT $LN112@equal_rang

; 603  : 				{	// found _First, look for end of range
; 604  : 				for (_First = _Where; _Vec[_Bucket + 1] != _Where; ++_Where)

  0015d	e8 00 00 00 00	 call	 __invalid_parameter_noinfo
$LN112@equal_rang:
  00162	8b 36		 mov	 esi, DWORD PTR [esi]
  00164	eb 8e		 jmp	 SHORT $LL116@equal_rang
$LN215@equal_rang:

; 606  : 						break;
; 607  : 				if (_First == _Where)

  00166	85 ff		 test	 edi, edi
  00168	74 06		 je	 SHORT $LN164@equal_rang
  0016a	3b 7c 24 14	 cmp	 edi, DWORD PTR __Where$[esp+36]
  0016e	74 05		 je	 SHORT $LN165@equal_rang
$LN164@equal_rang:
  00170	e8 00 00 00 00	 call	 __invalid_parameter_noinfo
$LN165@equal_rang:
  00175	8b 4c 24 20	 mov	 ecx, DWORD PTR __First$[esp+40]
  00179	3b ce		 cmp	 ecx, esi
  0017b	74 1d		 je	 SHORT $LN7@equal_rang

; 608  : 					break;
; 609  : 				return (_Pairii(_First, _Where));

  0017d	8b 44 24 28	 mov	 eax, DWORD PTR ___$ReturnUdt$[esp+32]
  00181	89 38		 mov	 DWORD PTR [eax], edi
  00183	5f		 pop	 edi
  00184	89 70 0c	 mov	 DWORD PTR [eax+12], esi
  00187	5e		 pop	 esi
  00188	89 48 04	 mov	 DWORD PTR [eax+4], ecx
  0018b	8b 4c 24 0c	 mov	 ecx, DWORD PTR __Where$[esp+28]
  0018f	5d		 pop	 ebp
  00190	89 48 08	 mov	 DWORD PTR [eax+8], ecx
  00193	5b		 pop	 ebx

; 612  : 		}

  00194	83 c4 14	 add	 esp, 20			; 00000014H
  00197	c2 08 00	 ret	 8
$LN7@equal_rang:

; 610  : 				}
; 611  : 		return (_Pairii(end(), end()));

  0019a	8b 44 24 2c	 mov	 eax, DWORD PTR tv452[esp+32]
  0019e	8b 48 04	 mov	 ecx, DWORD PTR [eax+4]
  001a1	8b 44 24 28	 mov	 eax, DWORD PTR ___$ReturnUdt$[esp+32]
  001a5	8b 74 24 2c	 mov	 esi, DWORD PTR tv452[esp+32]
  001a9	5f		 pop	 edi
  001aa	89 30		 mov	 DWORD PTR [eax], esi
  001ac	89 70 08	 mov	 DWORD PTR [eax+8], esi
  001af	5e		 pop	 esi
  001b0	8b d1		 mov	 edx, ecx
  001b2	5d		 pop	 ebp
  001b3	89 50 04	 mov	 DWORD PTR [eax+4], edx
  001b6	89 48 0c	 mov	 DWORD PTR [eax+12], ecx
  001b9	5b		 pop	 ebx

; 612  : 		}

  001ba	83 c4 14	 add	 esp, 20			; 00000014H
  001bd	c2 08 00	 ret	 8
?equal_range@?$_Hash@V?$_Hmap_traits@VCGUID@@PAVCBaseObject@@Vhash_guid_compare@@V?$allocator@U?$pair@$$CBVCGUID@@PAVCBaseObject@@@std@@@std@@$0A@@stdext@@@stdext@@QAE?AU?$pair@V?$_Iterator@$00@?$list@U?$pair@$$CBVCGUID@@PAVCBaseObject@@@std@@V?$allocator@U?$pair@$$CBVCGUID@@PAVCBaseObject@@@std@@@2@@std@@V123@@std@@ABVCGUID@@@Z ENDP ; stdext::_Hash<stdext::_Hmap_traits<CGUID,CBaseObject *,hash_guid_compare,std::allocator<std::pair<CGUID const ,CBaseObject *> >,0> >::equal_range
_TEXT	ENDS
PUBLIC	?begin@?$_Hash@V?$_Hmap_traits@VCGUID@@PAVCBaseObject@@Vhash_guid_compare@@V?$allocator@U?$pair@$$CBVCGUID@@PAVCBaseObject@@@std@@@std@@$0A@@stdext@@@stdext@@QAE?AV?$_Iterator@$00@?$list@U?$pair@$$CBVCGUID@@PAVCBaseObject@@@std@@V?$allocator@U?$pair@$$CBVCGUID@@PAVCBaseObject@@@std@@@2@@std@@XZ ; stdext::_Hash<stdext::_Hmap_traits<CGUID,CBaseObject *,hash_guid_compare,std::allocator<std::pair<CGUID const ,CBaseObject *> >,0> >::begin
; Function compile flags: /Ogtpy
;	COMDAT ?begin@?$_Hash@V?$_Hmap_traits@VCGUID@@PAVCBaseObject@@Vhash_guid_compare@@V?$allocator@U?$pair@$$CBVCGUID@@PAVCBaseObject@@@std@@@std@@$0A@@stdext@@@stdext@@QAE?AV?$_Iterator@$00@?$list@U?$pair@$$CBVCGUID@@PAVCBaseObject@@@std@@V?$allocator@U?$pair@$$CBVCGUID@@PAVCBaseObject@@@std@@@2@@std@@XZ
_TEXT	SEGMENT
___$ReturnUdt$ = 8					; size = 4
?begin@?$_Hash@V?$_Hmap_traits@VCGUID@@PAVCBaseObject@@Vhash_guid_compare@@V?$allocator@U?$pair@$$CBVCGUID@@PAVCBaseObject@@@std@@@std@@$0A@@stdext@@@stdext@@QAE?AV?$_Iterator@$00@?$list@U?$pair@$$CBVCGUID@@PAVCBaseObject@@@std@@V?$allocator@U?$pair@$$CBVCGUID@@PAVCBaseObject@@@std@@@2@@std@@XZ PROC ; stdext::_Hash<stdext::_Hmap_traits<CGUID,CBaseObject *,hash_guid_compare,std::allocator<std::pair<CGUID const ,CBaseObject *> >,0> >::begin, COMDAT
; _this$ = ecx

; 305  : 		return (_List.begin());

  00000	8b 41 08	 mov	 eax, DWORD PTR [ecx+8]
  00003	8b 10		 mov	 edx, DWORD PTR [eax]
  00005	8b 44 24 04	 mov	 eax, DWORD PTR ___$ReturnUdt$[esp-4]
  00009	83 c1 04	 add	 ecx, 4
  0000c	89 50 04	 mov	 DWORD PTR [eax+4], edx
  0000f	89 08		 mov	 DWORD PTR [eax], ecx

; 306  : 		}

  00011	c2 04 00	 ret	 4
?begin@?$_Hash@V?$_Hmap_traits@VCGUID@@PAVCBaseObject@@Vhash_guid_compare@@V?$allocator@U?$pair@$$CBVCGUID@@PAVCBaseObject@@@std@@@std@@$0A@@stdext@@@stdext@@QAE?AV?$_Iterator@$00@?$list@U?$pair@$$CBVCGUID@@PAVCBaseObject@@@std@@V?$allocator@U?$pair@$$CBVCGUID@@PAVCBaseObject@@@std@@@2@@std@@XZ ENDP ; stdext::_Hash<stdext::_Hmap_traits<CGUID,CBaseObject *,hash_guid_compare,std::allocator<std::pair<CGUID const ,CBaseObject *> >,0> >::begin
_TEXT	ENDS
PUBLIC	?begin@?$vector@U_List_position@?$_Hash@V?$_Hmap_traits@VCGUID@@PAVCBaseObject@@Vhash_guid_compare@@V?$allocator@U?$pair@$$CBVCGUID@@PAVCBaseObject@@@std@@@std@@$0A@@stdext@@@stdext@@V?$allocator@U_List_position@?$_Hash@V?$_Hmap_traits@VCGUID@@PAVCBaseObject@@Vhash_guid_compare@@V?$allocator@U?$pair@$$CBVCGUID@@PAVCBaseObject@@@std@@@std@@$0A@@stdext@@@stdext@@@std@@@std@@QAE?AV?$_Vector_iterator@U_List_position@?$_Hash@V?$_Hmap_traits@VCGUID@@PAVCBaseObject@@Vhash_guid_compare@@V?$allocator@U?$pair@$$CBVCGUID@@PAVCBaseObject@@@std@@@std@@$0A@@stdext@@@stdext@@V?$allocator@U_List_position@?$_Hash@V?$_Hmap_traits@VCGUID@@PAVCBaseObject@@Vhash_guid_compare@@V?$allocator@U?$pair@$$CBVCGUID@@PAVCBaseObject@@@std@@@std@@$0A@@stdext@@@stdext@@@std@@@2@XZ ; std::vector<stdext::_Hash<stdext::_Hmap_traits<CGUID,CBaseObject *,hash_guid_compare,std::allocator<std::pair<CGUID const ,CBaseObject *> >,0> >::_List_position,std::allocator<stdext::_Hash<stdext::_Hmap_traits<CGUID,CBaseObject *,hash_guid_compare,std::allocator<std::pair<CGUID const ,CBaseObject *> >,0> >::_List_position> >::begin
; Function compile flags: /Ogtpy
; File d:\program files\microsoft visual studio 8\vc\include\vector
;	COMDAT ?begin@?$vector@U_List_position@?$_Hash@V?$_Hmap_traits@VCGUID@@PAVCBaseObject@@Vhash_guid_compare@@V?$allocator@U?$pair@$$CBVCGUID@@PAVCBaseObject@@@std@@@std@@$0A@@stdext@@@stdext@@V?$allocator@U_List_position@?$_Hash@V?$_Hmap_traits@VCGUID@@PAVCBaseObject@@Vhash_guid_compare@@V?$allocator@U?$pair@$$CBVCGUID@@PAVCBaseObject@@@std@@@std@@$0A@@stdext@@@stdext@@@std@@@std@@QAE?AV?$_Vector_iterator@U_List_position@?$_Hash@V?$_Hmap_traits@VCGUID@@PAVCBaseObject@@Vhash_guid_compare@@V?$allocator@U?$pair@$$CBVCGUID@@PAVCBaseObject@@@std@@@std@@$0A@@stdext@@@stdext@@V?$allocator@U_List_position@?$_Hash@V?$_Hmap_traits@VCGUID@@PAVCBaseObject@@Vhash_guid_compare@@V?$allocator@U?$pair@$$CBVCGUID@@PAVCBaseObject@@@std@@@std@@$0A@@stdext@@@stdext@@@std@@@2@XZ
_TEXT	SEGMENT
___$ReturnUdt$ = 8					; size = 4
?begin@?$vector@U_List_position@?$_Hash@V?$_Hmap_traits@VCGUID@@PAVCBaseObject@@Vhash_guid_compare@@V?$allocator@U?$pair@$$CBVCGUID@@PAVCBaseObject@@@std@@@std@@$0A@@stdext@@@stdext@@V?$allocator@U_List_position@?$_Hash@V?$_Hmap_traits@VCGUID@@PAVCBaseObject@@Vhash_guid_compare@@V?$allocator@U?$pair@$$CBVCGUID@@PAVCBaseObject@@@std@@@std@@$0A@@stdext@@@stdext@@@std@@@std@@QAE?AV?$_Vector_iterator@U_List_position@?$_Hash@V?$_Hmap_traits@VCGUID@@PAVCBaseObject@@Vhash_guid_compare@@V?$allocator@U?$pair@$$CBVCGUID@@PAVCBaseObject@@@std@@@std@@$0A@@stdext@@@stdext@@V?$allocator@U_List_position@?$_Hash@V?$_Hmap_traits@VCGUID@@PAVCBaseObject@@Vhash_guid_compare@@V?$allocator@U?$pair@$$CBVCGUID@@PAVCBaseObject@@@std@@@std@@$0A@@stdext@@@stdext@@@std@@@2@XZ PROC ; std::vector<stdext::_Hash<stdext::_Hmap_traits<CGUID,CBaseObject *,hash_guid_compare,std::allocator<std::pair<CGUID const ,CBaseObject *> >,0> >::_List_position,std::allocator<stdext::_Hash<stdext::_Hmap_traits<CGUID,CBaseObject *,hash_guid_compare,std::allocator<std::pair<CGUID const ,CBaseObject *> >,0> >::_List_position> >::begin, COMDAT
; _this$ = ecx

; 627  : 		{	// return iterator for beginning of mutable sequence

  00000	53		 push	 ebx
  00001	56		 push	 esi
  00002	8b f1		 mov	 esi, ecx

; 628  : 		return (iterator(_Myfirst, this));

  00004	8b 5e 04	 mov	 ebx, DWORD PTR [esi+4]
  00007	3b 5e 08	 cmp	 ebx, DWORD PTR [esi+8]
  0000a	57		 push	 edi
  0000b	8b 7c 24 10	 mov	 edi, DWORD PTR ___$ReturnUdt$[esp+8]
  0000f	c7 07 00 00 00
	00		 mov	 DWORD PTR [edi], 0
  00015	76 05		 jbe	 SHORT $LN6@begin
  00017	e8 00 00 00 00	 call	 __invalid_parameter_noinfo
$LN6@begin:
  0001c	89 37		 mov	 DWORD PTR [edi], esi
  0001e	89 5f 04	 mov	 DWORD PTR [edi+4], ebx
  00021	8b c7		 mov	 eax, edi
  00023	5f		 pop	 edi
  00024	5e		 pop	 esi
  00025	5b		 pop	 ebx

; 629  : 		}

  00026	c2 04 00	 ret	 4
?begin@?$vector@U_List_position@?$_Hash@V?$_Hmap_traits@VCGUID@@PAVCBaseObject@@Vhash_guid_compare@@V?$allocator@U?$pair@$$CBVCGUID@@PAVCBaseObject@@@std@@@std@@$0A@@stdext@@@stdext@@V?$allocator@U_List_position@?$_Hash@V?$_Hmap_traits@VCGUID@@PAVCBaseObject@@Vhash_guid_compare@@V?$allocator@U?$pair@$$CBVCGUID@@PAVCBaseObject@@@std@@@std@@$0A@@stdext@@@stdext@@@std@@@std@@QAE?AV?$_Vector_iterator@U_List_position@?$_Hash@V?$_Hmap_traits@VCGUID@@PAVCBaseObject@@Vhash_guid_compare@@V?$allocator@U?$pair@$$CBVCGUID@@PAVCBaseObject@@@std@@@std@@$0A@@stdext@@@stdext@@V?$allocator@U_List_position@?$_Hash@V?$_Hmap_traits@VCGUID@@PAVCBaseObject@@Vhash_guid_compare@@V?$allocator@U?$pair@$$CBVCGUID@@PAVCBaseObject@@@std@@@std@@$0A@@stdext@@@stdext@@@std@@@2@XZ ENDP ; std::vector<stdext::_Hash<stdext::_Hmap_traits<CGUID,CBaseObject *,hash_guid_compare,std::allocator<std::pair<CGUID const ,CBaseObject *> >,0> >::_List_position,std::allocator<stdext::_Hash<stdext::_Hmap_traits<CGUID,CBaseObject *,hash_guid_compare,std::allocator<std::pair<CGUID const ,CBaseObject *> >,0> >::_List_position> >::begin
_TEXT	ENDS
PUBLIC	?end@?$vector@U_List_position@?$_Hash@V?$_Hmap_traits@VCGUID@@PAVCBaseObject@@Vhash_guid_compare@@V?$allocator@U?$pair@$$CBVCGUID@@PAVCBaseObject@@@std@@@std@@$0A@@stdext@@@stdext@@V?$allocator@U_List_position@?$_Hash@V?$_Hmap_traits@VCGUID@@PAVCBaseObject@@Vhash_guid_compare@@V?$allocator@U?$pair@$$CBVCGUID@@PAVCBaseObject@@@std@@@std@@$0A@@stdext@@@stdext@@@std@@@std@@QAE?AV?$_Vector_iterator@U_List_position@?$_Hash@V?$_Hmap_traits@VCGUID@@PAVCBaseObject@@Vhash_guid_compare@@V?$allocator@U?$pair@$$CBVCGUID@@PAVCBaseObject@@@std@@@std@@$0A@@stdext@@@stdext@@V?$allocator@U_List_position@?$_Hash@V?$_Hmap_traits@VCGUID@@PAVCBaseObject@@Vhash_guid_compare@@V?$allocator@U?$pair@$$CBVCGUID@@PAVCBaseObject@@@std@@@std@@$0A@@stdext@@@stdext@@@std@@@2@XZ ; std::vector<stdext::_Hash<stdext::_Hmap_traits<CGUID,CBaseObject *,hash_guid_compare,std::allocator<std::pair<CGUID const ,CBaseObject *> >,0> >::_List_position,std::allocator<stdext::_Hash<stdext::_Hmap_traits<CGUID,CBaseObject *,hash_guid_compare,std::allocator<std::pair<CGUID const ,CBaseObject *> >,0> >::_List_position> >::end
; Function compile flags: /Ogtpy
;	COMDAT ?end@?$vector@U_List_position@?$_Hash@V?$_Hmap_traits@VCGUID@@PAVCBaseObject@@Vhash_guid_compare@@V?$allocator@U?$pair@$$CBVCGUID@@PAVCBaseObject@@@std@@@std@@$0A@@stdext@@@stdext@@V?$allocator@U_List_position@?$_Hash@V?$_Hmap_traits@VCGUID@@PAVCBaseObject@@Vhash_guid_compare@@V?$allocator@U?$pair@$$CBVCGUID@@PAVCBaseObject@@@std@@@std@@$0A@@stdext@@@stdext@@@std@@@std@@QAE?AV?$_Vector_iterator@U_List_position@?$_Hash@V?$_Hmap_traits@VCGUID@@PAVCBaseObject@@Vhash_guid_compare@@V?$allocator@U?$pair@$$CBVCGUID@@PAVCBaseObject@@@std@@@std@@$0A@@stdext@@@stdext@@V?$allocator@U_List_position@?$_Hash@V?$_Hmap_traits@VCGUID@@PAVCBaseObject@@Vhash_guid_compare@@V?$allocator@U?$pair@$$CBVCGUID@@PAVCBaseObject@@@std@@@std@@$0A@@stdext@@@stdext@@@std@@@2@XZ
_TEXT	SEGMENT
___$ReturnUdt$ = 8					; size = 4
?end@?$vector@U_List_position@?$_Hash@V?$_Hmap_traits@VCGUID@@PAVCBaseObject@@Vhash_guid_compare@@V?$allocator@U?$pair@$$CBVCGUID@@PAVCBaseObject@@@std@@@std@@$0A@@stdext@@@stdext@@V?$allocator@U_List_position@?$_Hash@V?$_Hmap_traits@VCGUID@@PAVCBaseObject@@Vhash_guid_compare@@V?$allocator@U?$pair@$$CBVCGUID@@PAVCBaseObject@@@std@@@std@@$0A@@stdext@@@stdext@@@std@@@std@@QAE?AV?$_Vector_iterator@U_List_position@?$_Hash@V?$_Hmap_traits@VCGUID@@PAVCBaseObject@@Vhash_guid_compare@@V?$allocator@U?$pair@$$CBVCGUID@@PAVCBaseObject@@@std@@@std@@$0A@@stdext@@@stdext@@V?$allocator@U_List_position@?$_Hash@V?$_Hmap_traits@VCGUID@@PAVCBaseObject@@Vhash_guid_compare@@V?$allocator@U?$pair@$$CBVCGUID@@PAVCBaseObject@@@std@@@std@@$0A@@stdext@@@stdext@@@std@@@2@XZ PROC ; std::vector<stdext::_Hash<stdext::_Hmap_traits<CGUID,CBaseObject *,hash_guid_compare,std::allocator<std::pair<CGUID const ,CBaseObject *> >,0> >::_List_position,std::allocator<stdext::_Hash<stdext::_Hmap_traits<CGUID,CBaseObject *,hash_guid_compare,std::allocator<std::pair<CGUID const ,CBaseObject *> >,0> >::_List_position> >::end, COMDAT
; _this$ = ecx

; 637  : 		{	// return iterator for end of mutable sequence

  00000	53		 push	 ebx
  00001	56		 push	 esi
  00002	8b f1		 mov	 esi, ecx

; 638  : 		return (iterator(_Mylast, this));

  00004	8b 5e 08	 mov	 ebx, DWORD PTR [esi+8]
  00007	39 5e 04	 cmp	 DWORD PTR [esi+4], ebx
  0000a	57		 push	 edi
  0000b	8b 7c 24 10	 mov	 edi, DWORD PTR ___$ReturnUdt$[esp+8]
  0000f	c7 07 00 00 00
	00		 mov	 DWORD PTR [edi], 0
  00015	76 05		 jbe	 SHORT $LN6@end
  00017	e8 00 00 00 00	 call	 __invalid_parameter_noinfo
$LN6@end:
  0001c	89 37		 mov	 DWORD PTR [edi], esi
  0001e	89 5f 04	 mov	 DWORD PTR [edi+4], ebx
  00021	8b c7		 mov	 eax, edi
  00023	5f		 pop	 edi
  00024	5e		 pop	 esi
  00025	5b		 pop	 ebx

; 639  : 		}

  00026	c2 04 00	 ret	 4
?end@?$vector@U_List_position@?$_Hash@V?$_Hmap_traits@VCGUID@@PAVCBaseObject@@Vhash_guid_compare@@V?$allocator@U?$pair@$$CBVCGUID@@PAVCBaseObject@@@std@@@std@@$0A@@stdext@@@stdext@@V?$allocator@U_List_position@?$_Hash@V?$_Hmap_traits@VCGUID@@PAVCBaseObject@@Vhash_guid_compare@@V?$allocator@U?$pair@$$CBVCGUID@@PAVCBaseObject@@@std@@@std@@$0A@@stdext@@@stdext@@@std@@@std@@QAE?AV?$_Vector_iterator@U_List_position@?$_Hash@V?$_Hmap_traits@VCGUID@@PAVCBaseObject@@Vhash_guid_compare@@V?$allocator@U?$pair@$$CBVCGUID@@PAVCBaseObject@@@std@@@std@@$0A@@stdext@@@stdext@@V?$allocator@U_List_position@?$_Hash@V?$_Hmap_traits@VCGUID@@PAVCBaseObject@@Vhash_guid_compare@@V?$allocator@U?$pair@$$CBVCGUID@@PAVCBaseObject@@@std@@@std@@$0A@@stdext@@@stdext@@@std@@@2@XZ ENDP ; std::vector<stdext::_Hash<stdext::_Hmap_traits<CGUID,CBaseObject *,hash_guid_compare,std::allocator<std::pair<CGUID const ,CBaseObject *> >,0> >::_List_position,std::allocator<stdext::_Hash<stdext::_Hmap_traits<CGUID,CBaseObject *,hash_guid_compare,std::allocator<std::pair<CGUID const ,CBaseObject *> >,0> >::_List_position> >::end
_TEXT	ENDS
PUBLIC	?destroy@?$allocator@U_Node@?$_List_nod@U?$pair@$$CBVCGUID@@PAVCBaseObject@@@std@@V?$allocator@U?$pair@$$CBVCGUID@@PAVCBaseObject@@@std@@@2@@std@@@std@@QAEXPAU_Node@?$_List_nod@U?$pair@$$CBVCGUID@@PAVCBaseObject@@@std@@V?$allocator@U?$pair@$$CBVCGUID@@PAVCBaseObject@@@std@@@2@@2@@Z ; std::allocator<std::_List_nod<std::pair<CGUID const ,CBaseObject *>,std::allocator<std::pair<CGUID const ,CBaseObject *> > >::_Node>::destroy
; Function compile flags: /Ogtpy
; File d:\program files\microsoft visual studio 8\vc\include\xmemory
;	COMDAT ?destroy@?$allocator@U_Node@?$_List_nod@U?$pair@$$CBVCGUID@@PAVCBaseObject@@@std@@V?$allocator@U?$pair@$$CBVCGUID@@PAVCBaseObject@@@std@@@2@@std@@@std@@QAEXPAU_Node@?$_List_nod@U?$pair@$$CBVCGUID@@PAVCBaseObject@@@std@@V?$allocator@U?$pair@$$CBVCGUID@@PAVCBaseObject@@@std@@@2@@2@@Z
_TEXT	SEGMENT
__Ptr$ = 8						; size = 4
?destroy@?$allocator@U_Node@?$_List_nod@U?$pair@$$CBVCGUID@@PAVCBaseObject@@@std@@V?$allocator@U?$pair@$$CBVCGUID@@PAVCBaseObject@@@std@@@2@@std@@@std@@QAEXPAU_Node@?$_List_nod@U?$pair@$$CBVCGUID@@PAVCBaseObject@@@std@@V?$allocator@U?$pair@$$CBVCGUID@@PAVCBaseObject@@@std@@@2@@2@@Z PROC ; std::allocator<std::_List_nod<std::pair<CGUID const ,CBaseObject *>,std::allocator<std::pair<CGUID const ,CBaseObject *> > >::_Node>::destroy, COMDAT
; _this$ = ecx

; 161  : 		_Destroy(_Ptr);
; 162  : 		}

  00000	c2 04 00	 ret	 4
?destroy@?$allocator@U_Node@?$_List_nod@U?$pair@$$CBVCGUID@@PAVCBaseObject@@@std@@V?$allocator@U?$pair@$$CBVCGUID@@PAVCBaseObject@@@std@@@2@@std@@@std@@QAEXPAU_Node@?$_List_nod@U?$pair@$$CBVCGUID@@PAVCBaseObject@@@std@@V?$allocator@U?$pair@$$CBVCGUID@@PAVCBaseObject@@@std@@@2@@2@@Z ENDP ; std::allocator<std::_List_nod<std::pair<CGUID const ,CBaseObject *>,std::allocator<std::pair<CGUID const ,CBaseObject *> > >::_Node>::destroy
_TEXT	ENDS
PUBLIC	??$_Unchecked_move_backward@PAU_List_position@?$_Hash@V?$_Hmap_traits@VCGUID@@PAVCBaseObject@@Vhash_guid_compare@@V?$allocator@U?$pair@$$CBVCGUID@@PAVCBaseObject@@@std@@@std@@$0A@@stdext@@@stdext@@PAU123@@stdext@@YAPAU_List_position@?$_Hash@V?$_Hmap_traits@VCGUID@@PAVCBaseObject@@Vhash_guid_compare@@V?$allocator@U?$pair@$$CBVCGUID@@PAVCBaseObject@@@std@@@std@@$0A@@stdext@@@0@PAU120@00@Z ; stdext::_Unchecked_move_backward<stdext::_Hash<stdext::_Hmap_traits<CGUID,CBaseObject *,hash_guid_compare,std::allocator<std::pair<CGUID const ,CBaseObject *> >,0> >::_List_position *,stdext::_Hash<stdext::_Hmap_traits<CGUID,CBaseObject *,hash_guid_compare,std::allocator<std::pair<CGUID const ,CBaseObject *> >,0> >::_List_position *>
; Function compile flags: /Ogtpy
; File d:\program files\microsoft visual studio 8\vc\include\xutility
;	COMDAT ??$_Unchecked_move_backward@PAU_List_position@?$_Hash@V?$_Hmap_traits@VCGUID@@PAVCBaseObject@@Vhash_guid_compare@@V?$allocator@U?$pair@$$CBVCGUID@@PAVCBaseObject@@@std@@@std@@$0A@@stdext@@@stdext@@PAU123@@stdext@@YAPAU_List_position@?$_Hash@V?$_Hmap_traits@VCGUID@@PAVCBaseObject@@Vhash_guid_compare@@V?$allocator@U?$pair@$$CBVCGUID@@PAVCBaseObject@@@std@@@std@@$0A@@stdext@@@0@PAU120@00@Z
_TEXT	SEGMENT
__First$ = 8						; size = 4
__Last$ = 12						; size = 4
__Dest$ = 16						; size = 4
??$_Unchecked_move_backward@PAU_List_position@?$_Hash@V?$_Hmap_traits@VCGUID@@PAVCBaseObject@@Vhash_guid_compare@@V?$allocator@U?$pair@$$CBVCGUID@@PAVCBaseObject@@@std@@@std@@$0A@@stdext@@@stdext@@PAU123@@stdext@@YAPAU_List_position@?$_Hash@V?$_Hmap_traits@VCGUID@@PAVCBaseObject@@Vhash_guid_compare@@V?$allocator@U?$pair@$$CBVCGUID@@PAVCBaseObject@@@std@@@std@@$0A@@stdext@@@0@PAU120@00@Z PROC ; stdext::_Unchecked_move_backward<stdext::_Hash<stdext::_Hmap_traits<CGUID,CBaseObject *,hash_guid_compare,std::allocator<std::pair<CGUID const ,CBaseObject *> >,0> >::_List_position *,stdext::_Hash<stdext::_Hmap_traits<CGUID,CBaseObject *,hash_guid_compare,std::allocator<std::pair<CGUID const ,CBaseObject *> >,0> >::_List_position *>, COMDAT

; 3498 : 		return (_STD _Move_backward_opt(_CHECKED_BASE(_First), _CHECKED_BASE(_Last), _Dest,
; 3499 : 			_STD _Iter_random(_First, _Dest), _STD _Move_cat(_Dest), _STD _Range_checked_iterator_tag()));

  00000	8b 4c 24 08	 mov	 ecx, DWORD PTR __Last$[esp-4]
  00004	8b 54 24 0c	 mov	 edx, DWORD PTR __Dest$[esp-4]
  00008	56		 push	 esi
  00009	8b 74 24 08	 mov	 esi, DWORD PTR __First$[esp]
  0000d	8b c1		 mov	 eax, ecx
  0000f	2b c6		 sub	 eax, esi
  00011	c1 f8 03	 sar	 eax, 3
  00014	03 c0		 add	 eax, eax
  00016	03 c0		 add	 eax, eax
  00018	03 c0		 add	 eax, eax
  0001a	57		 push	 edi
  0001b	8b f8		 mov	 edi, eax
  0001d	8b c2		 mov	 eax, edx
  0001f	2b c7		 sub	 eax, edi
  00021	3b f1		 cmp	 esi, ecx
  00023	74 16		 je	 SHORT $LN25@Unchecked_
  00025	2b d1		 sub	 edx, ecx
$LL26@Unchecked_:
  00027	8b 79 f8	 mov	 edi, DWORD PTR [ecx-8]
  0002a	83 e9 08	 sub	 ecx, 8
  0002d	3b ce		 cmp	 ecx, esi
  0002f	89 3c 0a	 mov	 DWORD PTR [edx+ecx], edi
  00032	8b 79 04	 mov	 edi, DWORD PTR [ecx+4]
  00035	89 7c 0a 04	 mov	 DWORD PTR [edx+ecx+4], edi
  00039	75 ec		 jne	 SHORT $LL26@Unchecked_
$LN25@Unchecked_:
  0003b	5f		 pop	 edi
  0003c	5e		 pop	 esi

; 3500 : 	}

  0003d	c3		 ret	 0
??$_Unchecked_move_backward@PAU_List_position@?$_Hash@V?$_Hmap_traits@VCGUID@@PAVCBaseObject@@Vhash_guid_compare@@V?$allocator@U?$pair@$$CBVCGUID@@PAVCBaseObject@@@std@@@std@@$0A@@stdext@@@stdext@@PAU123@@stdext@@YAPAU_List_position@?$_Hash@V?$_Hmap_traits@VCGUID@@PAVCBaseObject@@Vhash_guid_compare@@V?$allocator@U?$pair@$$CBVCGUID@@PAVCBaseObject@@@std@@@std@@$0A@@stdext@@@0@PAU120@00@Z ENDP ; stdext::_Unchecked_move_backward<stdext::_Hash<stdext::_Hmap_traits<CGUID,CBaseObject *,hash_guid_compare,std::allocator<std::pair<CGUID const ,CBaseObject *> >,0> >::_List_position *,stdext::_Hash<stdext::_Hmap_traits<CGUID,CBaseObject *,hash_guid_compare,std::allocator<std::pair<CGUID const ,CBaseObject *> >,0> >::_List_position *>
_TEXT	ENDS
PUBLIC	??$_Destroy_range@U_List_position@?$_Hash@V?$_Hmap_traits@VCGUID@@PAVCBaseObject@@Vhash_guid_compare@@V?$allocator@U?$pair@$$CBVCGUID@@PAVCBaseObject@@@std@@@std@@$0A@@stdext@@@stdext@@V?$allocator@U_List_position@?$_Hash@V?$_Hmap_traits@VCGUID@@PAVCBaseObject@@Vhash_guid_compare@@V?$allocator@U?$pair@$$CBVCGUID@@PAVCBaseObject@@@std@@@std@@$0A@@stdext@@@stdext@@@std@@@std@@YAXPAU_List_position@?$_Hash@V?$_Hmap_traits@VCGUID@@PAVCBaseObject@@Vhash_guid_compare@@V?$allocator@U?$pair@$$CBVCGUID@@PAVCBaseObject@@@std@@@std@@$0A@@stdext@@@stdext@@0AAV?$allocator@U_List_position@?$_Hash@V?$_Hmap_traits@VCGUID@@PAVCBaseObject@@Vhash_guid_compare@@V?$allocator@U?$pair@$$CBVCGUID@@PAVCBaseObject@@@std@@@std@@$0A@@stdext@@@stdext@@@0@@Z ; std::_Destroy_range<stdext::_Hash<stdext::_Hmap_traits<CGUID,CBaseObject *,hash_guid_compare,std::allocator<std::pair<CGUID const ,CBaseObject *> >,0> >::_List_position,std::allocator<stdext::_Hash<stdext::_Hmap_traits<CGUID,CBaseObject *,hash_guid_compare,std::allocator<std::pair<CGUID const ,CBaseObject *> >,0> >::_List_position> >
; Function compile flags: /Ogtpy
; File d:\program files\microsoft visual studio 8\vc\include\xmemory
;	COMDAT ??$_Destroy_range@U_List_position@?$_Hash@V?$_Hmap_traits@VCGUID@@PAVCBaseObject@@Vhash_guid_compare@@V?$allocator@U?$pair@$$CBVCGUID@@PAVCBaseObject@@@std@@@std@@$0A@@stdext@@@stdext@@V?$allocator@U_List_position@?$_Hash@V?$_Hmap_traits@VCGUID@@PAVCBaseObject@@Vhash_guid_compare@@V?$allocator@U?$pair@$$CBVCGUID@@PAVCBaseObject@@@std@@@std@@$0A@@stdext@@@stdext@@@std@@@std@@YAXPAU_List_position@?$_Hash@V?$_Hmap_traits@VCGUID@@PAVCBaseObject@@Vhash_guid_compare@@V?$allocator@U?$pair@$$CBVCGUID@@PAVCBaseObject@@@std@@@std@@$0A@@stdext@@@stdext@@0AAV?$allocator@U_List_position@?$_Hash@V?$_Hmap_traits@VCGUID@@PAVCBaseObject@@Vhash_guid_compare@@V?$allocator@U?$pair@$$CBVCGUID@@PAVCBaseObject@@@std@@@std@@$0A@@stdext@@@stdext@@@0@@Z
_TEXT	SEGMENT
__First$ = 8						; size = 4
__Last$ = 12						; size = 4
__Al$ = 16						; size = 4
??$_Destroy_range@U_List_position@?$_Hash@V?$_Hmap_traits@VCGUID@@PAVCBaseObject@@Vhash_guid_compare@@V?$allocator@U?$pair@$$CBVCGUID@@PAVCBaseObject@@@std@@@std@@$0A@@stdext@@@stdext@@V?$allocator@U_List_position@?$_Hash@V?$_Hmap_traits@VCGUID@@PAVCBaseObject@@Vhash_guid_compare@@V?$allocator@U?$pair@$$CBVCGUID@@PAVCBaseObject@@@std@@@std@@$0A@@stdext@@@stdext@@@std@@@std@@YAXPAU_List_position@?$_Hash@V?$_Hmap_traits@VCGUID@@PAVCBaseObject@@Vhash_guid_compare@@V?$allocator@U?$pair@$$CBVCGUID@@PAVCBaseObject@@@std@@@std@@$0A@@stdext@@@stdext@@0AAV?$allocator@U_List_position@?$_Hash@V?$_Hmap_traits@VCGUID@@PAVCBaseObject@@Vhash_guid_compare@@V?$allocator@U?$pair@$$CBVCGUID@@PAVCBaseObject@@@std@@@std@@$0A@@stdext@@@stdext@@@0@@Z PROC ; std::_Destroy_range<stdext::_Hash<stdext::_Hmap_traits<CGUID,CBaseObject *,hash_guid_compare,std::allocator<std::pair<CGUID const ,CBaseObject *> >,0> >::_List_position,std::allocator<stdext::_Hash<stdext::_Hmap_traits<CGUID,CBaseObject *,hash_guid_compare,std::allocator<std::pair<CGUID const ,CBaseObject *> >,0> >::_List_position> >, COMDAT

; 226  : 	_Destroy_range(_First, _Last, _Al, _Ptr_cat(_First, _Last));
; 227  : 	}

  00000	c3		 ret	 0
??$_Destroy_range@U_List_position@?$_Hash@V?$_Hmap_traits@VCGUID@@PAVCBaseObject@@Vhash_guid_compare@@V?$allocator@U?$pair@$$CBVCGUID@@PAVCBaseObject@@@std@@@std@@$0A@@stdext@@@stdext@@V?$allocator@U_List_position@?$_Hash@V?$_Hmap_traits@VCGUID@@PAVCBaseObject@@Vhash_guid_compare@@V?$allocator@U?$pair@$$CBVCGUID@@PAVCBaseObject@@@std@@@std@@$0A@@stdext@@@stdext@@@std@@@std@@YAXPAU_List_position@?$_Hash@V?$_Hmap_traits@VCGUID@@PAVCBaseObject@@Vhash_guid_compare@@V?$allocator@U?$pair@$$CBVCGUID@@PAVCBaseObject@@@std@@@std@@$0A@@stdext@@@stdext@@0AAV?$allocator@U_List_position@?$_Hash@V?$_Hmap_traits@VCGUID@@PAVCBaseObject@@Vhash_guid_compare@@V?$allocator@U?$pair@$$CBVCGUID@@PAVCBaseObject@@@std@@@std@@$0A@@stdext@@@stdext@@@0@@Z ENDP ; std::_Destroy_range<stdext::_Hash<stdext::_Hmap_traits<CGUID,CBaseObject *,hash_guid_compare,std::allocator<std::pair<CGUID const ,CBaseObject *> >,0> >::_List_position,std::allocator<stdext::_Hash<stdext::_Hmap_traits<CGUID,CBaseObject *,hash_guid_compare,std::allocator<std::pair<CGUID const ,CBaseObject *> >,0> >::_List_position> >
_TEXT	ENDS
PUBLIC	??$unchecked_uninitialized_fill_n@PAU_List_position@?$_Hash@V?$_Hmap_traits@VCGUID@@PAVCBaseObject@@Vhash_guid_compare@@V?$allocator@U?$pair@$$CBVCGUID@@PAVCBaseObject@@@std@@@std@@$0A@@stdext@@@stdext@@IU123@V?$allocator@U_List_position@?$_Hash@V?$_Hmap_traits@VCGUID@@PAVCBaseObject@@Vhash_guid_compare@@V?$allocator@U?$pair@$$CBVCGUID@@PAVCBaseObject@@@std@@@std@@$0A@@stdext@@@stdext@@@std@@@stdext@@YAXPAU_List_position@?$_Hash@V?$_Hmap_traits@VCGUID@@PAVCBaseObject@@Vhash_guid_compare@@V?$allocator@U?$pair@$$CBVCGUID@@PAVCBaseObject@@@std@@@std@@$0A@@stdext@@@0@IABU120@AAV?$allocator@U_List_position@?$_Hash@V?$_Hmap_traits@VCGUID@@PAVCBaseObject@@Vhash_guid_compare@@V?$allocator@U?$pair@$$CBVCGUID@@PAVCBaseObject@@@std@@@std@@$0A@@stdext@@@stdext@@@std@@@Z ; stdext::unchecked_uninitialized_fill_n<stdext::_Hash<stdext::_Hmap_traits<CGUID,CBaseObject *,hash_guid_compare,std::allocator<std::pair<CGUID const ,CBaseObject *> >,0> >::_List_position *,unsigned int,stdext::_Hash<stdext::_Hmap_traits<CGUID,CBaseObject *,hash_guid_compare,std::allocator<std::pair<CGUID const ,CBaseObject *> >,0> >::_List_position,std::allocator<stdext::_Hash<stdext::_Hmap_traits<CGUID,CBaseObject *,hash_guid_compare,std::allocator<std::pair<CGUID const ,CBaseObject *> >,0> >::_List_position> >
; Function compile flags: /Ogtpy
; File d:\program files\microsoft visual studio 8\vc\include\memory
;	COMDAT ??$unchecked_uninitialized_fill_n@PAU_List_position@?$_Hash@V?$_Hmap_traits@VCGUID@@PAVCBaseObject@@Vhash_guid_compare@@V?$allocator@U?$pair@$$CBVCGUID@@PAVCBaseObject@@@std@@@std@@$0A@@stdext@@@stdext@@IU123@V?$allocator@U_List_position@?$_Hash@V?$_Hmap_traits@VCGUID@@PAVCBaseObject@@Vhash_guid_compare@@V?$allocator@U?$pair@$$CBVCGUID@@PAVCBaseObject@@@std@@@std@@$0A@@stdext@@@stdext@@@std@@@stdext@@YAXPAU_List_position@?$_Hash@V?$_Hmap_traits@VCGUID@@PAVCBaseObject@@Vhash_guid_compare@@V?$allocator@U?$pair@$$CBVCGUID@@PAVCBaseObject@@@std@@@std@@$0A@@stdext@@@0@IABU120@AAV?$allocator@U_List_position@?$_Hash@V?$_Hmap_traits@VCGUID@@PAVCBaseObject@@Vhash_guid_compare@@V?$allocator@U?$pair@$$CBVCGUID@@PAVCBaseObject@@@std@@@std@@$0A@@stdext@@@stdext@@@std@@@Z
_TEXT	SEGMENT
$T299523 = -4						; size = 1
__Cat$299528 = -4					; size = 1
__First$ = 8						; size = 4
__Count$ = 12						; size = 4
__Val$ = 16						; size = 4
__Al$ = 20						; size = 4
??$unchecked_uninitialized_fill_n@PAU_List_position@?$_Hash@V?$_Hmap_traits@VCGUID@@PAVCBaseObject@@Vhash_guid_compare@@V?$allocator@U?$pair@$$CBVCGUID@@PAVCBaseObject@@@std@@@std@@$0A@@stdext@@@stdext@@IU123@V?$allocator@U_List_position@?$_Hash@V?$_Hmap_traits@VCGUID@@PAVCBaseObject@@Vhash_guid_compare@@V?$allocator@U?$pair@$$CBVCGUID@@PAVCBaseObject@@@std@@@std@@$0A@@stdext@@@stdext@@@std@@@stdext@@YAXPAU_List_position@?$_Hash@V?$_Hmap_traits@VCGUID@@PAVCBaseObject@@Vhash_guid_compare@@V?$allocator@U?$pair@$$CBVCGUID@@PAVCBaseObject@@@std@@@std@@$0A@@stdext@@@0@IABU120@AAV?$allocator@U_List_position@?$_Hash@V?$_Hmap_traits@VCGUID@@PAVCBaseObject@@Vhash_guid_compare@@V?$allocator@U?$pair@$$CBVCGUID@@PAVCBaseObject@@@std@@@std@@$0A@@stdext@@@stdext@@@std@@@Z PROC ; stdext::unchecked_uninitialized_fill_n<stdext::_Hash<stdext::_Hmap_traits<CGUID,CBaseObject *,hash_guid_compare,std::allocator<std::pair<CGUID const ,CBaseObject *> >,0> >::_List_position *,unsigned int,stdext::_Hash<stdext::_Hmap_traits<CGUID,CBaseObject *,hash_guid_compare,std::allocator<std::pair<CGUID const ,CBaseObject *> >,0> >::_List_position,std::allocator<stdext::_Hash<stdext::_Hmap_traits<CGUID,CBaseObject *,hash_guid_compare,std::allocator<std::pair<CGUID const ,CBaseObject *> >,0> >::_List_position> >, COMDAT

; 914  : 	{	// copy _Count *_Val to raw _First, using _Al

  00000	51		 push	 ecx

; 915  : 		_STD _Uninit_fill_n(_First, _Count, _Val, _Al,
; 916  : 			_STD _Ptr_cat(_First, _First), _STD _Range_checked_iterator_tag());

  00001	8b 54 24 14	 mov	 edx, DWORD PTR __Al$[esp]
  00005	c6 04 24 00	 mov	 BYTE PTR $T299523[esp+4], 0
  00009	8b 04 24	 mov	 eax, DWORD PTR $T299523[esp+4]
  0000c	8b 0c 24	 mov	 ecx, DWORD PTR __Cat$299528[esp+4]
  0000f	50		 push	 eax
  00010	8b 44 24 14	 mov	 eax, DWORD PTR __Val$[esp+4]
  00014	51		 push	 ecx
  00015	8b 4c 24 14	 mov	 ecx, DWORD PTR __Count$[esp+8]
  00019	52		 push	 edx
  0001a	8b 54 24 14	 mov	 edx, DWORD PTR __First$[esp+12]
  0001e	50		 push	 eax
  0001f	51		 push	 ecx
  00020	52		 push	 edx
  00021	e8 00 00 00 00	 call	 ??$_Uninit_fill_n@PAU_List_position@?$_Hash@V?$_Hmap_traits@VCGUID@@PAVCBaseObject@@Vhash_guid_compare@@V?$allocator@U?$pair@$$CBVCGUID@@PAVCBaseObject@@@std@@@std@@$0A@@stdext@@@stdext@@IU123@V?$allocator@U_List_position@?$_Hash@V?$_Hmap_traits@VCGUID@@PAVCBaseObject@@Vhash_guid_compare@@V?$allocator@U?$pair@$$CBVCGUID@@PAVCBaseObject@@@std@@@std@@$0A@@stdext@@@stdext@@@std@@@std@@YAXPAU_List_position@?$_Hash@V?$_Hmap_traits@VCGUID@@PAVCBaseObject@@Vhash_guid_compare@@V?$allocator@U?$pair@$$CBVCGUID@@PAVCBaseObject@@@std@@@std@@$0A@@stdext@@@stdext@@IABU123@AAV?$allocator@U_List_position@?$_Hash@V?$_Hmap_traits@VCGUID@@PAVCBaseObject@@Vhash_guid_compare@@V?$allocator@U?$pair@$$CBVCGUID@@PAVCBaseObject@@@std@@@std@@$0A@@stdext@@@stdext@@@0@U_Nonscalar_ptr_iterator_tag@0@U_Range_checked_iterator_tag@0@@Z ; std::_Uninit_fill_n<stdext::_Hash<stdext::_Hmap_traits<CGUID,CBaseObject *,hash_guid_compare,std::allocator<std::pair<CGUID const ,CBaseObject *> >,0> >::_List_position *,unsigned int,stdext::_Hash<stdext::_Hmap_traits<CGUID,CBaseObject *,hash_guid_compare,std::allocator<std::pair<CGUID const ,CBaseObject *> >,0> >::_List_position,std::allocator<stdext::_Hash<stdext::_Hmap_traits<CGUID,CBaseObject *,hash_guid_compare,std::allocator<std::pair<CGUID const ,CBaseObject *> >,0> >::_List_position> >

; 917  : 	}

  00026	83 c4 1c	 add	 esp, 28			; 0000001cH
  00029	c3		 ret	 0
??$unchecked_uninitialized_fill_n@PAU_List_position@?$_Hash@V?$_Hmap_traits@VCGUID@@PAVCBaseObject@@Vhash_guid_compare@@V?$allocator@U?$pair@$$CBVCGUID@@PAVCBaseObject@@@std@@@std@@$0A@@stdext@@@stdext@@IU123@V?$allocator@U_List_position@?$_Hash@V?$_Hmap_traits@VCGUID@@PAVCBaseObject@@Vhash_guid_compare@@V?$allocator@U?$pair@$$CBVCGUID@@PAVCBaseObject@@@std@@@std@@$0A@@stdext@@@stdext@@@std@@@stdext@@YAXPAU_List_position@?$_Hash@V?$_Hmap_traits@VCGUID@@PAVCBaseObject@@Vhash_guid_compare@@V?$allocator@U?$pair@$$CBVCGUID@@PAVCBaseObject@@@std@@@std@@$0A@@stdext@@@0@IABU120@AAV?$allocator@U_List_position@?$_Hash@V?$_Hmap_traits@VCGUID@@PAVCBaseObject@@Vhash_guid_compare@@V?$allocator@U?$pair@$$CBVCGUID@@PAVCBaseObject@@@std@@@std@@$0A@@stdext@@@stdext@@@std@@@Z ENDP ; stdext::unchecked_uninitialized_fill_n<stdext::_Hash<stdext::_Hmap_traits<CGUID,CBaseObject *,hash_guid_compare,std::allocator<std::pair<CGUID const ,CBaseObject *> >,0> >::_List_position *,unsigned int,stdext::_Hash<stdext::_Hmap_traits<CGUID,CBaseObject *,hash_guid_compare,std::allocator<std::pair<CGUID const ,CBaseObject *> >,0> >::_List_position,std::allocator<stdext::_Hash<stdext::_Hmap_traits<CGUID,CBaseObject *,hash_guid_compare,std::allocator<std::pair<CGUID const ,CBaseObject *> >,0> >::_List_position> >
_TEXT	ENDS
PUBLIC	?Alloc@?$CTilePool@VLockOfWinWhileSleep@XM_Tools@@V?$CHeapPool@VLockOfWinWhileSleep@XM_Tools@@@2@@XM_Tools@@QAEPAXK@Z ; XM_Tools::CTilePool<XM_Tools::LockOfWinWhileSleep,XM_Tools::CHeapPool<XM_Tools::LockOfWinWhileSleep> >::Alloc
; Function compile flags: /Ogtpy
; File d:\project_p6\trunk\public\memmanage\cpp\tilepool.tcc
;	COMDAT ?Alloc@?$CTilePool@VLockOfWinWhileSleep@XM_Tools@@V?$CHeapPool@VLockOfWinWhileSleep@XM_Tools@@@2@@XM_Tools@@QAEPAXK@Z
_TEXT	SEGMENT
_uSize$ = 8						; size = 4
?Alloc@?$CTilePool@VLockOfWinWhileSleep@XM_Tools@@V?$CHeapPool@VLockOfWinWhileSleep@XM_Tools@@@2@@XM_Tools@@QAEPAXK@Z PROC ; XM_Tools::CTilePool<XM_Tools::LockOfWinWhileSleep,XM_Tools::CHeapPool<XM_Tools::LockOfWinWhileSleep> >::Alloc, COMDAT
; _this$ = ecx

; 118  : #ifndef USE_TILE_MANAGE
; 119  : 		return malloc(uSize);
; 120  : #endif
; 121  : 		unsigned long uIdx = GetListIndex(uSize);

  00000	8b 44 24 04	 mov	 eax, DWORD PTR _uSize$[esp-4]
  00004	3d 00 01 00 00	 cmp	 eax, 256		; 00000100H
  00009	77 1a		 ja	 SHORT $LN29@Alloc
  0000b	85 c0		 test	 eax, eax
  0000d	74 16		 je	 SHORT $LN29@Alloc
  0000f	8b d0		 mov	 edx, eax
  00011	83 e2 07	 and	 edx, 7
  00014	f6 da		 neg	 dl
  00016	1b d2		 sbb	 edx, edx
  00018	83 c2 01	 add	 edx, 1
  0001b	c1 e8 03	 shr	 eax, 3
  0001e	2b c2		 sub	 eax, edx

; 122  : 		if(0xFFFFFFFF == uIdx)

  00020	83 f8 ff	 cmp	 eax, -1
  00023	75 05		 jne	 SHORT $LN3@Alloc
$LN29@Alloc:

; 123  : 			RETURN_THROW(NULL);

  00025	33 c0		 xor	 eax, eax

; 142  : 	}

  00027	c2 04 00	 ret	 4
$LN3@Alloc:

; 124  : 
; 125  : 		tagTileManageInfo &TileManageInfo = m_arrMemList[uIdx];

  0002a	8b d0		 mov	 edx, eax
  0002c	69 d2 e4 00 00
	00		 imul	 edx, 228		; 000000e4H

; 126  : 		if(0 == TileManageInfo.FreeList.GetNodeNum())

  00032	83 bc 0a e8 00
	00 00 00	 cmp	 DWORD PTR [edx+ecx+232], 0
  0003a	56		 push	 esi
  0003b	8d 74 0a 08	 lea	 esi, DWORD PTR [edx+ecx+8]
  0003f	57		 push	 edi
  00040	75 20		 jne	 SHORT $LN1@Alloc

; 127  : 		{
; 128  : 			if(!AddNewTile(TileManageInfo, GetDefaultAddCount(uIdx)))

  00042	8d 3c c5 08 00
	00 00		 lea	 edi, DWORD PTR [eax*8+8]
  00049	8b 41 04	 mov	 eax, DWORD PTR [ecx+4]
  0004c	33 d2		 xor	 edx, edx
  0004e	f7 f7		 div	 edi
  00050	50		 push	 eax
  00051	56		 push	 esi
  00052	e8 00 00 00 00	 call	 ?AddNewTile@?$CTilePool@VLockOfWinWhileSleep@XM_Tools@@V?$CHeapPool@VLockOfWinWhileSleep@XM_Tools@@@2@@XM_Tools@@AAE_NAAUtagTileManageInfo@12@K@Z ; XM_Tools::CTilePool<XM_Tools::LockOfWinWhileSleep,XM_Tools::CHeapPool<XM_Tools::LockOfWinWhileSleep> >::AddNewTile
  00057	84 c0		 test	 al, al
  00059	75 07		 jne	 SHORT $LN1@Alloc
  0005b	5f		 pop	 edi

; 129  : 				RETURN_THROW(NULL);

  0005c	33 c0		 xor	 eax, eax
  0005e	5e		 pop	 esi

; 142  : 	}

  0005f	c2 04 00	 ret	 4
$LN1@Alloc:

; 130  : 		}
; 131  : 		
; 132  : 		CListNode<unsigned char> *pFreeNode = TileManageInfo.FreeList.PopNode();

  00062	8d 8e a0 00 00
	00		 lea	 ecx, DWORD PTR [esi+160]
  00068	e8 00 00 00 00	 call	 ?Lock@LockOfWinWhileSleep@XM_Tools@@QAEXXZ ; XM_Tools::LockOfWinWhileSleep::Lock
  0006d	8b be 9c 00 00
	00		 mov	 edi, DWORD PTR [esi+156]
  00073	85 ff		 test	 edi, edi
  00075	74 10		 je	 SHORT $LN14@Alloc
  00077	8b 47 04	 mov	 eax, DWORD PTR [edi+4]
  0007a	83 86 e0 00 00
	00 ff		 add	 DWORD PTR [esi+224], -1
  00081	89 86 9c 00 00
	00		 mov	 DWORD PTR [esi+156], eax
$LN14@Alloc:
  00087	53		 push	 ebx
  00088	8b 1d 00 00 00
	00		 mov	 ebx, DWORD PTR __imp__InterlockedCompareExchange@12
  0008e	6a 01		 push	 1
  00090	6a 00		 push	 0
  00092	8d 8e c0 00 00
	00		 lea	 ecx, DWORD PTR [esi+192]
  00098	51		 push	 ecx
  00099	ff d3		 call	 ebx

; 133  : 		MM_ASSERY(NULL != pFreeNode);
; 134  : 		//! 
; 135  : 		TileManageInfo.InfoLock.Lock();

  0009b	8d 4e 14	 lea	 ecx, DWORD PTR [esi+20]
  0009e	e8 00 00 00 00	 call	 ?Lock@LockOfWinWhileSleep@XM_Tools@@QAEXXZ ; XM_Tools::LockOfWinWhileSleep::Lock

; 136  : 		++TileManageInfo.uUseCount;

  000a3	83 46 0c 01	 add	 DWORD PTR [esi+12], 1

; 137  : 		TileManageInfo.InfoLock.UnLock();

  000a7	6a 01		 push	 1
  000a9	6a 00		 push	 0
  000ab	8d 56 34	 lea	 edx, DWORD PTR [esi+52]
  000ae	52		 push	 edx
  000af	ff d3		 call	 ebx

; 138  : 
; 139  : 		unsigned char cInfo = (unsigned char)TileManageInfo.uIndex;
; 140  : 		pFreeNode->SetInfo(cInfo);

  000b1	8a 06		 mov	 al, BYTE PTR [esi]
  000b3	88 07		 mov	 BYTE PTR [edi], al
  000b5	5b		 pop	 ebx

; 141  : 		return pFreeNode->GetReBuf();

  000b6	8d 47 04	 lea	 eax, DWORD PTR [edi+4]
  000b9	5f		 pop	 edi
  000ba	5e		 pop	 esi

; 142  : 	}

  000bb	c2 04 00	 ret	 4
?Alloc@?$CTilePool@VLockOfWinWhileSleep@XM_Tools@@V?$CHeapPool@VLockOfWinWhileSleep@XM_Tools@@@2@@XM_Tools@@QAEPAXK@Z ENDP ; XM_Tools::CTilePool<XM_Tools::LockOfWinWhileSleep,XM_Tools::CHeapPool<XM_Tools::LockOfWinWhileSleep> >::Alloc
_TEXT	ENDS
PUBLIC	?Alloc@?$CBlockPool@VLockOfWinWhileSleep@XM_Tools@@V?$CHeapPool@VLockOfWinWhileSleep@XM_Tools@@@2@@XM_Tools@@QAEPAXK@Z ; XM_Tools::CBlockPool<XM_Tools::LockOfWinWhileSleep,XM_Tools::CHeapPool<XM_Tools::LockOfWinWhileSleep> >::Alloc
; Function compile flags: /Ogtpy
; File d:\project_p6\trunk\public\memmanage\cpp\blockpool.tcc
;	COMDAT ?Alloc@?$CBlockPool@VLockOfWinWhileSleep@XM_Tools@@V?$CHeapPool@VLockOfWinWhileSleep@XM_Tools@@@2@@XM_Tools@@QAEPAXK@Z
_TEXT	SEGMENT
_uSize$ = 8						; size = 4
?Alloc@?$CBlockPool@VLockOfWinWhileSleep@XM_Tools@@V?$CHeapPool@VLockOfWinWhileSleep@XM_Tools@@@2@@XM_Tools@@QAEPAXK@Z PROC ; XM_Tools::CBlockPool<XM_Tools::LockOfWinWhileSleep,XM_Tools::CHeapPool<XM_Tools::LockOfWinWhileSleep> >::Alloc, COMDAT
; _this$ = ecx

; 107  : #ifndef USE_BLOCK_MANAGE
; 108  : 		++m_uFirsthandCount;
; 109  : 		return m_Allocator.Alloc(uSize);

  00000	8b 44 24 04	 mov	 eax, DWORD PTR _uSize$[esp-4]
  00004	83 41 0c 01	 add	 DWORD PTR [ecx+12], 1
  00008	50		 push	 eax
  00009	e8 00 00 00 00	 call	 _malloc
  0000e	83 c4 04	 add	 esp, 4

; 110  : #endif
; 111  : 
; 112  : 		MM_ASSERY(INIT_FLAG_VALUE == m_uInitFlag);
; 113  : 		
; 114  : 		void *pRe = NULL;
; 115  : 		//! 094
; 116  : 		m_FlagLock.Lock();
; 117  : 		if(m_uFreeCount * BLOCK_BSAE_SIZE < uSize)
; 118  : 		{
; 119  : 			//! 
; 120  : 			//MM_ASSERY(false);
; 121  : 			//! 
; 122  : 			if(NULL != (pRe = m_Allocator.Alloc(uSize)))
; 123  : 			{
; 124  : 				MM_ASSERY(!(m_pBuf <= pRe && m_pBuf + BLOCK_DEFAULT_PROVIDE_COUNT * BLOCK_BSAE_SIZE >= pRe));
; 125  : 				++m_uFirsthandCount;
; 126  : 			}
; 127  : 		}
; 128  : 		else
; 129  : 		{
; 130  : 			unsigned long uAllocCount = uSize / BLOCK_BSAE_SIZE + ((uSize % BLOCK_BSAE_SIZE) ? 1 : 0);
; 131  : 
; 132  : 
; 133  : 			//! 1
; 134  : 			if (1 == uAllocCount)
; 135  : 			{
; 136  : 				MM_ASSERY(0xFFFFFFFF != m_FreeEndOffset);
; 137  : 				MM_ASSERY(eFT_Free == m_pFlag[m_FreeEndOffset]);
; 138  : 				m_pFlag[m_FreeEndOffset] = eFT_Head;
; 139  : 				pRe = &m_pBuf[m_FreeEndOffset * BLOCK_BSAE_SIZE];
; 140  : 				--m_uFreeCount;
; 141  : #ifdef LOG_ALLOC_FREE_INFO
; 142  : 				++m_PoolAllocCount;
; 143  : #endif
; 144  : 
; 145  : 				if(0 == m_uFreeCount)
; 146  : 				{
; 147  : 					m_FreeBeginOffset	= 0xFFFFFFFF;
; 148  : 					m_FreeEndOffset		= 0xFFFFFFFF;
; 149  : 				}
; 150  : 				else
; 151  : 				{
; 152  : 					for (; m_FreeEndOffset > 0; --m_FreeEndOffset)
; 153  : 					{
; 154  : 						if(eFT_Free == m_pFlag[m_FreeEndOffset])
; 155  : 							break;
; 156  : 					}
; 157  : 				}
; 158  : 
; 159  : 				
; 160  : 			}
; 161  : 			//! 
; 162  : 			else
; 163  : 			{
; 164  : 				unsigned long uSeriateCount = 0;
; 165  : 				unsigned long uFindIdx = m_FreeBeginOffset;
; 166  : 
; 167  : 				for (; uFindIdx < BLOCK_DEFAULT_PROVIDE_COUNT; ++uFindIdx)
; 168  : 				{
; 169  : 					if(eFT_Free == m_pFlag[uFindIdx])
; 170  : 						++uSeriateCount;
; 171  : 					else
; 172  : 						uSeriateCount = 0;
; 173  : 
; 174  : 					if(uSeriateCount >= uAllocCount)
; 175  : 						break;
; 176  : 				}
; 177  : 
; 178  : 				//! 
; 179  : 				if(uSeriateCount == uAllocCount)
; 180  : 				{
; 181  : 					unsigned long uFindBegin = uFindIdx + 1 - uAllocCount;	
; 182  : 					memset(&m_pFlag[uFindBegin], eFT_Body, uAllocCount);
; 183  : 					m_pFlag[uFindBegin] = eFT_Head;
; 184  : 					pRe = &m_pBuf[uFindBegin * BLOCK_BSAE_SIZE];
; 185  : 					MM_ASSERY(m_uFreeCount >= uAllocCount);
; 186  : 					m_uFreeCount -= uAllocCount;
; 187  : #ifdef LOG_ALLOC_FREE_INFO
; 188  : 					++m_PoolAllocCount;
; 189  : #endif
; 190  : 					if(0 == m_uFreeCount)
; 191  : 					{
; 192  : 						m_FreeBeginOffset	= 0xFFFFFFFF;
; 193  : 						m_FreeEndOffset		= 0xFFFFFFFF;
; 194  : 					}
; 195  : 					else
; 196  : 					{
; 197  : 						if(eFT_Free != m_pFlag[m_FreeEndOffset])
; 198  : 						{
; 199  : 							for (; m_FreeEndOffset > 0; --m_FreeEndOffset)
; 200  : 							{
; 201  : 								if(eFT_Free == m_pFlag[m_FreeEndOffset])
; 202  : 									break;
; 203  : 							}
; 204  : 							MM_ASSERY(eFT_Free == m_pFlag[m_FreeEndOffset]);
; 205  : 						}
; 206  : 						if (uFindBegin == m_FreeBeginOffset)
; 207  : 						{
; 208  : 							m_FreeBeginOffset = uFindIdx + 1;
; 209  : 							for (; m_FreeBeginOffset < BLOCK_DEFAULT_PROVIDE_COUNT; ++m_FreeBeginOffset)
; 210  : 							{
; 211  : 								if(eFT_Free == m_pFlag[m_FreeBeginOffset])
; 212  : 									break;
; 213  : 							}
; 214  : 							MM_ASSERY(eFT_Free == m_pFlag[m_FreeBeginOffset]);
; 215  : 						}
; 216  : 					}
; 217  : 				}
; 218  : 				//! 
; 219  : 				else
; 220  : 				{
; 221  : 					//! 
; 222  : 					if(NULL != (pRe = m_Allocator.Alloc(uSize)))
; 223  : 					{
; 224  : 						MM_ASSERY(!(m_pBuf <= pRe && m_pBuf + BLOCK_DEFAULT_PROVIDE_COUNT * BLOCK_BSAE_SIZE >= pRe));
; 225  : 						++m_uFirsthandCount;
; 226  : 					}
; 227  : 				}
; 228  : 			}
; 229  : 		}
; 230  : 		m_FlagLock.UnLock();//! 094
; 231  : 		
; 232  : 		return pRe;
; 233  : 	}

  00011	c2 04 00	 ret	 4
?Alloc@?$CBlockPool@VLockOfWinWhileSleep@XM_Tools@@V?$CHeapPool@VLockOfWinWhileSleep@XM_Tools@@@2@@XM_Tools@@QAEPAXK@Z ENDP ; XM_Tools::CBlockPool<XM_Tools::LockOfWinWhileSleep,XM_Tools::CHeapPool<XM_Tools::LockOfWinWhileSleep> >::Alloc
_TEXT	ENDS
PUBLIC	?Free@?$CBlockPool@VLockOfWinWhileSleep@XM_Tools@@V?$CHeapPool@VLockOfWinWhileSleep@XM_Tools@@@2@@XM_Tools@@QAEXPAX@Z ; XM_Tools::CBlockPool<XM_Tools::LockOfWinWhileSleep,XM_Tools::CHeapPool<XM_Tools::LockOfWinWhileSleep> >::Free
; Function compile flags: /Ogtpy
;	COMDAT ?Free@?$CBlockPool@VLockOfWinWhileSleep@XM_Tools@@V?$CHeapPool@VLockOfWinWhileSleep@XM_Tools@@@2@@XM_Tools@@QAEXPAX@Z
_TEXT	SEGMENT
_pMem$ = 8						; size = 4
?Free@?$CBlockPool@VLockOfWinWhileSleep@XM_Tools@@V?$CHeapPool@VLockOfWinWhileSleep@XM_Tools@@@2@@XM_Tools@@QAEXPAX@Z PROC ; XM_Tools::CBlockPool<XM_Tools::LockOfWinWhileSleep,XM_Tools::CHeapPool<XM_Tools::LockOfWinWhileSleep> >::Free, COMDAT
; _this$ = ecx

; 239  : #ifndef USE_BLOCK_MANAGE
; 240  : 		--m_uFirsthandCount;
; 241  : 		m_Allocator.Free(pMem);

  00000	8b 44 24 04	 mov	 eax, DWORD PTR _pMem$[esp-4]
  00004	83 41 0c ff	 add	 DWORD PTR [ecx+12], -1
  00008	50		 push	 eax
  00009	e8 00 00 00 00	 call	 _free
  0000e	59		 pop	 ecx

; 242  : 		return;
; 243  : #endif
; 244  : 
; 245  : 		MM_ASSERY(INIT_FLAG_VALUE == m_uInitFlag);
; 246  : 		unsigned char *pRe = (unsigned char*)pMem;
; 247  : 
; 248  : 		m_FlagLock.Lock();//! 196
; 249  : 		if(0 != m_uFirsthandCount)
; 250  : 		{
; 251  : 			if(!(m_pBuf <= pRe && m_pBuf + BLOCK_DEFAULT_PROVIDE_COUNT * BLOCK_BSAE_SIZE >= pRe))
; 252  : 			{
; 253  : 				m_Allocator.Free(pRe);
; 254  : 				--m_uFirsthandCount;
; 255  : 				m_FlagLock.UnLock();//! 196
; 256  : 				return;
; 257  : 			}
; 258  : 		}
; 259  : 
; 260  : 		unsigned long uFlagIdx = (unsigned long)(pRe - m_pBuf) / BLOCK_BSAE_SIZE;
; 261  : 		MM_ASSERY(eFT_Head == m_pFlag[uFlagIdx]);
; 262  : 		if(m_FreeBeginOffset > uFlagIdx || 0xFFFFFFFF == m_FreeBeginOffset)
; 263  : 			m_FreeBeginOffset = uFlagIdx;
; 264  : 		
; 265  : 		m_pFlag[uFlagIdx++] = eFT_Free;
; 266  : 		unsigned long uCount = 1;
; 267  : 		while (BLOCK_DEFAULT_PROVIDE_COUNT > uFlagIdx && eFT_Body == m_pFlag[uFlagIdx])
; 268  : 		{
; 269  : 			m_pFlag[uFlagIdx] = eFT_Free;
; 270  : 			++uCount;		
; 271  : 			++uFlagIdx;
; 272  : 		}
; 273  : 
; 274  : 		--uFlagIdx;
; 275  : 		m_uFreeCount += uCount;
; 276  : #ifdef LOG_ALLOC_FREE_INFO
; 277  : 		--m_PoolAllocCount;
; 278  : #endif
; 279  : 		if(uFlagIdx > m_FreeEndOffset || 0xFFFFFFFF == m_FreeEndOffset)
; 280  : 			m_FreeEndOffset = uFlagIdx;
; 281  : 
; 282  : 		m_FlagLock.UnLock();//! 196
; 283  : 		
; 284  : 	}

  0000f	c2 04 00	 ret	 4
?Free@?$CBlockPool@VLockOfWinWhileSleep@XM_Tools@@V?$CHeapPool@VLockOfWinWhileSleep@XM_Tools@@@2@@XM_Tools@@QAEXPAX@Z ENDP ; XM_Tools::CBlockPool<XM_Tools::LockOfWinWhileSleep,XM_Tools::CHeapPool<XM_Tools::LockOfWinWhileSleep> >::Free
_TEXT	ENDS
PUBLIC	??$_Uninit_move@PAU_List_position@?$_Hash@V?$_Hmap_traits@VCGUID@@PAVCBaseObject@@Vhash_guid_compare@@V?$allocator@U?$pair@$$CBVCGUID@@PAVCBaseObject@@@std@@@std@@$0A@@stdext@@@stdext@@PAU123@V?$allocator@U_List_position@?$_Hash@V?$_Hmap_traits@VCGUID@@PAVCBaseObject@@Vhash_guid_compare@@V?$allocator@U?$pair@$$CBVCGUID@@PAVCBaseObject@@@std@@@std@@$0A@@stdext@@@stdext@@@std@@U_Undefined_move_tag@5@@std@@YAPAU_List_position@?$_Hash@V?$_Hmap_traits@VCGUID@@PAVCBaseObject@@Vhash_guid_compare@@V?$allocator@U?$pair@$$CBVCGUID@@PAVCBaseObject@@@std@@@std@@$0A@@stdext@@@stdext@@PAU123@00AAV?$allocator@U_List_position@?$_Hash@V?$_Hmap_traits@VCGUID@@PAVCBaseObject@@Vhash_guid_compare@@V?$allocator@U?$pair@$$CBVCGUID@@PAVCBaseObject@@@std@@@std@@$0A@@stdext@@@stdext@@@0@U_Undefined_move_tag@0@U_Range_checked_iterator_tag@0@@Z ; std::_Uninit_move<stdext::_Hash<stdext::_Hmap_traits<CGUID,CBaseObject *,hash_guid_compare,std::allocator<std::pair<CGUID const ,CBaseObject *> >,0> >::_List_position *,stdext::_Hash<stdext::_Hmap_traits<CGUID,CBaseObject *,hash_guid_compare,std::allocator<std::pair<CGUID const ,CBaseObject *> >,0> >::_List_position *,std::allocator<stdext::_Hash<stdext::_Hmap_traits<CGUID,CBaseObject *,hash_guid_compare,std::allocator<std::pair<CGUID const ,CBaseObject *> >,0> >::_List_position>,std::_Undefined_move_tag>
; Function compile flags: /Ogtpy
; File d:\program files\microsoft visual studio 8\vc\include\memory
;	COMDAT ??$_Uninit_move@PAU_List_position@?$_Hash@V?$_Hmap_traits@VCGUID@@PAVCBaseObject@@Vhash_guid_compare@@V?$allocator@U?$pair@$$CBVCGUID@@PAVCBaseObject@@@std@@@std@@$0A@@stdext@@@stdext@@PAU123@V?$allocator@U_List_position@?$_Hash@V?$_Hmap_traits@VCGUID@@PAVCBaseObject@@Vhash_guid_compare@@V?$allocator@U?$pair@$$CBVCGUID@@PAVCBaseObject@@@std@@@std@@$0A@@stdext@@@stdext@@@std@@U_Undefined_move_tag@5@@std@@YAPAU_List_position@?$_Hash@V?$_Hmap_traits@VCGUID@@PAVCBaseObject@@Vhash_guid_compare@@V?$allocator@U?$pair@$$CBVCGUID@@PAVCBaseObject@@@std@@@std@@$0A@@stdext@@@stdext@@PAU123@00AAV?$allocator@U_List_position@?$_Hash@V?$_Hmap_traits@VCGUID@@PAVCBaseObject@@Vhash_guid_compare@@V?$allocator@U?$pair@$$CBVCGUID@@PAVCBaseObject@@@std@@@std@@$0A@@stdext@@@stdext@@@0@U_Undefined_move_tag@0@U_Range_checked_iterator_tag@0@@Z
_TEXT	SEGMENT
$T299728 = -4						; size = 1
__First$ = 8						; size = 4
__Last$ = 12						; size = 4
__Cat$299732 = 16					; size = 1
__Dest$ = 16						; size = 4
__Al$ = 20						; size = 4
___formal$ = 24						; size = 1
___formal$ = 28						; size = 1
??$_Uninit_move@PAU_List_position@?$_Hash@V?$_Hmap_traits@VCGUID@@PAVCBaseObject@@Vhash_guid_compare@@V?$allocator@U?$pair@$$CBVCGUID@@PAVCBaseObject@@@std@@@std@@$0A@@stdext@@@stdext@@PAU123@V?$allocator@U_List_position@?$_Hash@V?$_Hmap_traits@VCGUID@@PAVCBaseObject@@Vhash_guid_compare@@V?$allocator@U?$pair@$$CBVCGUID@@PAVCBaseObject@@@std@@@std@@$0A@@stdext@@@stdext@@@std@@U_Undefined_move_tag@5@@std@@YAPAU_List_position@?$_Hash@V?$_Hmap_traits@VCGUID@@PAVCBaseObject@@Vhash_guid_compare@@V?$allocator@U?$pair@$$CBVCGUID@@PAVCBaseObject@@@std@@@std@@$0A@@stdext@@@stdext@@PAU123@00AAV?$allocator@U_List_position@?$_Hash@V?$_Hmap_traits@VCGUID@@PAVCBaseObject@@Vhash_guid_compare@@V?$allocator@U?$pair@$$CBVCGUID@@PAVCBaseObject@@@std@@@std@@$0A@@stdext@@@stdext@@@0@U_Undefined_move_tag@0@U_Range_checked_iterator_tag@0@@Z PROC ; std::_Uninit_move<stdext::_Hash<stdext::_Hmap_traits<CGUID,CBaseObject *,hash_guid_compare,std::allocator<std::pair<CGUID const ,CBaseObject *> >,0> >::_List_position *,stdext::_Hash<stdext::_Hmap_traits<CGUID,CBaseObject *,hash_guid_compare,std::allocator<std::pair<CGUID const ,CBaseObject *> >,0> >::_List_position *,std::allocator<stdext::_Hash<stdext::_Hmap_traits<CGUID,CBaseObject *,hash_guid_compare,std::allocator<std::pair<CGUID const ,CBaseObject *> >,0> >::_List_position>,std::_Undefined_move_tag>, COMDAT

; 205  : 	{	// move defaults to copy if there is not a more effecient way

  00000	51		 push	 ecx

; 206  : 	return _STDEXT unchecked_uninitialized_copy(_First, _Last, _Dest, _Al);

  00001	8b 4c 24 10	 mov	 ecx, DWORD PTR __Cat$299732[esp]
  00005	c6 04 24 00	 mov	 BYTE PTR $T299728[esp+4], 0
  00009	8b 04 24	 mov	 eax, DWORD PTR $T299728[esp+4]

; 207  : 	}

  0000c	83 c4 04	 add	 esp, 4

; 206  : 	return _STDEXT unchecked_uninitialized_copy(_First, _Last, _Dest, _Al);

  0000f	89 44 24 18	 mov	 DWORD PTR ___formal$[esp-4], eax
  00013	89 4c 24 14	 mov	 DWORD PTR ___formal$[esp-4], ecx
  00017	e9 00 00 00 00	 jmp	 ??$_Uninit_copy@PAU_List_position@?$_Hash@V?$_Hmap_traits@VCGUID@@PAVCBaseObject@@Vhash_guid_compare@@V?$allocator@U?$pair@$$CBVCGUID@@PAVCBaseObject@@@std@@@std@@$0A@@stdext@@@stdext@@PAU123@V?$allocator@U_List_position@?$_Hash@V?$_Hmap_traits@VCGUID@@PAVCBaseObject@@Vhash_guid_compare@@V?$allocator@U?$pair@$$CBVCGUID@@PAVCBaseObject@@@std@@@std@@$0A@@stdext@@@stdext@@@std@@@std@@YAPAU_List_position@?$_Hash@V?$_Hmap_traits@VCGUID@@PAVCBaseObject@@Vhash_guid_compare@@V?$allocator@U?$pair@$$CBVCGUID@@PAVCBaseObject@@@std@@@std@@$0A@@stdext@@@stdext@@PAU123@00AAV?$allocator@U_List_position@?$_Hash@V?$_Hmap_traits@VCGUID@@PAVCBaseObject@@Vhash_guid_compare@@V?$allocator@U?$pair@$$CBVCGUID@@PAVCBaseObject@@@std@@@std@@$0A@@stdext@@@stdext@@@0@U_Nonscalar_ptr_iterator_tag@0@U_Range_checked_iterator_tag@0@@Z ; std::_Uninit_copy<stdext::_Hash<stdext::_Hmap_traits<CGUID,CBaseObject *,hash_guid_compare,std::allocator<std::pair<CGUID const ,CBaseObject *> >,0> >::_List_position *,stdext::_Hash<stdext::_Hmap_traits<CGUID,CBaseObject *,hash_guid_compare,std::allocator<std::pair<CGUID const ,CBaseObject *> >,0> >::_List_position *,std::allocator<stdext::_Hash<stdext::_Hmap_traits<CGUID,CBaseObject *,hash_guid_compare,std::allocator<std::pair<CGUID const ,CBaseObject *> >,0> >::_List_position> >
??$_Uninit_move@PAU_List_position@?$_Hash@V?$_Hmap_traits@VCGUID@@PAVCBaseObject@@Vhash_guid_compare@@V?$allocator@U?$pair@$$CBVCGUID@@PAVCBaseObject@@@std@@@std@@$0A@@stdext@@@stdext@@PAU123@V?$allocator@U_List_position@?$_Hash@V?$_Hmap_traits@VCGUID@@PAVCBaseObject@@Vhash_guid_compare@@V?$allocator@U?$pair@$$CBVCGUID@@PAVCBaseObject@@@std@@@std@@$0A@@stdext@@@stdext@@@std@@U_Undefined_move_tag@5@@std@@YAPAU_List_position@?$_Hash@V?$_Hmap_traits@VCGUID@@PAVCBaseObject@@Vhash_guid_compare@@V?$allocator@U?$pair@$$CBVCGUID@@PAVCBaseObject@@@std@@@std@@$0A@@stdext@@@stdext@@PAU123@00AAV?$allocator@U_List_position@?$_Hash@V?$_Hmap_traits@VCGUID@@PAVCBaseObject@@Vhash_guid_compare@@V?$allocator@U?$pair@$$CBVCGUID@@PAVCBaseObject@@@std@@@std@@$0A@@stdext@@@stdext@@@0@U_Undefined_move_tag@0@U_Range_checked_iterator_tag@0@@Z ENDP ; std::_Uninit_move<stdext::_Hash<stdext::_Hmap_traits<CGUID,CBaseObject *,hash_guid_compare,std::allocator<std::pair<CGUID const ,CBaseObject *> >,0> >::_List_position *,stdext::_Hash<stdext::_Hmap_traits<CGUID,CBaseObject *,hash_guid_compare,std::allocator<std::pair<CGUID const ,CBaseObject *> >,0> >::_List_position *,std::allocator<stdext::_Hash<stdext::_Hmap_traits<CGUID,CBaseObject *,hash_guid_compare,std::allocator<std::pair<CGUID const ,CBaseObject *> >,0> >::_List_position>,std::_Undefined_move_tag>
_TEXT	ENDS
PUBLIC	?Init@?$CMemManage@VLockOfWinWhileSleep@XM_Tools@@@XM_Tools@@QAEKXZ ; XM_Tools::CMemManage<XM_Tools::LockOfWinWhileSleep>::Init
; Function compile flags: /Ogtpy
; File d:\project_p6\trunk\public\memmanage\cpp\memmanage.tcc
;	COMDAT ?Init@?$CMemManage@VLockOfWinWhileSleep@XM_Tools@@@XM_Tools@@QAEKXZ
_TEXT	SEGMENT
_TileInit$ = -128					; size = 128
?Init@?$CMemManage@VLockOfWinWhileSleep@XM_Tools@@@XM_Tools@@QAEKXZ PROC ; XM_Tools::CMemManage<XM_Tools::LockOfWinWhileSleep>::Init, COMDAT
; _this$ = ecx

; 30   :     {

  00000	81 ec 80 00 00
	00		 sub	 esp, 128		; 00000080H

; 31   : 
; 32   : #ifndef USE_C_LIB_ALLOC
; 33   : #ifdef USE_TILE_MANAGE
; 34   :         unsigned long TileInit[TILE_POOL_NUM] = 
; 35   :         {
; 36   :             //! 0~7
; 37   :             1, 4, 2, 1, 1, 1, 1, 1,

  00006	b8 01 00 00 00	 mov	 eax, 1
  0000b	53		 push	 ebx
  0000c	56		 push	 esi
  0000d	57		 push	 edi
  0000e	89 44 24 0c	 mov	 DWORD PTR _TileInit$[esp+140], eax
  00012	c7 44 24 10 04
	00 00 00	 mov	 DWORD PTR _TileInit$[esp+144], 4
  0001a	c7 44 24 14 02
	00 00 00	 mov	 DWORD PTR _TileInit$[esp+148], 2
  00022	89 44 24 18	 mov	 DWORD PTR _TileInit$[esp+152], eax
  00026	89 44 24 1c	 mov	 DWORD PTR _TileInit$[esp+156], eax
  0002a	89 44 24 20	 mov	 DWORD PTR _TileInit$[esp+160], eax
  0002e	89 44 24 24	 mov	 DWORD PTR _TileInit$[esp+164], eax
  00032	89 44 24 28	 mov	 DWORD PTR _TileInit$[esp+168], eax

; 38   :             //! 8~15
; 39   :             1, 1, 1, 1, 1, 1, 1, 1,

  00036	89 44 24 2c	 mov	 DWORD PTR _TileInit$[esp+172], eax
  0003a	89 44 24 30	 mov	 DWORD PTR _TileInit$[esp+176], eax
  0003e	89 44 24 34	 mov	 DWORD PTR _TileInit$[esp+180], eax
  00042	89 44 24 38	 mov	 DWORD PTR _TileInit$[esp+184], eax
  00046	89 44 24 3c	 mov	 DWORD PTR _TileInit$[esp+188], eax
  0004a	89 44 24 40	 mov	 DWORD PTR _TileInit$[esp+192], eax
  0004e	89 44 24 44	 mov	 DWORD PTR _TileInit$[esp+196], eax
  00052	89 44 24 48	 mov	 DWORD PTR _TileInit$[esp+200], eax

; 40   :             //! 16~23
; 41   :             1, 1, 1, 1, 1, 1, 1, 1,

  00056	89 44 24 4c	 mov	 DWORD PTR _TileInit$[esp+204], eax
  0005a	89 44 24 50	 mov	 DWORD PTR _TileInit$[esp+208], eax
  0005e	89 44 24 54	 mov	 DWORD PTR _TileInit$[esp+212], eax
  00062	89 44 24 58	 mov	 DWORD PTR _TileInit$[esp+216], eax
  00066	89 44 24 5c	 mov	 DWORD PTR _TileInit$[esp+220], eax
  0006a	89 44 24 60	 mov	 DWORD PTR _TileInit$[esp+224], eax
  0006e	89 44 24 64	 mov	 DWORD PTR _TileInit$[esp+228], eax
  00072	89 44 24 68	 mov	 DWORD PTR _TileInit$[esp+232], eax

; 42   :             //! 24~31
; 43   :             1, 1, 1, 1, 1, 1, 1, 1,

  00076	89 44 24 6c	 mov	 DWORD PTR _TileInit$[esp+236], eax
  0007a	89 44 24 70	 mov	 DWORD PTR _TileInit$[esp+240], eax
  0007e	89 44 24 74	 mov	 DWORD PTR _TileInit$[esp+244], eax
  00082	89 44 24 78	 mov	 DWORD PTR _TileInit$[esp+248], eax
  00086	89 44 24 7c	 mov	 DWORD PTR _TileInit$[esp+252], eax
  0008a	89 84 24 80 00
	00 00		 mov	 DWORD PTR _TileInit$[esp+256], eax
  00091	89 84 24 84 00
	00 00		 mov	 DWORD PTR _TileInit$[esp+260], eax
  00098	89 84 24 88 00
	00 00		 mov	 DWORD PTR _TileInit$[esp+264], eax
  0009f	8d 99 f8 00 00
	00		 lea	 ebx, DWORD PTR [ecx+248]
  000a5	8d 70 0f	 lea	 esi, DWORD PTR [eax+15]
  000a8	8d 7c 24 10	 lea	 edi, DWORD PTR _TileInit$[esp+144]
  000ac	8d 64 24 00	 npad	 4
$LL3@Init:

; 44   :         };
; 45   :         for (unsigned long i = 1; i < TILE_POOL_NUM; ++i)
; 46   :         {
; 47   :             m_TilePool.InitForSize(MIN_GRANULARITY * (i + 1), TileInit[i] * TILE_DEFAULT_ADD_SIZE / (MIN_GRANULARITY * (i + 1)));

  000b0	8b 07		 mov	 eax, DWORD PTR [edi]
  000b2	c1 e0 16	 shl	 eax, 22			; 00000016H
  000b5	33 d2		 xor	 edx, edx
  000b7	f7 f6		 div	 esi
  000b9	8b cb		 mov	 ecx, ebx
  000bb	50		 push	 eax
  000bc	56		 push	 esi
  000bd	e8 00 00 00 00	 call	 ?InitForSize@?$CTilePool@VLockOfWinWhileSleep@XM_Tools@@V?$CHeapPool@VLockOfWinWhileSleep@XM_Tools@@@2@@XM_Tools@@QAE_NKK@Z ; XM_Tools::CTilePool<XM_Tools::LockOfWinWhileSleep,XM_Tools::CHeapPool<XM_Tools::LockOfWinWhileSleep> >::InitForSize
  000c2	83 c6 08	 add	 esi, 8
  000c5	83 c7 04	 add	 edi, 4
  000c8	81 fe 08 01 00
	00		 cmp	 esi, 264		; 00000108H
  000ce	72 e0		 jb	 SHORT $LL3@Init
  000d0	5f		 pop	 edi
  000d1	5e		 pop	 esi

; 48   :         }
; 49   : #endif
; 50   : 
; 51   : #ifdef USE_BLOCK_MANAGE
; 52   :         m_BlockPool.Init();
; 53   : #endif
; 54   : #endif
; 55   :         return 0;

  000d2	33 c0		 xor	 eax, eax
  000d4	5b		 pop	 ebx

; 56   :     }

  000d5	81 c4 80 00 00
	00		 add	 esp, 128		; 00000080H
  000db	c3		 ret	 0
?Init@?$CMemManage@VLockOfWinWhileSleep@XM_Tools@@@XM_Tools@@QAEKXZ ENDP ; XM_Tools::CMemManage<XM_Tools::LockOfWinWhileSleep>::Init
_TEXT	ENDS
PUBLIC	?Release@?$CMemManage@VLockOfWinWhileSleep@XM_Tools@@@XM_Tools@@QAEXXZ ; XM_Tools::CMemManage<XM_Tools::LockOfWinWhileSleep>::Release
; Function compile flags: /Ogtpy
;	COMDAT ?Release@?$CMemManage@VLockOfWinWhileSleep@XM_Tools@@@XM_Tools@@QAEXXZ
_TEXT	SEGMENT
?Release@?$CMemManage@VLockOfWinWhileSleep@XM_Tools@@@XM_Tools@@QAEXXZ PROC ; XM_Tools::CMemManage<XM_Tools::LockOfWinWhileSleep>::Release, COMDAT
; _this$ = ecx

; 61   :     {

  00000	56		 push	 esi
  00001	8b f1		 mov	 esi, ecx

; 62   : #ifdef LOG_ALLOC_FREE_INFO
; 63   :         if(NULL == m_OutInfoFun || NULL == m_pOutFile)
; 64   :             return;
; 65   : 
; 66   :         std::string strTempInfo("******************************************************************\r\n");
; 67   :         char szBsInfo[128] = {0};
; 68   :         sprintf(szBsInfo, "%u\r\n", (unsigned long)m_mapAllocInfo.size());
; 69   :         strTempInfo += szBsInfo;
; 70   :         if(0 < m_mapAllocInfo.size())
; 71   :         {
; 72   :             //! 
; 73   :             unsigned long uWriteNum = 0;
; 74   :             for (std::map<void*, std::string>::iterator ite = m_mapAllocInfo.begin(); m_mapAllocInfo.end() != ite; ++ite)
; 75   :             {
; 76   :                 char szBufInfo[512] = {0};
; 77   :                 strTempInfo += std::string("") + ite->second.c_str() + "\r\n";
; 78   :                 ++uWriteNum;
; 79   : 
; 80   :                 //! 200
; 81   :                 if(200 <= uWriteNum)
; 82   :                 {
; 83   :                     m_OutInfoFun(m_pOutFile, strTempInfo.c_str());
; 84   :                     strTempInfo.clear();
; 85   :                     uWriteNum = 0;
; 86   :                 }
; 87   :             }
; 88   :         }
; 89   : 
; 90   :         strTempInfo += "\r\n";
; 91   :         m_OutInfoFun(m_pOutFile, strTempInfo.c_str());
; 92   : 
; 93   :         strTempInfo.clear();
; 94   :         m_InfoLock.Lock();
; 95   :         m_MemInfo.OutInfo(strTempInfo, true);
; 96   :         m_InfoLock.UnLock();
; 97   :         strTempInfo += "******************************************************************\r\n";
; 98   :         m_OutInfoFun(m_pOutFile, strTempInfo.c_str());
; 99   : #endif
; 100  : 
; 101  :         m_TilePool.Release();

  00003	8d 8e f8 00 00
	00		 lea	 ecx, DWORD PTR [esi+248]
  00009	e8 00 00 00 00	 call	 ?Release@?$CTilePool@VLockOfWinWhileSleep@XM_Tools@@V?$CHeapPool@VLockOfWinWhileSleep@XM_Tools@@@2@@XM_Tools@@QAEXXZ ; XM_Tools::CTilePool<XM_Tools::LockOfWinWhileSleep,XM_Tools::CHeapPool<XM_Tools::LockOfWinWhileSleep> >::Release

; 102  :         m_BlockPool.Release();

  0000e	8b 86 f0 00 00
	00		 mov	 eax, DWORD PTR [esi+240]
  00014	85 c0		 test	 eax, eax
  00016	74 13		 je	 SHORT $LN3@Release@4
  00018	50		 push	 eax
  00019	e8 00 00 00 00	 call	 _free
  0001e	83 c4 04	 add	 esp, 4
  00021	c7 86 f0 00 00
	00 00 00 00 00	 mov	 DWORD PTR [esi+240], 0
$LN3@Release@4:

; 103  :         m_HeapPool.Release();

  0002b	8b ce		 mov	 ecx, esi
  0002d	5e		 pop	 esi
  0002e	e9 00 00 00 00	 jmp	 ?Release@?$CHeapPool@VLockOfWinWhileSleep@XM_Tools@@@XM_Tools@@QAEXXZ ; XM_Tools::CHeapPool<XM_Tools::LockOfWinWhileSleep>::Release
?Release@?$CMemManage@VLockOfWinWhileSleep@XM_Tools@@@XM_Tools@@QAEXXZ ENDP ; XM_Tools::CMemManage<XM_Tools::LockOfWinWhileSleep>::Release
_TEXT	ENDS
PUBLIC	??1?$CBlockPool@VLockOfWinWhileSleep@XM_Tools@@V?$CHeapPool@VLockOfWinWhileSleep@XM_Tools@@@2@@XM_Tools@@QAE@XZ ; XM_Tools::CBlockPool<XM_Tools::LockOfWinWhileSleep,XM_Tools::CHeapPool<XM_Tools::LockOfWinWhileSleep> >::~CBlockPool<XM_Tools::LockOfWinWhileSleep,XM_Tools::CHeapPool<XM_Tools::LockOfWinWhileSleep> >
; Function compile flags: /Ogtpy
; File d:\project_p6\trunk\public\memmanage\cpp\blockpool.tcc
;	COMDAT ??1?$CBlockPool@VLockOfWinWhileSleep@XM_Tools@@V?$CHeapPool@VLockOfWinWhileSleep@XM_Tools@@@2@@XM_Tools@@QAE@XZ
_TEXT	SEGMENT
??1?$CBlockPool@VLockOfWinWhileSleep@XM_Tools@@V?$CHeapPool@VLockOfWinWhileSleep@XM_Tools@@@2@@XM_Tools@@QAE@XZ PROC ; XM_Tools::CBlockPool<XM_Tools::LockOfWinWhileSleep,XM_Tools::CHeapPool<XM_Tools::LockOfWinWhileSleep> >::~CBlockPool<XM_Tools::LockOfWinWhileSleep,XM_Tools::CHeapPool<XM_Tools::LockOfWinWhileSleep> >, COMDAT
; _this$ = ecx

; 40   : 	{

  00000	56		 push	 esi
  00001	8b f1		 mov	 esi, ecx

; 41   : 		Release();

  00003	8b 46 58	 mov	 eax, DWORD PTR [esi+88]
  00006	85 c0		 test	 eax, eax
  00008	74 10		 je	 SHORT $LN3@CBlockPool
  0000a	50		 push	 eax
  0000b	e8 00 00 00 00	 call	 _free
  00010	83 c4 04	 add	 esp, 4
  00013	c7 46 58 00 00
	00 00		 mov	 DWORD PTR [esi+88], 0
$LN3@CBlockPool:
  0001a	5e		 pop	 esi

; 42   : 	}

  0001b	c3		 ret	 0
??1?$CBlockPool@VLockOfWinWhileSleep@XM_Tools@@V?$CHeapPool@VLockOfWinWhileSleep@XM_Tools@@@2@@XM_Tools@@QAE@XZ ENDP ; XM_Tools::CBlockPool<XM_Tools::LockOfWinWhileSleep,XM_Tools::CHeapPool<XM_Tools::LockOfWinWhileSleep> >::~CBlockPool<XM_Tools::LockOfWinWhileSleep,XM_Tools::CHeapPool<XM_Tools::LockOfWinWhileSleep> >
_TEXT	ENDS
PUBLIC	??1?$CTilePool@VLockOfWinWhileSleep@XM_Tools@@V?$CHeapPool@VLockOfWinWhileSleep@XM_Tools@@@2@@XM_Tools@@QAE@XZ ; XM_Tools::CTilePool<XM_Tools::LockOfWinWhileSleep,XM_Tools::CHeapPool<XM_Tools::LockOfWinWhileSleep> >::~CTilePool<XM_Tools::LockOfWinWhileSleep,XM_Tools::CHeapPool<XM_Tools::LockOfWinWhileSleep> >
EXTRN	??_M@YGXPAXIHP6EX0@Z@Z:PROC			; `eh vector destructor iterator'
; Function compile flags: /Ogtpy
; File d:\project_p6\trunk\public\memmanage\cpp\tilepool.tcc
;	COMDAT ??1?$CTilePool@VLockOfWinWhileSleep@XM_Tools@@V?$CHeapPool@VLockOfWinWhileSleep@XM_Tools@@@2@@XM_Tools@@QAE@XZ
_TEXT	SEGMENT
??1?$CTilePool@VLockOfWinWhileSleep@XM_Tools@@V?$CHeapPool@VLockOfWinWhileSleep@XM_Tools@@@2@@XM_Tools@@QAE@XZ PROC ; XM_Tools::CTilePool<XM_Tools::LockOfWinWhileSleep,XM_Tools::CHeapPool<XM_Tools::LockOfWinWhileSleep> >::~CTilePool<XM_Tools::LockOfWinWhileSleep,XM_Tools::CHeapPool<XM_Tools::LockOfWinWhileSleep> >, COMDAT
; _this$ = ecx

; 37   : 	{

  00000	56		 push	 esi
  00001	8b f1		 mov	 esi, ecx

; 38   : 		Release();	

  00003	e8 00 00 00 00	 call	 ?Release@?$CTilePool@VLockOfWinWhileSleep@XM_Tools@@V?$CHeapPool@VLockOfWinWhileSleep@XM_Tools@@@2@@XM_Tools@@QAEXXZ ; XM_Tools::CTilePool<XM_Tools::LockOfWinWhileSleep,XM_Tools::CHeapPool<XM_Tools::LockOfWinWhileSleep> >::Release

; 39   : 	}

  00008	68 00 00 00 00	 push	 OFFSET ??1tagTileManageInfo@?$CTilePool@VLockOfWinWhileSleep@XM_Tools@@V?$CHeapPool@VLockOfWinWhileSleep@XM_Tools@@@2@@XM_Tools@@QAE@XZ
  0000d	6a 20		 push	 32			; 00000020H
  0000f	68 e4 00 00 00	 push	 228			; 000000e4H
  00014	83 c6 08	 add	 esi, 8
  00017	56		 push	 esi
  00018	e8 00 00 00 00	 call	 ??_M@YGXPAXIHP6EX0@Z@Z
  0001d	5e		 pop	 esi
  0001e	c3		 ret	 0
??1?$CTilePool@VLockOfWinWhileSleep@XM_Tools@@V?$CHeapPool@VLockOfWinWhileSleep@XM_Tools@@@2@@XM_Tools@@QAE@XZ ENDP ; XM_Tools::CTilePool<XM_Tools::LockOfWinWhileSleep,XM_Tools::CHeapPool<XM_Tools::LockOfWinWhileSleep> >::~CTilePool<XM_Tools::LockOfWinWhileSleep,XM_Tools::CHeapPool<XM_Tools::LockOfWinWhileSleep> >
_TEXT	ENDS
PUBLIC	??_7logic_error@std@@6B@			; std::logic_error::`vftable'
PUBLIC	??1logic_error@std@@UAE@XZ			; std::logic_error::~logic_error
PUBLIC	??_R4logic_error@std@@6B@			; std::logic_error::`RTTI Complete Object Locator'
PUBLIC	??_R0?AVlogic_error@std@@@8			; std::logic_error `RTTI Type Descriptor'
PUBLIC	??_R3logic_error@std@@8				; std::logic_error::`RTTI Class Hierarchy Descriptor'
PUBLIC	??_R2logic_error@std@@8				; std::logic_error::`RTTI Base Class Array'
PUBLIC	??_R1A@?0A@EA@logic_error@std@@8		; std::logic_error::`RTTI Base Class Descriptor at (0,-1,0,64)'
PUBLIC	?what@logic_error@std@@UBEPBDXZ			; std::logic_error::what
EXTRN	??_Elogic_error@std@@UAEPAXI@Z:PROC		; std::logic_error::`vector deleting destructor'
;	COMDAT ??_R1A@?0A@EA@logic_error@std@@8
; File d:\program files\microsoft visual studio 8\vc\include\iosfwd
rdata$r	SEGMENT
??_R1A@?0A@EA@logic_error@std@@8 DD FLAT:??_R0?AVlogic_error@std@@@8 ; std::logic_error::`RTTI Base Class Descriptor at (0,-1,0,64)'
	DD	01H
	DD	00H
	DD	0ffffffffH
	DD	00H
	DD	040H
	DD	FLAT:??_R3logic_error@std@@8
rdata$r	ENDS
;	COMDAT ??_R2logic_error@std@@8
rdata$r	SEGMENT
??_R2logic_error@std@@8 DD FLAT:??_R1A@?0A@EA@logic_error@std@@8 ; std::logic_error::`RTTI Base Class Array'
	DD	FLAT:??_R1A@?0A@EA@exception@std@@8
rdata$r	ENDS
;	COMDAT ??_R3logic_error@std@@8
rdata$r	SEGMENT
??_R3logic_error@std@@8 DD 00H				; std::logic_error::`RTTI Class Hierarchy Descriptor'
	DD	00H
	DD	02H
	DD	FLAT:??_R2logic_error@std@@8
rdata$r	ENDS
;	COMDAT ??_R0?AVlogic_error@std@@@8
_DATA	SEGMENT
??_R0?AVlogic_error@std@@@8 DD FLAT:??_7type_info@@6B@	; std::logic_error `RTTI Type Descriptor'
	DD	00H
	DB	'.?AVlogic_error@std@@', 00H
_DATA	ENDS
;	COMDAT ??_R4logic_error@std@@6B@
rdata$r	SEGMENT
??_R4logic_error@std@@6B@ DD 00H			; std::logic_error::`RTTI Complete Object Locator'
	DD	00H
	DD	00H
	DD	FLAT:??_R0?AVlogic_error@std@@@8
	DD	FLAT:??_R3logic_error@std@@8
rdata$r	ENDS
;	COMDAT ??_7logic_error@std@@6B@
CONST	SEGMENT
??_7logic_error@std@@6B@ DD FLAT:??_R4logic_error@std@@6B@ ; std::logic_error::`vftable'
	DD	FLAT:??_Elogic_error@std@@UAEPAXI@Z
	DD	FLAT:?what@logic_error@std@@UBEPBDXZ
; Function compile flags: /Ogtpy
; File d:\program files\microsoft visual studio 8\vc\include\stdexcept
CONST	ENDS
;	COMDAT ??1logic_error@std@@UAE@XZ
_TEXT	SEGMENT
??1logic_error@std@@UAE@XZ PROC				; std::logic_error::~logic_error, COMDAT
; _this$ = ecx

; 31   : 		{	// destroy the object

  00000	56		 push	 esi
  00001	8b f1		 mov	 esi, ecx
  00003	c7 06 00 00 00
	00		 mov	 DWORD PTR [esi], OFFSET ??_7logic_error@std@@6B@

; 32   : 		}

  00009	83 7e 24 10	 cmp	 DWORD PTR [esi+36], 16	; 00000010H
  0000d	72 0c		 jb	 SHORT $LN19@logic_erro
  0000f	8b 46 10	 mov	 eax, DWORD PTR [esi+16]
  00012	50		 push	 eax
  00013	e8 00 00 00 00	 call	 ??3@YAXPAX@Z		; operator delete
  00018	83 c4 04	 add	 esp, 4
$LN19@logic_erro:
  0001b	33 c0		 xor	 eax, eax
  0001d	c7 46 24 0f 00
	00 00		 mov	 DWORD PTR [esi+36], 15	; 0000000fH
  00024	89 46 20	 mov	 DWORD PTR [esi+32], eax
  00027	88 46 10	 mov	 BYTE PTR [esi+16], al
  0002a	8b ce		 mov	 ecx, esi
  0002c	5e		 pop	 esi
  0002d	e9 00 00 00 00	 jmp	 ??1exception@std@@UAE@XZ ; std::exception::~exception
??1logic_error@std@@UAE@XZ ENDP				; std::logic_error::~logic_error
_TEXT	ENDS
PUBLIC	?c_str@?$basic_string@DU?$char_traits@D@std@@V?$allocator@D@2@@std@@QBEPBDXZ ; std::basic_string<char,std::char_traits<char>,std::allocator<char> >::c_str
; Function compile flags: /Ogtpy
; File d:\program files\microsoft visual studio 8\vc\include\xstring
;	COMDAT ?c_str@?$basic_string@DU?$char_traits@D@std@@V?$allocator@D@2@@std@@QBEPBDXZ
_TEXT	SEGMENT
?c_str@?$basic_string@DU?$char_traits@D@std@@V?$allocator@D@2@@std@@QBEPBDXZ PROC ; std::basic_string<char,std::char_traits<char>,std::allocator<char> >::c_str, COMDAT
; _this$ = ecx

; 1622 : 		return (_Myptr());

  00000	83 79 18 10	 cmp	 DWORD PTR [ecx+24], 16	; 00000010H
  00004	72 04		 jb	 SHORT $LN5@c_str
  00006	8b 41 04	 mov	 eax, DWORD PTR [ecx+4]

; 1623 : 		}

  00009	c3		 ret	 0

; 1622 : 		return (_Myptr());

$LN5@c_str:
  0000a	8d 41 04	 lea	 eax, DWORD PTR [ecx+4]

; 1623 : 		}

  0000d	c3		 ret	 0
?c_str@?$basic_string@DU?$char_traits@D@std@@V?$allocator@D@2@@std@@QBEPBDXZ ENDP ; std::basic_string<char,std::char_traits<char>,std::allocator<char> >::c_str
; Function compile flags: /Ogtpy
; File d:\program files\microsoft visual studio 8\vc\include\stdexcept
_TEXT	ENDS
;	COMDAT ?what@logic_error@std@@UBEPBDXZ
_TEXT	SEGMENT
?what@logic_error@std@@UBEPBDXZ PROC			; std::logic_error::what, COMDAT
; _this$ = ecx

; 36   : 		return (_Str.c_str());

  00000	83 79 24 10	 cmp	 DWORD PTR [ecx+36], 16	; 00000010H
  00004	72 04		 jb	 SHORT $LN7@what
  00006	8b 41 10	 mov	 eax, DWORD PTR [ecx+16]

; 37   : 		}

  00009	c3		 ret	 0

; 36   : 		return (_Str.c_str());

$LN7@what:
  0000a	8d 41 10	 lea	 eax, DWORD PTR [ecx+16]

; 37   : 		}

  0000d	c3		 ret	 0
?what@logic_error@std@@UBEPBDXZ ENDP			; std::logic_error::what
; Function compile flags: /Ogtpy
_TEXT	ENDS
;	COMDAT ??_Glogic_error@std@@UAEPAXI@Z
_TEXT	SEGMENT
___flags$ = 8						; size = 4
??_Glogic_error@std@@UAEPAXI@Z PROC			; std::logic_error::`scalar deleting destructor', COMDAT
; _this$ = ecx
  00000	56		 push	 esi
  00001	8b f1		 mov	 esi, ecx
  00003	c7 06 00 00 00
	00		 mov	 DWORD PTR [esi], OFFSET ??_7logic_error@std@@6B@
  00009	83 7e 24 10	 cmp	 DWORD PTR [esi+36], 16	; 00000010H
  0000d	72 0c		 jb	 SHORT $LN22@scalar@3
  0000f	8b 46 10	 mov	 eax, DWORD PTR [esi+16]
  00012	50		 push	 eax
  00013	e8 00 00 00 00	 call	 ??3@YAXPAX@Z		; operator delete
  00018	83 c4 04	 add	 esp, 4
$LN22@scalar@3:
  0001b	33 c0		 xor	 eax, eax
  0001d	c7 46 24 0f 00
	00 00		 mov	 DWORD PTR [esi+36], 15	; 0000000fH
  00024	89 46 20	 mov	 DWORD PTR [esi+32], eax
  00027	8b ce		 mov	 ecx, esi
  00029	88 46 10	 mov	 BYTE PTR [esi+16], al
  0002c	e8 00 00 00 00	 call	 ??1exception@std@@UAE@XZ ; std::exception::~exception
  00031	f6 44 24 08 01	 test	 BYTE PTR ___flags$[esp], 1
  00036	74 09		 je	 SHORT $LN32@scalar@3
  00038	56		 push	 esi
  00039	e8 00 00 00 00	 call	 ??3@YAXPAX@Z		; operator delete
  0003e	83 c4 04	 add	 esp, 4
$LN32@scalar@3:
  00041	8b c6		 mov	 eax, esi
  00043	5e		 pop	 esi
  00044	c2 04 00	 ret	 4
??_Glogic_error@std@@UAEPAXI@Z ENDP			; std::logic_error::`scalar deleting destructor'
_TEXT	ENDS
PUBLIC	?assign@?$basic_string@DU?$char_traits@D@std@@V?$allocator@D@2@@std@@QAEAAV12@ABV12@II@Z ; std::basic_string<char,std::char_traits<char>,std::allocator<char> >::assign
; Function compile flags: /Ogtpy
; File d:\program files\microsoft visual studio 8\vc\include\xstring
;	COMDAT ?assign@?$basic_string@DU?$char_traits@D@std@@V?$allocator@D@2@@std@@QAEAAV12@ABV12@II@Z
_TEXT	SEGMENT
__Right$ = 8						; size = 4
__Roff$ = 12						; size = 4
__Count$ = 16						; size = 4
?assign@?$basic_string@DU?$char_traits@D@std@@V?$allocator@D@2@@std@@QAEAAV12@ABV12@II@Z PROC ; std::basic_string<char,std::char_traits<char>,std::allocator<char> >::assign, COMDAT
; _this$ = ecx

; 1038 : 		{	// assign _Right [_Roff, _Roff + _Count)

  00000	53		 push	 ebx

; 1039 : 		if (_Right.size() < _Roff)

  00001	8b 5c 24 08	 mov	 ebx, DWORD PTR __Right$[esp]
  00005	55		 push	 ebp
  00006	8b 6c 24 10	 mov	 ebp, DWORD PTR __Roff$[esp+4]
  0000a	39 6b 14	 cmp	 DWORD PTR [ebx+20], ebp
  0000d	56		 push	 esi
  0000e	57		 push	 edi
  0000f	8b f1		 mov	 esi, ecx
  00011	73 05		 jae	 SHORT $LN5@assign

; 1040 : 			_String_base::_Xran();	// _Roff off end

  00013	e8 00 00 00 00	 call	 ?_Xran@_String_base@std@@SAXXZ ; std::_String_base::_Xran
$LN5@assign:

; 1041 : 		size_type _Num = _Right.size() - _Roff;

  00018	8b 7b 14	 mov	 edi, DWORD PTR [ebx+20]

; 1042 : 		if (_Count < _Num)

  0001b	8b 44 24 1c	 mov	 eax, DWORD PTR __Count$[esp+12]
  0001f	2b fd		 sub	 edi, ebp
  00021	3b c7		 cmp	 eax, edi

; 1043 : 			_Num = _Count;	// trim _Num to size

  00023	0f 42 f8	 cmovb	 edi, eax

; 1044 : 
; 1045 : 		if (this == &_Right)

  00026	3b f3		 cmp	 esi, ebx
  00028	75 1f		 jne	 SHORT $LN3@assign

; 1046 : 			erase((size_type)(_Roff + _Num)), erase(0, _Roff);	// substring

  0002a	6a ff		 push	 -1
  0002c	03 fd		 add	 edi, ebp
  0002e	57		 push	 edi
  0002f	8b ce		 mov	 ecx, esi
  00031	e8 00 00 00 00	 call	 ?erase@?$basic_string@DU?$char_traits@D@std@@V?$allocator@D@2@@std@@QAEAAV12@II@Z ; std::basic_string<char,std::char_traits<char>,std::allocator<char> >::erase
  00036	55		 push	 ebp
  00037	6a 00		 push	 0
  00039	8b ce		 mov	 ecx, esi
  0003b	e8 00 00 00 00	 call	 ?erase@?$basic_string@DU?$char_traits@D@std@@V?$allocator@D@2@@std@@QAEAAV12@II@Z ; std::basic_string<char,std::char_traits<char>,std::allocator<char> >::erase
  00040	5f		 pop	 edi

; 1051 : 			}
; 1052 : 		return (*this);

  00041	8b c6		 mov	 eax, esi
  00043	5e		 pop	 esi
  00044	5d		 pop	 ebp
  00045	5b		 pop	 ebx

; 1053 : 		}

  00046	c2 0c 00	 ret	 12			; 0000000cH
$LN3@assign:

; 1047 : 		else if (_Grow(_Num))

  00049	83 ff fe	 cmp	 edi, -2			; fffffffeH
  0004c	76 05		 jbe	 SHORT $LN17@assign
  0004e	e8 00 00 00 00	 call	 ?_Xlen@_String_base@std@@SAXXZ ; std::_String_base::_Xlen
$LN17@assign:
  00053	8b 46 18	 mov	 eax, DWORD PTR [esi+24]
  00056	3b c7		 cmp	 eax, edi
  00058	73 1b		 jae	 SHORT $LN16@assign
  0005a	8b 46 14	 mov	 eax, DWORD PTR [esi+20]
  0005d	50		 push	 eax
  0005e	57		 push	 edi
  0005f	8b ce		 mov	 ecx, esi
  00061	e8 00 00 00 00	 call	 ?_Copy@?$basic_string@DU?$char_traits@D@std@@V?$allocator@D@2@@std@@IAEXII@Z ; std::basic_string<char,std::char_traits<char>,std::allocator<char> >::_Copy
  00066	85 ff		 test	 edi, edi
$LN87@assign:
  00068	76 66		 jbe	 SHORT $LN86@assign

; 1048 : 			{	// make room and assign new stuff
; 1049 : 			_Traits_helper::copy_s<_Traits>(_Myptr(), _Myres, _Right._Myptr() + _Roff, _Num);

  0006a	83 7b 18 10	 cmp	 DWORD PTR [ebx+24], 16	; 00000010H
  0006e	72 2f		 jb	 SHORT $LN64@assign
  00070	8b 53 04	 mov	 edx, DWORD PTR [ebx+4]
  00073	eb 2d		 jmp	 SHORT $LN65@assign

; 1047 : 		else if (_Grow(_Num))

$LN16@assign:
  00075	85 ff		 test	 edi, edi
  00077	75 ef		 jne	 SHORT $LN87@assign
  00079	83 f8 10	 cmp	 eax, 16			; 00000010H
  0007c	89 7e 14	 mov	 DWORD PTR [esi+20], edi
  0007f	72 0f		 jb	 SHORT $LN58@assign
  00081	8b 46 04	 mov	 eax, DWORD PTR [esi+4]
  00084	5f		 pop	 edi
  00085	c6 00 00	 mov	 BYTE PTR [eax], 0

; 1051 : 			}
; 1052 : 		return (*this);

  00088	8b c6		 mov	 eax, esi
  0008a	5e		 pop	 esi
  0008b	5d		 pop	 ebp
  0008c	5b		 pop	 ebx

; 1053 : 		}

  0008d	c2 0c 00	 ret	 12			; 0000000cH

; 1047 : 		else if (_Grow(_Num))

$LN58@assign:
  00090	8d 46 04	 lea	 eax, DWORD PTR [esi+4]
  00093	5f		 pop	 edi
  00094	c6 00 00	 mov	 BYTE PTR [eax], 0

; 1051 : 			}
; 1052 : 		return (*this);

  00097	8b c6		 mov	 eax, esi
  00099	5e		 pop	 esi
  0009a	5d		 pop	 ebp
  0009b	5b		 pop	 ebx

; 1053 : 		}

  0009c	c2 0c 00	 ret	 12			; 0000000cH

; 1048 : 			{	// make room and assign new stuff
; 1049 : 			_Traits_helper::copy_s<_Traits>(_Myptr(), _Myres, _Right._Myptr() + _Roff, _Num);

$LN64@assign:
  0009f	8d 53 04	 lea	 edx, DWORD PTR [ebx+4]
$LN65@assign:
  000a2	8b 4e 18	 mov	 ecx, DWORD PTR [esi+24]
  000a5	83 f9 10	 cmp	 ecx, 16			; 00000010H
  000a8	8d 5e 04	 lea	 ebx, DWORD PTR [esi+4]
  000ab	72 04		 jb	 SHORT $LN68@assign
  000ad	8b 03		 mov	 eax, DWORD PTR [ebx]
  000af	eb 02		 jmp	 SHORT $LN69@assign
$LN68@assign:
  000b1	8b c3		 mov	 eax, ebx
$LN69@assign:
  000b3	57		 push	 edi
  000b4	03 d5		 add	 edx, ebp
  000b6	52		 push	 edx
  000b7	51		 push	 ecx
  000b8	50		 push	 eax
  000b9	e8 00 00 00 00	 call	 _memcpy_s
  000be	83 c4 10	 add	 esp, 16			; 00000010H

; 1050 : 			_Eos(_Num);

  000c1	83 7e 18 10	 cmp	 DWORD PTR [esi+24], 16	; 00000010H
  000c5	89 7e 14	 mov	 DWORD PTR [esi+20], edi
  000c8	72 02		 jb	 SHORT $LN82@assign
  000ca	8b 1b		 mov	 ebx, DWORD PTR [ebx]
$LN82@assign:
  000cc	c6 04 3b 00	 mov	 BYTE PTR [ebx+edi], 0
$LN86@assign:
  000d0	5f		 pop	 edi

; 1051 : 			}
; 1052 : 		return (*this);

  000d1	8b c6		 mov	 eax, esi
  000d3	5e		 pop	 esi
  000d4	5d		 pop	 ebp
  000d5	5b		 pop	 ebx

; 1053 : 		}

  000d6	c2 0c 00	 ret	 12			; 0000000cH
?assign@?$basic_string@DU?$char_traits@D@std@@V?$allocator@D@2@@std@@QAEAAV12@ABV12@II@Z ENDP ; std::basic_string<char,std::char_traits<char>,std::allocator<char> >::assign
_TEXT	ENDS
PUBLIC	?assign@?$basic_string@DU?$char_traits@D@std@@V?$allocator@D@2@@std@@QAEAAV12@PBDI@Z ; std::basic_string<char,std::char_traits<char>,std::allocator<char> >::assign
; Function compile flags: /Ogtpy
;	COMDAT ?assign@?$basic_string@DU?$char_traits@D@std@@V?$allocator@D@2@@std@@QAEAAV12@PBDI@Z
_TEXT	SEGMENT
__Ptr$ = 8						; size = 4
__Num$ = 12						; size = 4
?assign@?$basic_string@DU?$char_traits@D@std@@V?$allocator@D@2@@std@@QAEAAV12@PBDI@Z PROC ; std::basic_string<char,std::char_traits<char>,std::allocator<char> >::assign, COMDAT
; _this$ = ecx

; 1056 : 		{	// assign [_Ptr, _Ptr + _Num)

  00000	53		 push	 ebx
  00001	55		 push	 ebp
  00002	56		 push	 esi
  00003	8b f1		 mov	 esi, ecx

; 1057 : 		if (_Inside(_Ptr))

  00005	8b 4e 18	 mov	 ecx, DWORD PTR [esi+24]
  00008	83 f9 10	 cmp	 ecx, 16			; 00000010H
  0000b	8d 5e 04	 lea	 ebx, DWORD PTR [esi+4]
  0000e	72 04		 jb	 SHORT $LN12@assign@2
  00010	8b 03		 mov	 eax, DWORD PTR [ebx]
  00012	eb 02		 jmp	 SHORT $LN13@assign@2
$LN12@assign@2:
  00014	8b c3		 mov	 eax, ebx
$LN13@assign@2:
  00016	8b 6c 24 10	 mov	 ebp, DWORD PTR __Ptr$[esp+8]
  0001a	3b e8		 cmp	 ebp, eax
  0001c	72 31		 jb	 SHORT $LN2@assign@2
  0001e	83 f9 10	 cmp	 ecx, 16			; 00000010H
  00021	72 04		 jb	 SHORT $LN16@assign@2
  00023	8b 03		 mov	 eax, DWORD PTR [ebx]
  00025	eb 02		 jmp	 SHORT $LN17@assign@2
$LN16@assign@2:
  00027	8b c3		 mov	 eax, ebx
$LN17@assign@2:
  00029	8b 56 14	 mov	 edx, DWORD PTR [esi+20]
  0002c	03 d0		 add	 edx, eax
  0002e	3b d5		 cmp	 edx, ebp
  00030	76 1d		 jbe	 SHORT $LN2@assign@2

; 1058 : 			return (assign(*this, _Ptr - _Myptr(), _Num));	// substring

  00032	83 f9 10	 cmp	 ecx, 16			; 00000010H
  00035	72 02		 jb	 SHORT $LN20@assign@2
  00037	8b 1b		 mov	 ebx, DWORD PTR [ebx]
$LN20@assign@2:
  00039	8b 44 24 14	 mov	 eax, DWORD PTR __Num$[esp+8]
  0003d	50		 push	 eax
  0003e	2b eb		 sub	 ebp, ebx
  00040	55		 push	 ebp
  00041	56		 push	 esi
  00042	8b ce		 mov	 ecx, esi
  00044	e8 00 00 00 00	 call	 ?assign@?$basic_string@DU?$char_traits@D@std@@V?$allocator@D@2@@std@@QAEAAV12@ABV12@II@Z ; std::basic_string<char,std::char_traits<char>,std::allocator<char> >::assign
  00049	5e		 pop	 esi
  0004a	5d		 pop	 ebp
  0004b	5b		 pop	 ebx

; 1066 : 		}

  0004c	c2 08 00	 ret	 8
$LN2@assign@2:
  0004f	57		 push	 edi

; 1059 : 
; 1060 : 		if (_Grow(_Num))

  00050	8b 7c 24 18	 mov	 edi, DWORD PTR __Num$[esp+12]
  00054	83 ff fe	 cmp	 edi, -2			; fffffffeH
  00057	76 05		 jbe	 SHORT $LN27@assign@2
  00059	e8 00 00 00 00	 call	 ?_Xlen@_String_base@std@@SAXXZ ; std::_String_base::_Xlen
$LN27@assign@2:
  0005e	8b 46 18	 mov	 eax, DWORD PTR [esi+24]
  00061	3b c7		 cmp	 eax, edi
  00063	73 1c		 jae	 SHORT $LN26@assign@2
  00065	8b 4e 14	 mov	 ecx, DWORD PTR [esi+20]
  00068	51		 push	 ecx
  00069	57		 push	 edi
  0006a	8b ce		 mov	 ecx, esi
  0006c	e8 00 00 00 00	 call	 ?_Copy@?$basic_string@DU?$char_traits@D@std@@V?$allocator@D@2@@std@@IAEXII@Z ; std::basic_string<char,std::char_traits<char>,std::allocator<char> >::_Copy
  00071	85 ff		 test	 edi, edi
$LN93@assign@2:
  00073	76 43		 jbe	 SHORT $LN90@assign@2

; 1061 : 			{	// make room and assign new stuff
; 1062 : 			_Traits_helper::copy_s<_Traits>(_Myptr(), _Myres, _Ptr, _Num);

  00075	8b 4e 18	 mov	 ecx, DWORD PTR [esi+24]
  00078	83 f9 10	 cmp	 ecx, 16			; 00000010H
  0007b	72 1e		 jb	 SHORT $LN74@assign@2
  0007d	8b 03		 mov	 eax, DWORD PTR [ebx]
  0007f	eb 1c		 jmp	 SHORT $LN75@assign@2

; 1059 : 
; 1060 : 		if (_Grow(_Num))

$LN26@assign@2:
  00081	85 ff		 test	 edi, edi
  00083	75 ee		 jne	 SHORT $LN93@assign@2
  00085	83 f8 10	 cmp	 eax, 16			; 00000010H
  00088	89 7e 14	 mov	 DWORD PTR [esi+20], edi
  0008b	72 02		 jb	 SHORT $LN68@assign@2
  0008d	8b 1b		 mov	 ebx, DWORD PTR [ebx]
$LN68@assign@2:
  0008f	5f		 pop	 edi

; 1064 : 			}
; 1065 : 		return (*this);

  00090	8b c6		 mov	 eax, esi
  00092	5e		 pop	 esi
  00093	5d		 pop	 ebp
  00094	c6 03 00	 mov	 BYTE PTR [ebx], 0
  00097	5b		 pop	 ebx

; 1066 : 		}

  00098	c2 08 00	 ret	 8

; 1061 : 			{	// make room and assign new stuff
; 1062 : 			_Traits_helper::copy_s<_Traits>(_Myptr(), _Myres, _Ptr, _Num);

$LN74@assign@2:
  0009b	8b c3		 mov	 eax, ebx
$LN75@assign@2:
  0009d	57		 push	 edi
  0009e	55		 push	 ebp
  0009f	51		 push	 ecx
  000a0	50		 push	 eax
  000a1	e8 00 00 00 00	 call	 _memcpy_s
  000a6	83 c4 10	 add	 esp, 16			; 00000010H

; 1063 : 			_Eos(_Num);

  000a9	83 7e 18 10	 cmp	 DWORD PTR [esi+24], 16	; 00000010H
  000ad	89 7e 14	 mov	 DWORD PTR [esi+20], edi
  000b0	72 02		 jb	 SHORT $LN88@assign@2
  000b2	8b 1b		 mov	 ebx, DWORD PTR [ebx]
$LN88@assign@2:
  000b4	c6 04 3b 00	 mov	 BYTE PTR [ebx+edi], 0
$LN90@assign@2:
  000b8	5f		 pop	 edi

; 1064 : 			}
; 1065 : 		return (*this);

  000b9	8b c6		 mov	 eax, esi
  000bb	5e		 pop	 esi
  000bc	5d		 pop	 ebp
  000bd	5b		 pop	 ebx

; 1066 : 		}

  000be	c2 08 00	 ret	 8
?assign@?$basic_string@DU?$char_traits@D@std@@V?$allocator@D@2@@std@@QAEAAV12@PBDI@Z ENDP ; std::basic_string<char,std::char_traits<char>,std::allocator<char> >::assign
_TEXT	ENDS
PUBLIC	?erase@?$list@U?$pair@$$CBVCGUID@@PAVCBaseObject@@@std@@V?$allocator@U?$pair@$$CBVCGUID@@PAVCBaseObject@@@std@@@2@@std@@QAE?AV?$_Iterator@$00@12@V312@@Z ; std::list<std::pair<CGUID const ,CBaseObject *>,std::allocator<std::pair<CGUID const ,CBaseObject *> > >::erase
; Function compile flags: /Ogtpy
; File d:\program files\microsoft visual studio 8\vc\include\list
;	COMDAT ?erase@?$list@U?$pair@$$CBVCGUID@@PAVCBaseObject@@@std@@V?$allocator@U?$pair@$$CBVCGUID@@PAVCBaseObject@@@std@@@2@@std@@QAE?AV?$_Iterator@$00@12@V312@@Z
_TEXT	SEGMENT
$T300675 = -8						; size = 8
___$ReturnUdt$ = 8					; size = 4
__Where$ = 12						; size = 8
?erase@?$list@U?$pair@$$CBVCGUID@@PAVCBaseObject@@@std@@V?$allocator@U?$pair@$$CBVCGUID@@PAVCBaseObject@@@std@@@2@@std@@QAE?AV?$_Iterator@$00@12@V312@@Z PROC ; std::list<std::pair<CGUID const ,CBaseObject *>,std::allocator<std::pair<CGUID const ,CBaseObject *> > >::erase, COMDAT
; _this$ = ecx

; 772  : 		{	// erase element at _Where

  00000	83 ec 08	 sub	 esp, 8
  00003	53		 push	 ebx

; 773  : 
; 774  :  #if _HAS_ITERATOR_DEBUGGING
; 775  : 		if (_Where._Mycont != this || _Where._Ptr == _Myhead)
; 776  : 			_DEBUG_ERROR("list erase iterator outside range");
; 777  : 		_Nodeptr _Pnode = (_Where++)._Mynode();
; 778  : 		_Orphan_ptr(*this, _Pnode);
; 779  : 
; 780  :  #else /* _HAS_ITERATOR_DEBUGGING */
; 781  : 		_Nodeptr _Pnode = (_Where++)._Mynode();

  00004	8b 5c 24 14	 mov	 ebx, DWORD PTR __Where$[esp+8]
  00008	85 db		 test	 ebx, ebx
  0000a	55		 push	 ebp
  0000b	56		 push	 esi
  0000c	8b 74 24 20	 mov	 esi, DWORD PTR __Where$[esp+20]
  00010	57		 push	 edi
  00011	8b f9		 mov	 edi, ecx
  00013	89 5c 24 10	 mov	 DWORD PTR $T300675[esp+24], ebx
  00017	75 05		 jne	 SHORT $LN10@erase@2
  00019	e8 00 00 00 00	 call	 __invalid_parameter_noinfo
$LN10@erase@2:
  0001e	3b 73 04	 cmp	 esi, DWORD PTR [ebx+4]
  00021	75 05		 jne	 SHORT $LN8@erase@2
  00023	e8 00 00 00 00	 call	 __invalid_parameter_noinfo
$LN8@erase@2:

; 782  :  #endif /* _HAS_ITERATOR_DEBUGGING */
; 783  : 
; 784  : 		if (_Pnode != _Myhead)

  00028	3b 77 04	 cmp	 esi, DWORD PTR [edi+4]
  0002b	8b 2e		 mov	 ebp, DWORD PTR [esi]
  0002d	74 1c		 je	 SHORT $LN1@erase@2

; 785  : 			{	// not list head, safe to erase
; 786  : 			_Nextnode(_Prevnode(_Pnode)) = _Nextnode(_Pnode);

  0002f	8b 46 04	 mov	 eax, DWORD PTR [esi+4]
  00032	8b cd		 mov	 ecx, ebp
  00034	89 08		 mov	 DWORD PTR [eax], ecx

; 787  : 			_Prevnode(_Nextnode(_Pnode)) = _Prevnode(_Pnode);

  00036	8b 16		 mov	 edx, DWORD PTR [esi]
  00038	8b 46 04	 mov	 eax, DWORD PTR [esi+4]

; 788  : 			this->_Alnod.destroy(_Pnode);
; 789  : 			this->_Alnod.deallocate(_Pnode, 1);

  0003b	56		 push	 esi
  0003c	89 42 04	 mov	 DWORD PTR [edx+4], eax
  0003f	e8 00 00 00 00	 call	 ??3@YAXPAX@Z		; operator delete
  00044	83 c4 04	 add	 esp, 4

; 790  : 			--_Mysize;

  00047	83 47 08 ff	 add	 DWORD PTR [edi+8], -1
$LN1@erase@2:

; 791  : 			}
; 792  : 		return (_Where);

  0004b	8b 44 24 1c	 mov	 eax, DWORD PTR ___$ReturnUdt$[esp+20]
  0004f	5f		 pop	 edi
  00050	5e		 pop	 esi
  00051	89 68 04	 mov	 DWORD PTR [eax+4], ebp
  00054	5d		 pop	 ebp
  00055	89 18		 mov	 DWORD PTR [eax], ebx
  00057	5b		 pop	 ebx

; 793  : 		}

  00058	83 c4 08	 add	 esp, 8
  0005b	c2 0c 00	 ret	 12			; 0000000cH
?erase@?$list@U?$pair@$$CBVCGUID@@PAVCBaseObject@@@std@@V?$allocator@U?$pair@$$CBVCGUID@@PAVCBaseObject@@@std@@@2@@std@@QAE?AV?$_Iterator@$00@12@V312@@Z ENDP ; std::list<std::pair<CGUID const ,CBaseObject *>,std::allocator<std::pair<CGUID const ,CBaseObject *> > >::erase
_TEXT	ENDS
PUBLIC	?clear@?$list@U?$pair@$$CBVCGUID@@PAVCBaseObject@@@std@@V?$allocator@U?$pair@$$CBVCGUID@@PAVCBaseObject@@@std@@@2@@std@@QAEXXZ ; std::list<std::pair<CGUID const ,CBaseObject *>,std::allocator<std::pair<CGUID const ,CBaseObject *> > >::clear
; Function compile flags: /Ogtpy
;	COMDAT ?clear@?$list@U?$pair@$$CBVCGUID@@PAVCBaseObject@@@std@@V?$allocator@U?$pair@$$CBVCGUID@@PAVCBaseObject@@@std@@@2@@std@@QAEXXZ
_TEXT	SEGMENT
?clear@?$list@U?$pair@$$CBVCGUID@@PAVCBaseObject@@@std@@V?$allocator@U?$pair@$$CBVCGUID@@PAVCBaseObject@@@std@@@2@@std@@QAEXXZ PROC ; std::list<std::pair<CGUID const ,CBaseObject *>,std::allocator<std::pair<CGUID const ,CBaseObject *> > >::clear, COMDAT
; _this$ = ecx

; 811  : 		{	// erase all

  00000	56		 push	 esi
  00001	8b f1		 mov	 esi, ecx

; 812  : 
; 813  :  #if _HAS_ITERATOR_DEBUGGING
; 814  : 		this->_Orphan_ptr(*this, 0);
; 815  :  #endif /* _HAS_ITERATOR_DEBUGGING */
; 816  : 
; 817  : 		_Nodeptr _Pnext;
; 818  : 		_Nodeptr _Pnode = _Nextnode(_Myhead);

  00003	8b 4e 04	 mov	 ecx, DWORD PTR [esi+4]
  00006	8b 01		 mov	 eax, DWORD PTR [ecx]

; 819  : 		_Nextnode(_Myhead) = _Myhead;

  00008	89 09		 mov	 DWORD PTR [ecx], ecx

; 820  : 		_Prevnode(_Myhead) = _Myhead;

  0000a	8b 4e 04	 mov	 ecx, DWORD PTR [esi+4]
  0000d	89 49 04	 mov	 DWORD PTR [ecx+4], ecx

; 821  : 		_Mysize = 0;
; 822  : 
; 823  : 		for (; _Pnode != _Myhead; _Pnode = _Pnext)

  00010	3b 46 04	 cmp	 eax, DWORD PTR [esi+4]
  00013	c7 46 08 00 00
	00 00		 mov	 DWORD PTR [esi+8], 0
  0001a	74 17		 je	 SHORT $LN1@clear
  0001c	57		 push	 edi
  0001d	8d 49 00	 npad	 3
$LL3@clear:

; 824  : 			{	// delete an element
; 825  : 			_Pnext = _Nextnode(_Pnode);

  00020	8b 38		 mov	 edi, DWORD PTR [eax]

; 826  : 			this->_Alnod.destroy(_Pnode);
; 827  : 			this->_Alnod.deallocate(_Pnode, 1);

  00022	50		 push	 eax
  00023	e8 00 00 00 00	 call	 ??3@YAXPAX@Z		; operator delete
  00028	83 c4 04	 add	 esp, 4
  0002b	3b 7e 04	 cmp	 edi, DWORD PTR [esi+4]
  0002e	8b c7		 mov	 eax, edi
  00030	75 ee		 jne	 SHORT $LL3@clear
  00032	5f		 pop	 edi
$LN1@clear:
  00033	5e		 pop	 esi

; 828  : 			}
; 829  : 		}

  00034	c3		 ret	 0
?clear@?$list@U?$pair@$$CBVCGUID@@PAVCBaseObject@@@std@@V?$allocator@U?$pair@$$CBVCGUID@@PAVCBaseObject@@@std@@@2@@std@@QAEXXZ ENDP ; std::list<std::pair<CGUID const ,CBaseObject *>,std::allocator<std::pair<CGUID const ,CBaseObject *> > >::clear
_TEXT	ENDS
PUBLIC	?_Destroy@?$vector@U_List_position@?$_Hash@V?$_Hmap_traits@VCGUID@@PAVCBaseObject@@Vhash_guid_compare@@V?$allocator@U?$pair@$$CBVCGUID@@PAVCBaseObject@@@std@@@std@@$0A@@stdext@@@stdext@@V?$allocator@U_List_position@?$_Hash@V?$_Hmap_traits@VCGUID@@PAVCBaseObject@@Vhash_guid_compare@@V?$allocator@U?$pair@$$CBVCGUID@@PAVCBaseObject@@@std@@@std@@$0A@@stdext@@@stdext@@@std@@@std@@IAEXPAU_List_position@?$_Hash@V?$_Hmap_traits@VCGUID@@PAVCBaseObject@@Vhash_guid_compare@@V?$allocator@U?$pair@$$CBVCGUID@@PAVCBaseObject@@@std@@@std@@$0A@@stdext@@@stdext@@0@Z ; std::vector<stdext::_Hash<stdext::_Hmap_traits<CGUID,CBaseObject *,hash_guid_compare,std::allocator<std::pair<CGUID const ,CBaseObject *> >,0> >::_List_position,std::allocator<stdext::_Hash<stdext::_Hmap_traits<CGUID,CBaseObject *,hash_guid_compare,std::allocator<std::pair<CGUID const ,CBaseObject *> >,0> >::_List_position> >::_Destroy
; Function compile flags: /Ogtpy
; File d:\program files\microsoft visual studio 8\vc\include\vector
;	COMDAT ?_Destroy@?$vector@U_List_position@?$_Hash@V?$_Hmap_traits@VCGUID@@PAVCBaseObject@@Vhash_guid_compare@@V?$allocator@U?$pair@$$CBVCGUID@@PAVCBaseObject@@@std@@@std@@$0A@@stdext@@@stdext@@V?$allocator@U_List_position@?$_Hash@V?$_Hmap_traits@VCGUID@@PAVCBaseObject@@Vhash_guid_compare@@V?$allocator@U?$pair@$$CBVCGUID@@PAVCBaseObject@@@std@@@std@@$0A@@stdext@@@stdext@@@std@@@std@@IAEXPAU_List_position@?$_Hash@V?$_Hmap_traits@VCGUID@@PAVCBaseObject@@Vhash_guid_compare@@V?$allocator@U?$pair@$$CBVCGUID@@PAVCBaseObject@@@std@@@std@@$0A@@stdext@@@stdext@@0@Z
_TEXT	SEGMENT
__First$ = 8						; size = 4
__Last$ = 12						; size = 4
?_Destroy@?$vector@U_List_position@?$_Hash@V?$_Hmap_traits@VCGUID@@PAVCBaseObject@@Vhash_guid_compare@@V?$allocator@U?$pair@$$CBVCGUID@@PAVCBaseObject@@@std@@@std@@$0A@@stdext@@@stdext@@V?$allocator@U_List_position@?$_Hash@V?$_Hmap_traits@VCGUID@@PAVCBaseObject@@Vhash_guid_compare@@V?$allocator@U?$pair@$$CBVCGUID@@PAVCBaseObject@@@std@@@std@@$0A@@stdext@@@stdext@@@std@@@std@@IAEXPAU_List_position@?$_Hash@V?$_Hmap_traits@VCGUID@@PAVCBaseObject@@Vhash_guid_compare@@V?$allocator@U?$pair@$$CBVCGUID@@PAVCBaseObject@@@std@@@std@@$0A@@stdext@@@stdext@@0@Z PROC ; std::vector<stdext::_Hash<stdext::_Hmap_traits<CGUID,CBaseObject *,hash_guid_compare,std::allocator<std::pair<CGUID const ,CBaseObject *> >,0> >::_List_position,std::allocator<stdext::_Hash<stdext::_Hmap_traits<CGUID,CBaseObject *,hash_guid_compare,std::allocator<std::pair<CGUID const ,CBaseObject *> >,0> >::_List_position> >::_Destroy, COMDAT
; _this$ = ecx

; 1083 : 		_Destroy_range(_First, _Last, this->_Alval);
; 1084 : 		}

  00000	c2 08 00	 ret	 8
?_Destroy@?$vector@U_List_position@?$_Hash@V?$_Hmap_traits@VCGUID@@PAVCBaseObject@@Vhash_guid_compare@@V?$allocator@U?$pair@$$CBVCGUID@@PAVCBaseObject@@@std@@@std@@$0A@@stdext@@@stdext@@V?$allocator@U_List_position@?$_Hash@V?$_Hmap_traits@VCGUID@@PAVCBaseObject@@Vhash_guid_compare@@V?$allocator@U?$pair@$$CBVCGUID@@PAVCBaseObject@@@std@@@std@@$0A@@stdext@@@stdext@@@std@@@std@@IAEXPAU_List_position@?$_Hash@V?$_Hmap_traits@VCGUID@@PAVCBaseObject@@Vhash_guid_compare@@V?$allocator@U?$pair@$$CBVCGUID@@PAVCBaseObject@@@std@@@std@@$0A@@stdext@@@stdext@@0@Z ENDP ; std::vector<stdext::_Hash<stdext::_Hmap_traits<CGUID,CBaseObject *,hash_guid_compare,std::allocator<std::pair<CGUID const ,CBaseObject *> >,0> >::_List_position,std::allocator<stdext::_Hash<stdext::_Hmap_traits<CGUID,CBaseObject *,hash_guid_compare,std::allocator<std::pair<CGUID const ,CBaseObject *> >,0> >::_List_position> >::_Destroy
_TEXT	ENDS
PUBLIC	?_Ufill@?$vector@U_List_position@?$_Hash@V?$_Hmap_traits@VCGUID@@PAVCBaseObject@@Vhash_guid_compare@@V?$allocator@U?$pair@$$CBVCGUID@@PAVCBaseObject@@@std@@@std@@$0A@@stdext@@@stdext@@V?$allocator@U_List_position@?$_Hash@V?$_Hmap_traits@VCGUID@@PAVCBaseObject@@Vhash_guid_compare@@V?$allocator@U?$pair@$$CBVCGUID@@PAVCBaseObject@@@std@@@std@@$0A@@stdext@@@stdext@@@std@@@std@@IAEPAU_List_position@?$_Hash@V?$_Hmap_traits@VCGUID@@PAVCBaseObject@@Vhash_guid_compare@@V?$allocator@U?$pair@$$CBVCGUID@@PAVCBaseObject@@@std@@@std@@$0A@@stdext@@@stdext@@PAU345@IABU345@@Z ; std::vector<stdext::_Hash<stdext::_Hmap_traits<CGUID,CBaseObject *,hash_guid_compare,std::allocator<std::pair<CGUID const ,CBaseObject *> >,0> >::_List_position,std::allocator<stdext::_Hash<stdext::_Hmap_traits<CGUID,CBaseObject *,hash_guid_compare,std::allocator<std::pair<CGUID const ,CBaseObject *> >,0> >::_List_position> >::_Ufill
; Function compile flags: /Ogtpy
;	COMDAT ?_Ufill@?$vector@U_List_position@?$_Hash@V?$_Hmap_traits@VCGUID@@PAVCBaseObject@@Vhash_guid_compare@@V?$allocator@U?$pair@$$CBVCGUID@@PAVCBaseObject@@@std@@@std@@$0A@@stdext@@@stdext@@V?$allocator@U_List_position@?$_Hash@V?$_Hmap_traits@VCGUID@@PAVCBaseObject@@Vhash_guid_compare@@V?$allocator@U?$pair@$$CBVCGUID@@PAVCBaseObject@@@std@@@std@@$0A@@stdext@@@stdext@@@std@@@std@@IAEPAU_List_position@?$_Hash@V?$_Hmap_traits@VCGUID@@PAVCBaseObject@@Vhash_guid_compare@@V?$allocator@U?$pair@$$CBVCGUID@@PAVCBaseObject@@@std@@@std@@$0A@@stdext@@@stdext@@PAU345@IABU345@@Z
_TEXT	SEGMENT
$T300812 = -4						; size = 1
__Ptr$ = 8						; size = 4
__Count$ = 12						; size = 4
__Cat$300815 = 16					; size = 1
__Val$ = 16						; size = 4
?_Ufill@?$vector@U_List_position@?$_Hash@V?$_Hmap_traits@VCGUID@@PAVCBaseObject@@Vhash_guid_compare@@V?$allocator@U?$pair@$$CBVCGUID@@PAVCBaseObject@@@std@@@std@@$0A@@stdext@@@stdext@@V?$allocator@U_List_position@?$_Hash@V?$_Hmap_traits@VCGUID@@PAVCBaseObject@@Vhash_guid_compare@@V?$allocator@U?$pair@$$CBVCGUID@@PAVCBaseObject@@@std@@@std@@$0A@@stdext@@@stdext@@@std@@@std@@IAEPAU_List_position@?$_Hash@V?$_Hmap_traits@VCGUID@@PAVCBaseObject@@Vhash_guid_compare@@V?$allocator@U?$pair@$$CBVCGUID@@PAVCBaseObject@@@std@@@std@@$0A@@stdext@@@stdext@@PAU345@IABU345@@Z PROC ; std::vector<stdext::_Hash<stdext::_Hmap_traits<CGUID,CBaseObject *,hash_guid_compare,std::allocator<std::pair<CGUID const ,CBaseObject *> >,0> >::_List_position,std::allocator<stdext::_Hash<stdext::_Hmap_traits<CGUID,CBaseObject *,hash_guid_compare,std::allocator<std::pair<CGUID const ,CBaseObject *> >,0> >::_List_position> >::_Ufill, COMDAT
; _this$ = ecx

; 1207 : 		{	// copy initializing _Count * _Val, using allocator

  00000	51		 push	 ecx

; 1208 : 		_STDEXT unchecked_uninitialized_fill_n(_Ptr, _Count, _Val, this->_Alval);

  00001	8b 54 24 10	 mov	 edx, DWORD PTR __Cat$300815[esp]
  00005	56		 push	 esi
  00006	8b 74 24 10	 mov	 esi, DWORD PTR __Count$[esp+4]
  0000a	57		 push	 edi
  0000b	8b 7c 24 10	 mov	 edi, DWORD PTR __Ptr$[esp+8]
  0000f	c6 44 24 08 00	 mov	 BYTE PTR $T300812[esp+12], 0
  00014	8b 44 24 08	 mov	 eax, DWORD PTR $T300812[esp+12]
  00018	50		 push	 eax
  00019	8b 44 24 1c	 mov	 eax, DWORD PTR __Val$[esp+12]
  0001d	52		 push	 edx
  0001e	51		 push	 ecx
  0001f	50		 push	 eax
  00020	56		 push	 esi
  00021	57		 push	 edi
  00022	e8 00 00 00 00	 call	 ??$_Uninit_fill_n@PAU_List_position@?$_Hash@V?$_Hmap_traits@VCGUID@@PAVCBaseObject@@Vhash_guid_compare@@V?$allocator@U?$pair@$$CBVCGUID@@PAVCBaseObject@@@std@@@std@@$0A@@stdext@@@stdext@@IU123@V?$allocator@U_List_position@?$_Hash@V?$_Hmap_traits@VCGUID@@PAVCBaseObject@@Vhash_guid_compare@@V?$allocator@U?$pair@$$CBVCGUID@@PAVCBaseObject@@@std@@@std@@$0A@@stdext@@@stdext@@@std@@@std@@YAXPAU_List_position@?$_Hash@V?$_Hmap_traits@VCGUID@@PAVCBaseObject@@Vhash_guid_compare@@V?$allocator@U?$pair@$$CBVCGUID@@PAVCBaseObject@@@std@@@std@@$0A@@stdext@@@stdext@@IABU123@AAV?$allocator@U_List_position@?$_Hash@V?$_Hmap_traits@VCGUID@@PAVCBaseObject@@Vhash_guid_compare@@V?$allocator@U?$pair@$$CBVCGUID@@PAVCBaseObject@@@std@@@std@@$0A@@stdext@@@stdext@@@0@U_Nonscalar_ptr_iterator_tag@0@U_Range_checked_iterator_tag@0@@Z ; std::_Uninit_fill_n<stdext::_Hash<stdext::_Hmap_traits<CGUID,CBaseObject *,hash_guid_compare,std::allocator<std::pair<CGUID const ,CBaseObject *> >,0> >::_List_position *,unsigned int,stdext::_Hash<stdext::_Hmap_traits<CGUID,CBaseObject *,hash_guid_compare,std::allocator<std::pair<CGUID const ,CBaseObject *> >,0> >::_List_position,std::allocator<stdext::_Hash<stdext::_Hmap_traits<CGUID,CBaseObject *,hash_guid_compare,std::allocator<std::pair<CGUID const ,CBaseObject *> >,0> >::_List_position> >
  00027	83 c4 18	 add	 esp, 24			; 00000018H

; 1209 : 		return (_Ptr + _Count);

  0002a	8d 04 f7	 lea	 eax, DWORD PTR [edi+esi*8]
  0002d	5f		 pop	 edi
  0002e	5e		 pop	 esi

; 1210 : 		}

  0002f	59		 pop	 ecx
  00030	c2 0c 00	 ret	 12			; 0000000cH
?_Ufill@?$vector@U_List_position@?$_Hash@V?$_Hmap_traits@VCGUID@@PAVCBaseObject@@Vhash_guid_compare@@V?$allocator@U?$pair@$$CBVCGUID@@PAVCBaseObject@@@std@@@std@@$0A@@stdext@@@stdext@@V?$allocator@U_List_position@?$_Hash@V?$_Hmap_traits@VCGUID@@PAVCBaseObject@@Vhash_guid_compare@@V?$allocator@U?$pair@$$CBVCGUID@@PAVCBaseObject@@@std@@@std@@$0A@@stdext@@@stdext@@@std@@@std@@IAEPAU_List_position@?$_Hash@V?$_Hmap_traits@VCGUID@@PAVCBaseObject@@Vhash_guid_compare@@V?$allocator@U?$pair@$$CBVCGUID@@PAVCBaseObject@@@std@@@std@@$0A@@stdext@@@stdext@@PAU345@IABU345@@Z ENDP ; std::vector<stdext::_Hash<stdext::_Hmap_traits<CGUID,CBaseObject *,hash_guid_compare,std::allocator<std::pair<CGUID const ,CBaseObject *> >,0> >::_List_position,std::allocator<stdext::_Hash<stdext::_Hmap_traits<CGUID,CBaseObject *,hash_guid_compare,std::allocator<std::pair<CGUID const ,CBaseObject *> >,0> >::_List_position> >::_Ufill
_TEXT	ENDS
PUBLIC	?AsyncAlloc@?$CMemManage@VLockOfWinWhileSleep@XM_Tools@@@XM_Tools@@QAEPAXK@Z ; XM_Tools::CMemManage<XM_Tools::LockOfWinWhileSleep>::AsyncAlloc
EXTRN	_memset:PROC
; Function compile flags: /Ogtpy
; File d:\project_p6\trunk\public\memmanage\cpp\memmanage.tcc
;	COMDAT ?AsyncAlloc@?$CMemManage@VLockOfWinWhileSleep@XM_Tools@@@XM_Tools@@QAEPAXK@Z
_TEXT	SEGMENT
_lSize$ = 8						; size = 4
?AsyncAlloc@?$CMemManage@VLockOfWinWhileSleep@XM_Tools@@@XM_Tools@@QAEPAXK@Z PROC ; XM_Tools::CMemManage<XM_Tools::LockOfWinWhileSleep>::AsyncAlloc, COMDAT
; _this$ = ecx

; 262  :     {

  00000	56		 push	 esi

; 263  :         if(MAX_GRANULARITY < lSize)

  00001	8b 74 24 08	 mov	 esi, DWORD PTR _lSize$[esp]
  00005	81 fe 00 00 00
	40		 cmp	 esi, 1073741824		; 40000000H
  0000b	76 06		 jbe	 SHORT $LN6@AsyncAlloc

; 264  :             RETURN_THROW(NULL);

  0000d	33 c0		 xor	 eax, eax
  0000f	5e		 pop	 esi

; 284  :     }

  00010	c2 04 00	 ret	 4
$LN6@AsyncAlloc:

; 265  : 
; 266  :         void *pRe = NULL;
; 267  : 
; 268  : #ifdef USE_C_LIB_ALLOC
; 269  :         pRe = malloc(lSize);
; 270  : #else
; 271  :         if(TILE_MAX_SIZE >= lSize)

  00013	81 fe 00 01 00
	00		 cmp	 esi, 256		; 00000100H
  00019	57		 push	 edi

; 272  :             pRe = m_TilePool.Alloc(lSize);

  0001a	56		 push	 esi
  0001b	77 0d		 ja	 SHORT $LN5@AsyncAlloc
  0001d	81 c1 f8 00 00
	00		 add	 ecx, 248		; 000000f8H
  00023	e8 00 00 00 00	 call	 ?Alloc@?$CTilePool@VLockOfWinWhileSleep@XM_Tools@@V?$CHeapPool@VLockOfWinWhileSleep@XM_Tools@@@2@@XM_Tools@@QAEPAXK@Z ; XM_Tools::CTilePool<XM_Tools::LockOfWinWhileSleep,XM_Tools::CHeapPool<XM_Tools::LockOfWinWhileSleep> >::Alloc
  00028	eb 17		 jmp	 SHORT $LN78@AsyncAlloc
$LN5@AsyncAlloc:

; 273  :         else if (BLOCK_MAX_ALLOC_SIZE >= lSize)

  0002a	81 fe 00 00 08
	00		 cmp	 esi, 524288		; 00080000H
  00030	77 07		 ja	 SHORT $LN3@AsyncAlloc

; 274  :             pRe = m_BlockPool.Alloc(lSize);

  00032	83 81 a4 00 00
	00 01		 add	 DWORD PTR [ecx+164], 1
$LN3@AsyncAlloc:

; 275  :         else
; 276  :             pRe = m_HeapPool.Alloc(lSize);

  00039	e8 00 00 00 00	 call	 _malloc
  0003e	83 c4 04	 add	 esp, 4
$LN78@AsyncAlloc:
  00041	8b f8		 mov	 edi, eax

; 277  : #endif //! USE_C_LIB_ALLOC
; 278  : 
; 279  : #ifdef FILL_MEM
; 280  :         if(NULL != pRe)

  00043	85 ff		 test	 edi, edi
  00045	74 0f		 je	 SHORT $LN1@AsyncAlloc

; 281  :             memset(pRe, FILL_VALUE, lSize);

  00047	56		 push	 esi
  00048	68 cd 00 00 00	 push	 205			; 000000cdH
  0004d	57		 push	 edi
  0004e	e8 00 00 00 00	 call	 _memset
  00053	83 c4 0c	 add	 esp, 12			; 0000000cH
$LN1@AsyncAlloc:

; 282  : #endif
; 283  :         return pRe;

  00056	8b c7		 mov	 eax, edi
  00058	5f		 pop	 edi
  00059	5e		 pop	 esi

; 284  :     }

  0005a	c2 04 00	 ret	 4
?AsyncAlloc@?$CMemManage@VLockOfWinWhileSleep@XM_Tools@@@XM_Tools@@QAEPAXK@Z ENDP ; XM_Tools::CMemManage<XM_Tools::LockOfWinWhileSleep>::AsyncAlloc
_TEXT	ENDS
PUBLIC	?AsyncFree@?$CMemManage@VLockOfWinWhileSleep@XM_Tools@@@XM_Tools@@QAEXPAXK@Z ; XM_Tools::CMemManage<XM_Tools::LockOfWinWhileSleep>::AsyncFree
; Function compile flags: /Ogtpy
;	COMDAT ?AsyncFree@?$CMemManage@VLockOfWinWhileSleep@XM_Tools@@@XM_Tools@@QAEXPAXK@Z
_TEXT	SEGMENT
_pBuf$ = 8						; size = 4
_lSize$ = 12						; size = 4
?AsyncFree@?$CMemManage@VLockOfWinWhileSleep@XM_Tools@@@XM_Tools@@QAEXPAXK@Z PROC ; XM_Tools::CMemManage<XM_Tools::LockOfWinWhileSleep>::AsyncFree, COMDAT
; _this$ = ecx

; 290  : #ifdef USE_C_LIB_ALLOC
; 291  :         free(pBuf);
; 292  : #else
; 293  :         if(TILE_MAX_SIZE >= lSize)

  00000	8b 44 24 08	 mov	 eax, DWORD PTR _lSize$[esp-4]
  00004	3d 00 01 00 00	 cmp	 eax, 256		; 00000100H
  00009	77 13		 ja	 SHORT $LN4@AsyncFree

; 294  :             m_TilePool.Free(pBuf);

  0000b	8b 44 24 04	 mov	 eax, DWORD PTR _pBuf$[esp-4]
  0000f	50		 push	 eax
  00010	81 c1 f8 00 00
	00		 add	 ecx, 248		; 000000f8H
  00016	e8 00 00 00 00	 call	 ?Free@?$CTilePool@VLockOfWinWhileSleep@XM_Tools@@V?$CHeapPool@VLockOfWinWhileSleep@XM_Tools@@@2@@XM_Tools@@QAEXPAX@Z ; XM_Tools::CTilePool<XM_Tools::LockOfWinWhileSleep,XM_Tools::CHeapPool<XM_Tools::LockOfWinWhileSleep> >::Free

; 299  : #endif //! USE_C_LIB_ALLOC
; 300  :     }

  0001b	c2 08 00	 ret	 8
$LN4@AsyncFree:

; 295  :         else if (BLOCK_MAX_ALLOC_SIZE >= lSize)

  0001e	3d 00 00 08 00	 cmp	 eax, 524288		; 00080000H
  00023	77 17		 ja	 SHORT $LN2@AsyncFree

; 296  :             m_BlockPool.Free(pBuf);

  00025	83 81 a4 00 00
	00 ff		 add	 DWORD PTR [ecx+164], -1
  0002c	8b 4c 24 04	 mov	 ecx, DWORD PTR _pBuf$[esp-4]
  00030	51		 push	 ecx
  00031	e8 00 00 00 00	 call	 _free
  00036	83 c4 04	 add	 esp, 4

; 299  : #endif //! USE_C_LIB_ALLOC
; 300  :     }

  00039	c2 08 00	 ret	 8
$LN2@AsyncFree:

; 297  :         else
; 298  :             m_HeapPool.Free(pBuf);

  0003c	8b 54 24 04	 mov	 edx, DWORD PTR _pBuf$[esp-4]
  00040	52		 push	 edx
  00041	e8 00 00 00 00	 call	 _free
  00046	59		 pop	 ecx

; 299  : #endif //! USE_C_LIB_ALLOC
; 300  :     }

  00047	c2 08 00	 ret	 8
?AsyncFree@?$CMemManage@VLockOfWinWhileSleep@XM_Tools@@@XM_Tools@@QAEXPAXK@Z ENDP ; XM_Tools::CMemManage<XM_Tools::LockOfWinWhileSleep>::AsyncFree
_TEXT	ENDS
PUBLIC	??$_Unchecked_uninitialized_move@PAU_List_position@?$_Hash@V?$_Hmap_traits@VCGUID@@PAVCBaseObject@@Vhash_guid_compare@@V?$allocator@U?$pair@$$CBVCGUID@@PAVCBaseObject@@@std@@@std@@$0A@@stdext@@@stdext@@PAU123@V?$allocator@U_List_position@?$_Hash@V?$_Hmap_traits@VCGUID@@PAVCBaseObject@@Vhash_guid_compare@@V?$allocator@U?$pair@$$CBVCGUID@@PAVCBaseObject@@@std@@@std@@$0A@@stdext@@@stdext@@@std@@@stdext@@YAPAU_List_position@?$_Hash@V?$_Hmap_traits@VCGUID@@PAVCBaseObject@@Vhash_guid_compare@@V?$allocator@U?$pair@$$CBVCGUID@@PAVCBaseObject@@@std@@@std@@$0A@@stdext@@@0@PAU120@00AAV?$allocator@U_List_position@?$_Hash@V?$_Hmap_traits@VCGUID@@PAVCBaseObject@@Vhash_guid_compare@@V?$allocator@U?$pair@$$CBVCGUID@@PAVCBaseObject@@@std@@@std@@$0A@@stdext@@@stdext@@@std@@@Z ; stdext::_Unchecked_uninitialized_move<stdext::_Hash<stdext::_Hmap_traits<CGUID,CBaseObject *,hash_guid_compare,std::allocator<std::pair<CGUID const ,CBaseObject *> >,0> >::_List_position *,stdext::_Hash<stdext::_Hmap_traits<CGUID,CBaseObject *,hash_guid_compare,std::allocator<std::pair<CGUID const ,CBaseObject *> >,0> >::_List_position *,std::allocator<stdext::_Hash<stdext::_Hmap_traits<CGUID,CBaseObject *,hash_guid_compare,std::allocator<std::pair<CGUID const ,CBaseObject *> >,0> >::_List_position> >
; Function compile flags: /Ogtpy
; File d:\program files\microsoft visual studio 8\vc\include\memory
;	COMDAT ??$_Unchecked_uninitialized_move@PAU_List_position@?$_Hash@V?$_Hmap_traits@VCGUID@@PAVCBaseObject@@Vhash_guid_compare@@V?$allocator@U?$pair@$$CBVCGUID@@PAVCBaseObject@@@std@@@std@@$0A@@stdext@@@stdext@@PAU123@V?$allocator@U_List_position@?$_Hash@V?$_Hmap_traits@VCGUID@@PAVCBaseObject@@Vhash_guid_compare@@V?$allocator@U?$pair@$$CBVCGUID@@PAVCBaseObject@@@std@@@std@@$0A@@stdext@@@stdext@@@std@@@stdext@@YAPAU_List_position@?$_Hash@V?$_Hmap_traits@VCGUID@@PAVCBaseObject@@Vhash_guid_compare@@V?$allocator@U?$pair@$$CBVCGUID@@PAVCBaseObject@@@std@@@std@@$0A@@stdext@@@0@PAU120@00AAV?$allocator@U_List_position@?$_Hash@V?$_Hmap_traits@VCGUID@@PAVCBaseObject@@Vhash_guid_compare@@V?$allocator@U?$pair@$$CBVCGUID@@PAVCBaseObject@@@std@@@std@@$0A@@stdext@@@stdext@@@std@@@Z
_TEXT	SEGMENT
$T301183 = -4						; size = 1
__First$ = 8						; size = 4
__Last$ = 12						; size = 4
__Cat$301187 = 16					; size = 1
__Dest$ = 16						; size = 4
__Al$ = 20						; size = 4
??$_Unchecked_uninitialized_move@PAU_List_position@?$_Hash@V?$_Hmap_traits@VCGUID@@PAVCBaseObject@@Vhash_guid_compare@@V?$allocator@U?$pair@$$CBVCGUID@@PAVCBaseObject@@@std@@@std@@$0A@@stdext@@@stdext@@PAU123@V?$allocator@U_List_position@?$_Hash@V?$_Hmap_traits@VCGUID@@PAVCBaseObject@@Vhash_guid_compare@@V?$allocator@U?$pair@$$CBVCGUID@@PAVCBaseObject@@@std@@@std@@$0A@@stdext@@@stdext@@@std@@@stdext@@YAPAU_List_position@?$_Hash@V?$_Hmap_traits@VCGUID@@PAVCBaseObject@@Vhash_guid_compare@@V?$allocator@U?$pair@$$CBVCGUID@@PAVCBaseObject@@@std@@@std@@$0A@@stdext@@@0@PAU120@00AAV?$allocator@U_List_position@?$_Hash@V?$_Hmap_traits@VCGUID@@PAVCBaseObject@@Vhash_guid_compare@@V?$allocator@U?$pair@$$CBVCGUID@@PAVCBaseObject@@@std@@@std@@$0A@@stdext@@@stdext@@@std@@@Z PROC ; stdext::_Unchecked_uninitialized_move<stdext::_Hash<stdext::_Hmap_traits<CGUID,CBaseObject *,hash_guid_compare,std::allocator<std::pair<CGUID const ,CBaseObject *> >,0> >::_List_position *,stdext::_Hash<stdext::_Hmap_traits<CGUID,CBaseObject *,hash_guid_compare,std::allocator<std::pair<CGUID const ,CBaseObject *> >,0> >::_List_position *,std::allocator<stdext::_Hash<stdext::_Hmap_traits<CGUID,CBaseObject *,hash_guid_compare,std::allocator<std::pair<CGUID const ,CBaseObject *> >,0> >::_List_position> >, COMDAT

; 843  : 	{	// move [_First, _Last) to raw _Dest, using _Al

  00000	51		 push	 ecx

; 844  : 		return (_STD _Uninit_move(_CHECKED_BASE(_First), _CHECKED_BASE(_Last), _Dest, _Al,
; 845  : 			_STD _Move_cat(_Dest), _STD _Range_checked_iterator_tag()));

  00001	8b 4c 24 10	 mov	 ecx, DWORD PTR __Cat$301187[esp]
  00005	8b 54 24 14	 mov	 edx, DWORD PTR __Al$[esp]
  00009	c6 04 24 00	 mov	 BYTE PTR $T301183[esp+4], 0
  0000d	8b 04 24	 mov	 eax, DWORD PTR $T301183[esp+4]
  00010	50		 push	 eax
  00011	8b 44 24 14	 mov	 eax, DWORD PTR __Dest$[esp+4]
  00015	51		 push	 ecx
  00016	8b 4c 24 14	 mov	 ecx, DWORD PTR __Last$[esp+8]
  0001a	52		 push	 edx
  0001b	8b 54 24 14	 mov	 edx, DWORD PTR __First$[esp+12]
  0001f	50		 push	 eax
  00020	51		 push	 ecx
  00021	52		 push	 edx
  00022	e8 00 00 00 00	 call	 ??$_Uninit_copy@PAU_List_position@?$_Hash@V?$_Hmap_traits@VCGUID@@PAVCBaseObject@@Vhash_guid_compare@@V?$allocator@U?$pair@$$CBVCGUID@@PAVCBaseObject@@@std@@@std@@$0A@@stdext@@@stdext@@PAU123@V?$allocator@U_List_position@?$_Hash@V?$_Hmap_traits@VCGUID@@PAVCBaseObject@@Vhash_guid_compare@@V?$allocator@U?$pair@$$CBVCGUID@@PAVCBaseObject@@@std@@@std@@$0A@@stdext@@@stdext@@@std@@@std@@YAPAU_List_position@?$_Hash@V?$_Hmap_traits@VCGUID@@PAVCBaseObject@@Vhash_guid_compare@@V?$allocator@U?$pair@$$CBVCGUID@@PAVCBaseObject@@@std@@@std@@$0A@@stdext@@@stdext@@PAU123@00AAV?$allocator@U_List_position@?$_Hash@V?$_Hmap_traits@VCGUID@@PAVCBaseObject@@Vhash_guid_compare@@V?$allocator@U?$pair@$$CBVCGUID@@PAVCBaseObject@@@std@@@std@@$0A@@stdext@@@stdext@@@0@U_Nonscalar_ptr_iterator_tag@0@U_Range_checked_iterator_tag@0@@Z ; std::_Uninit_copy<stdext::_Hash<stdext::_Hmap_traits<CGUID,CBaseObject *,hash_guid_compare,std::allocator<std::pair<CGUID const ,CBaseObject *> >,0> >::_List_position *,stdext::_Hash<stdext::_Hmap_traits<CGUID,CBaseObject *,hash_guid_compare,std::allocator<std::pair<CGUID const ,CBaseObject *> >,0> >::_List_position *,std::allocator<stdext::_Hash<stdext::_Hmap_traits<CGUID,CBaseObject *,hash_guid_compare,std::allocator<std::pair<CGUID const ,CBaseObject *> >,0> >::_List_position> >

; 846  : 	}

  00027	83 c4 1c	 add	 esp, 28			; 0000001cH
  0002a	c3		 ret	 0
??$_Unchecked_uninitialized_move@PAU_List_position@?$_Hash@V?$_Hmap_traits@VCGUID@@PAVCBaseObject@@Vhash_guid_compare@@V?$allocator@U?$pair@$$CBVCGUID@@PAVCBaseObject@@@std@@@std@@$0A@@stdext@@@stdext@@PAU123@V?$allocator@U_List_position@?$_Hash@V?$_Hmap_traits@VCGUID@@PAVCBaseObject@@Vhash_guid_compare@@V?$allocator@U?$pair@$$CBVCGUID@@PAVCBaseObject@@@std@@@std@@$0A@@stdext@@@stdext@@@std@@@stdext@@YAPAU_List_position@?$_Hash@V?$_Hmap_traits@VCGUID@@PAVCBaseObject@@Vhash_guid_compare@@V?$allocator@U?$pair@$$CBVCGUID@@PAVCBaseObject@@@std@@@std@@$0A@@stdext@@@0@PAU120@00AAV?$allocator@U_List_position@?$_Hash@V?$_Hmap_traits@VCGUID@@PAVCBaseObject@@Vhash_guid_compare@@V?$allocator@U?$pair@$$CBVCGUID@@PAVCBaseObject@@@std@@@std@@$0A@@stdext@@@stdext@@@std@@@Z ENDP ; stdext::_Unchecked_uninitialized_move<stdext::_Hash<stdext::_Hmap_traits<CGUID,CBaseObject *,hash_guid_compare,std::allocator<std::pair<CGUID const ,CBaseObject *> >,0> >::_List_position *,stdext::_Hash<stdext::_Hmap_traits<CGUID,CBaseObject *,hash_guid_compare,std::allocator<std::pair<CGUID const ,CBaseObject *> >,0> >::_List_position *,std::allocator<stdext::_Hash<stdext::_Hmap_traits<CGUID,CBaseObject *,hash_guid_compare,std::allocator<std::pair<CGUID const ,CBaseObject *> >,0> >::_List_position> >
_TEXT	ENDS
PUBLIC	??0?$CMemManage@VLockOfWinWhileSleep@XM_Tools@@@XM_Tools@@QAE@XZ ; XM_Tools::CMemManage<XM_Tools::LockOfWinWhileSleep>::CMemManage<XM_Tools::LockOfWinWhileSleep>
;	COMDAT xdata$x
; File d:\project_p6\trunk\public\memmanage\lock.h
xdata$x	SEGMENT
__unwindtable$??0?$CMemManage@VLockOfWinWhileSleep@XM_Tools@@@XM_Tools@@QAE@XZ DD 0ffffffffH
	DD	FLAT:__unwindfunclet$??0?$CMemManage@VLockOfWinWhileSleep@XM_Tools@@@XM_Tools@@QAE@XZ$0
	DD	00H
	DD	FLAT:__unwindfunclet$??0?$CMemManage@VLockOfWinWhileSleep@XM_Tools@@@XM_Tools@@QAE@XZ$1
__ehfuncinfo$??0?$CMemManage@VLockOfWinWhileSleep@XM_Tools@@@XM_Tools@@QAE@XZ DD 019930522H
	DD	02H
	DD	FLAT:__unwindtable$??0?$CMemManage@VLockOfWinWhileSleep@XM_Tools@@@XM_Tools@@QAE@XZ
	DD	2 DUP(00H)
	DD	2 DUP(00H)
	DD	00H
	DD	01H
; Function compile flags: /Ogtpy
; File d:\project_p6\trunk\public\memmanage\cpp\memmanage.tcc
xdata$x	ENDS
;	COMDAT ??0?$CMemManage@VLockOfWinWhileSleep@XM_Tools@@@XM_Tools@@QAE@XZ
_TEXT	SEGMENT
_this$ = -16						; size = 4
__$EHRec$ = -12						; size = 12
??0?$CMemManage@VLockOfWinWhileSleep@XM_Tools@@@XM_Tools@@QAE@XZ PROC ; XM_Tools::CMemManage<XM_Tools::LockOfWinWhileSleep>::CMemManage<XM_Tools::LockOfWinWhileSleep>, COMDAT
; _this$ = ecx

; 17   :     {

  00000	6a ff		 push	 -1
  00002	68 00 00 00 00	 push	 __ehhandler$??0?$CMemManage@VLockOfWinWhileSleep@XM_Tools@@@XM_Tools@@QAE@XZ
  00007	64 a1 00 00 00
	00		 mov	 eax, DWORD PTR fs:0
  0000d	50		 push	 eax
  0000e	51		 push	 ecx
  0000f	56		 push	 esi
  00010	57		 push	 edi
  00011	a1 00 00 00 00	 mov	 eax, DWORD PTR ___security_cookie
  00016	33 c4		 xor	 eax, esp
  00018	50		 push	 eax
  00019	8d 44 24 10	 lea	 eax, DWORD PTR __$EHRec$[esp+28]
  0001d	64 a3 00 00 00
	00		 mov	 DWORD PTR fs:0, eax
  00023	8b f1		 mov	 esi, ecx
  00025	89 74 24 0c	 mov	 DWORD PTR _this$[esp+28], esi
  00029	33 ff		 xor	 edi, edi
  0002b	89 7e 04	 mov	 DWORD PTR [esi+4], edi
  0002e	89 7e 28	 mov	 DWORD PTR [esi+40], edi
  00031	89 7e 2c	 mov	 DWORD PTR [esi+44], edi
  00034	89 3e		 mov	 DWORD PTR [esi], edi
  00036	89 7e 48	 mov	 DWORD PTR [esi+72], edi
  00039	89 7e 50	 mov	 DWORD PTR [esi+80], edi
  0003c	89 7e 74	 mov	 DWORD PTR [esi+116], edi
  0003f	89 7e 78	 mov	 DWORD PTR [esi+120], edi
  00042	89 7e 4c	 mov	 DWORD PTR [esi+76], edi
  00045	89 be 94 00 00
	00		 mov	 DWORD PTR [esi+148], edi
  0004b	83 c8 ff	 or	 eax, -1
  0004e	89 b6 98 00 00
	00		 mov	 DWORD PTR [esi+152], esi
  00054	89 be 9c 00 00
	00		 mov	 DWORD PTR [esi+156], edi
  0005a	89 be a0 00 00
	00		 mov	 DWORD PTR [esi+160], edi
  00060	89 be a4 00 00
	00		 mov	 DWORD PTR [esi+164], edi
  00066	89 86 a8 00 00
	00		 mov	 DWORD PTR [esi+168], eax
  0006c	89 86 ac 00 00
	00		 mov	 DWORD PTR [esi+172], eax
  00072	89 be d0 00 00
	00		 mov	 DWORD PTR [esi+208], edi
  00078	89 be d4 00 00
	00		 mov	 DWORD PTR [esi+212], edi
  0007e	89 7c 24 18	 mov	 DWORD PTR __$EHRec$[esp+36], edi
  00082	89 be f0 00 00
	00		 mov	 DWORD PTR [esi+240], edi
  00088	89 be f4 00 00
	00		 mov	 DWORD PTR [esi+244], edi
  0008e	68 00 00 40 00	 push	 4194304			; 00400000H
  00093	56		 push	 esi
  00094	8d 8e f8 00 00
	00		 lea	 ecx, DWORD PTR [esi+248]
  0009a	c6 44 24 20 01	 mov	 BYTE PTR __$EHRec$[esp+44], 1
  0009f	e8 00 00 00 00	 call	 ??0?$CTilePool@VLockOfWinWhileSleep@XM_Tools@@V?$CHeapPool@VLockOfWinWhileSleep@XM_Tools@@@2@@XM_Tools@@QAE@AAV?$CHeapPool@VLockOfWinWhileSleep@XM_Tools@@@1@K@Z ; XM_Tools::CTilePool<XM_Tools::LockOfWinWhileSleep,XM_Tools::CHeapPool<XM_Tools::LockOfWinWhileSleep> >::CTilePool<XM_Tools::LockOfWinWhileSleep,XM_Tools::CHeapPool<XM_Tools::LockOfWinWhileSleep> >

; 18   :         Init();

  000a4	8b ce		 mov	 ecx, esi
  000a6	89 be 80 1d 00
	00		 mov	 DWORD PTR [esi+7552], edi
  000ac	89 be 84 1d 00
	00		 mov	 DWORD PTR [esi+7556], edi
  000b2	e8 00 00 00 00	 call	 ?Init@?$CMemManage@VLockOfWinWhileSleep@XM_Tools@@@XM_Tools@@QAEKXZ ; XM_Tools::CMemManage<XM_Tools::LockOfWinWhileSleep>::Init

; 19   :     }

  000b7	8b c6		 mov	 eax, esi
  000b9	8b 4c 24 10	 mov	 ecx, DWORD PTR __$EHRec$[esp+28]
  000bd	64 89 0d 00 00
	00 00		 mov	 DWORD PTR fs:0, ecx
  000c4	59		 pop	 ecx
  000c5	5f		 pop	 edi
  000c6	5e		 pop	 esi
  000c7	83 c4 10	 add	 esp, 16			; 00000010H
  000ca	c3		 ret	 0
_TEXT	ENDS
;	COMDAT text$x
text$x	SEGMENT
__unwindfunclet$??0?$CMemManage@VLockOfWinWhileSleep@XM_Tools@@@XM_Tools@@QAE@XZ$0:
  00000	8b 4d f0	 mov	 ecx, DWORD PTR _this$[ebp]
  00003	e9 00 00 00 00	 jmp	 ??1?$CHeapPool@VLockOfWinWhileSleep@XM_Tools@@@XM_Tools@@QAE@XZ ; XM_Tools::CHeapPool<XM_Tools::LockOfWinWhileSleep>::~CHeapPool<XM_Tools::LockOfWinWhileSleep>
__unwindfunclet$??0?$CMemManage@VLockOfWinWhileSleep@XM_Tools@@@XM_Tools@@QAE@XZ$1:
  00008	8b 4d f0	 mov	 ecx, DWORD PTR _this$[ebp]
  0000b	81 c1 98 00 00
	00		 add	 ecx, 152		; 00000098H
  00011	e9 00 00 00 00	 jmp	 ??1?$CBlockPool@VLockOfWinWhileSleep@XM_Tools@@V?$CHeapPool@VLockOfWinWhileSleep@XM_Tools@@@2@@XM_Tools@@QAE@XZ ; XM_Tools::CBlockPool<XM_Tools::LockOfWinWhileSleep,XM_Tools::CHeapPool<XM_Tools::LockOfWinWhileSleep> >::~CBlockPool<XM_Tools::LockOfWinWhileSleep,XM_Tools::CHeapPool<XM_Tools::LockOfWinWhileSleep> >
__ehhandler$??0?$CMemManage@VLockOfWinWhileSleep@XM_Tools@@@XM_Tools@@QAE@XZ:
  00016	8b 54 24 08	 mov	 edx, DWORD PTR [esp+8]
  0001a	8d 42 f4	 lea	 eax, DWORD PTR [edx-12]
  0001d	8b 4a f0	 mov	 ecx, DWORD PTR [edx-16]
  00020	33 c8		 xor	 ecx, eax
  00022	e8 00 00 00 00	 call	 @__security_check_cookie@4
  00027	b8 00 00 00 00	 mov	 eax, OFFSET __ehfuncinfo$??0?$CMemManage@VLockOfWinWhileSleep@XM_Tools@@@XM_Tools@@QAE@XZ
  0002c	e9 00 00 00 00	 jmp	 ___CxxFrameHandler3
text$x	ENDS
??0?$CMemManage@VLockOfWinWhileSleep@XM_Tools@@@XM_Tools@@QAE@XZ ENDP ; XM_Tools::CMemManage<XM_Tools::LockOfWinWhileSleep>::CMemManage<XM_Tools::LockOfWinWhileSleep>
PUBLIC	??1?$CMemManage@VLockOfWinWhileSleep@XM_Tools@@@XM_Tools@@QAE@XZ ; XM_Tools::CMemManage<XM_Tools::LockOfWinWhileSleep>::~CMemManage<XM_Tools::LockOfWinWhileSleep>
;	COMDAT xdata$x
; File d:\project_p6\trunk\public\memmanage\cpp\heappool.tcc
xdata$x	SEGMENT
__unwindtable$??1?$CMemManage@VLockOfWinWhileSleep@XM_Tools@@@XM_Tools@@QAE@XZ DD 0ffffffffH
	DD	FLAT:__unwindfunclet$??1?$CMemManage@VLockOfWinWhileSleep@XM_Tools@@@XM_Tools@@QAE@XZ$0
	DD	00H
	DD	FLAT:__unwindfunclet$??1?$CMemManage@VLockOfWinWhileSleep@XM_Tools@@@XM_Tools@@QAE@XZ$1
__ehfuncinfo$??1?$CMemManage@VLockOfWinWhileSleep@XM_Tools@@@XM_Tools@@QAE@XZ DD 019930522H
	DD	02H
	DD	FLAT:__unwindtable$??1?$CMemManage@VLockOfWinWhileSleep@XM_Tools@@@XM_Tools@@QAE@XZ
	DD	2 DUP(00H)
	DD	2 DUP(00H)
	DD	00H
	DD	01H
; Function compile flags: /Ogtpy
; File d:\project_p6\trunk\public\memmanage\cpp\memmanage.tcc
xdata$x	ENDS
;	COMDAT ??1?$CMemManage@VLockOfWinWhileSleep@XM_Tools@@@XM_Tools@@QAE@XZ
_TEXT	SEGMENT
_this$ = -16						; size = 4
__$EHRec$ = -12						; size = 12
??1?$CMemManage@VLockOfWinWhileSleep@XM_Tools@@@XM_Tools@@QAE@XZ PROC ; XM_Tools::CMemManage<XM_Tools::LockOfWinWhileSleep>::~CMemManage<XM_Tools::LockOfWinWhileSleep>, COMDAT
; _this$ = ecx

; 23   :     {

  00000	6a ff		 push	 -1
  00002	68 00 00 00 00	 push	 __ehhandler$??1?$CMemManage@VLockOfWinWhileSleep@XM_Tools@@@XM_Tools@@QAE@XZ
  00007	64 a1 00 00 00
	00		 mov	 eax, DWORD PTR fs:0
  0000d	50		 push	 eax
  0000e	51		 push	 ecx
  0000f	56		 push	 esi
  00010	57		 push	 edi
  00011	a1 00 00 00 00	 mov	 eax, DWORD PTR ___security_cookie
  00016	33 c4		 xor	 eax, esp
  00018	50		 push	 eax
  00019	8d 44 24 10	 lea	 eax, DWORD PTR __$EHRec$[esp+28]
  0001d	64 a3 00 00 00
	00		 mov	 DWORD PTR fs:0, eax
  00023	8b f1		 mov	 esi, ecx
  00025	89 74 24 0c	 mov	 DWORD PTR _this$[esp+28], esi

; 24   :         Release();

  00029	8d be f8 00 00
	00		 lea	 edi, DWORD PTR [esi+248]
  0002f	8b cf		 mov	 ecx, edi
  00031	c7 44 24 18 01
	00 00 00	 mov	 DWORD PTR __$EHRec$[esp+36], 1
  00039	e8 00 00 00 00	 call	 ?Release@?$CTilePool@VLockOfWinWhileSleep@XM_Tools@@V?$CHeapPool@VLockOfWinWhileSleep@XM_Tools@@@2@@XM_Tools@@QAEXXZ ; XM_Tools::CTilePool<XM_Tools::LockOfWinWhileSleep,XM_Tools::CHeapPool<XM_Tools::LockOfWinWhileSleep> >::Release
  0003e	8b 86 f0 00 00
	00		 mov	 eax, DWORD PTR [esi+240]
  00044	85 c0		 test	 eax, eax
  00046	74 13		 je	 SHORT $LN8@CMemManage
  00048	50		 push	 eax
  00049	e8 00 00 00 00	 call	 _free
  0004e	83 c4 04	 add	 esp, 4
  00051	c7 86 f0 00 00
	00 00 00 00 00	 mov	 DWORD PTR [esi+240], 0
$LN8@CMemManage:
  0005b	8b ce		 mov	 ecx, esi
  0005d	e8 00 00 00 00	 call	 ?Release@?$CHeapPool@VLockOfWinWhileSleep@XM_Tools@@@XM_Tools@@QAEXXZ ; XM_Tools::CHeapPool<XM_Tools::LockOfWinWhileSleep>::Release

; 25   :     }

  00062	8b cf		 mov	 ecx, edi
  00064	e8 00 00 00 00	 call	 ?Release@?$CTilePool@VLockOfWinWhileSleep@XM_Tools@@V?$CHeapPool@VLockOfWinWhileSleep@XM_Tools@@@2@@XM_Tools@@QAEXXZ ; XM_Tools::CTilePool<XM_Tools::LockOfWinWhileSleep,XM_Tools::CHeapPool<XM_Tools::LockOfWinWhileSleep> >::Release
  00069	68 00 00 00 00	 push	 OFFSET ??1tagTileManageInfo@?$CTilePool@VLockOfWinWhileSleep@XM_Tools@@V?$CHeapPool@VLockOfWinWhileSleep@XM_Tools@@@2@@XM_Tools@@QAE@XZ
  0006e	6a 20		 push	 32			; 00000020H
  00070	68 e4 00 00 00	 push	 228			; 000000e4H
  00075	83 c7 08	 add	 edi, 8
  00078	57		 push	 edi
  00079	e8 00 00 00 00	 call	 ??_M@YGXPAXIHP6EX0@Z@Z
  0007e	8b 86 f0 00 00
	00		 mov	 eax, DWORD PTR [esi+240]
  00084	85 c0		 test	 eax, eax
  00086	74 13		 je	 SHORT $LN28@CMemManage
  00088	50		 push	 eax
  00089	e8 00 00 00 00	 call	 _free
  0008e	83 c4 04	 add	 esp, 4
  00091	c7 86 f0 00 00
	00 00 00 00 00	 mov	 DWORD PTR [esi+240], 0
$LN28@CMemManage:
  0009b	8b ce		 mov	 ecx, esi
  0009d	e8 00 00 00 00	 call	 ?Release@?$CHeapPool@VLockOfWinWhileSleep@XM_Tools@@@XM_Tools@@QAEXXZ ; XM_Tools::CHeapPool<XM_Tools::LockOfWinWhileSleep>::Release
  000a2	8b 4c 24 10	 mov	 ecx, DWORD PTR __$EHRec$[esp+28]
  000a6	64 89 0d 00 00
	00 00		 mov	 DWORD PTR fs:0, ecx
  000ad	59		 pop	 ecx
  000ae	5f		 pop	 edi
  000af	5e		 pop	 esi
  000b0	83 c4 10	 add	 esp, 16			; 00000010H
  000b3	c3		 ret	 0
_TEXT	ENDS
;	COMDAT text$x
text$x	SEGMENT
__unwindfunclet$??1?$CMemManage@VLockOfWinWhileSleep@XM_Tools@@@XM_Tools@@QAE@XZ$0:
  00000	8b 4d f0	 mov	 ecx, DWORD PTR _this$[ebp]
  00003	e9 00 00 00 00	 jmp	 ??1?$CHeapPool@VLockOfWinWhileSleep@XM_Tools@@@XM_Tools@@QAE@XZ ; XM_Tools::CHeapPool<XM_Tools::LockOfWinWhileSleep>::~CHeapPool<XM_Tools::LockOfWinWhileSleep>
__unwindfunclet$??1?$CMemManage@VLockOfWinWhileSleep@XM_Tools@@@XM_Tools@@QAE@XZ$1:
  00008	8b 4d f0	 mov	 ecx, DWORD PTR _this$[ebp]
  0000b	81 c1 98 00 00
	00		 add	 ecx, 152		; 00000098H
  00011	e9 00 00 00 00	 jmp	 ??1?$CBlockPool@VLockOfWinWhileSleep@XM_Tools@@V?$CHeapPool@VLockOfWinWhileSleep@XM_Tools@@@2@@XM_Tools@@QAE@XZ ; XM_Tools::CBlockPool<XM_Tools::LockOfWinWhileSleep,XM_Tools::CHeapPool<XM_Tools::LockOfWinWhileSleep> >::~CBlockPool<XM_Tools::LockOfWinWhileSleep,XM_Tools::CHeapPool<XM_Tools::LockOfWinWhileSleep> >
__ehhandler$??1?$CMemManage@VLockOfWinWhileSleep@XM_Tools@@@XM_Tools@@QAE@XZ:
  00016	8b 54 24 08	 mov	 edx, DWORD PTR [esp+8]
  0001a	8d 42 f4	 lea	 eax, DWORD PTR [edx-12]
  0001d	8b 4a f0	 mov	 ecx, DWORD PTR [edx-16]
  00020	33 c8		 xor	 ecx, eax
  00022	e8 00 00 00 00	 call	 @__security_check_cookie@4
  00027	b8 00 00 00 00	 mov	 eax, OFFSET __ehfuncinfo$??1?$CMemManage@VLockOfWinWhileSleep@XM_Tools@@@XM_Tools@@QAE@XZ
  0002c	e9 00 00 00 00	 jmp	 ___CxxFrameHandler3
text$x	ENDS
??1?$CMemManage@VLockOfWinWhileSleep@XM_Tools@@@XM_Tools@@QAE@XZ ENDP ; XM_Tools::CMemManage<XM_Tools::LockOfWinWhileSleep>::~CMemManage<XM_Tools::LockOfWinWhileSleep>
PUBLIC	??0?$basic_string@DU?$char_traits@D@std@@V?$allocator@D@2@@std@@QAE@ABV01@@Z ; std::basic_string<char,std::char_traits<char>,std::allocator<char> >::basic_string<char,std::char_traits<char>,std::allocator<char> >
; Function compile flags: /Ogtpy
; File d:\program files\microsoft visual studio 8\vc\include\xstring
;	COMDAT ??0?$basic_string@DU?$char_traits@D@std@@V?$allocator@D@2@@std@@QAE@ABV01@@Z
_TEXT	SEGMENT
__Right$ = 8						; size = 4
??0?$basic_string@DU?$char_traits@D@std@@V?$allocator@D@2@@std@@QAE@ABV01@@Z PROC ; std::basic_string<char,std::char_traits<char>,std::allocator<char> >::basic_string<char,std::char_traits<char>,std::allocator<char> >, COMDAT
; _this$ = ecx

; 720  : 		{	// construct by copying _Right

  00000	56		 push	 esi

; 721  : 		_Tidy();

  00001	33 c0		 xor	 eax, eax
  00003	8b f1		 mov	 esi, ecx

; 722  : 		assign(_Right, 0, npos);

  00005	6a ff		 push	 -1
  00007	89 46 14	 mov	 DWORD PTR [esi+20], eax
  0000a	c7 46 18 0f 00
	00 00		 mov	 DWORD PTR [esi+24], 15	; 0000000fH
  00011	50		 push	 eax
  00012	88 46 04	 mov	 BYTE PTR [esi+4], al
  00015	8b 44 24 10	 mov	 eax, DWORD PTR __Right$[esp+8]
  00019	50		 push	 eax
  0001a	e8 00 00 00 00	 call	 ?assign@?$basic_string@DU?$char_traits@D@std@@V?$allocator@D@2@@std@@QAEAAV12@ABV12@II@Z ; std::basic_string<char,std::char_traits<char>,std::allocator<char> >::assign

; 723  : 		}

  0001f	8b c6		 mov	 eax, esi
  00021	5e		 pop	 esi
  00022	c2 04 00	 ret	 4
??0?$basic_string@DU?$char_traits@D@std@@V?$allocator@D@2@@std@@QAE@ABV01@@Z ENDP ; std::basic_string<char,std::char_traits<char>,std::allocator<char> >::basic_string<char,std::char_traits<char>,std::allocator<char> >
_TEXT	ENDS
PUBLIC	?assign@?$basic_string@DU?$char_traits@D@std@@V?$allocator@D@2@@std@@QAEAAV12@PBD@Z ; std::basic_string<char,std::char_traits<char>,std::allocator<char> >::assign
; Function compile flags: /Ogtpy
;	COMDAT ?assign@?$basic_string@DU?$char_traits@D@std@@V?$allocator@D@2@@std@@QAEAAV12@PBD@Z
_TEXT	SEGMENT
__Ptr$ = 8						; size = 4
?assign@?$basic_string@DU?$char_traits@D@std@@V?$allocator@D@2@@std@@QAEAAV12@PBD@Z PROC ; std::basic_string<char,std::char_traits<char>,std::allocator<char> >::assign, COMDAT
; _this$ = ecx

; 1069 : 		{	// assign [_Ptr, <null>)

  00000	56		 push	 esi

; 1070 : 		return (assign(_Ptr, _Traits::length(_Ptr)));

  00001	8b 74 24 08	 mov	 esi, DWORD PTR __Ptr$[esp]
  00005	8b c6		 mov	 eax, esi
  00007	57		 push	 edi
  00008	8d 78 01	 lea	 edi, DWORD PTR [eax+1]
  0000b	eb 03 8d 49 00	 npad	 5
$LL5@assign@3:
  00010	8a 10		 mov	 dl, BYTE PTR [eax]
  00012	83 c0 01	 add	 eax, 1
  00015	84 d2		 test	 dl, dl
  00017	75 f7		 jne	 SHORT $LL5@assign@3
  00019	2b c7		 sub	 eax, edi
  0001b	50		 push	 eax
  0001c	56		 push	 esi
  0001d	e8 00 00 00 00	 call	 ?assign@?$basic_string@DU?$char_traits@D@std@@V?$allocator@D@2@@std@@QAEAAV12@PBDI@Z ; std::basic_string<char,std::char_traits<char>,std::allocator<char> >::assign
  00022	5f		 pop	 edi
  00023	5e		 pop	 esi

; 1071 : 		}

  00024	c2 04 00	 ret	 4
?assign@?$basic_string@DU?$char_traits@D@std@@V?$allocator@D@2@@std@@QAEAAV12@PBD@Z ENDP ; std::basic_string<char,std::char_traits<char>,std::allocator<char> >::assign
_TEXT	ENDS
PUBLIC	?erase@?$_Hash@V?$_Hmap_traits@VCGUID@@PAVCBaseObject@@Vhash_guid_compare@@V?$allocator@U?$pair@$$CBVCGUID@@PAVCBaseObject@@@std@@@std@@$0A@@stdext@@@stdext@@QAE?AV?$_Iterator@$00@?$list@U?$pair@$$CBVCGUID@@PAVCBaseObject@@@std@@V?$allocator@U?$pair@$$CBVCGUID@@PAVCBaseObject@@@std@@@2@@std@@V345@@Z ; stdext::_Hash<stdext::_Hmap_traits<CGUID,CBaseObject *,hash_guid_compare,std::allocator<std::pair<CGUID const ,CBaseObject *> >,0> >::erase
; Function compile flags: /Ogtpy
; File d:\program files\microsoft visual studio 8\vc\include\xhash
;	COMDAT ?erase@?$_Hash@V?$_Hmap_traits@VCGUID@@PAVCBaseObject@@Vhash_guid_compare@@V?$allocator@U?$pair@$$CBVCGUID@@PAVCBaseObject@@@std@@@std@@$0A@@stdext@@@stdext@@QAE?AV?$_Iterator@$00@?$list@U?$pair@$$CBVCGUID@@PAVCBaseObject@@@std@@V?$allocator@U?$pair@$$CBVCGUID@@PAVCBaseObject@@@std@@@2@@std@@V345@@Z
_TEXT	SEGMENT
___$ReturnUdt$ = 8					; size = 4
$T301856 = 12						; size = 8
__Where$ = 12						; size = 8
?erase@?$_Hash@V?$_Hmap_traits@VCGUID@@PAVCBaseObject@@Vhash_guid_compare@@V?$allocator@U?$pair@$$CBVCGUID@@PAVCBaseObject@@@std@@@std@@$0A@@stdext@@@stdext@@QAE?AV?$_Iterator@$00@?$list@U?$pair@$$CBVCGUID@@PAVCBaseObject@@@std@@V?$allocator@U?$pair@$$CBVCGUID@@PAVCBaseObject@@@std@@@2@@std@@V345@@Z PROC ; stdext::_Hash<stdext::_Hmap_traits<CGUID,CBaseObject *,hash_guid_compare,std::allocator<std::pair<CGUID const ,CBaseObject *> >,0> >::erase, COMDAT
; _this$ = ecx

; 477  : 		{	// erase element at _Where

  00000	53		 push	 ebx
  00001	55		 push	 ebp
  00002	56		 push	 esi
  00003	57		 push	 edi

; 478  : 		size_type _Bucket = _Hashval(this->_Kfn(*_Where));

  00004	8b 7c 24 18	 mov	 edi, DWORD PTR __Where$[esp+12]
  00008	85 ff		 test	 edi, edi
  0000a	8b f1		 mov	 esi, ecx
  0000c	75 05		 jne	 SHORT $LN11@erase@3
  0000e	e8 00 00 00 00	 call	 __invalid_parameter_noinfo
$LN11@erase@3:
  00013	8b 5c 24 1c	 mov	 ebx, DWORD PTR __Where$[esp+16]
  00017	3b 5f 04	 cmp	 ebx, DWORD PTR [edi+4]
  0001a	75 05		 jne	 SHORT $LN9@erase@3
  0001c	e8 00 00 00 00	 call	 __invalid_parameter_noinfo
$LN9@erase@3:
  00021	8b 7b 14	 mov	 edi, DWORD PTR [ebx+20]
  00024	03 7b 10	 add	 edi, DWORD PTR [ebx+16]
  00027	8b 46 20	 mov	 eax, DWORD PTR [esi+32]
  0002a	03 7b 0c	 add	 edi, DWORD PTR [ebx+12]
  0002d	03 7b 08	 add	 edi, DWORD PTR [ebx+8]
  00030	23 f8		 and	 edi, eax
  00032	39 7e 24	 cmp	 DWORD PTR [esi+36], edi
  00035	77 09		 ja	 SHORT $LL135@erase@3
  00037	d1 e8		 shr	 eax, 1
  00039	83 c9 ff	 or	 ecx, -1
  0003c	2b c8		 sub	 ecx, eax
  0003e	03 f9		 add	 edi, ecx
$LL135@erase@3:

; 479  : 		for (; _Vec[_Bucket] == _Where; --_Bucket)

  00040	8b 4e 14	 mov	 ecx, DWORD PTR [esi+20]
  00043	85 c9		 test	 ecx, ecx
  00045	74 0c		 je	 SHORT $LN131@erase@3
  00047	8b 46 18	 mov	 eax, DWORD PTR [esi+24]
  0004a	2b c1		 sub	 eax, ecx
  0004c	c1 f8 03	 sar	 eax, 3
  0004f	3b f8		 cmp	 edi, eax
  00051	72 05		 jb	 SHORT $LN24@erase@3
$LN131@erase@3:
  00053	e8 00 00 00 00	 call	 __invalid_parameter_noinfo
$LN24@erase@3:
  00058	8b 56 14	 mov	 edx, DWORD PTR [esi+20]
  0005b	39 5c fa 04	 cmp	 DWORD PTR [edx+edi*8+4], ebx
  0005f	75 6e		 jne	 SHORT $LN130@erase@3

; 480  : 			{	// update end iterators if erasing first
; 481  : #if _SECURE_SCL && !_HAS_ITERATOR_DEBUGGING
; 482  : 			iterator _Vec_iter = _Get_iter_from_vec(_Vec[_Bucket]);

  00061	8b ca		 mov	 ecx, edx
  00063	85 c9		 test	 ecx, ecx
  00065	74 0c		 je	 SHORT $LN132@erase@3
  00067	8b 46 18	 mov	 eax, DWORD PTR [esi+24]
  0006a	2b c1		 sub	 eax, ecx
  0006c	c1 f8 03	 sar	 eax, 3
  0006f	3b f8		 cmp	 edi, eax
  00071	72 05		 jb	 SHORT $LN37@erase@3
$LN132@erase@3:
  00073	e8 00 00 00 00	 call	 __invalid_parameter_noinfo
$LN37@erase@3:
  00078	8b 46 14	 mov	 eax, DWORD PTR [esi+20]
  0007b	8b 6c f8 04	 mov	 ebp, DWORD PTR [eax+edi*8+4]
  0007f	8d 5e 04	 lea	 ebx, DWORD PTR [esi+4]
  00082	85 db		 test	 ebx, ebx
  00084	75 0a		 jne	 SHORT $LN64@erase@3
  00086	e8 00 00 00 00	 call	 __invalid_parameter_noinfo

; 483  : 			++_Vec_iter;

  0008b	e8 00 00 00 00	 call	 __invalid_parameter_noinfo
$LN64@erase@3:
  00090	3b 6b 04	 cmp	 ebp, DWORD PTR [ebx+4]
  00093	75 05		 jne	 SHORT $LN62@erase@3
  00095	e8 00 00 00 00	 call	 __invalid_parameter_noinfo
$LN62@erase@3:

; 484  : 			_Vec[_Bucket] = _Vec_iter;

  0009a	8b 4e 14	 mov	 ecx, DWORD PTR [esi+20]
  0009d	85 c9		 test	 ecx, ecx
  0009f	8b 6d 00	 mov	 ebp, DWORD PTR [ebp]
  000a2	74 0c		 je	 SHORT $LN133@erase@3
  000a4	8b 46 18	 mov	 eax, DWORD PTR [esi+24]
  000a7	2b c1		 sub	 eax, ecx
  000a9	c1 f8 03	 sar	 eax, 3
  000ac	3b f8		 cmp	 edi, eax
  000ae	72 05		 jb	 SHORT $LN84@erase@3
$LN133@erase@3:
  000b0	e8 00 00 00 00	 call	 __invalid_parameter_noinfo
$LN84@erase@3:

; 485  : #else
; 486  : 			++_Vec[_Bucket];
; 487  : #endif
; 488  : 			if (_Bucket == 0)

  000b5	85 ff		 test	 edi, edi
  000b7	8b 46 14	 mov	 eax, DWORD PTR [esi+20]
  000ba	89 1c f8	 mov	 DWORD PTR [eax+edi*8], ebx
  000bd	8b 5c 24 1c	 mov	 ebx, DWORD PTR __Where$[esp+16]
  000c1	89 6c f8 04	 mov	 DWORD PTR [eax+edi*8+4], ebp
  000c5	74 08		 je	 SHORT $LN130@erase@3

; 479  : 		for (; _Vec[_Bucket] == _Where; --_Bucket)

  000c7	83 ef 01	 sub	 edi, 1
  000ca	e9 71 ff ff ff	 jmp	 $LL135@erase@3
$LN130@erase@3:

; 489  : 				break;
; 490  : 			}
; 491  : 		return (_List.erase(_Where));

  000cf	8b 6c 24 18	 mov	 ebp, DWORD PTR __Where$[esp+12]
  000d3	3b 5d 04	 cmp	 ebx, DWORD PTR [ebp+4]
  000d6	89 5c 24 1c	 mov	 DWORD PTR $T301856[esp+16], ebx
  000da	75 05		 jne	 SHORT $LN98@erase@3
  000dc	e8 00 00 00 00	 call	 __invalid_parameter_noinfo
$LN98@erase@3:
  000e1	3b 5e 08	 cmp	 ebx, DWORD PTR [esi+8]
  000e4	8b 3b		 mov	 edi, DWORD PTR [ebx]
  000e6	74 1a		 je	 SHORT $LN91@erase@3
  000e8	8b 4b 04	 mov	 ecx, DWORD PTR [ebx+4]
  000eb	89 39		 mov	 DWORD PTR [ecx], edi
  000ed	8b 13		 mov	 edx, DWORD PTR [ebx]
  000ef	8b 43 04	 mov	 eax, DWORD PTR [ebx+4]
  000f2	53		 push	 ebx
  000f3	89 42 04	 mov	 DWORD PTR [edx+4], eax
  000f6	e8 00 00 00 00	 call	 ??3@YAXPAX@Z		; operator delete
  000fb	83 c4 04	 add	 esp, 4
  000fe	83 46 0c ff	 add	 DWORD PTR [esi+12], -1
$LN91@erase@3:
  00102	8b 44 24 14	 mov	 eax, DWORD PTR ___$ReturnUdt$[esp+12]
  00106	89 78 04	 mov	 DWORD PTR [eax+4], edi
  00109	5f		 pop	 edi
  0010a	5e		 pop	 esi
  0010b	89 28		 mov	 DWORD PTR [eax], ebp
  0010d	5d		 pop	 ebp
  0010e	5b		 pop	 ebx

; 492  : 		}

  0010f	c2 0c 00	 ret	 12			; 0000000cH
?erase@?$_Hash@V?$_Hmap_traits@VCGUID@@PAVCBaseObject@@Vhash_guid_compare@@V?$allocator@U?$pair@$$CBVCGUID@@PAVCBaseObject@@@std@@@std@@$0A@@stdext@@@stdext@@QAE?AV?$_Iterator@$00@?$list@U?$pair@$$CBVCGUID@@PAVCBaseObject@@@std@@V?$allocator@U?$pair@$$CBVCGUID@@PAVCBaseObject@@@std@@@2@@std@@V345@@Z ENDP ; stdext::_Hash<stdext::_Hmap_traits<CGUID,CBaseObject *,hash_guid_compare,std::allocator<std::pair<CGUID const ,CBaseObject *> >,0> >::erase
_TEXT	ENDS
PUBLIC	?erase@?$list@U?$pair@$$CBVCGUID@@PAVCBaseObject@@@std@@V?$allocator@U?$pair@$$CBVCGUID@@PAVCBaseObject@@@std@@@2@@std@@QAE?AV?$_Iterator@$00@12@V312@0@Z ; std::list<std::pair<CGUID const ,CBaseObject *>,std::allocator<std::pair<CGUID const ,CBaseObject *> > >::erase
; Function compile flags: /Ogtpy
; File d:\program files\microsoft visual studio 8\vc\include\list
;	COMDAT ?erase@?$list@U?$pair@$$CBVCGUID@@PAVCBaseObject@@@std@@V?$allocator@U?$pair@$$CBVCGUID@@PAVCBaseObject@@@std@@@2@@std@@QAE?AV?$_Iterator@$00@12@V312@0@Z
_TEXT	SEGMENT
___$ReturnUdt$ = 8					; size = 4
$T302153 = 12						; size = 8
$T301869 = 12						; size = 8
__First$ = 12						; size = 8
__Last$ = 20						; size = 8
?erase@?$list@U?$pair@$$CBVCGUID@@PAVCBaseObject@@@std@@V?$allocator@U?$pair@$$CBVCGUID@@PAVCBaseObject@@@std@@@2@@std@@QAE?AV?$_Iterator@$00@12@V312@0@Z PROC ; std::list<std::pair<CGUID const ,CBaseObject *>,std::allocator<std::pair<CGUID const ,CBaseObject *> > >::erase, COMDAT
; _this$ = ecx

; 796  : 		{	// erase [_First, _Last)

  00000	53		 push	 ebx
  00001	55		 push	 ebp
  00002	56		 push	 esi
  00003	57		 push	 edi

; 797  : 		if (_First == begin() && _Last == end())

  00004	8b 7c 24 18	 mov	 edi, DWORD PTR __First$[esp+12]
  00008	85 ff		 test	 edi, edi
  0000a	8b d9		 mov	 ebx, ecx
  0000c	8b 43 04	 mov	 eax, DWORD PTR [ebx+4]
  0000f	8b 28		 mov	 ebp, DWORD PTR [eax]
  00011	74 04		 je	 SHORT $LN21@erase@4
  00013	3b fb		 cmp	 edi, ebx
  00015	74 05		 je	 SHORT $LN22@erase@4
$LN21@erase@4:
  00017	e8 00 00 00 00	 call	 __invalid_parameter_noinfo
$LN22@erase@4:
  0001c	8b 74 24 1c	 mov	 esi, DWORD PTR __First$[esp+16]
  00020	3b f5		 cmp	 esi, ebp
  00022	8b 6c 24 20	 mov	 ebp, DWORD PTR __Last$[esp+12]
  00026	75 38		 jne	 SHORT $LL2@erase@4
  00028	85 ed		 test	 ebp, ebp
  0002a	8b 4b 04	 mov	 ecx, DWORD PTR [ebx+4]
  0002d	89 4c 24 1c	 mov	 DWORD PTR $T301869[esp+16], ecx
  00031	74 04		 je	 SHORT $LN38@erase@4
  00033	3b eb		 cmp	 ebp, ebx
  00035	74 05		 je	 SHORT $LN39@erase@4
$LN38@erase@4:
  00037	e8 00 00 00 00	 call	 __invalid_parameter_noinfo
$LN39@erase@4:
  0003c	8b 54 24 24	 mov	 edx, DWORD PTR __Last$[esp+16]
  00040	3b 54 24 1c	 cmp	 edx, DWORD PTR $T301869[esp+16]
  00044	75 1a		 jne	 SHORT $LL2@erase@4

; 798  : 			{	// erase all and return fresh iterator
; 799  : 			clear();

  00046	8b cb		 mov	 ecx, ebx
  00048	e8 00 00 00 00	 call	 ?clear@?$list@U?$pair@$$CBVCGUID@@PAVCBaseObject@@@std@@V?$allocator@U?$pair@$$CBVCGUID@@PAVCBaseObject@@@std@@@2@@std@@QAEXXZ ; std::list<std::pair<CGUID const ,CBaseObject *>,std::allocator<std::pair<CGUID const ,CBaseObject *> > >::clear

; 800  : 			return (end());

  0004d	8b 44 24 14	 mov	 eax, DWORD PTR ___$ReturnUdt$[esp+12]
  00051	8b 4b 04	 mov	 ecx, DWORD PTR [ebx+4]
  00054	5f		 pop	 edi
  00055	5e		 pop	 esi
  00056	5d		 pop	 ebp
  00057	89 18		 mov	 DWORD PTR [eax], ebx

; 806  : 			return (_Last);

  00059	89 48 04	 mov	 DWORD PTR [eax+4], ecx
  0005c	5b		 pop	 ebx

; 807  : 			}
; 808  : 		}

  0005d	c2 14 00	 ret	 20			; 00000014H
$LL2@erase@4:

; 801  : 			}
; 802  : 		else
; 803  : 			{	// erase subrange
; 804  : 			while (_First != _Last)

  00060	85 ff		 test	 edi, edi
  00062	74 04		 je	 SHORT $LN57@erase@4
  00064	3b fd		 cmp	 edi, ebp
  00066	74 05		 je	 SHORT $LN58@erase@4
$LN57@erase@4:
  00068	e8 00 00 00 00	 call	 __invalid_parameter_noinfo
$LN58@erase@4:
  0006d	8b 4c 24 24	 mov	 ecx, DWORD PTR __Last$[esp+16]
  00071	3b f1		 cmp	 esi, ecx
  00073	74 40		 je	 SHORT $LN1@erase@4

; 805  : 				_First = erase(_First);

  00075	85 ff		 test	 edi, edi
  00077	89 74 24 1c	 mov	 DWORD PTR $T302153[esp+16], esi
  0007b	75 05		 jne	 SHORT $LN71@erase@4
  0007d	e8 00 00 00 00	 call	 __invalid_parameter_noinfo
$LN71@erase@4:
  00082	3b 77 04	 cmp	 esi, DWORD PTR [edi+4]
  00085	75 05		 jne	 SHORT $LN69@erase@4
  00087	e8 00 00 00 00	 call	 __invalid_parameter_noinfo
$LN69@erase@4:
  0008c	3b 73 04	 cmp	 esi, DWORD PTR [ebx+4]
  0008f	8b 2e		 mov	 ebp, DWORD PTR [esi]
  00091	74 1a		 je	 SHORT $LN62@erase@4
  00093	8b 56 04	 mov	 edx, DWORD PTR [esi+4]
  00096	89 2a		 mov	 DWORD PTR [edx], ebp
  00098	8b 06		 mov	 eax, DWORD PTR [esi]
  0009a	8b 4e 04	 mov	 ecx, DWORD PTR [esi+4]
  0009d	56		 push	 esi
  0009e	89 48 04	 mov	 DWORD PTR [eax+4], ecx
  000a1	e8 00 00 00 00	 call	 ??3@YAXPAX@Z		; operator delete
  000a6	83 c4 04	 add	 esp, 4
  000a9	83 43 08 ff	 add	 DWORD PTR [ebx+8], -1
$LN62@erase@4:
  000ad	8b f5		 mov	 esi, ebp
  000af	8b 6c 24 20	 mov	 ebp, DWORD PTR __Last$[esp+12]
  000b3	eb ab		 jmp	 SHORT $LL2@erase@4
$LN1@erase@4:

; 806  : 			return (_Last);

  000b5	8b 44 24 14	 mov	 eax, DWORD PTR ___$ReturnUdt$[esp+12]
  000b9	5f		 pop	 edi
  000ba	5e		 pop	 esi
  000bb	89 28		 mov	 DWORD PTR [eax], ebp
  000bd	5d		 pop	 ebp
  000be	89 48 04	 mov	 DWORD PTR [eax+4], ecx
  000c1	5b		 pop	 ebx

; 807  : 			}
; 808  : 		}

  000c2	c2 14 00	 ret	 20			; 00000014H
?erase@?$list@U?$pair@$$CBVCGUID@@PAVCBaseObject@@@std@@V?$allocator@U?$pair@$$CBVCGUID@@PAVCBaseObject@@@std@@@2@@std@@QAE?AV?$_Iterator@$00@12@V312@0@Z ENDP ; std::list<std::pair<CGUID const ,CBaseObject *>,std::allocator<std::pair<CGUID const ,CBaseObject *> > >::erase
_TEXT	ENDS
PUBLIC	?erase@?$vector@U_List_position@?$_Hash@V?$_Hmap_traits@VCGUID@@PAVCBaseObject@@Vhash_guid_compare@@V?$allocator@U?$pair@$$CBVCGUID@@PAVCBaseObject@@@std@@@std@@$0A@@stdext@@@stdext@@V?$allocator@U_List_position@?$_Hash@V?$_Hmap_traits@VCGUID@@PAVCBaseObject@@Vhash_guid_compare@@V?$allocator@U?$pair@$$CBVCGUID@@PAVCBaseObject@@@std@@@std@@$0A@@stdext@@@stdext@@@std@@@std@@QAE?AV?$_Vector_iterator@U_List_position@?$_Hash@V?$_Hmap_traits@VCGUID@@PAVCBaseObject@@Vhash_guid_compare@@V?$allocator@U?$pair@$$CBVCGUID@@PAVCBaseObject@@@std@@@std@@$0A@@stdext@@@stdext@@V?$allocator@U_List_position@?$_Hash@V?$_Hmap_traits@VCGUID@@PAVCBaseObject@@Vhash_guid_compare@@V?$allocator@U?$pair@$$CBVCGUID@@PAVCBaseObject@@@std@@@std@@$0A@@stdext@@@stdext@@@std@@@2@V32@0@Z ; std::vector<stdext::_Hash<stdext::_Hmap_traits<CGUID,CBaseObject *,hash_guid_compare,std::allocator<std::pair<CGUID const ,CBaseObject *> >,0> >::_List_position,std::allocator<stdext::_Hash<stdext::_Hmap_traits<CGUID,CBaseObject *,hash_guid_compare,std::allocator<std::pair<CGUID const ,CBaseObject *> >,0> >::_List_position> >::erase
; Function compile flags: /Ogtpy
; File d:\program files\microsoft visual studio 8\vc\include\vector
;	COMDAT ?erase@?$vector@U_List_position@?$_Hash@V?$_Hmap_traits@VCGUID@@PAVCBaseObject@@Vhash_guid_compare@@V?$allocator@U?$pair@$$CBVCGUID@@PAVCBaseObject@@@std@@@std@@$0A@@stdext@@@stdext@@V?$allocator@U_List_position@?$_Hash@V?$_Hmap_traits@VCGUID@@PAVCBaseObject@@Vhash_guid_compare@@V?$allocator@U?$pair@$$CBVCGUID@@PAVCBaseObject@@@std@@@std@@$0A@@stdext@@@stdext@@@std@@@std@@QAE?AV?$_Vector_iterator@U_List_position@?$_Hash@V?$_Hmap_traits@VCGUID@@PAVCBaseObject@@Vhash_guid_compare@@V?$allocator@U?$pair@$$CBVCGUID@@PAVCBaseObject@@@std@@@std@@$0A@@stdext@@@stdext@@V?$allocator@U_List_position@?$_Hash@V?$_Hmap_traits@VCGUID@@PAVCBaseObject@@Vhash_guid_compare@@V?$allocator@U?$pair@$$CBVCGUID@@PAVCBaseObject@@@std@@@std@@$0A@@stdext@@@stdext@@@std@@@2@V32@0@Z
_TEXT	SEGMENT
___$ReturnUdt$ = 8					; size = 4
__First$ = 12						; size = 8
__Last$ = 20						; size = 8
?erase@?$vector@U_List_position@?$_Hash@V?$_Hmap_traits@VCGUID@@PAVCBaseObject@@Vhash_guid_compare@@V?$allocator@U?$pair@$$CBVCGUID@@PAVCBaseObject@@@std@@@std@@$0A@@stdext@@@stdext@@V?$allocator@U_List_position@?$_Hash@V?$_Hmap_traits@VCGUID@@PAVCBaseObject@@Vhash_guid_compare@@V?$allocator@U?$pair@$$CBVCGUID@@PAVCBaseObject@@@std@@@std@@$0A@@stdext@@@stdext@@@std@@@std@@QAE?AV?$_Vector_iterator@U_List_position@?$_Hash@V?$_Hmap_traits@VCGUID@@PAVCBaseObject@@Vhash_guid_compare@@V?$allocator@U?$pair@$$CBVCGUID@@PAVCBaseObject@@@std@@@std@@$0A@@stdext@@@stdext@@V?$allocator@U_List_position@?$_Hash@V?$_Hmap_traits@VCGUID@@PAVCBaseObject@@Vhash_guid_compare@@V?$allocator@U?$pair@$$CBVCGUID@@PAVCBaseObject@@@std@@@std@@$0A@@stdext@@@stdext@@@std@@@2@V32@0@Z PROC ; std::vector<stdext::_Hash<stdext::_Hmap_traits<CGUID,CBaseObject *,hash_guid_compare,std::allocator<std::pair<CGUID const ,CBaseObject *> >,0> >::_List_position,std::allocator<stdext::_Hash<stdext::_Hmap_traits<CGUID,CBaseObject *,hash_guid_compare,std::allocator<std::pair<CGUID const ,CBaseObject *> >,0> >::_List_position> >::erase, COMDAT
; _this$ = ecx

; 1006 : 		{	// erase [_First, _Last)

  00000	55		 push	 ebp

; 1007 : 		if (_First != _Last)

  00001	8b 6c 24 0c	 mov	 ebp, DWORD PTR __First$[esp]
  00005	85 ed		 test	 ebp, ebp
  00007	56		 push	 esi
  00008	57		 push	 edi
  00009	8b f9		 mov	 edi, ecx
  0000b	74 06		 je	 SHORT $LN6@erase@5
  0000d	3b 6c 24 1c	 cmp	 ebp, DWORD PTR __Last$[esp+8]
  00011	74 05		 je	 SHORT $LN7@erase@5
$LN6@erase@5:
  00013	e8 00 00 00 00	 call	 __invalid_parameter_noinfo
$LN7@erase@5:
  00018	8b 74 24 18	 mov	 esi, DWORD PTR __First$[esp+12]
  0001c	8b 44 24 20	 mov	 eax, DWORD PTR __Last$[esp+12]
  00020	3b f0		 cmp	 esi, eax
  00022	74 37		 je	 SHORT $LN1@erase@5

; 1008 : 			{	// worth doing, copy down over hole
; 1009 : 
; 1010 :  #if _HAS_ITERATOR_DEBUGGING
; 1011 : 			if (_Last < _First || _First._Mycont != this
; 1012 : 				|| _First._Myptr < _Myfirst || _Mylast < _Last._Myptr)
; 1013 : 				_DEBUG_ERROR("vector erase iterator outside range");
; 1014 : 			pointer _Ptr = _STDEXT unchecked_copy(_VEC_ITER_BASE(_Last), _Mylast,
; 1015 : 				_VEC_ITER_BASE(_First));
; 1016 : 			_Orphan_range(_First._Myptr, _Mylast);
; 1017 : 
; 1018 :  #else /* _HAS_ITERATOR_DEBUGGING */
; 1019 : 			pointer _Ptr = _STDEXT unchecked_copy(_VEC_ITER_BASE(_Last), _Mylast,
; 1020 : 				_VEC_ITER_BASE(_First));

  00024	8b 4f 08	 mov	 ecx, DWORD PTR [edi+8]
  00027	8b d1		 mov	 edx, ecx
  00029	2b d0		 sub	 edx, eax
  0002b	c1 fa 03	 sar	 edx, 3
  0002e	3b c1		 cmp	 eax, ecx
  00030	53		 push	 ebx
  00031	8d 1c d6	 lea	 ebx, DWORD PTR [esi+edx*8]
  00034	74 21		 je	 SHORT $LN30@erase@5
  00036	8b d6		 mov	 edx, esi
  00038	2b d0		 sub	 edx, eax
  0003a	8d 9b 00 00 00
	00		 npad	 6
$LL32@erase@5:
  00040	8b 28		 mov	 ebp, DWORD PTR [eax]
  00042	89 2c 02	 mov	 DWORD PTR [edx+eax], ebp
  00045	8b 68 04	 mov	 ebp, DWORD PTR [eax+4]
  00048	89 6c 02 04	 mov	 DWORD PTR [edx+eax+4], ebp
  0004c	83 c0 08	 add	 eax, 8
  0004f	3b c1		 cmp	 eax, ecx
  00051	75 ed		 jne	 SHORT $LL32@erase@5
  00053	8b 6c 24 18	 mov	 ebp, DWORD PTR __First$[esp+12]
$LN30@erase@5:

; 1021 :  #endif /* _HAS_ITERATOR_DEBUGGING */
; 1022 : 
; 1023 : 			_Destroy(_Ptr, _Mylast);
; 1024 : 			_Mylast = _Ptr;

  00057	89 5f 08	 mov	 DWORD PTR [edi+8], ebx
  0005a	5b		 pop	 ebx
$LN1@erase@5:

; 1025 : 			}
; 1026 : #if _HAS_ITERATOR_DEBUGGING
; 1027 :         return (iterator(_First._Myptr, this));
; 1028 : #else
; 1029 : 		return (_First);

  0005b	8b 44 24 10	 mov	 eax, DWORD PTR ___$ReturnUdt$[esp+8]
  0005f	5f		 pop	 edi
  00060	89 70 04	 mov	 DWORD PTR [eax+4], esi
  00063	5e		 pop	 esi
  00064	89 28		 mov	 DWORD PTR [eax], ebp
  00066	5d		 pop	 ebp

; 1030 : #endif
; 1031 : 		}

  00067	c2 14 00	 ret	 20			; 00000014H
?erase@?$vector@U_List_position@?$_Hash@V?$_Hmap_traits@VCGUID@@PAVCBaseObject@@Vhash_guid_compare@@V?$allocator@U?$pair@$$CBVCGUID@@PAVCBaseObject@@@std@@@std@@$0A@@stdext@@@stdext@@V?$allocator@U_List_position@?$_Hash@V?$_Hmap_traits@VCGUID@@PAVCBaseObject@@Vhash_guid_compare@@V?$allocator@U?$pair@$$CBVCGUID@@PAVCBaseObject@@@std@@@std@@$0A@@stdext@@@stdext@@@std@@@std@@QAE?AV?$_Vector_iterator@U_List_position@?$_Hash@V?$_Hmap_traits@VCGUID@@PAVCBaseObject@@Vhash_guid_compare@@V?$allocator@U?$pair@$$CBVCGUID@@PAVCBaseObject@@@std@@@std@@$0A@@stdext@@@stdext@@V?$allocator@U_List_position@?$_Hash@V?$_Hmap_traits@VCGUID@@PAVCBaseObject@@Vhash_guid_compare@@V?$allocator@U?$pair@$$CBVCGUID@@PAVCBaseObject@@@std@@@std@@$0A@@stdext@@@stdext@@@std@@@2@V32@0@Z ENDP ; std::vector<stdext::_Hash<stdext::_Hmap_traits<CGUID,CBaseObject *,hash_guid_compare,std::allocator<std::pair<CGUID const ,CBaseObject *> >,0> >::_List_position,std::allocator<stdext::_Hash<stdext::_Hmap_traits<CGUID,CBaseObject *,hash_guid_compare,std::allocator<std::pair<CGUID const ,CBaseObject *> >,0> >::_List_position> >::erase
_TEXT	ENDS
PUBLIC	??$_Umove@PAU_List_position@?$_Hash@V?$_Hmap_traits@VCGUID@@PAVCBaseObject@@Vhash_guid_compare@@V?$allocator@U?$pair@$$CBVCGUID@@PAVCBaseObject@@@std@@@std@@$0A@@stdext@@@stdext@@@?$vector@U_List_position@?$_Hash@V?$_Hmap_traits@VCGUID@@PAVCBaseObject@@Vhash_guid_compare@@V?$allocator@U?$pair@$$CBVCGUID@@PAVCBaseObject@@@std@@@std@@$0A@@stdext@@@stdext@@V?$allocator@U_List_position@?$_Hash@V?$_Hmap_traits@VCGUID@@PAVCBaseObject@@Vhash_guid_compare@@V?$allocator@U?$pair@$$CBVCGUID@@PAVCBaseObject@@@std@@@std@@$0A@@stdext@@@stdext@@@std@@@std@@IAEPAU_List_position@?$_Hash@V?$_Hmap_traits@VCGUID@@PAVCBaseObject@@Vhash_guid_compare@@V?$allocator@U?$pair@$$CBVCGUID@@PAVCBaseObject@@@std@@@std@@$0A@@stdext@@@stdext@@PAU234@00@Z ; std::vector<stdext::_Hash<stdext::_Hmap_traits<CGUID,CBaseObject *,hash_guid_compare,std::allocator<std::pair<CGUID const ,CBaseObject *> >,0> >::_List_position,std::allocator<stdext::_Hash<stdext::_Hmap_traits<CGUID,CBaseObject *,hash_guid_compare,std::allocator<std::pair<CGUID const ,CBaseObject *> >,0> >::_List_position> >::_Umove<stdext::_Hash<stdext::_Hmap_traits<CGUID,CBaseObject *,hash_guid_compare,std::allocator<std::pair<CGUID const ,CBaseObject *> >,0> >::_List_position *>
; Function compile flags: /Ogtpy
;	COMDAT ??$_Umove@PAU_List_position@?$_Hash@V?$_Hmap_traits@VCGUID@@PAVCBaseObject@@Vhash_guid_compare@@V?$allocator@U?$pair@$$CBVCGUID@@PAVCBaseObject@@@std@@@std@@$0A@@stdext@@@stdext@@@?$vector@U_List_position@?$_Hash@V?$_Hmap_traits@VCGUID@@PAVCBaseObject@@Vhash_guid_compare@@V?$allocator@U?$pair@$$CBVCGUID@@PAVCBaseObject@@@std@@@std@@$0A@@stdext@@@stdext@@V?$allocator@U_List_position@?$_Hash@V?$_Hmap_traits@VCGUID@@PAVCBaseObject@@Vhash_guid_compare@@V?$allocator@U?$pair@$$CBVCGUID@@PAVCBaseObject@@@std@@@std@@$0A@@stdext@@@stdext@@@std@@@std@@IAEPAU_List_position@?$_Hash@V?$_Hmap_traits@VCGUID@@PAVCBaseObject@@Vhash_guid_compare@@V?$allocator@U?$pair@$$CBVCGUID@@PAVCBaseObject@@@std@@@std@@$0A@@stdext@@@stdext@@PAU234@00@Z
_TEXT	SEGMENT
$T302410 = -4						; size = 1
__First$ = 8						; size = 4
__Last$ = 12						; size = 4
__Cat$302414 = 16					; size = 1
__Ptr$ = 16						; size = 4
??$_Umove@PAU_List_position@?$_Hash@V?$_Hmap_traits@VCGUID@@PAVCBaseObject@@Vhash_guid_compare@@V?$allocator@U?$pair@$$CBVCGUID@@PAVCBaseObject@@@std@@@std@@$0A@@stdext@@@stdext@@@?$vector@U_List_position@?$_Hash@V?$_Hmap_traits@VCGUID@@PAVCBaseObject@@Vhash_guid_compare@@V?$allocator@U?$pair@$$CBVCGUID@@PAVCBaseObject@@@std@@@std@@$0A@@stdext@@@stdext@@V?$allocator@U_List_position@?$_Hash@V?$_Hmap_traits@VCGUID@@PAVCBaseObject@@Vhash_guid_compare@@V?$allocator@U?$pair@$$CBVCGUID@@PAVCBaseObject@@@std@@@std@@$0A@@stdext@@@stdext@@@std@@@std@@IAEPAU_List_position@?$_Hash@V?$_Hmap_traits@VCGUID@@PAVCBaseObject@@Vhash_guid_compare@@V?$allocator@U?$pair@$$CBVCGUID@@PAVCBaseObject@@@std@@@std@@$0A@@stdext@@@stdext@@PAU234@00@Z PROC ; std::vector<stdext::_Hash<stdext::_Hmap_traits<CGUID,CBaseObject *,hash_guid_compare,std::allocator<std::pair<CGUID const ,CBaseObject *> >,0> >::_List_position,std::allocator<stdext::_Hash<stdext::_Hmap_traits<CGUID,CBaseObject *,hash_guid_compare,std::allocator<std::pair<CGUID const ,CBaseObject *> >,0> >::_List_position> >::_Umove<stdext::_Hash<stdext::_Hmap_traits<CGUID,CBaseObject *,hash_guid_compare,std::allocator<std::pair<CGUID const ,CBaseObject *> >,0> >::_List_position *>, COMDAT
; _this$ = ecx

; 1109 : 		pointer _Umove(_Iter _First, _Iter _Last, pointer _Ptr)

  00000	51		 push	 ecx

; 1110 : 		{	// move initializing [_First, _Last), using allocator
; 1111 : 		return (_STDEXT _Unchecked_uninitialized_move(_First, _Last,
; 1112 : 			_Ptr, this->_Alval));

  00001	8b 54 24 10	 mov	 edx, DWORD PTR __Cat$302414[esp]
  00005	c6 04 24 00	 mov	 BYTE PTR $T302410[esp+4], 0
  00009	8b 04 24	 mov	 eax, DWORD PTR $T302410[esp+4]
  0000c	50		 push	 eax
  0000d	8b 44 24 14	 mov	 eax, DWORD PTR __Ptr$[esp+4]
  00011	52		 push	 edx
  00012	8b 54 24 10	 mov	 edx, DWORD PTR __First$[esp+8]
  00016	51		 push	 ecx
  00017	8b 4c 24 18	 mov	 ecx, DWORD PTR __Last$[esp+12]
  0001b	50		 push	 eax
  0001c	51		 push	 ecx
  0001d	52		 push	 edx
  0001e	e8 00 00 00 00	 call	 ??$_Uninit_copy@PAU_List_position@?$_Hash@V?$_Hmap_traits@VCGUID@@PAVCBaseObject@@Vhash_guid_compare@@V?$allocator@U?$pair@$$CBVCGUID@@PAVCBaseObject@@@std@@@std@@$0A@@stdext@@@stdext@@PAU123@V?$allocator@U_List_position@?$_Hash@V?$_Hmap_traits@VCGUID@@PAVCBaseObject@@Vhash_guid_compare@@V?$allocator@U?$pair@$$CBVCGUID@@PAVCBaseObject@@@std@@@std@@$0A@@stdext@@@stdext@@@std@@@std@@YAPAU_List_position@?$_Hash@V?$_Hmap_traits@VCGUID@@PAVCBaseObject@@Vhash_guid_compare@@V?$allocator@U?$pair@$$CBVCGUID@@PAVCBaseObject@@@std@@@std@@$0A@@stdext@@@stdext@@PAU123@00AAV?$allocator@U_List_position@?$_Hash@V?$_Hmap_traits@VCGUID@@PAVCBaseObject@@Vhash_guid_compare@@V?$allocator@U?$pair@$$CBVCGUID@@PAVCBaseObject@@@std@@@std@@$0A@@stdext@@@stdext@@@0@U_Nonscalar_ptr_iterator_tag@0@U_Range_checked_iterator_tag@0@@Z ; std::_Uninit_copy<stdext::_Hash<stdext::_Hmap_traits<CGUID,CBaseObject *,hash_guid_compare,std::allocator<std::pair<CGUID const ,CBaseObject *> >,0> >::_List_position *,stdext::_Hash<stdext::_Hmap_traits<CGUID,CBaseObject *,hash_guid_compare,std::allocator<std::pair<CGUID const ,CBaseObject *> >,0> >::_List_position *,std::allocator<stdext::_Hash<stdext::_Hmap_traits<CGUID,CBaseObject *,hash_guid_compare,std::allocator<std::pair<CGUID const ,CBaseObject *> >,0> >::_List_position> >

; 1113 : 		}

  00023	83 c4 1c	 add	 esp, 28			; 0000001cH
  00026	c2 0c 00	 ret	 12			; 0000000cH
??$_Umove@PAU_List_position@?$_Hash@V?$_Hmap_traits@VCGUID@@PAVCBaseObject@@Vhash_guid_compare@@V?$allocator@U?$pair@$$CBVCGUID@@PAVCBaseObject@@@std@@@std@@$0A@@stdext@@@stdext@@@?$vector@U_List_position@?$_Hash@V?$_Hmap_traits@VCGUID@@PAVCBaseObject@@Vhash_guid_compare@@V?$allocator@U?$pair@$$CBVCGUID@@PAVCBaseObject@@@std@@@std@@$0A@@stdext@@@stdext@@V?$allocator@U_List_position@?$_Hash@V?$_Hmap_traits@VCGUID@@PAVCBaseObject@@Vhash_guid_compare@@V?$allocator@U?$pair@$$CBVCGUID@@PAVCBaseObject@@@std@@@std@@$0A@@stdext@@@stdext@@@std@@@std@@IAEPAU_List_position@?$_Hash@V?$_Hmap_traits@VCGUID@@PAVCBaseObject@@Vhash_guid_compare@@V?$allocator@U?$pair@$$CBVCGUID@@PAVCBaseObject@@@std@@@std@@$0A@@stdext@@@stdext@@PAU234@00@Z ENDP ; std::vector<stdext::_Hash<stdext::_Hmap_traits<CGUID,CBaseObject *,hash_guid_compare,std::allocator<std::pair<CGUID const ,CBaseObject *> >,0> >::_List_position,std::allocator<stdext::_Hash<stdext::_Hmap_traits<CGUID,CBaseObject *,hash_guid_compare,std::allocator<std::pair<CGUID const ,CBaseObject *> >,0> >::_List_position> >::_Umove<stdext::_Hash<stdext::_Hmap_traits<CGUID,CBaseObject *,hash_guid_compare,std::allocator<std::pair<CGUID const ,CBaseObject *> >,0> >::_List_position *>
_TEXT	ENDS
PUBLIC	??0logic_error@std@@QAE@ABV?$basic_string@DU?$char_traits@D@std@@V?$allocator@D@2@@1@@Z ; std::logic_error::logic_error
EXTRN	??0exception@std@@QAE@XZ:PROC			; std::exception::exception
;	COMDAT xdata$x
; File d:\program files\microsoft visual studio 8\vc\include\iosfwd
xdata$x	SEGMENT
__unwindtable$??0logic_error@std@@QAE@ABV?$basic_string@DU?$char_traits@D@std@@V?$allocator@D@2@@1@@Z DD 0ffffffffH
	DD	FLAT:__unwindfunclet$??0logic_error@std@@QAE@ABV?$basic_string@DU?$char_traits@D@std@@V?$allocator@D@2@@1@@Z$0
__ehfuncinfo$??0logic_error@std@@QAE@ABV?$basic_string@DU?$char_traits@D@std@@V?$allocator@D@2@@1@@Z DD 019930522H
	DD	01H
	DD	FLAT:__unwindtable$??0logic_error@std@@QAE@ABV?$basic_string@DU?$char_traits@D@std@@V?$allocator@D@2@@1@@Z
	DD	2 DUP(00H)
	DD	2 DUP(00H)
	DD	00H
	DD	01H
; Function compile flags: /Ogtpy
; File d:\program files\microsoft visual studio 8\vc\include\stdexcept
xdata$x	ENDS
;	COMDAT ??0logic_error@std@@QAE@ABV?$basic_string@DU?$char_traits@D@std@@V?$allocator@D@2@@1@@Z
_TEXT	SEGMENT
_this$ = -16						; size = 4
__$EHRec$ = -12						; size = 12
__Message$ = 8						; size = 4
??0logic_error@std@@QAE@ABV?$basic_string@DU?$char_traits@D@std@@V?$allocator@D@2@@1@@Z PROC ; std::logic_error::logic_error, COMDAT
; _this$ = ecx

; 27   : 		{	// construct from message string

  00000	6a ff		 push	 -1
  00002	68 00 00 00 00	 push	 __ehhandler$??0logic_error@std@@QAE@ABV?$basic_string@DU?$char_traits@D@std@@V?$allocator@D@2@@1@@Z
  00007	64 a1 00 00 00
	00		 mov	 eax, DWORD PTR fs:0
  0000d	50		 push	 eax
  0000e	51		 push	 ecx
  0000f	56		 push	 esi
  00010	a1 00 00 00 00	 mov	 eax, DWORD PTR ___security_cookie
  00015	33 c4		 xor	 eax, esp
  00017	50		 push	 eax
  00018	8d 44 24 0c	 lea	 eax, DWORD PTR __$EHRec$[esp+24]
  0001c	64 a3 00 00 00
	00		 mov	 DWORD PTR fs:0, eax
  00022	8b f1		 mov	 esi, ecx
  00024	89 74 24 08	 mov	 DWORD PTR _this$[esp+24], esi
  00028	e8 00 00 00 00	 call	 ??0exception@std@@QAE@XZ ; std::exception::exception
  0002d	33 c0		 xor	 eax, eax
  0002f	8d 4e 0c	 lea	 ecx, DWORD PTR [esi+12]
  00032	c7 06 00 00 00
	00		 mov	 DWORD PTR [esi], OFFSET ??_7logic_error@std@@6B@
  00038	6a ff		 push	 -1
  0003a	89 41 14	 mov	 DWORD PTR [ecx+20], eax
  0003d	c7 41 18 0f 00
	00 00		 mov	 DWORD PTR [ecx+24], 15	; 0000000fH
  00044	50		 push	 eax
  00045	89 44 24 1c	 mov	 DWORD PTR __$EHRec$[esp+40], eax
  00049	88 41 04	 mov	 BYTE PTR [ecx+4], al
  0004c	8b 44 24 24	 mov	 eax, DWORD PTR __Message$[esp+28]
  00050	50		 push	 eax
  00051	e8 00 00 00 00	 call	 ?assign@?$basic_string@DU?$char_traits@D@std@@V?$allocator@D@2@@std@@QAEAAV12@ABV12@II@Z ; std::basic_string<char,std::char_traits<char>,std::allocator<char> >::assign

; 28   : 		}

  00056	8b c6		 mov	 eax, esi
  00058	8b 4c 24 0c	 mov	 ecx, DWORD PTR __$EHRec$[esp+24]
  0005c	64 89 0d 00 00
	00 00		 mov	 DWORD PTR fs:0, ecx
  00063	59		 pop	 ecx
  00064	5e		 pop	 esi
  00065	83 c4 10	 add	 esp, 16			; 00000010H
  00068	c2 04 00	 ret	 4
_TEXT	ENDS
;	COMDAT text$x
text$x	SEGMENT
__unwindfunclet$??0logic_error@std@@QAE@ABV?$basic_string@DU?$char_traits@D@std@@V?$allocator@D@2@@1@@Z$0:
  00000	8b 4d f0	 mov	 ecx, DWORD PTR _this$[ebp]
  00003	e9 00 00 00 00	 jmp	 ??1exception@std@@UAE@XZ ; std::exception::~exception
__ehhandler$??0logic_error@std@@QAE@ABV?$basic_string@DU?$char_traits@D@std@@V?$allocator@D@2@@1@@Z:
  00008	8b 54 24 08	 mov	 edx, DWORD PTR [esp+8]
  0000c	8d 42 f8	 lea	 eax, DWORD PTR [edx-8]
  0000f	8b 4a f4	 mov	 ecx, DWORD PTR [edx-12]
  00012	33 c8		 xor	 ecx, eax
  00014	e8 00 00 00 00	 call	 @__security_check_cookie@4
  00019	b8 00 00 00 00	 mov	 eax, OFFSET __ehfuncinfo$??0logic_error@std@@QAE@ABV?$basic_string@DU?$char_traits@D@std@@V?$allocator@D@2@@1@@Z
  0001e	e9 00 00 00 00	 jmp	 ___CxxFrameHandler3
text$x	ENDS
??0logic_error@std@@QAE@ABV?$basic_string@DU?$char_traits@D@std@@V?$allocator@D@2@@1@@Z ENDP ; std::logic_error::logic_error
PUBLIC	??_7length_error@std@@6B@			; std::length_error::`vftable'
PUBLIC	??0length_error@std@@QAE@ABV?$basic_string@DU?$char_traits@D@std@@V?$allocator@D@2@@1@@Z ; std::length_error::length_error
PUBLIC	??_R4length_error@std@@6B@			; std::length_error::`RTTI Complete Object Locator'
PUBLIC	??_R0?AVlength_error@std@@@8			; std::length_error `RTTI Type Descriptor'
PUBLIC	??_R3length_error@std@@8			; std::length_error::`RTTI Class Hierarchy Descriptor'
PUBLIC	??_R2length_error@std@@8			; std::length_error::`RTTI Base Class Array'
PUBLIC	??_R1A@?0A@EA@length_error@std@@8		; std::length_error::`RTTI Base Class Descriptor at (0,-1,0,64)'
EXTRN	??_Elength_error@std@@UAEPAXI@Z:PROC		; std::length_error::`vector deleting destructor'
;	COMDAT ??_R1A@?0A@EA@length_error@std@@8
rdata$r	SEGMENT
??_R1A@?0A@EA@length_error@std@@8 DD FLAT:??_R0?AVlength_error@std@@@8 ; std::length_error::`RTTI Base Class Descriptor at (0,-1,0,64)'
	DD	02H
	DD	00H
	DD	0ffffffffH
	DD	00H
	DD	040H
	DD	FLAT:??_R3length_error@std@@8
rdata$r	ENDS
;	COMDAT ??_R2length_error@std@@8
rdata$r	SEGMENT
??_R2length_error@std@@8 DD FLAT:??_R1A@?0A@EA@length_error@std@@8 ; std::length_error::`RTTI Base Class Array'
	DD	FLAT:??_R1A@?0A@EA@logic_error@std@@8
	DD	FLAT:??_R1A@?0A@EA@exception@std@@8
rdata$r	ENDS
;	COMDAT ??_R3length_error@std@@8
rdata$r	SEGMENT
??_R3length_error@std@@8 DD 00H				; std::length_error::`RTTI Class Hierarchy Descriptor'
	DD	00H
	DD	03H
	DD	FLAT:??_R2length_error@std@@8
rdata$r	ENDS
;	COMDAT ??_R0?AVlength_error@std@@@8
_DATA	SEGMENT
??_R0?AVlength_error@std@@@8 DD FLAT:??_7type_info@@6B@	; std::length_error `RTTI Type Descriptor'
	DD	00H
	DB	'.?AVlength_error@std@@', 00H
_DATA	ENDS
;	COMDAT ??_R4length_error@std@@6B@
rdata$r	SEGMENT
??_R4length_error@std@@6B@ DD 00H			; std::length_error::`RTTI Complete Object Locator'
	DD	00H
	DD	00H
	DD	FLAT:??_R0?AVlength_error@std@@@8
	DD	FLAT:??_R3length_error@std@@8
rdata$r	ENDS
;	COMDAT ??_7length_error@std@@6B@
CONST	SEGMENT
??_7length_error@std@@6B@ DD FLAT:??_R4length_error@std@@6B@ ; std::length_error::`vftable'
	DD	FLAT:??_Elength_error@std@@UAEPAXI@Z
	DD	FLAT:?what@logic_error@std@@UBEPBDXZ
; Function compile flags: /Ogtpy
CONST	ENDS
;	COMDAT ??0length_error@std@@QAE@ABV?$basic_string@DU?$char_traits@D@std@@V?$allocator@D@2@@1@@Z
_TEXT	SEGMENT
__Message$ = 8						; size = 4
??0length_error@std@@QAE@ABV?$basic_string@DU?$char_traits@D@std@@V?$allocator@D@2@@1@@Z PROC ; std::length_error::length_error, COMDAT
; _this$ = ecx

; 106  : 		{	// construct from message string

  00000	8b 44 24 04	 mov	 eax, DWORD PTR __Message$[esp-4]
  00004	56		 push	 esi
  00005	50		 push	 eax
  00006	8b f1		 mov	 esi, ecx
  00008	e8 00 00 00 00	 call	 ??0logic_error@std@@QAE@ABV?$basic_string@DU?$char_traits@D@std@@V?$allocator@D@2@@1@@Z ; std::logic_error::logic_error
  0000d	c7 06 00 00 00
	00		 mov	 DWORD PTR [esi], OFFSET ??_7length_error@std@@6B@

; 107  : 		}

  00013	8b c6		 mov	 eax, esi
  00015	5e		 pop	 esi
  00016	c2 04 00	 ret	 4
??0length_error@std@@QAE@ABV?$basic_string@DU?$char_traits@D@std@@V?$allocator@D@2@@1@@Z ENDP ; std::length_error::length_error
_TEXT	ENDS
PUBLIC	??1length_error@std@@UAE@XZ			; std::length_error::~length_error
; Function compile flags: /Ogtpy
;	COMDAT ??1length_error@std@@UAE@XZ
_TEXT	SEGMENT
??1length_error@std@@UAE@XZ PROC			; std::length_error::~length_error, COMDAT
; _this$ = ecx

; 110  : 		{	// destroy the object

  00000	56		 push	 esi
  00001	8b f1		 mov	 esi, ecx

; 111  : 		}

  00003	c7 06 00 00 00
	00		 mov	 DWORD PTR [esi], OFFSET ??_7logic_error@std@@6B@
  00009	83 7e 24 10	 cmp	 DWORD PTR [esi+36], 16	; 00000010H
  0000d	72 0c		 jb	 SHORT $LN21@length_err
  0000f	8b 46 10	 mov	 eax, DWORD PTR [esi+16]
  00012	50		 push	 eax
  00013	e8 00 00 00 00	 call	 ??3@YAXPAX@Z		; operator delete
  00018	83 c4 04	 add	 esp, 4
$LN21@length_err:
  0001b	33 c0		 xor	 eax, eax
  0001d	c7 46 24 0f 00
	00 00		 mov	 DWORD PTR [esi+36], 15	; 0000000fH
  00024	89 46 20	 mov	 DWORD PTR [esi+32], eax
  00027	88 46 10	 mov	 BYTE PTR [esi+16], al
  0002a	8b ce		 mov	 ecx, esi
  0002c	5e		 pop	 esi
  0002d	e9 00 00 00 00	 jmp	 ??1exception@std@@UAE@XZ ; std::exception::~exception
??1length_error@std@@UAE@XZ ENDP			; std::length_error::~length_error
; Function compile flags: /Ogtpy
_TEXT	ENDS
;	COMDAT ??_Glength_error@std@@UAEPAXI@Z
_TEXT	SEGMENT
___flags$ = 8						; size = 4
??_Glength_error@std@@UAEPAXI@Z PROC			; std::length_error::`scalar deleting destructor', COMDAT
; _this$ = ecx
  00000	56		 push	 esi
  00001	8b f1		 mov	 esi, ecx
  00003	c7 06 00 00 00
	00		 mov	 DWORD PTR [esi], OFFSET ??_7logic_error@std@@6B@
  00009	83 7e 24 10	 cmp	 DWORD PTR [esi+36], 16	; 00000010H
  0000d	72 0c		 jb	 SHORT $LN24@scalar@4
  0000f	8b 46 10	 mov	 eax, DWORD PTR [esi+16]
  00012	50		 push	 eax
  00013	e8 00 00 00 00	 call	 ??3@YAXPAX@Z		; operator delete
  00018	83 c4 04	 add	 esp, 4
$LN24@scalar@4:
  0001b	33 c0		 xor	 eax, eax
  0001d	c7 46 24 0f 00
	00 00		 mov	 DWORD PTR [esi+36], 15	; 0000000fH
  00024	89 46 20	 mov	 DWORD PTR [esi+32], eax
  00027	8b ce		 mov	 ecx, esi
  00029	88 46 10	 mov	 BYTE PTR [esi+16], al
  0002c	e8 00 00 00 00	 call	 ??1exception@std@@UAE@XZ ; std::exception::~exception
  00031	f6 44 24 08 01	 test	 BYTE PTR ___flags$[esp], 1
  00036	74 09		 je	 SHORT $LN34@scalar@4
  00038	56		 push	 esi
  00039	e8 00 00 00 00	 call	 ??3@YAXPAX@Z		; operator delete
  0003e	83 c4 04	 add	 esp, 4
$LN34@scalar@4:
  00041	8b c6		 mov	 eax, esi
  00043	5e		 pop	 esi
  00044	c2 04 00	 ret	 4
??_Glength_error@std@@UAEPAXI@Z ENDP			; std::length_error::`scalar deleting destructor'
_TEXT	ENDS
PUBLIC	??0?$basic_string@DU?$char_traits@D@std@@V?$allocator@D@2@@std@@QAE@PBD@Z ; std::basic_string<char,std::char_traits<char>,std::allocator<char> >::basic_string<char,std::char_traits<char>,std::allocator<char> >
; Function compile flags: /Ogtpy
; File d:\program files\microsoft visual studio 8\vc\include\xstring
;	COMDAT ??0?$basic_string@DU?$char_traits@D@std@@V?$allocator@D@2@@std@@QAE@PBD@Z
_TEXT	SEGMENT
__Ptr$ = 8						; size = 4
??0?$basic_string@DU?$char_traits@D@std@@V?$allocator@D@2@@std@@QAE@PBD@Z PROC ; std::basic_string<char,std::char_traits<char>,std::allocator<char> >::basic_string<char,std::char_traits<char>,std::allocator<char> >, COMDAT
; _this$ = ecx

; 651  : 		_Tidy();
; 652  : 		assign(_Ptr);

  00000	8b 54 24 04	 mov	 edx, DWORD PTR __Ptr$[esp-4]
  00004	56		 push	 esi
  00005	8b f1		 mov	 esi, ecx
  00007	8b c2		 mov	 eax, edx
  00009	57		 push	 edi
  0000a	c7 46 18 0f 00
	00 00		 mov	 DWORD PTR [esi+24], 15	; 0000000fH
  00011	c7 46 14 00 00
	00 00		 mov	 DWORD PTR [esi+20], 0
  00018	c6 46 04 00	 mov	 BYTE PTR [esi+4], 0
  0001c	8d 78 01	 lea	 edi, DWORD PTR [eax+1]
  0001f	90		 npad	 1
$LL37@basic_stri@2:
  00020	8a 08		 mov	 cl, BYTE PTR [eax]
  00022	83 c0 01	 add	 eax, 1
  00025	84 c9		 test	 cl, cl
  00027	75 f7		 jne	 SHORT $LL37@basic_stri@2
  00029	2b c7		 sub	 eax, edi
  0002b	50		 push	 eax
  0002c	52		 push	 edx
  0002d	8b ce		 mov	 ecx, esi
  0002f	e8 00 00 00 00	 call	 ?assign@?$basic_string@DU?$char_traits@D@std@@V?$allocator@D@2@@std@@QAEAAV12@PBDI@Z ; std::basic_string<char,std::char_traits<char>,std::allocator<char> >::assign
  00034	5f		 pop	 edi

; 653  : 		}

  00035	8b c6		 mov	 eax, esi
  00037	5e		 pop	 esi
  00038	c2 04 00	 ret	 4
??0?$basic_string@DU?$char_traits@D@std@@V?$allocator@D@2@@std@@QAE@PBD@Z ENDP ; std::basic_string<char,std::char_traits<char>,std::allocator<char> >::basic_string<char,std::char_traits<char>,std::allocator<char> >
_TEXT	ENDS
PUBLIC	__TI3?AVlength_error@std@@
PUBLIC	??_C@_0BB@MOGOBHAF@list?$DMT?$DO?5too?5long?$AA@ ; `string'
PUBLIC	?_Incsize@?$list@U?$pair@$$CBVCGUID@@PAVCBaseObject@@@std@@V?$allocator@U?$pair@$$CBVCGUID@@PAVCBaseObject@@@std@@@2@@std@@IAEXI@Z ; std::list<std::pair<CGUID const ,CBaseObject *>,std::allocator<std::pair<CGUID const ,CBaseObject *> > >::_Incsize
PUBLIC	__CTA3?AVlength_error@std@@
PUBLIC	__CT??_R0?AVlength_error@std@@@8??0length_error@std@@QAE@ABV01@@Z40
PUBLIC	??0length_error@std@@QAE@ABV01@@Z		; std::length_error::length_error
PUBLIC	__CT??_R0?AVlogic_error@std@@@8??0logic_error@std@@QAE@ABV01@@Z40
PUBLIC	??0logic_error@std@@QAE@ABV01@@Z		; std::logic_error::logic_error
;	COMDAT __CT??_R0?AVlogic_error@std@@@8??0logic_error@std@@QAE@ABV01@@Z40
; File d:\program files\microsoft visual studio 8\vc\include\stdexcept
xdata$x	SEGMENT
__CT??_R0?AVlogic_error@std@@@8??0logic_error@std@@QAE@ABV01@@Z40 DD 00H
	DD	FLAT:??_R0?AVlogic_error@std@@@8
	DD	00H
	DD	0ffffffffH
	ORG $+4
	DD	028H
	DD	FLAT:??0logic_error@std@@QAE@ABV01@@Z
xdata$x	ENDS
;	COMDAT __CT??_R0?AVlength_error@std@@@8??0length_error@std@@QAE@ABV01@@Z40
xdata$x	SEGMENT
__CT??_R0?AVlength_error@std@@@8??0length_error@std@@QAE@ABV01@@Z40 DD 00H
	DD	FLAT:??_R0?AVlength_error@std@@@8
	DD	00H
	DD	0ffffffffH
	ORG $+4
	DD	028H
	DD	FLAT:??0length_error@std@@QAE@ABV01@@Z
xdata$x	ENDS
;	COMDAT __CTA3?AVlength_error@std@@
xdata$x	SEGMENT
__CTA3?AVlength_error@std@@ DD 03H
	DD	FLAT:__CT??_R0?AVlength_error@std@@@8??0length_error@std@@QAE@ABV01@@Z40
	DD	FLAT:__CT??_R0?AVlogic_error@std@@@8??0logic_error@std@@QAE@ABV01@@Z40
	DD	FLAT:__CT??_R0?AVexception@std@@@8??0exception@std@@QAE@ABV01@@Z12
xdata$x	ENDS
;	COMDAT __TI3?AVlength_error@std@@
xdata$x	SEGMENT
__TI3?AVlength_error@std@@ DD 00H
	DD	FLAT:??1length_error@std@@UAE@XZ
	DD	00H
	DD	FLAT:__CTA3?AVlength_error@std@@
xdata$x	ENDS
;	COMDAT ??_C@_0BB@MOGOBHAF@list?$DMT?$DO?5too?5long?$AA@
CONST	SEGMENT
??_C@_0BB@MOGOBHAF@list?$DMT?$DO?5too?5long?$AA@ DB 'list<T> too long', 00H ; `string'
CONST	ENDS
;	COMDAT xdata$x
xdata$x	SEGMENT
__unwindtable$?_Incsize@?$list@U?$pair@$$CBVCGUID@@PAVCBaseObject@@@std@@V?$allocator@U?$pair@$$CBVCGUID@@PAVCBaseObject@@@std@@@2@@std@@IAEXI@Z DD 0ffffffffH
	DD	FLAT:__unwindfunclet$?_Incsize@?$list@U?$pair@$$CBVCGUID@@PAVCBaseObject@@@std@@V?$allocator@U?$pair@$$CBVCGUID@@PAVCBaseObject@@@std@@@2@@std@@IAEXI@Z$0
__ehfuncinfo$?_Incsize@?$list@U?$pair@$$CBVCGUID@@PAVCBaseObject@@@std@@V?$allocator@U?$pair@$$CBVCGUID@@PAVCBaseObject@@@std@@@2@@std@@IAEXI@Z DD 019930522H
	DD	01H
	DD	FLAT:__unwindtable$?_Incsize@?$list@U?$pair@$$CBVCGUID@@PAVCBaseObject@@@std@@V?$allocator@U?$pair@$$CBVCGUID@@PAVCBaseObject@@@std@@@2@@std@@IAEXI@Z
	DD	2 DUP(00H)
	DD	2 DUP(00H)
	DD	00H
	DD	01H
; Function compile flags: /Ogtpy
; File d:\program files\microsoft visual studio 8\vc\include\list
xdata$x	ENDS
;	COMDAT ?_Incsize@?$list@U?$pair@$$CBVCGUID@@PAVCBaseObject@@@std@@V?$allocator@U?$pair@$$CBVCGUID@@PAVCBaseObject@@@std@@@2@@std@@IAEXI@Z
_TEXT	SEGMENT
$T302998 = -80						; size = 28
$T302997 = -52						; size = 40
__$EHRec$ = -12						; size = 12
__Count$ = 8						; size = 4
?_Incsize@?$list@U?$pair@$$CBVCGUID@@PAVCBaseObject@@@std@@V?$allocator@U?$pair@$$CBVCGUID@@PAVCBaseObject@@@std@@@2@@std@@IAEXI@Z PROC ; std::list<std::pair<CGUID const ,CBaseObject *>,std::allocator<std::pair<CGUID const ,CBaseObject *> > >::_Incsize, COMDAT
; _this$ = ecx

; 1210 : 		{	// alter element count, with checking

  00000	6a ff		 push	 -1
  00002	68 00 00 00 00	 push	 __ehhandler$?_Incsize@?$list@U?$pair@$$CBVCGUID@@PAVCBaseObject@@@std@@V?$allocator@U?$pair@$$CBVCGUID@@PAVCBaseObject@@@std@@@2@@std@@IAEXI@Z
  00007	64 a1 00 00 00
	00		 mov	 eax, DWORD PTR fs:0
  0000d	50		 push	 eax
  0000e	83 ec 44	 sub	 esp, 68			; 00000044H
  00011	56		 push	 esi
  00012	a1 00 00 00 00	 mov	 eax, DWORD PTR ___security_cookie
  00017	33 c4		 xor	 eax, esp
  00019	50		 push	 eax
  0001a	8d 44 24 4c	 lea	 eax, DWORD PTR __$EHRec$[esp+88]
  0001e	64 a3 00 00 00
	00		 mov	 DWORD PTR fs:0, eax

; 1211 : 		if (max_size() - _Mysize < _Count)

  00024	8b 41 08	 mov	 eax, DWORD PTR [ecx+8]
  00027	8b 54 24 5c	 mov	 edx, DWORD PTR __Count$[esp+84]
  0002b	be cc cc cc 0c	 mov	 esi, 214748364		; 0cccccccH
  00030	2b f0		 sub	 esi, eax
  00032	3b f2		 cmp	 esi, edx
  00034	73 52		 jae	 SHORT $LN1@Incsize

; 1212 : 			_THROW(length_error, "list<T> too long");

  00036	6a 10		 push	 16			; 00000010H
  00038	68 00 00 00 00	 push	 OFFSET ??_C@_0BB@MOGOBHAF@list?$DMT?$DO?5too?5long?$AA@
  0003d	8d 4c 24 10	 lea	 ecx, DWORD PTR $T302998[esp+96]
  00041	c7 44 24 28 0f
	00 00 00	 mov	 DWORD PTR $T302998[esp+120], 15 ; 0000000fH
  00049	c7 44 24 24 00
	00 00 00	 mov	 DWORD PTR $T302998[esp+116], 0
  00051	c6 44 24 14 00	 mov	 BYTE PTR $T302998[esp+100], 0
  00056	e8 00 00 00 00	 call	 ?assign@?$basic_string@DU?$char_traits@D@std@@V?$allocator@D@2@@std@@QAEAAV12@PBDI@Z ; std::basic_string<char,std::char_traits<char>,std::allocator<char> >::assign
  0005b	8d 44 24 08	 lea	 eax, DWORD PTR $T302998[esp+88]
  0005f	50		 push	 eax
  00060	8d 4c 24 28	 lea	 ecx, DWORD PTR $T302997[esp+92]
  00064	c7 44 24 58 00
	00 00 00	 mov	 DWORD PTR __$EHRec$[esp+100], 0
  0006c	e8 00 00 00 00	 call	 ??0logic_error@std@@QAE@ABV?$basic_string@DU?$char_traits@D@std@@V?$allocator@D@2@@1@@Z ; std::logic_error::logic_error
  00071	68 00 00 00 00	 push	 OFFSET __TI3?AVlength_error@std@@
  00076	8d 4c 24 28	 lea	 ecx, DWORD PTR $T302997[esp+92]
  0007a	51		 push	 ecx
  0007b	c7 44 24 2c 00
	00 00 00	 mov	 DWORD PTR $T302997[esp+96], OFFSET ??_7length_error@std@@6B@
  00083	e8 00 00 00 00	 call	 __CxxThrowException@8
$LN52@Incsize:
$LN1@Incsize:

; 1213 : 		_Mysize += _Count;

  00088	03 c2		 add	 eax, edx
  0008a	89 41 08	 mov	 DWORD PTR [ecx+8], eax

; 1214 : 		}

  0008d	8b 4c 24 4c	 mov	 ecx, DWORD PTR __$EHRec$[esp+88]
  00091	64 89 0d 00 00
	00 00		 mov	 DWORD PTR fs:0, ecx
  00098	59		 pop	 ecx
  00099	5e		 pop	 esi
  0009a	83 c4 50	 add	 esp, 80			; 00000050H
  0009d	c2 04 00	 ret	 4
$LN51@Incsize:
_TEXT	ENDS
;	COMDAT text$x
text$x	SEGMENT
__unwindfunclet$?_Incsize@?$list@U?$pair@$$CBVCGUID@@PAVCBaseObject@@@std@@V?$allocator@U?$pair@$$CBVCGUID@@PAVCBaseObject@@@std@@@2@@std@@IAEXI@Z$0:
  00000	8d 4d b0	 lea	 ecx, DWORD PTR $T302998[ebp]
  00003	e9 00 00 00 00	 jmp	 ??1?$basic_string@DU?$char_traits@D@std@@V?$allocator@D@2@@std@@QAE@XZ ; std::basic_string<char,std::char_traits<char>,std::allocator<char> >::~basic_string<char,std::char_traits<char>,std::allocator<char> >
__ehhandler$?_Incsize@?$list@U?$pair@$$CBVCGUID@@PAVCBaseObject@@@std@@V?$allocator@U?$pair@$$CBVCGUID@@PAVCBaseObject@@@std@@@2@@std@@IAEXI@Z:
  00008	8b 54 24 08	 mov	 edx, DWORD PTR [esp+8]
  0000c	8d 42 b8	 lea	 eax, DWORD PTR [edx-72]
  0000f	8b 4a b4	 mov	 ecx, DWORD PTR [edx-76]
  00012	33 c8		 xor	 ecx, eax
  00014	e8 00 00 00 00	 call	 @__security_check_cookie@4
  00019	b8 00 00 00 00	 mov	 eax, OFFSET __ehfuncinfo$?_Incsize@?$list@U?$pair@$$CBVCGUID@@PAVCBaseObject@@@std@@V?$allocator@U?$pair@$$CBVCGUID@@PAVCBaseObject@@@std@@@2@@std@@IAEXI@Z
  0001e	e9 00 00 00 00	 jmp	 ___CxxFrameHandler3
text$x	ENDS
?_Incsize@?$list@U?$pair@$$CBVCGUID@@PAVCBaseObject@@@std@@V?$allocator@U?$pair@$$CBVCGUID@@PAVCBaseObject@@@std@@@2@@std@@IAEXI@Z ENDP ; std::list<std::pair<CGUID const ,CBaseObject *>,std::allocator<std::pair<CGUID const ,CBaseObject *> > >::_Incsize
;	COMDAT xdata$x
xdata$x	SEGMENT
__unwindtable$??0logic_error@std@@QAE@ABV01@@Z DD 0ffffffffH
	DD	FLAT:__unwindfunclet$??0logic_error@std@@QAE@ABV01@@Z$0
__ehfuncinfo$??0logic_error@std@@QAE@ABV01@@Z DD 019930522H
	DD	01H
	DD	FLAT:__unwindtable$??0logic_error@std@@QAE@ABV01@@Z
	DD	2 DUP(00H)
	DD	2 DUP(00H)
	DD	00H
	DD	01H
; Function compile flags: /Ogtpy
xdata$x	ENDS
;	COMDAT ??0logic_error@std@@QAE@ABV01@@Z
_TEXT	SEGMENT
_this$ = -16						; size = 4
__$EHRec$ = -12						; size = 12
___that$ = 8						; size = 4
??0logic_error@std@@QAE@ABV01@@Z PROC			; std::logic_error::logic_error, COMDAT
; _this$ = ecx
  00000	6a ff		 push	 -1
  00002	68 00 00 00 00	 push	 __ehhandler$??0logic_error@std@@QAE@ABV01@@Z
  00007	64 a1 00 00 00
	00		 mov	 eax, DWORD PTR fs:0
  0000d	50		 push	 eax
  0000e	51		 push	 ecx
  0000f	56		 push	 esi
  00010	57		 push	 edi
  00011	a1 00 00 00 00	 mov	 eax, DWORD PTR ___security_cookie
  00016	33 c4		 xor	 eax, esp
  00018	50		 push	 eax
  00019	8d 44 24 10	 lea	 eax, DWORD PTR __$EHRec$[esp+28]
  0001d	64 a3 00 00 00
	00		 mov	 DWORD PTR fs:0, eax
  00023	8b f1		 mov	 esi, ecx
  00025	89 74 24 0c	 mov	 DWORD PTR _this$[esp+28], esi
  00029	8b 7c 24 20	 mov	 edi, DWORD PTR ___that$[esp+24]
  0002d	57		 push	 edi
  0002e	e8 00 00 00 00	 call	 ??0exception@std@@QAE@ABV01@@Z ; std::exception::exception
  00033	33 d2		 xor	 edx, edx
  00035	6a ff		 push	 -1
  00037	8d 4e 0c	 lea	 ecx, DWORD PTR [esi+12]
  0003a	c7 06 00 00 00
	00		 mov	 DWORD PTR [esi], OFFSET ??_7logic_error@std@@6B@
  00040	8d 47 0c	 lea	 eax, DWORD PTR [edi+12]
  00043	52		 push	 edx
  00044	c7 41 18 0f 00
	00 00		 mov	 DWORD PTR [ecx+24], 15	; 0000000fH
  0004b	89 51 14	 mov	 DWORD PTR [ecx+20], edx
  0004e	50		 push	 eax
  0004f	89 54 24 24	 mov	 DWORD PTR __$EHRec$[esp+48], edx
  00053	88 51 04	 mov	 BYTE PTR [ecx+4], dl
  00056	e8 00 00 00 00	 call	 ?assign@?$basic_string@DU?$char_traits@D@std@@V?$allocator@D@2@@std@@QAEAAV12@ABV12@II@Z ; std::basic_string<char,std::char_traits<char>,std::allocator<char> >::assign
  0005b	8b c6		 mov	 eax, esi
  0005d	8b 4c 24 10	 mov	 ecx, DWORD PTR __$EHRec$[esp+28]
  00061	64 89 0d 00 00
	00 00		 mov	 DWORD PTR fs:0, ecx
  00068	59		 pop	 ecx
  00069	5f		 pop	 edi
  0006a	5e		 pop	 esi
  0006b	83 c4 10	 add	 esp, 16			; 00000010H
  0006e	c2 04 00	 ret	 4
_TEXT	ENDS
;	COMDAT text$x
text$x	SEGMENT
__unwindfunclet$??0logic_error@std@@QAE@ABV01@@Z$0:
  00000	8b 4d f0	 mov	 ecx, DWORD PTR _this$[ebp]
  00003	e9 00 00 00 00	 jmp	 ??1exception@std@@UAE@XZ ; std::exception::~exception
__ehhandler$??0logic_error@std@@QAE@ABV01@@Z:
  00008	8b 54 24 08	 mov	 edx, DWORD PTR [esp+8]
  0000c	8d 42 f4	 lea	 eax, DWORD PTR [edx-12]
  0000f	8b 4a f0	 mov	 ecx, DWORD PTR [edx-16]
  00012	33 c8		 xor	 ecx, eax
  00014	e8 00 00 00 00	 call	 @__security_check_cookie@4
  00019	b8 00 00 00 00	 mov	 eax, OFFSET __ehfuncinfo$??0logic_error@std@@QAE@ABV01@@Z
  0001e	e9 00 00 00 00	 jmp	 ___CxxFrameHandler3
text$x	ENDS
??0logic_error@std@@QAE@ABV01@@Z ENDP			; std::logic_error::logic_error
; Function compile flags: /Ogtpy
;	COMDAT ??0length_error@std@@QAE@ABV01@@Z
_TEXT	SEGMENT
___that$ = 8						; size = 4
??0length_error@std@@QAE@ABV01@@Z PROC			; std::length_error::length_error, COMDAT
; _this$ = ecx
  00000	8b 44 24 04	 mov	 eax, DWORD PTR ___that$[esp-4]
  00004	56		 push	 esi
  00005	50		 push	 eax
  00006	8b f1		 mov	 esi, ecx
  00008	e8 00 00 00 00	 call	 ??0logic_error@std@@QAE@ABV01@@Z
  0000d	c7 06 00 00 00
	00		 mov	 DWORD PTR [esi], OFFSET ??_7length_error@std@@6B@
  00013	8b c6		 mov	 eax, esi
  00015	5e		 pop	 esi
  00016	c2 04 00	 ret	 4
??0length_error@std@@QAE@ABV01@@Z ENDP			; std::length_error::length_error
_TEXT	ENDS
PUBLIC	??_C@_0BD@OLBABOEK@vector?$DMT?$DO?5too?5long?$AA@ ; `string'
PUBLIC	?_Xlen@?$vector@U_List_position@?$_Hash@V?$_Hmap_traits@VCGUID@@PAVCBaseObject@@Vhash_guid_compare@@V?$allocator@U?$pair@$$CBVCGUID@@PAVCBaseObject@@@std@@@std@@$0A@@stdext@@@stdext@@V?$allocator@U_List_position@?$_Hash@V?$_Hmap_traits@VCGUID@@PAVCBaseObject@@Vhash_guid_compare@@V?$allocator@U?$pair@$$CBVCGUID@@PAVCBaseObject@@@std@@@std@@$0A@@stdext@@@stdext@@@std@@@std@@KAXXZ ; std::vector<stdext::_Hash<stdext::_Hmap_traits<CGUID,CBaseObject *,hash_guid_compare,std::allocator<std::pair<CGUID const ,CBaseObject *> >,0> >::_List_position,std::allocator<stdext::_Hash<stdext::_Hmap_traits<CGUID,CBaseObject *,hash_guid_compare,std::allocator<std::pair<CGUID const ,CBaseObject *> >,0> >::_List_position> >::_Xlen
;	COMDAT ??_C@_0BD@OLBABOEK@vector?$DMT?$DO?5too?5long?$AA@
; File d:\program files\microsoft visual studio 8\vc\include\stdexcept
CONST	SEGMENT
??_C@_0BD@OLBABOEK@vector?$DMT?$DO?5too?5long?$AA@ DB 'vector<T> too long'
	DB	00H						; `string'
CONST	ENDS
;	COMDAT xdata$x
xdata$x	SEGMENT
__unwindtable$?_Xlen@?$vector@U_List_position@?$_Hash@V?$_Hmap_traits@VCGUID@@PAVCBaseObject@@Vhash_guid_compare@@V?$allocator@U?$pair@$$CBVCGUID@@PAVCBaseObject@@@std@@@std@@$0A@@stdext@@@stdext@@V?$allocator@U_List_position@?$_Hash@V?$_Hmap_traits@VCGUID@@PAVCBaseObject@@Vhash_guid_compare@@V?$allocator@U?$pair@$$CBVCGUID@@PAVCBaseObject@@@std@@@std@@$0A@@stdext@@@stdext@@@std@@@std@@KAXXZ DD 0ffffffffH
	DD	FLAT:__unwindfunclet$?_Xlen@?$vector@U_List_position@?$_Hash@V?$_Hmap_traits@VCGUID@@PAVCBaseObject@@Vhash_guid_compare@@V?$allocator@U?$pair@$$CBVCGUID@@PAVCBaseObject@@@std@@@std@@$0A@@stdext@@@stdext@@V?$allocator@U_List_position@?$_Hash@V?$_Hmap_traits@VCGUID@@PAVCBaseObject@@Vhash_guid_compare@@V?$allocator@U?$pair@$$CBVCGUID@@PAVCBaseObject@@@std@@@std@@$0A@@stdext@@@stdext@@@std@@@std@@KAXXZ$0
__ehfuncinfo$?_Xlen@?$vector@U_List_position@?$_Hash@V?$_Hmap_traits@VCGUID@@PAVCBaseObject@@Vhash_guid_compare@@V?$allocator@U?$pair@$$CBVCGUID@@PAVCBaseObject@@@std@@@std@@$0A@@stdext@@@stdext@@V?$allocator@U_List_position@?$_Hash@V?$_Hmap_traits@VCGUID@@PAVCBaseObject@@Vhash_guid_compare@@V?$allocator@U?$pair@$$CBVCGUID@@PAVCBaseObject@@@std@@@std@@$0A@@stdext@@@stdext@@@std@@@std@@KAXXZ DD 019930522H
	DD	01H
	DD	FLAT:__unwindtable$?_Xlen@?$vector@U_List_position@?$_Hash@V?$_Hmap_traits@VCGUID@@PAVCBaseObject@@Vhash_guid_compare@@V?$allocator@U?$pair@$$CBVCGUID@@PAVCBaseObject@@@std@@@std@@$0A@@stdext@@@stdext@@V?$allocator@U_List_position@?$_Hash@V?$_Hmap_traits@VCGUID@@PAVCBaseObject@@Vhash_guid_compare@@V?$allocator@U?$pair@$$CBVCGUID@@PAVCBaseObject@@@std@@@std@@$0A@@stdext@@@stdext@@@std@@@std@@KAXXZ
	DD	2 DUP(00H)
	DD	2 DUP(00H)
	DD	00H
	DD	01H
; Function compile flags: /Ogtpy
; File d:\program files\microsoft visual studio 8\vc\include\vector
xdata$x	ENDS
;	COMDAT ?_Xlen@?$vector@U_List_position@?$_Hash@V?$_Hmap_traits@VCGUID@@PAVCBaseObject@@Vhash_guid_compare@@V?$allocator@U?$pair@$$CBVCGUID@@PAVCBaseObject@@@std@@@std@@$0A@@stdext@@@stdext@@V?$allocator@U_List_position@?$_Hash@V?$_Hmap_traits@VCGUID@@PAVCBaseObject@@Vhash_guid_compare@@V?$allocator@U?$pair@$$CBVCGUID@@PAVCBaseObject@@@std@@@std@@$0A@@stdext@@@stdext@@@std@@@std@@KAXXZ
_TEXT	SEGMENT
$T303302 = -80						; size = 28
$T303301 = -52						; size = 40
__$EHRec$ = -12						; size = 12
?_Xlen@?$vector@U_List_position@?$_Hash@V?$_Hmap_traits@VCGUID@@PAVCBaseObject@@Vhash_guid_compare@@V?$allocator@U?$pair@$$CBVCGUID@@PAVCBaseObject@@@std@@@std@@$0A@@stdext@@@stdext@@V?$allocator@U_List_position@?$_Hash@V?$_Hmap_traits@VCGUID@@PAVCBaseObject@@Vhash_guid_compare@@V?$allocator@U?$pair@$$CBVCGUID@@PAVCBaseObject@@@std@@@std@@$0A@@stdext@@@stdext@@@std@@@std@@KAXXZ PROC ; std::vector<stdext::_Hash<stdext::_Hmap_traits<CGUID,CBaseObject *,hash_guid_compare,std::allocator<std::pair<CGUID const ,CBaseObject *> >,0> >::_List_position,std::allocator<stdext::_Hash<stdext::_Hmap_traits<CGUID,CBaseObject *,hash_guid_compare,std::allocator<std::pair<CGUID const ,CBaseObject *> >,0> >::_List_position> >::_Xlen, COMDAT

; 1213 : 		{	// report a length_error

  00000	6a ff		 push	 -1
  00002	68 00 00 00 00	 push	 __ehhandler$?_Xlen@?$vector@U_List_position@?$_Hash@V?$_Hmap_traits@VCGUID@@PAVCBaseObject@@Vhash_guid_compare@@V?$allocator@U?$pair@$$CBVCGUID@@PAVCBaseObject@@@std@@@std@@$0A@@stdext@@@stdext@@V?$allocator@U_List_position@?$_Hash@V?$_Hmap_traits@VCGUID@@PAVCBaseObject@@Vhash_guid_compare@@V?$allocator@U?$pair@$$CBVCGUID@@PAVCBaseObject@@@std@@@std@@$0A@@stdext@@@stdext@@@std@@@std@@KAXXZ
  00007	64 a1 00 00 00
	00		 mov	 eax, DWORD PTR fs:0
  0000d	50		 push	 eax
  0000e	83 ec 44	 sub	 esp, 68			; 00000044H
  00011	a1 00 00 00 00	 mov	 eax, DWORD PTR ___security_cookie
  00016	33 c4		 xor	 eax, esp
  00018	50		 push	 eax
  00019	8d 44 24 48	 lea	 eax, DWORD PTR __$EHRec$[esp+84]
  0001d	64 a3 00 00 00
	00		 mov	 DWORD PTR fs:0, eax

; 1214 : 		_THROW(length_error, "vector<T> too long");

  00023	6a 12		 push	 18			; 00000012H
  00025	68 00 00 00 00	 push	 OFFSET ??_C@_0BD@OLBABOEK@vector?$DMT?$DO?5too?5long?$AA@
  0002a	8d 4c 24 0c	 lea	 ecx, DWORD PTR $T303302[esp+92]
  0002e	c7 44 24 24 0f
	00 00 00	 mov	 DWORD PTR $T303302[esp+116], 15 ; 0000000fH
  00036	c7 44 24 20 00
	00 00 00	 mov	 DWORD PTR $T303302[esp+112], 0
  0003e	c6 44 24 10 00	 mov	 BYTE PTR $T303302[esp+96], 0
  00043	e8 00 00 00 00	 call	 ?assign@?$basic_string@DU?$char_traits@D@std@@V?$allocator@D@2@@std@@QAEAAV12@PBDI@Z ; std::basic_string<char,std::char_traits<char>,std::allocator<char> >::assign
  00048	8d 44 24 04	 lea	 eax, DWORD PTR $T303302[esp+84]
  0004c	50		 push	 eax
  0004d	8d 4c 24 24	 lea	 ecx, DWORD PTR $T303301[esp+88]
  00051	c7 44 24 54 00
	00 00 00	 mov	 DWORD PTR __$EHRec$[esp+96], 0
  00059	e8 00 00 00 00	 call	 ??0logic_error@std@@QAE@ABV?$basic_string@DU?$char_traits@D@std@@V?$allocator@D@2@@1@@Z ; std::logic_error::logic_error
  0005e	68 00 00 00 00	 push	 OFFSET __TI3?AVlength_error@std@@
  00063	8d 4c 24 24	 lea	 ecx, DWORD PTR $T303301[esp+88]
  00067	51		 push	 ecx
  00068	c7 44 24 28 00
	00 00 00	 mov	 DWORD PTR $T303301[esp+92], OFFSET ??_7length_error@std@@6B@
  00070	e8 00 00 00 00	 call	 __CxxThrowException@8
$LN45@Xlen:
$LN44@Xlen:
  00075	cc		 int	 3
_TEXT	ENDS
;	COMDAT text$x
text$x	SEGMENT
__unwindfunclet$?_Xlen@?$vector@U_List_position@?$_Hash@V?$_Hmap_traits@VCGUID@@PAVCBaseObject@@Vhash_guid_compare@@V?$allocator@U?$pair@$$CBVCGUID@@PAVCBaseObject@@@std@@@std@@$0A@@stdext@@@stdext@@V?$allocator@U_List_position@?$_Hash@V?$_Hmap_traits@VCGUID@@PAVCBaseObject@@Vhash_guid_compare@@V?$allocator@U?$pair@$$CBVCGUID@@PAVCBaseObject@@@std@@@std@@$0A@@stdext@@@stdext@@@std@@@std@@KAXXZ$0:
  00000	8d 4d b0	 lea	 ecx, DWORD PTR $T303302[ebp]
  00003	e9 00 00 00 00	 jmp	 ??1?$basic_string@DU?$char_traits@D@std@@V?$allocator@D@2@@std@@QAE@XZ ; std::basic_string<char,std::char_traits<char>,std::allocator<char> >::~basic_string<char,std::char_traits<char>,std::allocator<char> >
__ehhandler$?_Xlen@?$vector@U_List_position@?$_Hash@V?$_Hmap_traits@VCGUID@@PAVCBaseObject@@Vhash_guid_compare@@V?$allocator@U?$pair@$$CBVCGUID@@PAVCBaseObject@@@std@@@std@@$0A@@stdext@@@stdext@@V?$allocator@U_List_position@?$_Hash@V?$_Hmap_traits@VCGUID@@PAVCBaseObject@@Vhash_guid_compare@@V?$allocator@U?$pair@$$CBVCGUID@@PAVCBaseObject@@@std@@@std@@$0A@@stdext@@@stdext@@@std@@@std@@KAXXZ:
  00008	8b 54 24 08	 mov	 edx, DWORD PTR [esp+8]
  0000c	8d 42 bc	 lea	 eax, DWORD PTR [edx-68]
  0000f	8b 4a b8	 mov	 ecx, DWORD PTR [edx-72]
  00012	33 c8		 xor	 ecx, eax
  00014	e8 00 00 00 00	 call	 @__security_check_cookie@4
  00019	b8 00 00 00 00	 mov	 eax, OFFSET __ehfuncinfo$?_Xlen@?$vector@U_List_position@?$_Hash@V?$_Hmap_traits@VCGUID@@PAVCBaseObject@@Vhash_guid_compare@@V?$allocator@U?$pair@$$CBVCGUID@@PAVCBaseObject@@@std@@@std@@$0A@@stdext@@@stdext@@V?$allocator@U_List_position@?$_Hash@V?$_Hmap_traits@VCGUID@@PAVCBaseObject@@Vhash_guid_compare@@V?$allocator@U?$pair@$$CBVCGUID@@PAVCBaseObject@@@std@@@std@@$0A@@stdext@@@stdext@@@std@@@std@@KAXXZ
  0001e	e9 00 00 00 00	 jmp	 ___CxxFrameHandler3
text$x	ENDS
?_Xlen@?$vector@U_List_position@?$_Hash@V?$_Hmap_traits@VCGUID@@PAVCBaseObject@@Vhash_guid_compare@@V?$allocator@U?$pair@$$CBVCGUID@@PAVCBaseObject@@@std@@@std@@$0A@@stdext@@@stdext@@V?$allocator@U_List_position@?$_Hash@V?$_Hmap_traits@VCGUID@@PAVCBaseObject@@Vhash_guid_compare@@V?$allocator@U?$pair@$$CBVCGUID@@PAVCBaseObject@@@std@@@std@@$0A@@stdext@@@stdext@@@std@@@std@@KAXXZ ENDP ; std::vector<stdext::_Hash<stdext::_Hmap_traits<CGUID,CBaseObject *,hash_guid_compare,std::allocator<std::pair<CGUID const ,CBaseObject *> >,0> >::_List_position,std::allocator<stdext::_Hash<stdext::_Hmap_traits<CGUID,CBaseObject *,hash_guid_compare,std::allocator<std::pair<CGUID const ,CBaseObject *> >,0> >::_List_position> >::_Xlen
PUBLIC	??__Fc_MemManage@?1???$GetMemManage@VLockOfWinWhileSleep@XM_Tools@@@XM_Tools@@YAAAV?$CMemManage@VLockOfWinWhileSleep@XM_Tools@@@0@XZ@YAXXZ ; `XM_Tools::GetMemManage<XM_Tools::LockOfWinWhileSleep>'::`2'::`dynamic atexit destructor for 'c_MemManage''
PUBLIC	?c_MemManage@?1???$GetMemManage@VLockOfWinWhileSleep@XM_Tools@@@XM_Tools@@YAAAV?$CMemManage@VLockOfWinWhileSleep@XM_Tools@@@1@XZ@4V21@A ; `XM_Tools::GetMemManage<XM_Tools::LockOfWinWhileSleep>'::`2'::c_MemManage
PUBLIC	??_B?1???$GetMemManage@VLockOfWinWhileSleep@XM_Tools@@@XM_Tools@@YAAAV?$CMemManage@VLockOfWinWhileSleep@XM_Tools@@@0@XZ@51 ; `XM_Tools::GetMemManage<XM_Tools::LockOfWinWhileSleep>'::`2'::`local static guard'
PUBLIC	??$GetMemManage@VLockOfWinWhileSleep@XM_Tools@@@XM_Tools@@YAAAV?$CMemManage@VLockOfWinWhileSleep@XM_Tools@@@0@XZ ; XM_Tools::GetMemManage<XM_Tools::LockOfWinWhileSleep>
EXTRN	_atexit:PROC
;	COMDAT ?c_MemManage@?1???$GetMemManage@VLockOfWinWhileSleep@XM_Tools@@@XM_Tools@@YAAAV?$CMemManage@VLockOfWinWhileSleep@XM_Tools@@@1@XZ@4V21@A
; File d:\project_p6\trunk\public\memmanage\cpp\memmanage.tcc
_BSS	SEGMENT
?c_MemManage@?1???$GetMemManage@VLockOfWinWhileSleep@XM_Tools@@@XM_Tools@@YAAAV?$CMemManage@VLockOfWinWhileSleep@XM_Tools@@@1@XZ@4V21@A DB 01d88H DUP (?) ; `XM_Tools::GetMemManage<XM_Tools::LockOfWinWhileSleep>'::`2'::c_MemManage
_BSS	ENDS
;	COMDAT ??_B?1???$GetMemManage@VLockOfWinWhileSleep@XM_Tools@@@XM_Tools@@YAAAV?$CMemManage@VLockOfWinWhileSleep@XM_Tools@@@0@XZ@51
_BSS	SEGMENT
??_B?1???$GetMemManage@VLockOfWinWhileSleep@XM_Tools@@@XM_Tools@@YAAAV?$CMemManage@VLockOfWinWhileSleep@XM_Tools@@@0@XZ@51 DD 01H DUP (?) ; `XM_Tools::GetMemManage<XM_Tools::LockOfWinWhileSleep>'::`2'::`local static guard'
_BSS	ENDS
;	COMDAT xdata$x
xdata$x	SEGMENT
__unwindtable$??$GetMemManage@VLockOfWinWhileSleep@XM_Tools@@@XM_Tools@@YAAAV?$CMemManage@VLockOfWinWhileSleep@XM_Tools@@@0@XZ DD 0ffffffffH
	DD	FLAT:__unwindfunclet$??$GetMemManage@VLockOfWinWhileSleep@XM_Tools@@@XM_Tools@@YAAAV?$CMemManage@VLockOfWinWhileSleep@XM_Tools@@@0@XZ$0
__ehfuncinfo$??$GetMemManage@VLockOfWinWhileSleep@XM_Tools@@@XM_Tools@@YAAAV?$CMemManage@VLockOfWinWhileSleep@XM_Tools@@@0@XZ DD 019930522H
	DD	01H
	DD	FLAT:__unwindtable$??$GetMemManage@VLockOfWinWhileSleep@XM_Tools@@@XM_Tools@@YAAAV?$CMemManage@VLockOfWinWhileSleep@XM_Tools@@@0@XZ
	DD	2 DUP(00H)
	DD	2 DUP(00H)
	DD	00H
	DD	01H
; Function compile flags: /Ogtpy
xdata$x	ENDS
;	COMDAT ??$GetMemManage@VLockOfWinWhileSleep@XM_Tools@@@XM_Tools@@YAAAV?$CMemManage@VLockOfWinWhileSleep@XM_Tools@@@0@XZ
_TEXT	SEGMENT
__$EHRec$ = -12						; size = 12
??$GetMemManage@VLockOfWinWhileSleep@XM_Tools@@@XM_Tools@@YAAAV?$CMemManage@VLockOfWinWhileSleep@XM_Tools@@@0@XZ PROC ; XM_Tools::GetMemManage<XM_Tools::LockOfWinWhileSleep>, COMDAT

; 314  :     {

  00000	6a ff		 push	 -1
  00002	68 00 00 00 00	 push	 __ehhandler$??$GetMemManage@VLockOfWinWhileSleep@XM_Tools@@@XM_Tools@@YAAAV?$CMemManage@VLockOfWinWhileSleep@XM_Tools@@@0@XZ
  00007	64 a1 00 00 00
	00		 mov	 eax, DWORD PTR fs:0
  0000d	50		 push	 eax
  0000e	a1 00 00 00 00	 mov	 eax, DWORD PTR ___security_cookie
  00013	33 c4		 xor	 eax, esp
  00015	50		 push	 eax
  00016	8d 44 24 04	 lea	 eax, DWORD PTR __$EHRec$[esp+16]
  0001a	64 a3 00 00 00
	00		 mov	 DWORD PTR fs:0, eax

; 315  :         static CMemManage<_TLock> c_MemManage;

  00020	b8 01 00 00 00	 mov	 eax, 1
  00025	84 05 00 00 00
	00		 test	 BYTE PTR ??_B?1???$GetMemManage@VLockOfWinWhileSleep@XM_Tools@@@XM_Tools@@YAAAV?$CMemManage@VLockOfWinWhileSleep@XM_Tools@@@0@XZ@51, al
  0002b	75 25		 jne	 SHORT $LN5@GetMemMana
  0002d	09 05 00 00 00
	00		 or	 DWORD PTR ??_B?1???$GetMemManage@VLockOfWinWhileSleep@XM_Tools@@@XM_Tools@@YAAAV?$CMemManage@VLockOfWinWhileSleep@XM_Tools@@@0@XZ@51, eax
  00033	b9 00 00 00 00	 mov	 ecx, OFFSET ?c_MemManage@?1???$GetMemManage@VLockOfWinWhileSleep@XM_Tools@@@XM_Tools@@YAAAV?$CMemManage@VLockOfWinWhileSleep@XM_Tools@@@1@XZ@4V21@A ; `XM_Tools::GetMemManage<XM_Tools::LockOfWinWhileSleep>'::`2'::c_MemManage
  00038	c7 44 24 0c 00
	00 00 00	 mov	 DWORD PTR __$EHRec$[esp+24], 0
  00040	e8 00 00 00 00	 call	 ??0?$CMemManage@VLockOfWinWhileSleep@XM_Tools@@@XM_Tools@@QAE@XZ ; XM_Tools::CMemManage<XM_Tools::LockOfWinWhileSleep>::CMemManage<XM_Tools::LockOfWinWhileSleep>
  00045	68 00 00 00 00	 push	 OFFSET ??__Fc_MemManage@?1???$GetMemManage@VLockOfWinWhileSleep@XM_Tools@@@XM_Tools@@YAAAV?$CMemManage@VLockOfWinWhileSleep@XM_Tools@@@0@XZ@YAXXZ ; `XM_Tools::GetMemManage<XM_Tools::LockOfWinWhileSleep>'::`2'::`dynamic atexit destructor for 'c_MemManage''
  0004a	e8 00 00 00 00	 call	 _atexit
  0004f	83 c4 04	 add	 esp, 4
$LN5@GetMemMana:

; 316  :         return c_MemManage;

  00052	b8 00 00 00 00	 mov	 eax, OFFSET ?c_MemManage@?1???$GetMemManage@VLockOfWinWhileSleep@XM_Tools@@@XM_Tools@@YAAAV?$CMemManage@VLockOfWinWhileSleep@XM_Tools@@@1@XZ@4V21@A ; `XM_Tools::GetMemManage<XM_Tools::LockOfWinWhileSleep>'::`2'::c_MemManage

; 317  :     }

  00057	8b 4c 24 04	 mov	 ecx, DWORD PTR __$EHRec$[esp+16]
  0005b	64 89 0d 00 00
	00 00		 mov	 DWORD PTR fs:0, ecx
  00062	59		 pop	 ecx
  00063	83 c4 0c	 add	 esp, 12			; 0000000cH
  00066	c3		 ret	 0
_TEXT	ENDS
;	COMDAT text$x
text$x	SEGMENT
__unwindfunclet$??$GetMemManage@VLockOfWinWhileSleep@XM_Tools@@@XM_Tools@@YAAAV?$CMemManage@VLockOfWinWhileSleep@XM_Tools@@@0@XZ$0:
  00000	a1 00 00 00 00	 mov	 eax, DWORD PTR ??_B?1???$GetMemManage@VLockOfWinWhileSleep@XM_Tools@@@XM_Tools@@YAAAV?$CMemManage@VLockOfWinWhileSleep@XM_Tools@@@0@XZ@51
  00005	83 e0 fe	 and	 eax, -2			; fffffffeH
  00008	a3 00 00 00 00	 mov	 DWORD PTR ??_B?1???$GetMemManage@VLockOfWinWhileSleep@XM_Tools@@@XM_Tools@@YAAAV?$CMemManage@VLockOfWinWhileSleep@XM_Tools@@@0@XZ@51, eax
  0000d	c3		 ret	 0
__ehhandler$??$GetMemManage@VLockOfWinWhileSleep@XM_Tools@@@XM_Tools@@YAAAV?$CMemManage@VLockOfWinWhileSleep@XM_Tools@@@0@XZ:
  0000e	8b 54 24 08	 mov	 edx, DWORD PTR [esp+8]
  00012	8d 02		 lea	 eax, DWORD PTR [edx]
  00014	8b 4a fc	 mov	 ecx, DWORD PTR [edx-4]
  00017	33 c8		 xor	 ecx, eax
  00019	e8 00 00 00 00	 call	 @__security_check_cookie@4
  0001e	b8 00 00 00 00	 mov	 eax, OFFSET __ehfuncinfo$??$GetMemManage@VLockOfWinWhileSleep@XM_Tools@@@XM_Tools@@YAAAV?$CMemManage@VLockOfWinWhileSleep@XM_Tools@@@0@XZ
  00023	e9 00 00 00 00	 jmp	 ___CxxFrameHandler3
text$x	ENDS
??$GetMemManage@VLockOfWinWhileSleep@XM_Tools@@@XM_Tools@@YAAAV?$CMemManage@VLockOfWinWhileSleep@XM_Tools@@@0@XZ ENDP ; XM_Tools::GetMemManage<XM_Tools::LockOfWinWhileSleep>
PUBLIC	?_Insert@?$list@U?$pair@$$CBVCGUID@@PAVCBaseObject@@@std@@V?$allocator@U?$pair@$$CBVCGUID@@PAVCBaseObject@@@std@@@2@@std@@QAEXV?$_Iterator@$00@12@ABU?$pair@$$CBVCGUID@@PAVCBaseObject@@@2@@Z ; std::list<std::pair<CGUID const ,CBaseObject *>,std::allocator<std::pair<CGUID const ,CBaseObject *> > >::_Insert
; Function compile flags: /Ogtpy
; File d:\program files\microsoft visual studio 8\vc\include\list
;	COMDAT ?_Insert@?$list@U?$pair@$$CBVCGUID@@PAVCBaseObject@@@std@@V?$allocator@U?$pair@$$CBVCGUID@@PAVCBaseObject@@@std@@@2@@std@@QAEXV?$_Iterator@$00@12@ABU?$pair@$$CBVCGUID@@PAVCBaseObject@@@2@@Z
_TEXT	SEGMENT
__Where$ = 8						; size = 8
__Val$ = 16						; size = 4
?_Insert@?$list@U?$pair@$$CBVCGUID@@PAVCBaseObject@@@std@@V?$allocator@U?$pair@$$CBVCGUID@@PAVCBaseObject@@@std@@@2@@std@@QAEXV?$_Iterator@$00@12@ABU?$pair@$$CBVCGUID@@PAVCBaseObject@@@2@@Z PROC ; std::list<std::pair<CGUID const ,CBaseObject *>,std::allocator<std::pair<CGUID const ,CBaseObject *> > >::_Insert, COMDAT
; _this$ = ecx

; 695  : 
; 696  :  #if _HAS_ITERATOR_DEBUGGING
; 697  : 		if (_Where._Mycont != this)
; 698  : 			_DEBUG_ERROR("list insert iterator outside range");
; 699  :  #endif /* _HAS_ITERATOR_DEBUGGING */
; 700  : 
; 701  : 		_Nodeptr _Pnode = _Where._Mynode();
; 702  : 		_Nodeptr _Newnode = _Buynode(_Pnode, _Prevnode(_Pnode), _Val);

  00000	8b 44 24 0c	 mov	 eax, DWORD PTR __Val$[esp-4]
  00004	53		 push	 ebx
  00005	8b 5c 24 0c	 mov	 ebx, DWORD PTR __Where$[esp+4]
  00009	56		 push	 esi
  0000a	57		 push	 edi
  0000b	8b f9		 mov	 edi, ecx
  0000d	8b 4b 04	 mov	 ecx, DWORD PTR [ebx+4]
  00010	50		 push	 eax
  00011	51		 push	 ecx
  00012	53		 push	 ebx
  00013	8b cf		 mov	 ecx, edi
  00015	e8 00 00 00 00	 call	 ?_Buynode@?$list@U?$pair@$$CBVCGUID@@PAVCBaseObject@@@std@@V?$allocator@U?$pair@$$CBVCGUID@@PAVCBaseObject@@@std@@@2@@std@@IAEPAU_Node@?$_List_nod@U?$pair@$$CBVCGUID@@PAVCBaseObject@@@std@@V?$allocator@U?$pair@$$CBVCGUID@@PAVCBaseObject@@@std@@@2@@2@PAU342@0ABU?$pair@$$CBVCGUID@@PAVCBaseObject@@@2@@Z ; std::list<std::pair<CGUID const ,CBaseObject *>,std::allocator<std::pair<CGUID const ,CBaseObject *> > >::_Buynode

; 703  : 		_Incsize(1);

  0001a	6a 01		 push	 1
  0001c	8b cf		 mov	 ecx, edi
  0001e	8b f0		 mov	 esi, eax
  00020	e8 00 00 00 00	 call	 ?_Incsize@?$list@U?$pair@$$CBVCGUID@@PAVCBaseObject@@@std@@V?$allocator@U?$pair@$$CBVCGUID@@PAVCBaseObject@@@std@@@2@@std@@IAEXI@Z ; std::list<std::pair<CGUID const ,CBaseObject *>,std::allocator<std::pair<CGUID const ,CBaseObject *> > >::_Incsize

; 704  : 		_Prevnode(_Pnode) = _Newnode;

  00025	89 73 04	 mov	 DWORD PTR [ebx+4], esi

; 705  : 		_Nextnode(_Prevnode(_Newnode)) = _Newnode;

  00028	8b 56 04	 mov	 edx, DWORD PTR [esi+4]
  0002b	5f		 pop	 edi
  0002c	89 32		 mov	 DWORD PTR [edx], esi
  0002e	5e		 pop	 esi
  0002f	5b		 pop	 ebx

; 706  : 		}

  00030	c2 0c 00	 ret	 12			; 0000000cH
?_Insert@?$list@U?$pair@$$CBVCGUID@@PAVCBaseObject@@@std@@V?$allocator@U?$pair@$$CBVCGUID@@PAVCBaseObject@@@std@@@2@@std@@QAEXV?$_Iterator@$00@12@ABU?$pair@$$CBVCGUID@@PAVCBaseObject@@@2@@Z ENDP ; std::list<std::pair<CGUID const ,CBaseObject *>,std::allocator<std::pair<CGUID const ,CBaseObject *> > >::_Insert
_TEXT	ENDS
PUBLIC	?_Insert_n@?$vector@U_List_position@?$_Hash@V?$_Hmap_traits@VCGUID@@PAVCBaseObject@@Vhash_guid_compare@@V?$allocator@U?$pair@$$CBVCGUID@@PAVCBaseObject@@@std@@@std@@$0A@@stdext@@@stdext@@V?$allocator@U_List_position@?$_Hash@V?$_Hmap_traits@VCGUID@@PAVCBaseObject@@Vhash_guid_compare@@V?$allocator@U?$pair@$$CBVCGUID@@PAVCBaseObject@@@std@@@std@@$0A@@stdext@@@stdext@@@std@@@std@@IAEXV?$_Vector_iterator@U_List_position@?$_Hash@V?$_Hmap_traits@VCGUID@@PAVCBaseObject@@Vhash_guid_compare@@V?$allocator@U?$pair@$$CBVCGUID@@PAVCBaseObject@@@std@@@std@@$0A@@stdext@@@stdext@@V?$allocator@U_List_position@?$_Hash@V?$_Hmap_traits@VCGUID@@PAVCBaseObject@@Vhash_guid_compare@@V?$allocator@U?$pair@$$CBVCGUID@@PAVCBaseObject@@@std@@@std@@$0A@@stdext@@@stdext@@@std@@@2@IABU_List_position@?$_Hash@V?$_Hmap_traits@VCGUID@@PAVCBaseObject@@Vhash_guid_compare@@V?$allocator@U?$pair@$$CBVCGUID@@PAVCBaseObject@@@std@@@std@@$0A@@stdext@@@stdext@@@Z ; std::vector<stdext::_Hash<stdext::_Hmap_traits<CGUID,CBaseObject *,hash_guid_compare,std::allocator<std::pair<CGUID const ,CBaseObject *> >,0> >::_List_position,std::allocator<stdext::_Hash<stdext::_Hmap_traits<CGUID,CBaseObject *,hash_guid_compare,std::allocator<std::pair<CGUID const ,CBaseObject *> >,0> >::_List_position> >::_Insert_n
;	COMDAT xdata$x
; File d:\program files\microsoft visual studio 8\vc\include\xmemory
xdata$x	SEGMENT
__catchsym$?_Insert_n@?$vector@U_List_position@?$_Hash@V?$_Hmap_traits@VCGUID@@PAVCBaseObject@@Vhash_guid_compare@@V?$allocator@U?$pair@$$CBVCGUID@@PAVCBaseObject@@@std@@@std@@$0A@@stdext@@@stdext@@V?$allocator@U_List_position@?$_Hash@V?$_Hmap_traits@VCGUID@@PAVCBaseObject@@Vhash_guid_compare@@V?$allocator@U?$pair@$$CBVCGUID@@PAVCBaseObject@@@std@@@std@@$0A@@stdext@@@stdext@@@std@@@std@@IAEXV?$_Vector_iterator@U_List_position@?$_Hash@V?$_Hmap_traits@VCGUID@@PAVCBaseObject@@Vhash_guid_compare@@V?$allocator@U?$pair@$$CBVCGUID@@PAVCBaseObject@@@std@@@std@@$0A@@stdext@@@stdext@@V?$allocator@U_List_position@?$_Hash@V?$_Hmap_traits@VCGUID@@PAVCBaseObject@@Vhash_guid_compare@@V?$allocator@U?$pair@$$CBVCGUID@@PAVCBaseObject@@@std@@@std@@$0A@@stdext@@@stdext@@@std@@@2@IABU_List_position@?$_Hash@V?$_Hmap_traits@VCGUID@@PAVCBaseObject@@Vhash_guid_compare@@V?$allocator@U?$pair@$$CBVCGUID@@PAVCBaseObject@@@std@@@std@@$0A@@stdext@@@stdext@@@Z$5 DD 040H
	DD	00H
	DD	00H
	DD	FLAT:__catch$?_Insert_n@?$vector@U_List_position@?$_Hash@V?$_Hmap_traits@VCGUID@@PAVCBaseObject@@Vhash_guid_compare@@V?$allocator@U?$pair@$$CBVCGUID@@PAVCBaseObject@@@std@@@std@@$0A@@stdext@@@stdext@@V?$allocator@U_List_position@?$_Hash@V?$_Hmap_traits@VCGUID@@PAVCBaseObject@@Vhash_guid_compare@@V?$allocator@U?$pair@$$CBVCGUID@@PAVCBaseObject@@@std@@@std@@$0A@@stdext@@@stdext@@@std@@@std@@IAEXV?$_Vector_iterator@U_List_position@?$_Hash@V?$_Hmap_traits@VCGUID@@PAVCBaseObject@@Vhash_guid_compare@@V?$allocator@U?$pair@$$CBVCGUID@@PAVCBaseObject@@@std@@@std@@$0A@@stdext@@@stdext@@V?$allocator@U_List_position@?$_Hash@V?$_Hmap_traits@VCGUID@@PAVCBaseObject@@Vhash_guid_compare@@V?$allocator@U?$pair@$$CBVCGUID@@PAVCBaseObject@@@std@@@std@@$0A@@stdext@@@stdext@@@std@@@2@IABU_List_position@?$_Hash@V?$_Hmap_traits@VCGUID@@PAVCBaseObject@@Vhash_guid_compare@@V?$allocator@U?$pair@$$CBVCGUID@@PAVCBaseObject@@@std@@@std@@$0A@@stdext@@@stdext@@@Z$2
__catchsym$?_Insert_n@?$vector@U_List_position@?$_Hash@V?$_Hmap_traits@VCGUID@@PAVCBaseObject@@Vhash_guid_compare@@V?$allocator@U?$pair@$$CBVCGUID@@PAVCBaseObject@@@std@@@std@@$0A@@stdext@@@stdext@@V?$allocator@U_List_position@?$_Hash@V?$_Hmap_traits@VCGUID@@PAVCBaseObject@@Vhash_guid_compare@@V?$allocator@U?$pair@$$CBVCGUID@@PAVCBaseObject@@@std@@@std@@$0A@@stdext@@@stdext@@@std@@@std@@IAEXV?$_Vector_iterator@U_List_position@?$_Hash@V?$_Hmap_traits@VCGUID@@PAVCBaseObject@@Vhash_guid_compare@@V?$allocator@U?$pair@$$CBVCGUID@@PAVCBaseObject@@@std@@@std@@$0A@@stdext@@@stdext@@V?$allocator@U_List_position@?$_Hash@V?$_Hmap_traits@VCGUID@@PAVCBaseObject@@Vhash_guid_compare@@V?$allocator@U?$pair@$$CBVCGUID@@PAVCBaseObject@@@std@@@std@@$0A@@stdext@@@stdext@@@std@@@2@IABU_List_position@?$_Hash@V?$_Hmap_traits@VCGUID@@PAVCBaseObject@@Vhash_guid_compare@@V?$allocator@U?$pair@$$CBVCGUID@@PAVCBaseObject@@@std@@@std@@$0A@@stdext@@@stdext@@@Z$4 DD 040H
	DD	00H
	DD	00H
	DD	FLAT:__catch$?_Insert_n@?$vector@U_List_position@?$_Hash@V?$_Hmap_traits@VCGUID@@PAVCBaseObject@@Vhash_guid_compare@@V?$allocator@U?$pair@$$CBVCGUID@@PAVCBaseObject@@@std@@@std@@$0A@@stdext@@@stdext@@V?$allocator@U_List_position@?$_Hash@V?$_Hmap_traits@VCGUID@@PAVCBaseObject@@Vhash_guid_compare@@V?$allocator@U?$pair@$$CBVCGUID@@PAVCBaseObject@@@std@@@std@@$0A@@stdext@@@stdext@@@std@@@std@@IAEXV?$_Vector_iterator@U_List_position@?$_Hash@V?$_Hmap_traits@VCGUID@@PAVCBaseObject@@Vhash_guid_compare@@V?$allocator@U?$pair@$$CBVCGUID@@PAVCBaseObject@@@std@@@std@@$0A@@stdext@@@stdext@@V?$allocator@U_List_position@?$_Hash@V?$_Hmap_traits@VCGUID@@PAVCBaseObject@@Vhash_guid_compare@@V?$allocator@U?$pair@$$CBVCGUID@@PAVCBaseObject@@@std@@@std@@$0A@@stdext@@@stdext@@@std@@@2@IABU_List_position@?$_Hash@V?$_Hmap_traits@VCGUID@@PAVCBaseObject@@Vhash_guid_compare@@V?$allocator@U?$pair@$$CBVCGUID@@PAVCBaseObject@@@std@@@std@@$0A@@stdext@@@stdext@@@Z$0
__unwindtable$?_Insert_n@?$vector@U_List_position@?$_Hash@V?$_Hmap_traits@VCGUID@@PAVCBaseObject@@Vhash_guid_compare@@V?$allocator@U?$pair@$$CBVCGUID@@PAVCBaseObject@@@std@@@std@@$0A@@stdext@@@stdext@@V?$allocator@U_List_position@?$_Hash@V?$_Hmap_traits@VCGUID@@PAVCBaseObject@@Vhash_guid_compare@@V?$allocator@U?$pair@$$CBVCGUID@@PAVCBaseObject@@@std@@@std@@$0A@@stdext@@@stdext@@@std@@@std@@IAEXV?$_Vector_iterator@U_List_position@?$_Hash@V?$_Hmap_traits@VCGUID@@PAVCBaseObject@@Vhash_guid_compare@@V?$allocator@U?$pair@$$CBVCGUID@@PAVCBaseObject@@@std@@@std@@$0A@@stdext@@@stdext@@V?$allocator@U_List_position@?$_Hash@V?$_Hmap_traits@VCGUID@@PAVCBaseObject@@Vhash_guid_compare@@V?$allocator@U?$pair@$$CBVCGUID@@PAVCBaseObject@@@std@@@std@@$0A@@stdext@@@stdext@@@std@@@2@IABU_List_position@?$_Hash@V?$_Hmap_traits@VCGUID@@PAVCBaseObject@@Vhash_guid_compare@@V?$allocator@U?$pair@$$CBVCGUID@@PAVCBaseObject@@@std@@@std@@$0A@@stdext@@@stdext@@@Z DD 0ffffffffH
	DD	00H
	DD	0ffffffffH
	DD	00H
	DD	0ffffffffH
	DD	00H
	DD	0ffffffffH
	DD	00H
__ehfuncinfo$?_Insert_n@?$vector@U_List_position@?$_Hash@V?$_Hmap_traits@VCGUID@@PAVCBaseObject@@Vhash_guid_compare@@V?$allocator@U?$pair@$$CBVCGUID@@PAVCBaseObject@@@std@@@std@@$0A@@stdext@@@stdext@@V?$allocator@U_List_position@?$_Hash@V?$_Hmap_traits@VCGUID@@PAVCBaseObject@@Vhash_guid_compare@@V?$allocator@U?$pair@$$CBVCGUID@@PAVCBaseObject@@@std@@@std@@$0A@@stdext@@@stdext@@@std@@@std@@IAEXV?$_Vector_iterator@U_List_position@?$_Hash@V?$_Hmap_traits@VCGUID@@PAVCBaseObject@@Vhash_guid_compare@@V?$allocator@U?$pair@$$CBVCGUID@@PAVCBaseObject@@@std@@@std@@$0A@@stdext@@@stdext@@V?$allocator@U_List_position@?$_Hash@V?$_Hmap_traits@VCGUID@@PAVCBaseObject@@Vhash_guid_compare@@V?$allocator@U?$pair@$$CBVCGUID@@PAVCBaseObject@@@std@@@std@@$0A@@stdext@@@stdext@@@std@@@2@IABU_List_position@?$_Hash@V?$_Hmap_traits@VCGUID@@PAVCBaseObject@@Vhash_guid_compare@@V?$allocator@U?$pair@$$CBVCGUID@@PAVCBaseObject@@@std@@@std@@$0A@@stdext@@@stdext@@@Z DD 019930522H
	DD	04H
	DD	FLAT:__unwindtable$?_Insert_n@?$vector@U_List_position@?$_Hash@V?$_Hmap_traits@VCGUID@@PAVCBaseObject@@Vhash_guid_compare@@V?$allocator@U?$pair@$$CBVCGUID@@PAVCBaseObject@@@std@@@std@@$0A@@stdext@@@stdext@@V?$allocator@U_List_position@?$_Hash@V?$_Hmap_traits@VCGUID@@PAVCBaseObject@@Vhash_guid_compare@@V?$allocator@U?$pair@$$CBVCGUID@@PAVCBaseObject@@@std@@@std@@$0A@@stdext@@@stdext@@@std@@@std@@IAEXV?$_Vector_iterator@U_List_position@?$_Hash@V?$_Hmap_traits@VCGUID@@PAVCBaseObject@@Vhash_guid_compare@@V?$allocator@U?$pair@$$CBVCGUID@@PAVCBaseObject@@@std@@@std@@$0A@@stdext@@@stdext@@V?$allocator@U_List_position@?$_Hash@V?$_Hmap_traits@VCGUID@@PAVCBaseObject@@Vhash_guid_compare@@V?$allocator@U?$pair@$$CBVCGUID@@PAVCBaseObject@@@std@@@std@@$0A@@stdext@@@stdext@@@std@@@2@IABU_List_position@?$_Hash@V?$_Hmap_traits@VCGUID@@PAVCBaseObject@@Vhash_guid_compare@@V?$allocator@U?$pair@$$CBVCGUID@@PAVCBaseObject@@@std@@@std@@$0A@@stdext@@@stdext@@@Z
	DD	02H
	DD	FLAT:__tryblocktable$?_Insert_n@?$vector@U_List_position@?$_Hash@V?$_Hmap_traits@VCGUID@@PAVCBaseObject@@Vhash_guid_compare@@V?$allocator@U?$pair@$$CBVCGUID@@PAVCBaseObject@@@std@@@std@@$0A@@stdext@@@stdext@@V?$allocator@U_List_position@?$_Hash@V?$_Hmap_traits@VCGUID@@PAVCBaseObject@@Vhash_guid_compare@@V?$allocator@U?$pair@$$CBVCGUID@@PAVCBaseObject@@@std@@@std@@$0A@@stdext@@@stdext@@@std@@@std@@IAEXV?$_Vector_iterator@U_List_position@?$_Hash@V?$_Hmap_traits@VCGUID@@PAVCBaseObject@@Vhash_guid_compare@@V?$allocator@U?$pair@$$CBVCGUID@@PAVCBaseObject@@@std@@@std@@$0A@@stdext@@@stdext@@V?$allocator@U_List_position@?$_Hash@V?$_Hmap_traits@VCGUID@@PAVCBaseObject@@Vhash_guid_compare@@V?$allocator@U?$pair@$$CBVCGUID@@PAVCBaseObject@@@std@@@std@@$0A@@stdext@@@stdext@@@std@@@2@IABU_List_position@?$_Hash@V?$_Hmap_traits@VCGUID@@PAVCBaseObject@@Vhash_guid_compare@@V?$allocator@U?$pair@$$CBVCGUID@@PAVCBaseObject@@@std@@@std@@$0A@@stdext@@@stdext@@@Z
	DD	2 DUP(00H)
	DD	00H
	DD	01H
__tryblocktable$?_Insert_n@?$vector@U_List_position@?$_Hash@V?$_Hmap_traits@VCGUID@@PAVCBaseObject@@Vhash_guid_compare@@V?$allocator@U?$pair@$$CBVCGUID@@PAVCBaseObject@@@std@@@std@@$0A@@stdext@@@stdext@@V?$allocator@U_List_position@?$_Hash@V?$_Hmap_traits@VCGUID@@PAVCBaseObject@@Vhash_guid_compare@@V?$allocator@U?$pair@$$CBVCGUID@@PAVCBaseObject@@@std@@@std@@$0A@@stdext@@@stdext@@@std@@@std@@IAEXV?$_Vector_iterator@U_List_position@?$_Hash@V?$_Hmap_traits@VCGUID@@PAVCBaseObject@@Vhash_guid_compare@@V?$allocator@U?$pair@$$CBVCGUID@@PAVCBaseObject@@@std@@@std@@$0A@@stdext@@@stdext@@V?$allocator@U_List_position@?$_Hash@V?$_Hmap_traits@VCGUID@@PAVCBaseObject@@Vhash_guid_compare@@V?$allocator@U?$pair@$$CBVCGUID@@PAVCBaseObject@@@std@@@std@@$0A@@stdext@@@stdext@@@std@@@2@IABU_List_position@?$_Hash@V?$_Hmap_traits@VCGUID@@PAVCBaseObject@@Vhash_guid_compare@@V?$allocator@U?$pair@$$CBVCGUID@@PAVCBaseObject@@@std@@@std@@$0A@@stdext@@@stdext@@@Z DD 00H
	DD	00H
	DD	01H
	DD	01H
	DD	FLAT:__catchsym$?_Insert_n@?$vector@U_List_position@?$_Hash@V?$_Hmap_traits@VCGUID@@PAVCBaseObject@@Vhash_guid_compare@@V?$allocator@U?$pair@$$CBVCGUID@@PAVCBaseObject@@@std@@@std@@$0A@@stdext@@@stdext@@V?$allocator@U_List_position@?$_Hash@V?$_Hmap_traits@VCGUID@@PAVCBaseObject@@Vhash_guid_compare@@V?$allocator@U?$pair@$$CBVCGUID@@PAVCBaseObject@@@std@@@std@@$0A@@stdext@@@stdext@@@std@@@std@@IAEXV?$_Vector_iterator@U_List_position@?$_Hash@V?$_Hmap_traits@VCGUID@@PAVCBaseObject@@Vhash_guid_compare@@V?$allocator@U?$pair@$$CBVCGUID@@PAVCBaseObject@@@std@@@std@@$0A@@stdext@@@stdext@@V?$allocator@U_List_position@?$_Hash@V?$_Hmap_traits@VCGUID@@PAVCBaseObject@@Vhash_guid_compare@@V?$allocator@U?$pair@$$CBVCGUID@@PAVCBaseObject@@@std@@@std@@$0A@@stdext@@@stdext@@@std@@@2@IABU_List_position@?$_Hash@V?$_Hmap_traits@VCGUID@@PAVCBaseObject@@Vhash_guid_compare@@V?$allocator@U?$pair@$$CBVCGUID@@PAVCBaseObject@@@std@@@std@@$0A@@stdext@@@stdext@@@Z$4
	DD	02H
	DD	02H
	DD	03H
	DD	01H
	DD	FLAT:__catchsym$?_Insert_n@?$vector@U_List_position@?$_Hash@V?$_Hmap_traits@VCGUID@@PAVCBaseObject@@Vhash_guid_compare@@V?$allocator@U?$pair@$$CBVCGUID@@PAVCBaseObject@@@std@@@std@@$0A@@stdext@@@stdext@@V?$allocator@U_List_position@?$_Hash@V?$_Hmap_traits@VCGUID@@PAVCBaseObject@@Vhash_guid_compare@@V?$allocator@U?$pair@$$CBVCGUID@@PAVCBaseObject@@@std@@@std@@$0A@@stdext@@@stdext@@@std@@@std@@IAEXV?$_Vector_iterator@U_List_position@?$_Hash@V?$_Hmap_traits@VCGUID@@PAVCBaseObject@@Vhash_guid_compare@@V?$allocator@U?$pair@$$CBVCGUID@@PAVCBaseObject@@@std@@@std@@$0A@@stdext@@@stdext@@V?$allocator@U_List_position@?$_Hash@V?$_Hmap_traits@VCGUID@@PAVCBaseObject@@Vhash_guid_compare@@V?$allocator@U?$pair@$$CBVCGUID@@PAVCBaseObject@@@std@@@std@@$0A@@stdext@@@stdext@@@std@@@2@IABU_List_position@?$_Hash@V?$_Hmap_traits@VCGUID@@PAVCBaseObject@@Vhash_guid_compare@@V?$allocator@U?$pair@$$CBVCGUID@@PAVCBaseObject@@@std@@@std@@$0A@@stdext@@@stdext@@@Z$5
; Function compile flags: /Ogtpy
; File d:\program files\microsoft visual studio 8\vc\include\vector
xdata$x	ENDS
;	COMDAT ?_Insert_n@?$vector@U_List_position@?$_Hash@V?$_Hmap_traits@VCGUID@@PAVCBaseObject@@Vhash_guid_compare@@V?$allocator@U?$pair@$$CBVCGUID@@PAVCBaseObject@@@std@@@std@@$0A@@stdext@@@stdext@@V?$allocator@U_List_position@?$_Hash@V?$_Hmap_traits@VCGUID@@PAVCBaseObject@@Vhash_guid_compare@@V?$allocator@U?$pair@$$CBVCGUID@@PAVCBaseObject@@@std@@@std@@$0A@@stdext@@@stdext@@@std@@@std@@IAEXV?$_Vector_iterator@U_List_position@?$_Hash@V?$_Hmap_traits@VCGUID@@PAVCBaseObject@@Vhash_guid_compare@@V?$allocator@U?$pair@$$CBVCGUID@@PAVCBaseObject@@@std@@@std@@$0A@@stdext@@@stdext@@V?$allocator@U_List_position@?$_Hash@V?$_Hmap_traits@VCGUID@@PAVCBaseObject@@Vhash_guid_compare@@V?$allocator@U?$pair@$$CBVCGUID@@PAVCBaseObject@@@std@@@std@@$0A@@stdext@@@stdext@@@std@@@2@IABU_List_position@?$_Hash@V?$_Hmap_traits@VCGUID@@PAVCBaseObject@@Vhash_guid_compare@@V?$allocator@U?$pair@$$CBVCGUID@@PAVCBaseObject@@@std@@@std@@$0A@@stdext@@@stdext@@@Z
_TEXT	SEGMENT
__Tmp$ = -28						; size = 8
__Newvec$280761 = -20					; size = 4
__$EHRec$ = -16						; size = 16
__Where$ = 8						; size = 8
tv490 = 16						; size = 4
__Cat$303908 = 16					; size = 1
__Cat$303732 = 16					; size = 1
__Count$ = 16						; size = 4
tv481 = 20						; size = 4
$T303904 = 20						; size = 1
$T303728 = 20						; size = 1
__Val$ = 20						; size = 4
?_Insert_n@?$vector@U_List_position@?$_Hash@V?$_Hmap_traits@VCGUID@@PAVCBaseObject@@Vhash_guid_compare@@V?$allocator@U?$pair@$$CBVCGUID@@PAVCBaseObject@@@std@@@std@@$0A@@stdext@@@stdext@@V?$allocator@U_List_position@?$_Hash@V?$_Hmap_traits@VCGUID@@PAVCBaseObject@@Vhash_guid_compare@@V?$allocator@U?$pair@$$CBVCGUID@@PAVCBaseObject@@@std@@@std@@$0A@@stdext@@@stdext@@@std@@@std@@IAEXV?$_Vector_iterator@U_List_position@?$_Hash@V?$_Hmap_traits@VCGUID@@PAVCBaseObject@@Vhash_guid_compare@@V?$allocator@U?$pair@$$CBVCGUID@@PAVCBaseObject@@@std@@@std@@$0A@@stdext@@@stdext@@V?$allocator@U_List_position@?$_Hash@V?$_Hmap_traits@VCGUID@@PAVCBaseObject@@Vhash_guid_compare@@V?$allocator@U?$pair@$$CBVCGUID@@PAVCBaseObject@@@std@@@std@@$0A@@stdext@@@stdext@@@std@@@2@IABU_List_position@?$_Hash@V?$_Hmap_traits@VCGUID@@PAVCBaseObject@@Vhash_guid_compare@@V?$allocator@U?$pair@$$CBVCGUID@@PAVCBaseObject@@@std@@@std@@$0A@@stdext@@@stdext@@@Z PROC ; std::vector<stdext::_Hash<stdext::_Hmap_traits<CGUID,CBaseObject *,hash_guid_compare,std::allocator<std::pair<CGUID const ,CBaseObject *> >,0> >::_List_position,std::allocator<stdext::_Hash<stdext::_Hmap_traits<CGUID,CBaseObject *,hash_guid_compare,std::allocator<std::pair<CGUID const ,CBaseObject *> >,0> >::_List_position> >::_Insert_n, COMDAT
; _this$ = ecx

; 1117 : 		{	// insert _Count * _Val at _Where

  00000	55		 push	 ebp
  00001	8b ec		 mov	 ebp, esp
  00003	6a ff		 push	 -1
  00005	68 00 00 00 00	 push	 __ehhandler$?_Insert_n@?$vector@U_List_position@?$_Hash@V?$_Hmap_traits@VCGUID@@PAVCBaseObject@@Vhash_guid_compare@@V?$allocator@U?$pair@$$CBVCGUID@@PAVCBaseObject@@@std@@@std@@$0A@@stdext@@@stdext@@V?$allocator@U_List_position@?$_Hash@V?$_Hmap_traits@VCGUID@@PAVCBaseObject@@Vhash_guid_compare@@V?$allocator@U?$pair@$$CBVCGUID@@PAVCBaseObject@@@std@@@std@@$0A@@stdext@@@stdext@@@std@@@std@@IAEXV?$_Vector_iterator@U_List_position@?$_Hash@V?$_Hmap_traits@VCGUID@@PAVCBaseObject@@Vhash_guid_compare@@V?$allocator@U?$pair@$$CBVCGUID@@PAVCBaseObject@@@std@@@std@@$0A@@stdext@@@stdext@@V?$allocator@U_List_position@?$_Hash@V?$_Hmap_traits@VCGUID@@PAVCBaseObject@@Vhash_guid_compare@@V?$allocator@U?$pair@$$CBVCGUID@@PAVCBaseObject@@@std@@@std@@$0A@@stdext@@@stdext@@@std@@@2@IABU_List_position@?$_Hash@V?$_Hmap_traits@VCGUID@@PAVCBaseObject@@Vhash_guid_compare@@V?$allocator@U?$pair@$$CBVCGUID@@PAVCBaseObject@@@std@@@std@@$0A@@stdext@@@stdext@@@Z
  0000a	64 a1 00 00 00
	00		 mov	 eax, DWORD PTR fs:0
  00010	50		 push	 eax
  00011	83 ec 10	 sub	 esp, 16			; 00000010H
  00014	53		 push	 ebx
  00015	56		 push	 esi
  00016	57		 push	 edi
  00017	a1 00 00 00 00	 mov	 eax, DWORD PTR ___security_cookie
  0001c	33 c5		 xor	 eax, ebp
  0001e	50		 push	 eax
  0001f	8d 45 f4	 lea	 eax, DWORD PTR __$EHRec$[ebp+4]
  00022	64 a3 00 00 00
	00		 mov	 DWORD PTR fs:0, eax
  00028	89 65 f0	 mov	 DWORD PTR __$EHRec$[ebp], esp
  0002b	8b f1		 mov	 esi, ecx

; 1118 : 
; 1119 :  #if _HAS_ITERATOR_DEBUGGING
; 1120 : 		if (_Where._Mycont != this
; 1121 : 			|| _Where._Myptr < _Myfirst || _Mylast < _Where._Myptr)
; 1122 : 			_DEBUG_ERROR("vector insert iterator outside range");
; 1123 :  #endif /* _HAS_ITERATOR_DEBUGGING */
; 1124 : 
; 1125 : 		_Ty _Tmp = _Val;	// in case _Val is in sequence

  0002d	8b 45 14	 mov	 eax, DWORD PTR __Val$[ebp]
  00030	8b 08		 mov	 ecx, DWORD PTR [eax]
  00032	8b 50 04	 mov	 edx, DWORD PTR [eax+4]

; 1126 : 		size_type _Capacity = capacity();

  00035	8b 46 04	 mov	 eax, DWORD PTR [esi+4]
  00038	85 c0		 test	 eax, eax
  0003a	89 4d e4	 mov	 DWORD PTR __Tmp$[ebp], ecx
  0003d	89 55 e8	 mov	 DWORD PTR __Tmp$[ebp+4], edx
  00040	75 04		 jne	 SHORT $LN27@Insert_n
  00042	33 ff		 xor	 edi, edi
  00044	eb 08		 jmp	 SHORT $LN28@Insert_n
$LN27@Insert_n:
  00046	8b 7e 0c	 mov	 edi, DWORD PTR [esi+12]
  00049	2b f8		 sub	 edi, eax
  0004b	c1 ff 03	 sar	 edi, 3
$LN28@Insert_n:

; 1127 : 
; 1128 : 		if (_Count == 0)

  0004e	8b 55 10	 mov	 edx, DWORD PTR __Count$[ebp]
  00051	85 d2		 test	 edx, edx
  00053	0f 84 e9 01 00
	00		 je	 $LN1@Insert_n

; 1129 : 			;
; 1130 : 		else if (max_size() - size() < _Count)

  00059	85 c0		 test	 eax, eax
  0005b	75 04		 jne	 SHORT $LN37@Insert_n
  0005d	33 c9		 xor	 ecx, ecx
  0005f	eb 08		 jmp	 SHORT $LN38@Insert_n
$LN37@Insert_n:
  00061	8b 4e 08	 mov	 ecx, DWORD PTR [esi+8]
  00064	2b c8		 sub	 ecx, eax
  00066	c1 f9 03	 sar	 ecx, 3
$LN38@Insert_n:
  00069	bb ff ff ff 1f	 mov	 ebx, 536870911		; 1fffffffH
  0006e	2b d9		 sub	 ebx, ecx
  00070	3b da		 cmp	 ebx, edx
  00072	73 05		 jae	 SHORT $LN10@Insert_n

; 1131 : 			_Xlen();	// result too long

  00074	e8 00 00 00 00	 call	 ?_Xlen@?$vector@U_List_position@?$_Hash@V?$_Hmap_traits@VCGUID@@PAVCBaseObject@@Vhash_guid_compare@@V?$allocator@U?$pair@$$CBVCGUID@@PAVCBaseObject@@@std@@@std@@$0A@@stdext@@@stdext@@V?$allocator@U_List_position@?$_Hash@V?$_Hmap_traits@VCGUID@@PAVCBaseObject@@Vhash_guid_compare@@V?$allocator@U?$pair@$$CBVCGUID@@PAVCBaseObject@@@std@@@std@@$0A@@stdext@@@stdext@@@std@@@std@@KAXXZ ; std::vector<stdext::_Hash<stdext::_Hmap_traits<CGUID,CBaseObject *,hash_guid_compare,std::allocator<std::pair<CGUID const ,CBaseObject *> >,0> >::_List_position,std::allocator<stdext::_Hash<stdext::_Hmap_traits<CGUID,CBaseObject *,hash_guid_compare,std::allocator<std::pair<CGUID const ,CBaseObject *> >,0> >::_List_position> >::_Xlen
$LN127@Insert_n:
$LN10@Insert_n:

; 1132 : 		else if (_Capacity < size() + _Count)

  00079	85 c0		 test	 eax, eax
  0007b	75 04		 jne	 SHORT $LN41@Insert_n
  0007d	33 c9		 xor	 ecx, ecx
  0007f	eb 08		 jmp	 SHORT $LN42@Insert_n
$LN41@Insert_n:
  00081	8b 4e 08	 mov	 ecx, DWORD PTR [esi+8]
  00084	2b c8		 sub	 ecx, eax
  00086	c1 f9 03	 sar	 ecx, 3
$LN42@Insert_n:
  00089	03 ca		 add	 ecx, edx
  0008b	3b f9		 cmp	 edi, ecx
  0008d	0f 83 fc 00 00
	00		 jae	 $LN8@Insert_n

; 1133 : 			{	// not enough room, reallocate
; 1134 : 			_Capacity = max_size() - _Capacity / 2 < _Capacity
; 1135 : 				? 0 : _Capacity + _Capacity / 2;	// try to grow by 50%

  00093	8b cf		 mov	 ecx, edi
  00095	d1 e9		 shr	 ecx, 1
  00097	bb ff ff ff 1f	 mov	 ebx, 536870911		; 1fffffffH
  0009c	2b d9		 sub	 ebx, ecx
  0009e	3b df		 cmp	 ebx, edi
  000a0	73 04		 jae	 SHORT $LN15@Insert_n
  000a2	33 ff		 xor	 edi, edi
  000a4	eb 02		 jmp	 SHORT $LN16@Insert_n
$LN15@Insert_n:
  000a6	03 f9		 add	 edi, ecx
$LN16@Insert_n:

; 1136 : 			if (_Capacity < size() + _Count)

  000a8	85 c0		 test	 eax, eax
  000aa	75 04		 jne	 SHORT $LN51@Insert_n
  000ac	33 c9		 xor	 ecx, ecx
  000ae	eb 08		 jmp	 SHORT $LN52@Insert_n
$LN51@Insert_n:
  000b0	8b 4e 08	 mov	 ecx, DWORD PTR [esi+8]
  000b3	2b c8		 sub	 ecx, eax
  000b5	c1 f9 03	 sar	 ecx, 3
$LN52@Insert_n:
  000b8	03 ca		 add	 ecx, edx
  000ba	3b f9		 cmp	 edi, ecx
  000bc	73 13		 jae	 SHORT $LN7@Insert_n

; 1137 : 				_Capacity = size() + _Count;

  000be	85 c0		 test	 eax, eax
  000c0	75 04		 jne	 SHORT $LN55@Insert_n
  000c2	33 c9		 xor	 ecx, ecx
  000c4	eb 08		 jmp	 SHORT $LN56@Insert_n
$LN55@Insert_n:
  000c6	8b 4e 08	 mov	 ecx, DWORD PTR [esi+8]
  000c9	2b c8		 sub	 ecx, eax
  000cb	c1 f9 03	 sar	 ecx, 3
$LN56@Insert_n:
  000ce	8d 3c 11	 lea	 edi, DWORD PTR [ecx+edx]
$LN7@Insert_n:

; 1138 : 			pointer _Newvec = this->_Alval.allocate(_Capacity);

  000d1	6a 00		 push	 0
  000d3	57		 push	 edi
  000d4	e8 00 00 00 00	 call	 ??$_Allocate@U_List_position@?$_Hash@V?$_Hmap_traits@VCGUID@@PAVCBaseObject@@Vhash_guid_compare@@V?$allocator@U?$pair@$$CBVCGUID@@PAVCBaseObject@@@std@@@std@@$0A@@stdext@@@stdext@@@std@@YAPAU_List_position@?$_Hash@V?$_Hmap_traits@VCGUID@@PAVCBaseObject@@Vhash_guid_compare@@V?$allocator@U?$pair@$$CBVCGUID@@PAVCBaseObject@@@std@@@std@@$0A@@stdext@@@stdext@@IPAU123@@Z ; std::_Allocate<stdext::_Hash<stdext::_Hmap_traits<CGUID,CBaseObject *,hash_guid_compare,std::allocator<std::pair<CGUID const ,CBaseObject *> >,0> >::_List_position>

; 1139 : 			pointer _Ptr = _Newvec;
; 1140 : 
; 1141 : 			_TRY_BEGIN
; 1142 : 			_Ptr = _Umove(_Myfirst, _VEC_ITER_BASE(_Where),
; 1143 : 				_Newvec);	// copy prefix

  000d9	8b 55 10	 mov	 edx, DWORD PTR __Cat$303732[ebp]
  000dc	c6 45 14 00	 mov	 BYTE PTR $T303728[ebp], 0
  000e0	8b 4d 14	 mov	 ecx, DWORD PTR $T303728[ebp]
  000e3	51		 push	 ecx
  000e4	8b 4d 0c	 mov	 ecx, DWORD PTR __Where$[ebp+4]
  000e7	52		 push	 edx
  000e8	8b d8		 mov	 ebx, eax
  000ea	8b 46 04	 mov	 eax, DWORD PTR [esi+4]
  000ed	56		 push	 esi
  000ee	53		 push	 ebx
  000ef	51		 push	 ecx
  000f0	50		 push	 eax
  000f1	89 5d ec	 mov	 DWORD PTR __Newvec$280761[ebp], ebx
  000f4	c7 45 fc 00 00
	00 00		 mov	 DWORD PTR __$EHRec$[ebp+12], 0
  000fb	e8 00 00 00 00	 call	 ??$_Uninit_copy@PAU_List_position@?$_Hash@V?$_Hmap_traits@VCGUID@@PAVCBaseObject@@Vhash_guid_compare@@V?$allocator@U?$pair@$$CBVCGUID@@PAVCBaseObject@@@std@@@std@@$0A@@stdext@@@stdext@@PAU123@V?$allocator@U_List_position@?$_Hash@V?$_Hmap_traits@VCGUID@@PAVCBaseObject@@Vhash_guid_compare@@V?$allocator@U?$pair@$$CBVCGUID@@PAVCBaseObject@@@std@@@std@@$0A@@stdext@@@stdext@@@std@@@std@@YAPAU_List_position@?$_Hash@V?$_Hmap_traits@VCGUID@@PAVCBaseObject@@Vhash_guid_compare@@V?$allocator@U?$pair@$$CBVCGUID@@PAVCBaseObject@@@std@@@std@@$0A@@stdext@@@stdext@@PAU123@00AAV?$allocator@U_List_position@?$_Hash@V?$_Hmap_traits@VCGUID@@PAVCBaseObject@@Vhash_guid_compare@@V?$allocator@U?$pair@$$CBVCGUID@@PAVCBaseObject@@@std@@@std@@$0A@@stdext@@@stdext@@@0@U_Nonscalar_ptr_iterator_tag@0@U_Range_checked_iterator_tag@0@@Z ; std::_Uninit_copy<stdext::_Hash<stdext::_Hmap_traits<CGUID,CBaseObject *,hash_guid_compare,std::allocator<std::pair<CGUID const ,CBaseObject *> >,0> >::_List_position *,stdext::_Hash<stdext::_Hmap_traits<CGUID,CBaseObject *,hash_guid_compare,std::allocator<std::pair<CGUID const ,CBaseObject *> >,0> >::_List_position *,std::allocator<stdext::_Hash<stdext::_Hmap_traits<CGUID,CBaseObject *,hash_guid_compare,std::allocator<std::pair<CGUID const ,CBaseObject *> >,0> >::_List_position> >

; 1144 : 			_Ptr = _Ufill(_Ptr, _Count, _Tmp);	// add new stuff

  00100	8b 4d 10	 mov	 ecx, DWORD PTR __Count$[ebp]
  00103	83 c4 20	 add	 esp, 32			; 00000020H
  00106	8d 55 e4	 lea	 edx, DWORD PTR __Tmp$[ebp]
  00109	52		 push	 edx
  0010a	51		 push	 ecx
  0010b	50		 push	 eax
  0010c	8b ce		 mov	 ecx, esi
  0010e	e8 00 00 00 00	 call	 ?_Ufill@?$vector@U_List_position@?$_Hash@V?$_Hmap_traits@VCGUID@@PAVCBaseObject@@Vhash_guid_compare@@V?$allocator@U?$pair@$$CBVCGUID@@PAVCBaseObject@@@std@@@std@@$0A@@stdext@@@stdext@@V?$allocator@U_List_position@?$_Hash@V?$_Hmap_traits@VCGUID@@PAVCBaseObject@@Vhash_guid_compare@@V?$allocator@U?$pair@$$CBVCGUID@@PAVCBaseObject@@@std@@@std@@$0A@@stdext@@@stdext@@@std@@@std@@IAEPAU_List_position@?$_Hash@V?$_Hmap_traits@VCGUID@@PAVCBaseObject@@Vhash_guid_compare@@V?$allocator@U?$pair@$$CBVCGUID@@PAVCBaseObject@@@std@@@std@@$0A@@stdext@@@stdext@@PAU345@IABU345@@Z ; std::vector<stdext::_Hash<stdext::_Hmap_traits<CGUID,CBaseObject *,hash_guid_compare,std::allocator<std::pair<CGUID const ,CBaseObject *> >,0> >::_List_position,std::allocator<stdext::_Hash<stdext::_Hmap_traits<CGUID,CBaseObject *,hash_guid_compare,std::allocator<std::pair<CGUID const ,CBaseObject *> >,0> >::_List_position> >::_Ufill

; 1145 : 			_Umove(_VEC_ITER_BASE(_Where), _Mylast, _Ptr);	// copy suffix

  00113	8b 4e 08	 mov	 ecx, DWORD PTR [esi+8]
  00116	c6 45 14 00	 mov	 BYTE PTR $T303904[ebp], 0
  0011a	8b 55 14	 mov	 edx, DWORD PTR $T303904[ebp]
  0011d	52		 push	 edx
  0011e	8b 55 10	 mov	 edx, DWORD PTR __Cat$303908[ebp]
  00121	52		 push	 edx
  00122	56		 push	 esi
  00123	50		 push	 eax
  00124	8b 45 0c	 mov	 eax, DWORD PTR __Where$[ebp+4]
  00127	51		 push	 ecx
  00128	50		 push	 eax
  00129	e8 00 00 00 00	 call	 ??$_Uninit_copy@PAU_List_position@?$_Hash@V?$_Hmap_traits@VCGUID@@PAVCBaseObject@@Vhash_guid_compare@@V?$allocator@U?$pair@$$CBVCGUID@@PAVCBaseObject@@@std@@@std@@$0A@@stdext@@@stdext@@PAU123@V?$allocator@U_List_position@?$_Hash@V?$_Hmap_traits@VCGUID@@PAVCBaseObject@@Vhash_guid_compare@@V?$allocator@U?$pair@$$CBVCGUID@@PAVCBaseObject@@@std@@@std@@$0A@@stdext@@@stdext@@@std@@@std@@YAPAU_List_position@?$_Hash@V?$_Hmap_traits@VCGUID@@PAVCBaseObject@@Vhash_guid_compare@@V?$allocator@U?$pair@$$CBVCGUID@@PAVCBaseObject@@@std@@@std@@$0A@@stdext@@@stdext@@PAU123@00AAV?$allocator@U_List_position@?$_Hash@V?$_Hmap_traits@VCGUID@@PAVCBaseObject@@Vhash_guid_compare@@V?$allocator@U?$pair@$$CBVCGUID@@PAVCBaseObject@@@std@@@std@@$0A@@stdext@@@stdext@@@0@U_Nonscalar_ptr_iterator_tag@0@U_Range_checked_iterator_tag@0@@Z ; std::_Uninit_copy<stdext::_Hash<stdext::_Hmap_traits<CGUID,CBaseObject *,hash_guid_compare,std::allocator<std::pair<CGUID const ,CBaseObject *> >,0> >::_List_position *,stdext::_Hash<stdext::_Hmap_traits<CGUID,CBaseObject *,hash_guid_compare,std::allocator<std::pair<CGUID const ,CBaseObject *> >,0> >::_List_position *,std::allocator<stdext::_Hash<stdext::_Hmap_traits<CGUID,CBaseObject *,hash_guid_compare,std::allocator<std::pair<CGUID const ,CBaseObject *> >,0> >::_List_position> >

; 1150 : 			_CATCH_END
; 1151 : 
; 1152 : 			_Count += size();

  0012e	8b 4e 04	 mov	 ecx, DWORD PTR [esi+4]
  00131	83 c4 18	 add	 esp, 24			; 00000018H
  00134	85 c9		 test	 ecx, ecx
  00136	75 04		 jne	 SHORT $LN119@Insert_n
  00138	33 c0		 xor	 eax, eax
  0013a	eb 08		 jmp	 SHORT $LN120@Insert_n
$LN119@Insert_n:
  0013c	8b 46 08	 mov	 eax, DWORD PTR [esi+8]
  0013f	2b c1		 sub	 eax, ecx
  00141	c1 f8 03	 sar	 eax, 3
$LN120@Insert_n:
  00144	01 45 10	 add	 DWORD PTR __Count$[ebp], eax

; 1153 : 			if (_Myfirst != 0)

  00147	85 c9		 test	 ecx, ecx
  00149	74 09		 je	 SHORT $LN121@Insert_n

; 1154 : 				{	// destroy and deallocate old array
; 1155 : 				_Destroy(_Myfirst, _Mylast);
; 1156 : 				this->_Alval.deallocate(_Myfirst, _Myend - _Myfirst);

  0014b	51		 push	 ecx
  0014c	e8 00 00 00 00	 call	 ??3@YAXPAX@Z		; operator delete
  00151	83 c4 04	 add	 esp, 4
$LN121@Insert_n:

; 1157 : 				}
; 1158 : 
; 1159 :  #if _HAS_ITERATOR_DEBUGGING
; 1160 : 			this->_Orphan_all();
; 1161 :  #endif /* _HAS_ITERATOR_DEBUGGING */
; 1162 : 
; 1163 : 			_Myend = _Newvec + _Capacity;
; 1164 : 			_Mylast = _Newvec + _Count;

  00154	8b 55 10	 mov	 edx, DWORD PTR __Count$[ebp]
  00157	8d 0c fb	 lea	 ecx, DWORD PTR [ebx+edi*8]
  0015a	8d 04 d3	 lea	 eax, DWORD PTR [ebx+edx*8]
  0015d	89 4e 0c	 mov	 DWORD PTR [esi+12], ecx
  00160	89 46 08	 mov	 DWORD PTR [esi+8], eax

; 1165 : 			_Myfirst = _Newvec;

  00163	89 5e 04	 mov	 DWORD PTR [esi+4], ebx

; 1203 : 			}
; 1204 : 		}

  00166	8b 4d f4	 mov	 ecx, DWORD PTR __$EHRec$[ebp+4]
  00169	64 89 0d 00 00
	00 00		 mov	 DWORD PTR fs:0, ecx
  00170	59		 pop	 ecx
  00171	5f		 pop	 edi
  00172	5e		 pop	 esi
  00173	5b		 pop	 ebx
  00174	8b e5		 mov	 esp, ebp
  00176	5d		 pop	 ebp
  00177	c2 10 00	 ret	 16			; 00000010H
__catch$?_Insert_n@?$vector@U_List_position@?$_Hash@V?$_Hmap_traits@VCGUID@@PAVCBaseObject@@Vhash_guid_compare@@V?$allocator@U?$pair@$$CBVCGUID@@PAVCBaseObject@@@std@@@std@@$0A@@stdext@@@stdext@@V?$allocator@U_List_position@?$_Hash@V?$_Hmap_traits@VCGUID@@PAVCBaseObject@@Vhash_guid_compare@@V?$allocator@U?$pair@$$CBVCGUID@@PAVCBaseObject@@@std@@@std@@$0A@@stdext@@@stdext@@@std@@@std@@IAEXV?$_Vector_iterator@U_List_position@?$_Hash@V?$_Hmap_traits@VCGUID@@PAVCBaseObject@@Vhash_guid_compare@@V?$allocator@U?$pair@$$CBVCGUID@@PAVCBaseObject@@@std@@@std@@$0A@@stdext@@@stdext@@V?$allocator@U_List_position@?$_Hash@V?$_Hmap_traits@VCGUID@@PAVCBaseObject@@Vhash_guid_compare@@V?$allocator@U?$pair@$$CBVCGUID@@PAVCBaseObject@@@std@@@std@@$0A@@stdext@@@stdext@@@std@@@2@IABU_List_position@?$_Hash@V?$_Hmap_traits@VCGUID@@PAVCBaseObject@@Vhash_guid_compare@@V?$allocator@U?$pair@$$CBVCGUID@@PAVCBaseObject@@@std@@@std@@$0A@@stdext@@@stdext@@@Z$0:

; 1146 : 			_CATCH_ALL
; 1147 : 			_Destroy(_Newvec, _Ptr);
; 1148 : 			this->_Alval.deallocate(_Newvec, _Capacity);

  0017a	8b 4d ec	 mov	 ecx, DWORD PTR __Newvec$280761[ebp]
  0017d	51		 push	 ecx
  0017e	e8 00 00 00 00	 call	 ??3@YAXPAX@Z		; operator delete
  00183	83 c4 04	 add	 esp, 4
__catch$?_Insert_n@?$vector@U_List_position@?$_Hash@V?$_Hmap_traits@VCGUID@@PAVCBaseObject@@Vhash_guid_compare@@V?$allocator@U?$pair@$$CBVCGUID@@PAVCBaseObject@@@std@@@std@@$0A@@stdext@@@stdext@@V?$allocator@U_List_position@?$_Hash@V?$_Hmap_traits@VCGUID@@PAVCBaseObject@@Vhash_guid_compare@@V?$allocator@U?$pair@$$CBVCGUID@@PAVCBaseObject@@@std@@@std@@$0A@@stdext@@@stdext@@@std@@@std@@IAEXV?$_Vector_iterator@U_List_position@?$_Hash@V?$_Hmap_traits@VCGUID@@PAVCBaseObject@@Vhash_guid_compare@@V?$allocator@U?$pair@$$CBVCGUID@@PAVCBaseObject@@@std@@@std@@$0A@@stdext@@@stdext@@V?$allocator@U_List_position@?$_Hash@V?$_Hmap_traits@VCGUID@@PAVCBaseObject@@Vhash_guid_compare@@V?$allocator@U?$pair@$$CBVCGUID@@PAVCBaseObject@@@std@@@std@@$0A@@stdext@@@stdext@@@std@@@2@IABU_List_position@?$_Hash@V?$_Hmap_traits@VCGUID@@PAVCBaseObject@@Vhash_guid_compare@@V?$allocator@U?$pair@$$CBVCGUID@@PAVCBaseObject@@@std@@@std@@$0A@@stdext@@@stdext@@@Z$2:

; 1149 : 			_RERAISE;

  00186	6a 00		 push	 0
  00188	6a 00		 push	 0
  0018a	e8 00 00 00 00	 call	 __CxxThrowException@8
$LN128@Insert_n:
$LN8@Insert_n:

; 1166 : 			}
; 1167 : 		else if ((size_type)(_Mylast - _VEC_ITER_BASE(_Where)) < _Count)

  0018f	8b 5e 08	 mov	 ebx, DWORD PTR [esi+8]
  00192	8b 7d 0c	 mov	 edi, DWORD PTR __Where$[ebp+4]
  00195	8b c3		 mov	 eax, ebx
  00197	2b c7		 sub	 eax, edi
  00199	c1 f8 03	 sar	 eax, 3
  0019c	3b c2		 cmp	 eax, edx
  0019e	73 66		 jae	 SHORT $LN3@Insert_n

; 1168 : 			{	// new stuff spills off end
; 1169 : 			_Umove(_VEC_ITER_BASE(_Where), _Mylast,
; 1170 : 				_VEC_ITER_BASE(_Where) + _Count);	// copy suffix

  001a0	8d 04 d5 00 00
	00 00		 lea	 eax, DWORD PTR [edx*8]
  001a7	89 45 14	 mov	 DWORD PTR tv481[ebp], eax
  001aa	03 c7		 add	 eax, edi
  001ac	50		 push	 eax
  001ad	53		 push	 ebx
  001ae	57		 push	 edi
  001af	8b ce		 mov	 ecx, esi
  001b1	e8 00 00 00 00	 call	 ??$_Umove@PAU_List_position@?$_Hash@V?$_Hmap_traits@VCGUID@@PAVCBaseObject@@Vhash_guid_compare@@V?$allocator@U?$pair@$$CBVCGUID@@PAVCBaseObject@@@std@@@std@@$0A@@stdext@@@stdext@@@?$vector@U_List_position@?$_Hash@V?$_Hmap_traits@VCGUID@@PAVCBaseObject@@Vhash_guid_compare@@V?$allocator@U?$pair@$$CBVCGUID@@PAVCBaseObject@@@std@@@std@@$0A@@stdext@@@stdext@@V?$allocator@U_List_position@?$_Hash@V?$_Hmap_traits@VCGUID@@PAVCBaseObject@@Vhash_guid_compare@@V?$allocator@U?$pair@$$CBVCGUID@@PAVCBaseObject@@@std@@@std@@$0A@@stdext@@@stdext@@@std@@@std@@IAEPAU_List_position@?$_Hash@V?$_Hmap_traits@VCGUID@@PAVCBaseObject@@Vhash_guid_compare@@V?$allocator@U?$pair@$$CBVCGUID@@PAVCBaseObject@@@std@@@std@@$0A@@stdext@@@stdext@@PAU234@00@Z ; std::vector<stdext::_Hash<stdext::_Hmap_traits<CGUID,CBaseObject *,hash_guid_compare,std::allocator<std::pair<CGUID const ,CBaseObject *> >,0> >::_List_position,std::allocator<stdext::_Hash<stdext::_Hmap_traits<CGUID,CBaseObject *,hash_guid_compare,std::allocator<std::pair<CGUID const ,CBaseObject *> >,0> >::_List_position> >::_Umove<stdext::_Hash<stdext::_Hmap_traits<CGUID,CBaseObject *,hash_guid_compare,std::allocator<std::pair<CGUID const ,CBaseObject *> >,0> >::_List_position *>

; 1171 : 
; 1172 : 			_TRY_BEGIN
; 1173 : 			_Ufill(_Mylast, _Count - (_Mylast - _VEC_ITER_BASE(_Where)),
; 1174 : 				_Tmp);	// insert new stuff off end

  001b6	8b 46 08	 mov	 eax, DWORD PTR [esi+8]
  001b9	8b d0		 mov	 edx, eax
  001bb	8d 4d e4	 lea	 ecx, DWORD PTR __Tmp$[ebp]
  001be	51		 push	 ecx
  001bf	8b 4d 10	 mov	 ecx, DWORD PTR __Count$[ebp]
  001c2	2b d7		 sub	 edx, edi
  001c4	c1 fa 03	 sar	 edx, 3
  001c7	2b ca		 sub	 ecx, edx
  001c9	51		 push	 ecx
  001ca	50		 push	 eax
  001cb	8b ce		 mov	 ecx, esi
  001cd	c7 45 fc 02 00
	00 00		 mov	 DWORD PTR __$EHRec$[ebp+12], 2
  001d4	e8 00 00 00 00	 call	 ?_Ufill@?$vector@U_List_position@?$_Hash@V?$_Hmap_traits@VCGUID@@PAVCBaseObject@@Vhash_guid_compare@@V?$allocator@U?$pair@$$CBVCGUID@@PAVCBaseObject@@@std@@@std@@$0A@@stdext@@@stdext@@V?$allocator@U_List_position@?$_Hash@V?$_Hmap_traits@VCGUID@@PAVCBaseObject@@Vhash_guid_compare@@V?$allocator@U?$pair@$$CBVCGUID@@PAVCBaseObject@@@std@@@std@@$0A@@stdext@@@stdext@@@std@@@std@@IAEPAU_List_position@?$_Hash@V?$_Hmap_traits@VCGUID@@PAVCBaseObject@@Vhash_guid_compare@@V?$allocator@U?$pair@$$CBVCGUID@@PAVCBaseObject@@@std@@@std@@$0A@@stdext@@@stdext@@PAU345@IABU345@@Z ; std::vector<stdext::_Hash<stdext::_Hmap_traits<CGUID,CBaseObject *,hash_guid_compare,std::allocator<std::pair<CGUID const ,CBaseObject *> >,0> >::_List_position,std::allocator<stdext::_Hash<stdext::_Hmap_traits<CGUID,CBaseObject *,hash_guid_compare,std::allocator<std::pair<CGUID const ,CBaseObject *> >,0> >::_List_position> >::_Ufill

; 1175 : 			_CATCH_ALL
; 1176 : 			_Destroy(_VEC_ITER_BASE(_Where) + _Count, _Mylast + _Count);
; 1177 : 			_RERAISE;
; 1178 : 			_CATCH_END
; 1179 : 
; 1180 : 			_Mylast += _Count;

  001d9	8b 45 14	 mov	 eax, DWORD PTR tv481[ebp]
  001dc	01 46 08	 add	 DWORD PTR [esi+8], eax
  001df	8b 76 08	 mov	 esi, DWORD PTR [esi+8]

; 1181 : 
; 1182 :  #if _HAS_ITERATOR_DEBUGGING
; 1183 : 			_Orphan_range(_Where._Myptr, _Mylast);
; 1184 :  #endif /* _HAS_ITERATOR_DEBUGGING */
; 1185 : 
; 1186 : 			fill(_VEC_ITER_BASE(_Where), _Mylast - _Count,
; 1187 : 				_Tmp);	// insert up to old end

  001e2	8d 4d e4	 lea	 ecx, DWORD PTR __Tmp$[ebp]
  001e5	51		 push	 ecx
  001e6	2b f0		 sub	 esi, eax
  001e8	56		 push	 esi
  001e9	57		 push	 edi
  001ea	e8 00 00 00 00	 call	 ??$fill@PAU_List_position@?$_Hash@V?$_Hmap_traits@VCGUID@@PAVCBaseObject@@Vhash_guid_compare@@V?$allocator@U?$pair@$$CBVCGUID@@PAVCBaseObject@@@std@@@std@@$0A@@stdext@@@stdext@@U123@@std@@YAXPAU_List_position@?$_Hash@V?$_Hmap_traits@VCGUID@@PAVCBaseObject@@Vhash_guid_compare@@V?$allocator@U?$pair@$$CBVCGUID@@PAVCBaseObject@@@std@@@std@@$0A@@stdext@@@stdext@@0ABU123@@Z ; std::fill<stdext::_Hash<stdext::_Hmap_traits<CGUID,CBaseObject *,hash_guid_compare,std::allocator<std::pair<CGUID const ,CBaseObject *> >,0> >::_List_position *,stdext::_Hash<stdext::_Hmap_traits<CGUID,CBaseObject *,hash_guid_compare,std::allocator<std::pair<CGUID const ,CBaseObject *> >,0> >::_List_position>
  001ef	83 c4 0c	 add	 esp, 12			; 0000000cH

; 1203 : 			}
; 1204 : 		}

  001f2	8b 4d f4	 mov	 ecx, DWORD PTR __$EHRec$[ebp+4]
  001f5	64 89 0d 00 00
	00 00		 mov	 DWORD PTR fs:0, ecx
  001fc	59		 pop	 ecx
  001fd	5f		 pop	 edi
  001fe	5e		 pop	 esi
  001ff	5b		 pop	 ebx
  00200	8b e5		 mov	 esp, ebp
  00202	5d		 pop	 ebp
  00203	c2 10 00	 ret	 16			; 00000010H
$LN3@Insert_n:

; 1188 : 			}
; 1189 : 		else
; 1190 : 			{	// new stuff can all be assigned
; 1191 : 			pointer _Oldend = _Mylast;
; 1192 : 			_Mylast = _Umove(_Oldend - _Count, _Oldend,
; 1193 : 				_Mylast);	// copy suffix

  00206	8d 0c d5 00 00
	00 00		 lea	 ecx, DWORD PTR [edx*8]
  0020d	53		 push	 ebx
  0020e	8b c3		 mov	 eax, ebx
  00210	2b c1		 sub	 eax, ecx
  00212	53		 push	 ebx
  00213	89 4d 14	 mov	 DWORD PTR tv481[ebp], ecx
  00216	50		 push	 eax
  00217	8b ce		 mov	 ecx, esi
  00219	89 45 10	 mov	 DWORD PTR tv490[ebp], eax
  0021c	e8 00 00 00 00	 call	 ??$_Umove@PAU_List_position@?$_Hash@V?$_Hmap_traits@VCGUID@@PAVCBaseObject@@Vhash_guid_compare@@V?$allocator@U?$pair@$$CBVCGUID@@PAVCBaseObject@@@std@@@std@@$0A@@stdext@@@stdext@@@?$vector@U_List_position@?$_Hash@V?$_Hmap_traits@VCGUID@@PAVCBaseObject@@Vhash_guid_compare@@V?$allocator@U?$pair@$$CBVCGUID@@PAVCBaseObject@@@std@@@std@@$0A@@stdext@@@stdext@@V?$allocator@U_List_position@?$_Hash@V?$_Hmap_traits@VCGUID@@PAVCBaseObject@@Vhash_guid_compare@@V?$allocator@U?$pair@$$CBVCGUID@@PAVCBaseObject@@@std@@@std@@$0A@@stdext@@@stdext@@@std@@@std@@IAEPAU_List_position@?$_Hash@V?$_Hmap_traits@VCGUID@@PAVCBaseObject@@Vhash_guid_compare@@V?$allocator@U?$pair@$$CBVCGUID@@PAVCBaseObject@@@std@@@std@@$0A@@stdext@@@stdext@@PAU234@00@Z ; std::vector<stdext::_Hash<stdext::_Hmap_traits<CGUID,CBaseObject *,hash_guid_compare,std::allocator<std::pair<CGUID const ,CBaseObject *> >,0> >::_List_position,std::allocator<stdext::_Hash<stdext::_Hmap_traits<CGUID,CBaseObject *,hash_guid_compare,std::allocator<std::pair<CGUID const ,CBaseObject *> >,0> >::_List_position> >::_Umove<stdext::_Hash<stdext::_Hmap_traits<CGUID,CBaseObject *,hash_guid_compare,std::allocator<std::pair<CGUID const ,CBaseObject *> >,0> >::_List_position *>

; 1194 : 
; 1195 :  #if _HAS_ITERATOR_DEBUGGING
; 1196 : 			_Orphan_range(_Where._Myptr, _Mylast);
; 1197 :  #endif /* _HAS_ITERATOR_DEBUGGING */
; 1198 : 
; 1199 : 			_STDEXT _Unchecked_move_backward(_VEC_ITER_BASE(_Where), _Oldend - _Count,
; 1200 : 				_Oldend);	// copy hole

  00221	8b 55 10	 mov	 edx, DWORD PTR tv490[ebp]
  00224	53		 push	 ebx
  00225	52		 push	 edx
  00226	57		 push	 edi
  00227	89 46 08	 mov	 DWORD PTR [esi+8], eax
  0022a	e8 00 00 00 00	 call	 ??$_Unchecked_move_backward@PAU_List_position@?$_Hash@V?$_Hmap_traits@VCGUID@@PAVCBaseObject@@Vhash_guid_compare@@V?$allocator@U?$pair@$$CBVCGUID@@PAVCBaseObject@@@std@@@std@@$0A@@stdext@@@stdext@@PAU123@@stdext@@YAPAU_List_position@?$_Hash@V?$_Hmap_traits@VCGUID@@PAVCBaseObject@@Vhash_guid_compare@@V?$allocator@U?$pair@$$CBVCGUID@@PAVCBaseObject@@@std@@@std@@$0A@@stdext@@@0@PAU120@00@Z ; stdext::_Unchecked_move_backward<stdext::_Hash<stdext::_Hmap_traits<CGUID,CBaseObject *,hash_guid_compare,std::allocator<std::pair<CGUID const ,CBaseObject *> >,0> >::_List_position *,stdext::_Hash<stdext::_Hmap_traits<CGUID,CBaseObject *,hash_guid_compare,std::allocator<std::pair<CGUID const ,CBaseObject *> >,0> >::_List_position *>

; 1201 : 			fill(_VEC_ITER_BASE(_Where), _VEC_ITER_BASE(_Where) + _Count,
; 1202 : 				_Tmp);	// insert into hole

  0022f	8b 4d 14	 mov	 ecx, DWORD PTR tv481[ebp]
  00232	8d 45 e4	 lea	 eax, DWORD PTR __Tmp$[ebp]
  00235	50		 push	 eax
  00236	03 cf		 add	 ecx, edi
  00238	51		 push	 ecx
  00239	57		 push	 edi
  0023a	e8 00 00 00 00	 call	 ??$fill@PAU_List_position@?$_Hash@V?$_Hmap_traits@VCGUID@@PAVCBaseObject@@Vhash_guid_compare@@V?$allocator@U?$pair@$$CBVCGUID@@PAVCBaseObject@@@std@@@std@@$0A@@stdext@@@stdext@@U123@@std@@YAXPAU_List_position@?$_Hash@V?$_Hmap_traits@VCGUID@@PAVCBaseObject@@Vhash_guid_compare@@V?$allocator@U?$pair@$$CBVCGUID@@PAVCBaseObject@@@std@@@std@@$0A@@stdext@@@stdext@@0ABU123@@Z ; std::fill<stdext::_Hash<stdext::_Hmap_traits<CGUID,CBaseObject *,hash_guid_compare,std::allocator<std::pair<CGUID const ,CBaseObject *> >,0> >::_List_position *,stdext::_Hash<stdext::_Hmap_traits<CGUID,CBaseObject *,hash_guid_compare,std::allocator<std::pair<CGUID const ,CBaseObject *> >,0> >::_List_position>
  0023f	83 c4 18	 add	 esp, 24			; 00000018H
$LN1@Insert_n:

; 1203 : 			}
; 1204 : 		}

  00242	8b 4d f4	 mov	 ecx, DWORD PTR __$EHRec$[ebp+4]
  00245	64 89 0d 00 00
	00 00		 mov	 DWORD PTR fs:0, ecx
  0024c	59		 pop	 ecx
  0024d	5f		 pop	 edi
  0024e	5e		 pop	 esi
  0024f	5b		 pop	 ebx
  00250	8b e5		 mov	 esp, ebp
  00252	5d		 pop	 ebp
  00253	c2 10 00	 ret	 16			; 00000010H
$LN126@Insert_n:
_TEXT	ENDS
;	COMDAT text$x
text$x	SEGMENT
__ehhandler$?_Insert_n@?$vector@U_List_position@?$_Hash@V?$_Hmap_traits@VCGUID@@PAVCBaseObject@@Vhash_guid_compare@@V?$allocator@U?$pair@$$CBVCGUID@@PAVCBaseObject@@@std@@@std@@$0A@@stdext@@@stdext@@V?$allocator@U_List_position@?$_Hash@V?$_Hmap_traits@VCGUID@@PAVCBaseObject@@Vhash_guid_compare@@V?$allocator@U?$pair@$$CBVCGUID@@PAVCBaseObject@@@std@@@std@@$0A@@stdext@@@stdext@@@std@@@std@@IAEXV?$_Vector_iterator@U_List_position@?$_Hash@V?$_Hmap_traits@VCGUID@@PAVCBaseObject@@Vhash_guid_compare@@V?$allocator@U?$pair@$$CBVCGUID@@PAVCBaseObject@@@std@@@std@@$0A@@stdext@@@stdext@@V?$allocator@U_List_position@?$_Hash@V?$_Hmap_traits@VCGUID@@PAVCBaseObject@@Vhash_guid_compare@@V?$allocator@U?$pair@$$CBVCGUID@@PAVCBaseObject@@@std@@@std@@$0A@@stdext@@@stdext@@@std@@@2@IABU_List_position@?$_Hash@V?$_Hmap_traits@VCGUID@@PAVCBaseObject@@Vhash_guid_compare@@V?$allocator@U?$pair@$$CBVCGUID@@PAVCBaseObject@@@std@@@std@@$0A@@stdext@@@stdext@@@Z:
  00000	8b 54 24 08	 mov	 edx, DWORD PTR [esp+8]
  00004	8d 42 0c	 lea	 eax, DWORD PTR [edx+12]
  00007	8b 4a e0	 mov	 ecx, DWORD PTR [edx-32]
  0000a	33 c8		 xor	 ecx, eax
  0000c	e8 00 00 00 00	 call	 @__security_check_cookie@4
  00011	b8 00 00 00 00	 mov	 eax, OFFSET __ehfuncinfo$?_Insert_n@?$vector@U_List_position@?$_Hash@V?$_Hmap_traits@VCGUID@@PAVCBaseObject@@Vhash_guid_compare@@V?$allocator@U?$pair@$$CBVCGUID@@PAVCBaseObject@@@std@@@std@@$0A@@stdext@@@stdext@@V?$allocator@U_List_position@?$_Hash@V?$_Hmap_traits@VCGUID@@PAVCBaseObject@@Vhash_guid_compare@@V?$allocator@U?$pair@$$CBVCGUID@@PAVCBaseObject@@@std@@@std@@$0A@@stdext@@@stdext@@@std@@@std@@IAEXV?$_Vector_iterator@U_List_position@?$_Hash@V?$_Hmap_traits@VCGUID@@PAVCBaseObject@@Vhash_guid_compare@@V?$allocator@U?$pair@$$CBVCGUID@@PAVCBaseObject@@@std@@@std@@$0A@@stdext@@@stdext@@V?$allocator@U_List_position@?$_Hash@V?$_Hmap_traits@VCGUID@@PAVCBaseObject@@Vhash_guid_compare@@V?$allocator@U?$pair@$$CBVCGUID@@PAVCBaseObject@@@std@@@std@@$0A@@stdext@@@stdext@@@std@@@2@IABU_List_position@?$_Hash@V?$_Hmap_traits@VCGUID@@PAVCBaseObject@@Vhash_guid_compare@@V?$allocator@U?$pair@$$CBVCGUID@@PAVCBaseObject@@@std@@@std@@$0A@@stdext@@@stdext@@@Z
  00016	e9 00 00 00 00	 jmp	 ___CxxFrameHandler3
text$x	ENDS
?_Insert_n@?$vector@U_List_position@?$_Hash@V?$_Hmap_traits@VCGUID@@PAVCBaseObject@@Vhash_guid_compare@@V?$allocator@U?$pair@$$CBVCGUID@@PAVCBaseObject@@@std@@@std@@$0A@@stdext@@@stdext@@V?$allocator@U_List_position@?$_Hash@V?$_Hmap_traits@VCGUID@@PAVCBaseObject@@Vhash_guid_compare@@V?$allocator@U?$pair@$$CBVCGUID@@PAVCBaseObject@@@std@@@std@@$0A@@stdext@@@stdext@@@std@@@std@@IAEXV?$_Vector_iterator@U_List_position@?$_Hash@V?$_Hmap_traits@VCGUID@@PAVCBaseObject@@Vhash_guid_compare@@V?$allocator@U?$pair@$$CBVCGUID@@PAVCBaseObject@@@std@@@std@@$0A@@stdext@@@stdext@@V?$allocator@U_List_position@?$_Hash@V?$_Hmap_traits@VCGUID@@PAVCBaseObject@@Vhash_guid_compare@@V?$allocator@U?$pair@$$CBVCGUID@@PAVCBaseObject@@@std@@@std@@$0A@@stdext@@@stdext@@@std@@@2@IABU_List_position@?$_Hash@V?$_Hmap_traits@VCGUID@@PAVCBaseObject@@Vhash_guid_compare@@V?$allocator@U?$pair@$$CBVCGUID@@PAVCBaseObject@@@std@@@std@@$0A@@stdext@@@stdext@@@Z ENDP ; std::vector<stdext::_Hash<stdext::_Hmap_traits<CGUID,CBaseObject *,hash_guid_compare,std::allocator<std::pair<CGUID const ,CBaseObject *> >,0> >::_List_position,std::allocator<stdext::_Hash<stdext::_Hmap_traits<CGUID,CBaseObject *,hash_guid_compare,std::allocator<std::pair<CGUID const ,CBaseObject *> >,0> >::_List_position> >::_Insert_n
PUBLIC	?insert@?$vector@U_List_position@?$_Hash@V?$_Hmap_traits@VCGUID@@PAVCBaseObject@@Vhash_guid_compare@@V?$allocator@U?$pair@$$CBVCGUID@@PAVCBaseObject@@@std@@@std@@$0A@@stdext@@@stdext@@V?$allocator@U_List_position@?$_Hash@V?$_Hmap_traits@VCGUID@@PAVCBaseObject@@Vhash_guid_compare@@V?$allocator@U?$pair@$$CBVCGUID@@PAVCBaseObject@@@std@@@std@@$0A@@stdext@@@stdext@@@std@@@std@@QAEXV?$_Vector_iterator@U_List_position@?$_Hash@V?$_Hmap_traits@VCGUID@@PAVCBaseObject@@Vhash_guid_compare@@V?$allocator@U?$pair@$$CBVCGUID@@PAVCBaseObject@@@std@@@std@@$0A@@stdext@@@stdext@@V?$allocator@U_List_position@?$_Hash@V?$_Hmap_traits@VCGUID@@PAVCBaseObject@@Vhash_guid_compare@@V?$allocator@U?$pair@$$CBVCGUID@@PAVCBaseObject@@@std@@@std@@$0A@@stdext@@@stdext@@@std@@@2@IABU_List_position@?$_Hash@V?$_Hmap_traits@VCGUID@@PAVCBaseObject@@Vhash_guid_compare@@V?$allocator@U?$pair@$$CBVCGUID@@PAVCBaseObject@@@std@@@std@@$0A@@stdext@@@stdext@@@Z ; std::vector<stdext::_Hash<stdext::_Hmap_traits<CGUID,CBaseObject *,hash_guid_compare,std::allocator<std::pair<CGUID const ,CBaseObject *> >,0> >::_List_position,std::allocator<stdext::_Hash<stdext::_Hmap_traits<CGUID,CBaseObject *,hash_guid_compare,std::allocator<std::pair<CGUID const ,CBaseObject *> >,0> >::_List_position> >::insert
; Function compile flags: /Ogtpy
;	COMDAT ?insert@?$vector@U_List_position@?$_Hash@V?$_Hmap_traits@VCGUID@@PAVCBaseObject@@Vhash_guid_compare@@V?$allocator@U?$pair@$$CBVCGUID@@PAVCBaseObject@@@std@@@std@@$0A@@stdext@@@stdext@@V?$allocator@U_List_position@?$_Hash@V?$_Hmap_traits@VCGUID@@PAVCBaseObject@@Vhash_guid_compare@@V?$allocator@U?$pair@$$CBVCGUID@@PAVCBaseObject@@@std@@@std@@$0A@@stdext@@@stdext@@@std@@@std@@QAEXV?$_Vector_iterator@U_List_position@?$_Hash@V?$_Hmap_traits@VCGUID@@PAVCBaseObject@@Vhash_guid_compare@@V?$allocator@U?$pair@$$CBVCGUID@@PAVCBaseObject@@@std@@@std@@$0A@@stdext@@@stdext@@V?$allocator@U_List_position@?$_Hash@V?$_Hmap_traits@VCGUID@@PAVCBaseObject@@Vhash_guid_compare@@V?$allocator@U?$pair@$$CBVCGUID@@PAVCBaseObject@@@std@@@std@@$0A@@stdext@@@stdext@@@std@@@2@IABU_List_position@?$_Hash@V?$_Hmap_traits@VCGUID@@PAVCBaseObject@@Vhash_guid_compare@@V?$allocator@U?$pair@$$CBVCGUID@@PAVCBaseObject@@@std@@@std@@$0A@@stdext@@@stdext@@@Z
_TEXT	SEGMENT
__Where$ = 8						; size = 8
__Count$ = 16						; size = 4
__Val$ = 20						; size = 4
?insert@?$vector@U_List_position@?$_Hash@V?$_Hmap_traits@VCGUID@@PAVCBaseObject@@Vhash_guid_compare@@V?$allocator@U?$pair@$$CBVCGUID@@PAVCBaseObject@@@std@@@std@@$0A@@stdext@@@stdext@@V?$allocator@U_List_position@?$_Hash@V?$_Hmap_traits@VCGUID@@PAVCBaseObject@@Vhash_guid_compare@@V?$allocator@U?$pair@$$CBVCGUID@@PAVCBaseObject@@@std@@@std@@$0A@@stdext@@@stdext@@@std@@@std@@QAEXV?$_Vector_iterator@U_List_position@?$_Hash@V?$_Hmap_traits@VCGUID@@PAVCBaseObject@@Vhash_guid_compare@@V?$allocator@U?$pair@$$CBVCGUID@@PAVCBaseObject@@@std@@@std@@$0A@@stdext@@@stdext@@V?$allocator@U_List_position@?$_Hash@V?$_Hmap_traits@VCGUID@@PAVCBaseObject@@Vhash_guid_compare@@V?$allocator@U?$pair@$$CBVCGUID@@PAVCBaseObject@@@std@@@std@@$0A@@stdext@@@stdext@@@std@@@2@IABU_List_position@?$_Hash@V?$_Hmap_traits@VCGUID@@PAVCBaseObject@@Vhash_guid_compare@@V?$allocator@U?$pair@$$CBVCGUID@@PAVCBaseObject@@@std@@@std@@$0A@@stdext@@@stdext@@@Z PROC ; std::vector<stdext::_Hash<stdext::_Hmap_traits<CGUID,CBaseObject *,hash_guid_compare,std::allocator<std::pair<CGUID const ,CBaseObject *> >,0> >::_List_position,std::allocator<stdext::_Hash<stdext::_Hmap_traits<CGUID,CBaseObject *,hash_guid_compare,std::allocator<std::pair<CGUID const ,CBaseObject *> >,0> >::_List_position> >::insert, COMDAT
; _this$ = ecx

; 860  : 		_Insert_n(_Where, _Count, _Val);

  00000	8b 44 24 10	 mov	 eax, DWORD PTR __Val$[esp-4]
  00004	8b 54 24 0c	 mov	 edx, DWORD PTR __Count$[esp-4]
  00008	50		 push	 eax
  00009	8b 44 24 0c	 mov	 eax, DWORD PTR __Where$[esp+4]
  0000d	52		 push	 edx
  0000e	8b 54 24 0c	 mov	 edx, DWORD PTR __Where$[esp+4]
  00012	50		 push	 eax
  00013	52		 push	 edx
  00014	e8 00 00 00 00	 call	 ?_Insert_n@?$vector@U_List_position@?$_Hash@V?$_Hmap_traits@VCGUID@@PAVCBaseObject@@Vhash_guid_compare@@V?$allocator@U?$pair@$$CBVCGUID@@PAVCBaseObject@@@std@@@std@@$0A@@stdext@@@stdext@@V?$allocator@U_List_position@?$_Hash@V?$_Hmap_traits@VCGUID@@PAVCBaseObject@@Vhash_guid_compare@@V?$allocator@U?$pair@$$CBVCGUID@@PAVCBaseObject@@@std@@@std@@$0A@@stdext@@@stdext@@@std@@@std@@IAEXV?$_Vector_iterator@U_List_position@?$_Hash@V?$_Hmap_traits@VCGUID@@PAVCBaseObject@@Vhash_guid_compare@@V?$allocator@U?$pair@$$CBVCGUID@@PAVCBaseObject@@@std@@@std@@$0A@@stdext@@@stdext@@V?$allocator@U_List_position@?$_Hash@V?$_Hmap_traits@VCGUID@@PAVCBaseObject@@Vhash_guid_compare@@V?$allocator@U?$pair@$$CBVCGUID@@PAVCBaseObject@@@std@@@std@@$0A@@stdext@@@stdext@@@std@@@2@IABU_List_position@?$_Hash@V?$_Hmap_traits@VCGUID@@PAVCBaseObject@@Vhash_guid_compare@@V?$allocator@U?$pair@$$CBVCGUID@@PAVCBaseObject@@@std@@@std@@$0A@@stdext@@@stdext@@@Z ; std::vector<stdext::_Hash<stdext::_Hmap_traits<CGUID,CBaseObject *,hash_guid_compare,std::allocator<std::pair<CGUID const ,CBaseObject *> >,0> >::_List_position,std::allocator<stdext::_Hash<stdext::_Hmap_traits<CGUID,CBaseObject *,hash_guid_compare,std::allocator<std::pair<CGUID const ,CBaseObject *> >,0> >::_List_position> >::_Insert_n

; 861  : 		}

  00019	c2 10 00	 ret	 16			; 00000010H
?insert@?$vector@U_List_position@?$_Hash@V?$_Hmap_traits@VCGUID@@PAVCBaseObject@@Vhash_guid_compare@@V?$allocator@U?$pair@$$CBVCGUID@@PAVCBaseObject@@@std@@@std@@$0A@@stdext@@@stdext@@V?$allocator@U_List_position@?$_Hash@V?$_Hmap_traits@VCGUID@@PAVCBaseObject@@Vhash_guid_compare@@V?$allocator@U?$pair@$$CBVCGUID@@PAVCBaseObject@@@std@@@std@@$0A@@stdext@@@stdext@@@std@@@std@@QAEXV?$_Vector_iterator@U_List_position@?$_Hash@V?$_Hmap_traits@VCGUID@@PAVCBaseObject@@Vhash_guid_compare@@V?$allocator@U?$pair@$$CBVCGUID@@PAVCBaseObject@@@std@@@std@@$0A@@stdext@@@stdext@@V?$allocator@U_List_position@?$_Hash@V?$_Hmap_traits@VCGUID@@PAVCBaseObject@@Vhash_guid_compare@@V?$allocator@U?$pair@$$CBVCGUID@@PAVCBaseObject@@@std@@@std@@$0A@@stdext@@@stdext@@@std@@@2@IABU_List_position@?$_Hash@V?$_Hmap_traits@VCGUID@@PAVCBaseObject@@Vhash_guid_compare@@V?$allocator@U?$pair@$$CBVCGUID@@PAVCBaseObject@@@std@@@std@@$0A@@stdext@@@stdext@@@Z ENDP ; std::vector<stdext::_Hash<stdext::_Hmap_traits<CGUID,CBaseObject *,hash_guid_compare,std::allocator<std::pair<CGUID const ,CBaseObject *> >,0> >::_List_position,std::allocator<stdext::_Hash<stdext::_Hmap_traits<CGUID,CBaseObject *,hash_guid_compare,std::allocator<std::pair<CGUID const ,CBaseObject *> >,0> >::_List_position> >::insert
_TEXT	ENDS
PUBLIC	??$GetFactory@VCGoods@@VLockOfWinWhileSleep@XM_Tools@@@XM_Tools@@YAAAV?$CObjectFactory@VCGoods@@VLockOfWinWhileSleep@XM_Tools@@@0@XZ ; XM_Tools::GetFactory<CGoods,XM_Tools::LockOfWinWhileSleep>
;	COMDAT ?c_ObjectFactory@?1???$GetFactory@VCGoods@@VLockOfWinWhileSleep@XM_Tools@@@XM_Tools@@YAAAV?$CObjectFactory@VCGoods@@VLockOfWinWhileSleep@XM_Tools@@@1@XZ@4V21@A
; File d:\project_p6\trunk\public\memmanage\cpp\objectfactory.tcc
_BSS	SEGMENT
?c_ObjectFactory@?1???$GetFactory@VCGoods@@VLockOfWinWhileSleep@XM_Tools@@@XM_Tools@@YAAAV?$CObjectFactory@VCGoods@@VLockOfWinWhileSleep@XM_Tools@@@1@XZ@4V21@A DQ 01H DUP (?) ; `XM_Tools::GetFactory<CGoods,XM_Tools::LockOfWinWhileSleep>'::`2'::c_ObjectFactory
_BSS	ENDS
;	COMDAT ?$S1@?1???$GetFactory@VCGoods@@VLockOfWinWhileSleep@XM_Tools@@@XM_Tools@@YAAAV?$CObjectFactory@VCGoods@@VLockOfWinWhileSleep@XM_Tools@@@1@XZ@4IA
_BSS	SEGMENT
?$S1@?1???$GetFactory@VCGoods@@VLockOfWinWhileSleep@XM_Tools@@@XM_Tools@@YAAAV?$CObjectFactory@VCGoods@@VLockOfWinWhileSleep@XM_Tools@@@1@XZ@4IA DD 01H DUP (?) ; `XM_Tools::GetFactory<CGoods,XM_Tools::LockOfWinWhileSleep>'::`2'::$S1
_BSS	ENDS
;	COMDAT xdata$x
xdata$x	SEGMENT
__unwindtable$??$GetFactory@VCGoods@@VLockOfWinWhileSleep@XM_Tools@@@XM_Tools@@YAAAV?$CObjectFactory@VCGoods@@VLockOfWinWhileSleep@XM_Tools@@@0@XZ DD 0ffffffffH
	DD	FLAT:__unwindfunclet$??$GetFactory@VCGoods@@VLockOfWinWhileSleep@XM_Tools@@@XM_Tools@@YAAAV?$CObjectFactory@VCGoods@@VLockOfWinWhileSleep@XM_Tools@@@0@XZ$0
__ehfuncinfo$??$GetFactory@VCGoods@@VLockOfWinWhileSleep@XM_Tools@@@XM_Tools@@YAAAV?$CObjectFactory@VCGoods@@VLockOfWinWhileSleep@XM_Tools@@@0@XZ DD 019930522H
	DD	01H
	DD	FLAT:__unwindtable$??$GetFactory@VCGoods@@VLockOfWinWhileSleep@XM_Tools@@@XM_Tools@@YAAAV?$CObjectFactory@VCGoods@@VLockOfWinWhileSleep@XM_Tools@@@0@XZ
	DD	2 DUP(00H)
	DD	2 DUP(00H)
	DD	00H
	DD	01H
; Function compile flags: /Ogtpy
xdata$x	ENDS
;	COMDAT ??$GetFactory@VCGoods@@VLockOfWinWhileSleep@XM_Tools@@@XM_Tools@@YAAAV?$CObjectFactory@VCGoods@@VLockOfWinWhileSleep@XM_Tools@@@0@XZ
_TEXT	SEGMENT
__$EHRec$ = -12						; size = 12
??$GetFactory@VCGoods@@VLockOfWinWhileSleep@XM_Tools@@@XM_Tools@@YAAAV?$CObjectFactory@VCGoods@@VLockOfWinWhileSleep@XM_Tools@@@0@XZ PROC ; XM_Tools::GetFactory<CGoods,XM_Tools::LockOfWinWhileSleep>, COMDAT

; 220  : 	{

  00000	6a ff		 push	 -1
  00002	68 00 00 00 00	 push	 __ehhandler$??$GetFactory@VCGoods@@VLockOfWinWhileSleep@XM_Tools@@@XM_Tools@@YAAAV?$CObjectFactory@VCGoods@@VLockOfWinWhileSleep@XM_Tools@@@0@XZ
  00007	64 a1 00 00 00
	00		 mov	 eax, DWORD PTR fs:0
  0000d	50		 push	 eax
  0000e	a1 00 00 00 00	 mov	 eax, DWORD PTR ___security_cookie
  00013	33 c4		 xor	 eax, esp
  00015	50		 push	 eax
  00016	8d 44 24 04	 lea	 eax, DWORD PTR __$EHRec$[esp+16]
  0001a	64 a3 00 00 00
	00		 mov	 DWORD PTR fs:0, eax

; 221  : 		static CObjectFactory<_TObject, _TLock> c_ObjectFactory(GetMemManage<_TLock>());

  00020	b8 01 00 00 00	 mov	 eax, 1
  00025	84 05 00 00 00
	00		 test	 BYTE PTR ?$S1@?1???$GetFactory@VCGoods@@VLockOfWinWhileSleep@XM_Tools@@@XM_Tools@@YAAAV?$CObjectFactory@VCGoods@@VLockOfWinWhileSleep@XM_Tools@@@1@XZ@4IA, al
  0002b	75 36		 jne	 SHORT $LN7@GetFactory
  0002d	09 05 00 00 00
	00		 or	 DWORD PTR ?$S1@?1???$GetFactory@VCGoods@@VLockOfWinWhileSleep@XM_Tools@@@XM_Tools@@YAAAV?$CObjectFactory@VCGoods@@VLockOfWinWhileSleep@XM_Tools@@@1@XZ@4IA, eax
  00033	c7 44 24 0c 00
	00 00 00	 mov	 DWORD PTR __$EHRec$[esp+24], 0
  0003b	e8 00 00 00 00	 call	 ??$GetMemManage@VLockOfWinWhileSleep@XM_Tools@@@XM_Tools@@YAAAV?$CMemManage@VLockOfWinWhileSleep@XM_Tools@@@0@XZ ; XM_Tools::GetMemManage<XM_Tools::LockOfWinWhileSleep>
  00040	a3 00 00 00 00	 mov	 DWORD PTR ?c_ObjectFactory@?1???$GetFactory@VCGoods@@VLockOfWinWhileSleep@XM_Tools@@@XM_Tools@@YAAAV?$CObjectFactory@VCGoods@@VLockOfWinWhileSleep@XM_Tools@@@1@XZ@4V21@A, eax
  00045	e8 00 00 00 00	 call	 ?GetObjInfoManage@XM_Tools@@YAAAVCObjInfoManage@1@XZ ; XM_Tools::GetObjInfoManage
  0004a	8b c8		 mov	 ecx, eax
  0004c	e8 00 00 00 00	 call	 ?GetNewRTID@CObjInfoManage@XM_Tools@@QAEKXZ ; XM_Tools::CObjInfoManage::GetNewRTID
  00051	68 00 00 00 00	 push	 OFFSET ??__Fc_ObjectFactory@?1???$GetFactory@VCGoods@@VLockOfWinWhileSleep@XM_Tools@@@XM_Tools@@YAAAV?$CObjectFactory@VCGoods@@VLockOfWinWhileSleep@XM_Tools@@@0@XZ@YAXXZ ; `XM_Tools::GetFactory<CGoods,XM_Tools::LockOfWinWhileSleep>'::`2'::`dynamic atexit destructor for 'c_ObjectFactory''
  00056	a3 04 00 00 00	 mov	 DWORD PTR ?c_ObjectFactory@?1???$GetFactory@VCGoods@@VLockOfWinWhileSleep@XM_Tools@@@XM_Tools@@YAAAV?$CObjectFactory@VCGoods@@VLockOfWinWhileSleep@XM_Tools@@@1@XZ@4V21@A+4, eax
  0005b	e8 00 00 00 00	 call	 _atexit
  00060	83 c4 04	 add	 esp, 4
$LN7@GetFactory:

; 222  : 		return c_ObjectFactory;

  00063	b8 00 00 00 00	 mov	 eax, OFFSET ?c_ObjectFactory@?1???$GetFactory@VCGoods@@VLockOfWinWhileSleep@XM_Tools@@@XM_Tools@@YAAAV?$CObjectFactory@VCGoods@@VLockOfWinWhileSleep@XM_Tools@@@1@XZ@4V21@A

; 223  : 	}

  00068	8b 4c 24 04	 mov	 ecx, DWORD PTR __$EHRec$[esp+16]
  0006c	64 89 0d 00 00
	00 00		 mov	 DWORD PTR fs:0, ecx
  00073	59		 pop	 ecx
  00074	83 c4 0c	 add	 esp, 12			; 0000000cH
  00077	c3		 ret	 0
_TEXT	ENDS
;	COMDAT text$x
text$x	SEGMENT
__unwindfunclet$??$GetFactory@VCGoods@@VLockOfWinWhileSleep@XM_Tools@@@XM_Tools@@YAAAV?$CObjectFactory@VCGoods@@VLockOfWinWhileSleep@XM_Tools@@@0@XZ$0:
  00000	a1 00 00 00 00	 mov	 eax, DWORD PTR ?$S1@?1???$GetFactory@VCGoods@@VLockOfWinWhileSleep@XM_Tools@@@XM_Tools@@YAAAV?$CObjectFactory@VCGoods@@VLockOfWinWhileSleep@XM_Tools@@@1@XZ@4IA
  00005	83 e0 fe	 and	 eax, -2			; fffffffeH
  00008	a3 00 00 00 00	 mov	 DWORD PTR ?$S1@?1???$GetFactory@VCGoods@@VLockOfWinWhileSleep@XM_Tools@@@XM_Tools@@YAAAV?$CObjectFactory@VCGoods@@VLockOfWinWhileSleep@XM_Tools@@@1@XZ@4IA, eax
  0000d	c3		 ret	 0
__ehhandler$??$GetFactory@VCGoods@@VLockOfWinWhileSleep@XM_Tools@@@XM_Tools@@YAAAV?$CObjectFactory@VCGoods@@VLockOfWinWhileSleep@XM_Tools@@@0@XZ:
  0000e	8b 54 24 08	 mov	 edx, DWORD PTR [esp+8]
  00012	8d 02		 lea	 eax, DWORD PTR [edx]
  00014	8b 4a fc	 mov	 ecx, DWORD PTR [edx-4]
  00017	33 c8		 xor	 ecx, eax
  00019	e8 00 00 00 00	 call	 @__security_check_cookie@4
  0001e	b8 00 00 00 00	 mov	 eax, OFFSET __ehfuncinfo$??$GetFactory@VCGoods@@VLockOfWinWhileSleep@XM_Tools@@@XM_Tools@@YAAAV?$CObjectFactory@VCGoods@@VLockOfWinWhileSleep@XM_Tools@@@0@XZ
  00023	e9 00 00 00 00	 jmp	 ___CxxFrameHandler3
text$x	ENDS
??$GetFactory@VCGoods@@VLockOfWinWhileSleep@XM_Tools@@@XM_Tools@@YAAAV?$CObjectFactory@VCGoods@@VLockOfWinWhileSleep@XM_Tools@@@0@XZ ENDP ; XM_Tools::GetFactory<CGoods,XM_Tools::LockOfWinWhileSleep>
PUBLIC	?CreateObj@?$CObjectFactory@VCGoods@@VLockOfWinWhileSleep@XM_Tools@@@XM_Tools@@QAEPAVCGoods@@XZ ; XM_Tools::CObjectFactory<CGoods,XM_Tools::LockOfWinWhileSleep>::CreateObj
EXTRN	??0CGoods@@QAE@XZ:PROC				; CGoods::CGoods
;	COMDAT xdata$x
; File d:\program files\microsoft visual studio 8\vc\include\new
xdata$x	SEGMENT
__unwindtable$?CreateObj@?$CObjectFactory@VCGoods@@VLockOfWinWhileSleep@XM_Tools@@@XM_Tools@@QAEPAVCGoods@@XZ DD 0ffffffffH
	DD	FLAT:__unwindfunclet$?CreateObj@?$CObjectFactory@VCGoods@@VLockOfWinWhileSleep@XM_Tools@@@XM_Tools@@QAEPAVCGoods@@XZ$0
__ehfuncinfo$?CreateObj@?$CObjectFactory@VCGoods@@VLockOfWinWhileSleep@XM_Tools@@@XM_Tools@@QAEPAVCGoods@@XZ DD 019930522H
	DD	01H
	DD	FLAT:__unwindtable$?CreateObj@?$CObjectFactory@VCGoods@@VLockOfWinWhileSleep@XM_Tools@@@XM_Tools@@QAEPAVCGoods@@XZ
	DD	2 DUP(00H)
	DD	2 DUP(00H)
	DD	00H
	DD	01H
; Function compile flags: /Ogtpy
; File d:\project_p6\trunk\public\memmanage\cpp\objectfactory.tcc
xdata$x	ENDS
;	COMDAT ?CreateObj@?$CObjectFactory@VCGoods@@VLockOfWinWhileSleep@XM_Tools@@@XM_Tools@@QAEPAVCGoods@@XZ
_TEXT	SEGMENT
_pObj$ = -20						; size = 4
$T303972 = -16						; size = 4
__$EHRec$ = -12						; size = 12
?CreateObj@?$CObjectFactory@VCGoods@@VLockOfWinWhileSleep@XM_Tools@@@XM_Tools@@QAEPAVCGoods@@XZ PROC ; XM_Tools::CObjectFactory<CGoods,XM_Tools::LockOfWinWhileSleep>::CreateObj, COMDAT
; _this$ = ecx

; 135  : 	{

  00000	6a ff		 push	 -1
  00002	68 00 00 00 00	 push	 __ehhandler$?CreateObj@?$CObjectFactory@VCGoods@@VLockOfWinWhileSleep@XM_Tools@@@XM_Tools@@QAEPAVCGoods@@XZ
  00007	64 a1 00 00 00
	00		 mov	 eax, DWORD PTR fs:0
  0000d	50		 push	 eax
  0000e	83 ec 08	 sub	 esp, 8
  00011	56		 push	 esi
  00012	a1 00 00 00 00	 mov	 eax, DWORD PTR ___security_cookie
  00017	33 c4		 xor	 eax, esp
  00019	50		 push	 eax
  0001a	8d 44 24 10	 lea	 eax, DWORD PTR __$EHRec$[esp+28]
  0001e	64 a3 00 00 00
	00		 mov	 DWORD PTR fs:0, eax

; 136  : 		unsigned long AllocSize = sizeof(unsigned long) + sizeof(_TObject);
; 137  : 		unsigned long *pMem = (unsigned long*)GetMemManage<_TLock>().AsyncAlloc(AllocSize);

  00024	68 9c 01 00 00	 push	 412			; 0000019cH
  00029	e8 00 00 00 00	 call	 ??$GetMemManage@VLockOfWinWhileSleep@XM_Tools@@@XM_Tools@@YAAAV?$CMemManage@VLockOfWinWhileSleep@XM_Tools@@@0@XZ ; XM_Tools::GetMemManage<XM_Tools::LockOfWinWhileSleep>
  0002e	8b c8		 mov	 ecx, eax
  00030	e8 00 00 00 00	 call	 ?AsyncAlloc@?$CMemManage@VLockOfWinWhileSleep@XM_Tools@@@XM_Tools@@QAEPAXK@Z ; XM_Tools::CMemManage<XM_Tools::LockOfWinWhileSleep>::AsyncAlloc

; 138  : 		if(NULL == pMem)

  00035	85 c0		 test	 eax, eax
  00037	75 11		 jne	 SHORT $LN1@CreateObj

; 145  : 	}

  00039	8b 4c 24 10	 mov	 ecx, DWORD PTR __$EHRec$[esp+28]
  0003d	64 89 0d 00 00
	00 00		 mov	 DWORD PTR fs:0, ecx
  00044	59		 pop	 ecx
  00045	5e		 pop	 esi
  00046	83 c4 14	 add	 esp, 20			; 00000014H
  00049	c3		 ret	 0
$LN1@CreateObj:

; 139  : 			return NULL;
; 140  : 		
; 141  : 		pMem[0] = AllocSize;
; 142  : 		_TObject *pObj = (_TObject*)(pMem + 1);

  0004a	8d 70 04	 lea	 esi, DWORD PTR [eax+4]
  0004d	c7 00 9c 01 00
	00		 mov	 DWORD PTR [eax], 412	; 0000019cH
  00053	89 74 24 08	 mov	 DWORD PTR _pObj$[esp+28], esi

; 143  : 		new(pObj)_TObject();

  00057	89 74 24 0c	 mov	 DWORD PTR $T303972[esp+28], esi
  0005b	85 f6		 test	 esi, esi
  0005d	c7 44 24 18 00
	00 00 00	 mov	 DWORD PTR __$EHRec$[esp+36], 0
  00065	74 07		 je	 SHORT $LN4@CreateObj
  00067	8b ce		 mov	 ecx, esi
  00069	e8 00 00 00 00	 call	 ??0CGoods@@QAE@XZ	; CGoods::CGoods
$LN4@CreateObj:

; 144  : 		return pObj;

  0006e	8b c6		 mov	 eax, esi

; 145  : 	}

  00070	8b 4c 24 10	 mov	 ecx, DWORD PTR __$EHRec$[esp+28]
  00074	64 89 0d 00 00
	00 00		 mov	 DWORD PTR fs:0, ecx
  0007b	59		 pop	 ecx
  0007c	5e		 pop	 esi
  0007d	83 c4 14	 add	 esp, 20			; 00000014H
  00080	c3		 ret	 0
_TEXT	ENDS
;	COMDAT text$x
text$x	SEGMENT
__unwindfunclet$?CreateObj@?$CObjectFactory@VCGoods@@VLockOfWinWhileSleep@XM_Tools@@@XM_Tools@@QAEPAVCGoods@@XZ$0:
  00000	8b 45 ec	 mov	 eax, DWORD PTR _pObj$[ebp]
  00003	50		 push	 eax
  00004	8b 4d f0	 mov	 ecx, DWORD PTR $T303972[ebp]
  00007	51		 push	 ecx
  00008	e8 00 00 00 00	 call	 ??3@YAXPAX0@Z		; operator delete
  0000d	83 c4 08	 add	 esp, 8
  00010	c3		 ret	 0
__ehhandler$?CreateObj@?$CObjectFactory@VCGoods@@VLockOfWinWhileSleep@XM_Tools@@@XM_Tools@@QAEPAVCGoods@@XZ:
  00011	8b 54 24 08	 mov	 edx, DWORD PTR [esp+8]
  00015	8d 42 f4	 lea	 eax, DWORD PTR [edx-12]
  00018	8b 4a f0	 mov	 ecx, DWORD PTR [edx-16]
  0001b	33 c8		 xor	 ecx, eax
  0001d	e8 00 00 00 00	 call	 @__security_check_cookie@4
  00022	b8 00 00 00 00	 mov	 eax, OFFSET __ehfuncinfo$?CreateObj@?$CObjectFactory@VCGoods@@VLockOfWinWhileSleep@XM_Tools@@@XM_Tools@@QAEPAVCGoods@@XZ
  00027	e9 00 00 00 00	 jmp	 ___CxxFrameHandler3
text$x	ENDS
?CreateObj@?$CObjectFactory@VCGoods@@VLockOfWinWhileSleep@XM_Tools@@@XM_Tools@@QAEPAVCGoods@@XZ ENDP ; XM_Tools::CObjectFactory<CGoods,XM_Tools::LockOfWinWhileSleep>::CreateObj
PUBLIC	?ReleaseObj@?$CObjectFactory@VCGoods@@VLockOfWinWhileSleep@XM_Tools@@@XM_Tools@@QAEXPAVCGoods@@@Z ; XM_Tools::CObjectFactory<CGoods,XM_Tools::LockOfWinWhileSleep>::ReleaseObj
; Function compile flags: /Ogtpy
;	COMDAT ?ReleaseObj@?$CObjectFactory@VCGoods@@VLockOfWinWhileSleep@XM_Tools@@@XM_Tools@@QAEXPAVCGoods@@@Z
_TEXT	SEGMENT
_pObj$ = 8						; size = 4
?ReleaseObj@?$CObjectFactory@VCGoods@@VLockOfWinWhileSleep@XM_Tools@@@XM_Tools@@QAEXPAVCGoods@@@Z PROC ; XM_Tools::CObjectFactory<CGoods,XM_Tools::LockOfWinWhileSleep>::ReleaseObj, COMDAT
; _this$ = ecx

; 165  : 	{

  00000	56		 push	 esi

; 166  : 		//MM_ASSERY(NULL != pObj);
; 167  : 		if(NULL == pObj)

  00001	8b 74 24 08	 mov	 esi, DWORD PTR _pObj$[esp]
  00005	85 f6		 test	 esi, esi
  00007	74 1f		 je	 SHORT $LN2@ReleaseObj

; 168  : 			return;
; 169  : 		pObj->~_TObject();

  00009	8b 06		 mov	 eax, DWORD PTR [esi]
  0000b	8b 50 10	 mov	 edx, DWORD PTR [eax+16]
  0000e	6a 00		 push	 0
  00010	8b ce		 mov	 ecx, esi
  00012	ff d2		 call	 edx

; 170  : 		unsigned long *pMem = (unsigned long*)pObj;
; 171  : 		--pMem;
; 172  : 		GetMemManage<_TLock>().AsyncFree(pMem, pMem[0]);

  00014	8b 4e fc	 mov	 ecx, DWORD PTR [esi-4]
  00017	8d 46 fc	 lea	 eax, DWORD PTR [esi-4]
  0001a	51		 push	 ecx
  0001b	50		 push	 eax
  0001c	e8 00 00 00 00	 call	 ??$GetMemManage@VLockOfWinWhileSleep@XM_Tools@@@XM_Tools@@YAAAV?$CMemManage@VLockOfWinWhileSleep@XM_Tools@@@0@XZ ; XM_Tools::GetMemManage<XM_Tools::LockOfWinWhileSleep>
  00021	8b c8		 mov	 ecx, eax
  00023	e8 00 00 00 00	 call	 ?AsyncFree@?$CMemManage@VLockOfWinWhileSleep@XM_Tools@@@XM_Tools@@QAEXPAXK@Z ; XM_Tools::CMemManage<XM_Tools::LockOfWinWhileSleep>::AsyncFree
$LN2@ReleaseObj:
  00028	5e		 pop	 esi

; 173  : 	}

  00029	c2 04 00	 ret	 4
?ReleaseObj@?$CObjectFactory@VCGoods@@VLockOfWinWhileSleep@XM_Tools@@@XM_Tools@@QAEXPAVCGoods@@@Z ENDP ; XM_Tools::CObjectFactory<CGoods,XM_Tools::LockOfWinWhileSleep>::ReleaseObj
_TEXT	ENDS
PUBLIC	??$GetFactory@VCCollection@@VLockOfWinWhileSleep@XM_Tools@@@XM_Tools@@YAAAV?$CObjectFactory@VCCollection@@VLockOfWinWhileSleep@XM_Tools@@@0@XZ ; XM_Tools::GetFactory<CCollection,XM_Tools::LockOfWinWhileSleep>
;	COMDAT ?c_ObjectFactory@?1???$GetFactory@VCCollection@@VLockOfWinWhileSleep@XM_Tools@@@XM_Tools@@YAAAV?$CObjectFactory@VCCollection@@VLockOfWinWhileSleep@XM_Tools@@@1@XZ@4V21@A
_BSS	SEGMENT
?c_ObjectFactory@?1???$GetFactory@VCCollection@@VLockOfWinWhileSleep@XM_Tools@@@XM_Tools@@YAAAV?$CObjectFactory@VCCollection@@VLockOfWinWhileSleep@XM_Tools@@@1@XZ@4V21@A DQ 01H DUP (?) ; `XM_Tools::GetFactory<CCollection,XM_Tools::LockOfWinWhileSleep>'::`2'::c_ObjectFactory
_BSS	ENDS
;	COMDAT ?$S2@?1???$GetFactory@VCCollection@@VLockOfWinWhileSleep@XM_Tools@@@XM_Tools@@YAAAV?$CObjectFactory@VCCollection@@VLockOfWinWhileSleep@XM_Tools@@@1@XZ@4IA
_BSS	SEGMENT
?$S2@?1???$GetFactory@VCCollection@@VLockOfWinWhileSleep@XM_Tools@@@XM_Tools@@YAAAV?$CObjectFactory@VCCollection@@VLockOfWinWhileSleep@XM_Tools@@@1@XZ@4IA DD 01H DUP (?) ; `XM_Tools::GetFactory<CCollection,XM_Tools::LockOfWinWhileSleep>'::`2'::$S2
_BSS	ENDS
;	COMDAT xdata$x
xdata$x	SEGMENT
__unwindtable$??$GetFactory@VCCollection@@VLockOfWinWhileSleep@XM_Tools@@@XM_Tools@@YAAAV?$CObjectFactory@VCCollection@@VLockOfWinWhileSleep@XM_Tools@@@0@XZ DD 0ffffffffH
	DD	FLAT:__unwindfunclet$??$GetFactory@VCCollection@@VLockOfWinWhileSleep@XM_Tools@@@XM_Tools@@YAAAV?$CObjectFactory@VCCollection@@VLockOfWinWhileSleep@XM_Tools@@@0@XZ$0
__ehfuncinfo$??$GetFactory@VCCollection@@VLockOfWinWhileSleep@XM_Tools@@@XM_Tools@@YAAAV?$CObjectFactory@VCCollection@@VLockOfWinWhileSleep@XM_Tools@@@0@XZ DD 019930522H
	DD	01H
	DD	FLAT:__unwindtable$??$GetFactory@VCCollection@@VLockOfWinWhileSleep@XM_Tools@@@XM_Tools@@YAAAV?$CObjectFactory@VCCollection@@VLockOfWinWhileSleep@XM_Tools@@@0@XZ
	DD	2 DUP(00H)
	DD	2 DUP(00H)
	DD	00H
	DD	01H
; Function compile flags: /Ogtpy
xdata$x	ENDS
;	COMDAT ??$GetFactory@VCCollection@@VLockOfWinWhileSleep@XM_Tools@@@XM_Tools@@YAAAV?$CObjectFactory@VCCollection@@VLockOfWinWhileSleep@XM_Tools@@@0@XZ
_TEXT	SEGMENT
__$EHRec$ = -12						; size = 12
??$GetFactory@VCCollection@@VLockOfWinWhileSleep@XM_Tools@@@XM_Tools@@YAAAV?$CObjectFactory@VCCollection@@VLockOfWinWhileSleep@XM_Tools@@@0@XZ PROC ; XM_Tools::GetFactory<CCollection,XM_Tools::LockOfWinWhileSleep>, COMDAT

; 220  : 	{

  00000	6a ff		 push	 -1
  00002	68 00 00 00 00	 push	 __ehhandler$??$GetFactory@VCCollection@@VLockOfWinWhileSleep@XM_Tools@@@XM_Tools@@YAAAV?$CObjectFactory@VCCollection@@VLockOfWinWhileSleep@XM_Tools@@@0@XZ
  00007	64 a1 00 00 00
	00		 mov	 eax, DWORD PTR fs:0
  0000d	50		 push	 eax
  0000e	a1 00 00 00 00	 mov	 eax, DWORD PTR ___security_cookie
  00013	33 c4		 xor	 eax, esp
  00015	50		 push	 eax
  00016	8d 44 24 04	 lea	 eax, DWORD PTR __$EHRec$[esp+16]
  0001a	64 a3 00 00 00
	00		 mov	 DWORD PTR fs:0, eax

; 221  : 		static CObjectFactory<_TObject, _TLock> c_ObjectFactory(GetMemManage<_TLock>());

  00020	b8 01 00 00 00	 mov	 eax, 1
  00025	84 05 00 00 00
	00		 test	 BYTE PTR ?$S2@?1???$GetFactory@VCCollection@@VLockOfWinWhileSleep@XM_Tools@@@XM_Tools@@YAAAV?$CObjectFactory@VCCollection@@VLockOfWinWhileSleep@XM_Tools@@@1@XZ@4IA, al
  0002b	75 36		 jne	 SHORT $LN7@GetFactory@2
  0002d	09 05 00 00 00
	00		 or	 DWORD PTR ?$S2@?1???$GetFactory@VCCollection@@VLockOfWinWhileSleep@XM_Tools@@@XM_Tools@@YAAAV?$CObjectFactory@VCCollection@@VLockOfWinWhileSleep@XM_Tools@@@1@XZ@4IA, eax
  00033	c7 44 24 0c 00
	00 00 00	 mov	 DWORD PTR __$EHRec$[esp+24], 0
  0003b	e8 00 00 00 00	 call	 ??$GetMemManage@VLockOfWinWhileSleep@XM_Tools@@@XM_Tools@@YAAAV?$CMemManage@VLockOfWinWhileSleep@XM_Tools@@@0@XZ ; XM_Tools::GetMemManage<XM_Tools::LockOfWinWhileSleep>
  00040	a3 00 00 00 00	 mov	 DWORD PTR ?c_ObjectFactory@?1???$GetFactory@VCCollection@@VLockOfWinWhileSleep@XM_Tools@@@XM_Tools@@YAAAV?$CObjectFactory@VCCollection@@VLockOfWinWhileSleep@XM_Tools@@@1@XZ@4V21@A, eax
  00045	e8 00 00 00 00	 call	 ?GetObjInfoManage@XM_Tools@@YAAAVCObjInfoManage@1@XZ ; XM_Tools::GetObjInfoManage
  0004a	8b c8		 mov	 ecx, eax
  0004c	e8 00 00 00 00	 call	 ?GetNewRTID@CObjInfoManage@XM_Tools@@QAEKXZ ; XM_Tools::CObjInfoManage::GetNewRTID
  00051	68 00 00 00 00	 push	 OFFSET ??__Fc_ObjectFactory@?1???$GetFactory@VCCollection@@VLockOfWinWhileSleep@XM_Tools@@@XM_Tools@@YAAAV?$CObjectFactory@VCCollection@@VLockOfWinWhileSleep@XM_Tools@@@0@XZ@YAXXZ ; `XM_Tools::GetFactory<CCollection,XM_Tools::LockOfWinWhileSleep>'::`2'::`dynamic atexit destructor for 'c_ObjectFactory''
  00056	a3 04 00 00 00	 mov	 DWORD PTR ?c_ObjectFactory@?1???$GetFactory@VCCollection@@VLockOfWinWhileSleep@XM_Tools@@@XM_Tools@@YAAAV?$CObjectFactory@VCCollection@@VLockOfWinWhileSleep@XM_Tools@@@1@XZ@4V21@A+4, eax
  0005b	e8 00 00 00 00	 call	 _atexit
  00060	83 c4 04	 add	 esp, 4
$LN7@GetFactory@2:

; 222  : 		return c_ObjectFactory;

  00063	b8 00 00 00 00	 mov	 eax, OFFSET ?c_ObjectFactory@?1???$GetFactory@VCCollection@@VLockOfWinWhileSleep@XM_Tools@@@XM_Tools@@YAAAV?$CObjectFactory@VCCollection@@VLockOfWinWhileSleep@XM_Tools@@@1@XZ@4V21@A

; 223  : 	}

  00068	8b 4c 24 04	 mov	 ecx, DWORD PTR __$EHRec$[esp+16]
  0006c	64 89 0d 00 00
	00 00		 mov	 DWORD PTR fs:0, ecx
  00073	59		 pop	 ecx
  00074	83 c4 0c	 add	 esp, 12			; 0000000cH
  00077	c3		 ret	 0
_TEXT	ENDS
;	COMDAT text$x
text$x	SEGMENT
__unwindfunclet$??$GetFactory@VCCollection@@VLockOfWinWhileSleep@XM_Tools@@@XM_Tools@@YAAAV?$CObjectFactory@VCCollection@@VLockOfWinWhileSleep@XM_Tools@@@0@XZ$0:
  00000	a1 00 00 00 00	 mov	 eax, DWORD PTR ?$S2@?1???$GetFactory@VCCollection@@VLockOfWinWhileSleep@XM_Tools@@@XM_Tools@@YAAAV?$CObjectFactory@VCCollection@@VLockOfWinWhileSleep@XM_Tools@@@1@XZ@4IA
  00005	83 e0 fe	 and	 eax, -2			; fffffffeH
  00008	a3 00 00 00 00	 mov	 DWORD PTR ?$S2@?1???$GetFactory@VCCollection@@VLockOfWinWhileSleep@XM_Tools@@@XM_Tools@@YAAAV?$CObjectFactory@VCCollection@@VLockOfWinWhileSleep@XM_Tools@@@1@XZ@4IA, eax
  0000d	c3		 ret	 0
__ehhandler$??$GetFactory@VCCollection@@VLockOfWinWhileSleep@XM_Tools@@@XM_Tools@@YAAAV?$CObjectFactory@VCCollection@@VLockOfWinWhileSleep@XM_Tools@@@0@XZ:
  0000e	8b 54 24 08	 mov	 edx, DWORD PTR [esp+8]
  00012	8d 02		 lea	 eax, DWORD PTR [edx]
  00014	8b 4a fc	 mov	 ecx, DWORD PTR [edx-4]
  00017	33 c8		 xor	 ecx, eax
  00019	e8 00 00 00 00	 call	 @__security_check_cookie@4
  0001e	b8 00 00 00 00	 mov	 eax, OFFSET __ehfuncinfo$??$GetFactory@VCCollection@@VLockOfWinWhileSleep@XM_Tools@@@XM_Tools@@YAAAV?$CObjectFactory@VCCollection@@VLockOfWinWhileSleep@XM_Tools@@@0@XZ
  00023	e9 00 00 00 00	 jmp	 ___CxxFrameHandler3
text$x	ENDS
??$GetFactory@VCCollection@@VLockOfWinWhileSleep@XM_Tools@@@XM_Tools@@YAAAV?$CObjectFactory@VCCollection@@VLockOfWinWhileSleep@XM_Tools@@@0@XZ ENDP ; XM_Tools::GetFactory<CCollection,XM_Tools::LockOfWinWhileSleep>
PUBLIC	?CreateObj@?$CObjectFactory@VCCollection@@VLockOfWinWhileSleep@XM_Tools@@@XM_Tools@@QAEPAVCCollection@@XZ ; XM_Tools::CObjectFactory<CCollection,XM_Tools::LockOfWinWhileSleep>::CreateObj
EXTRN	??0CCollection@@QAE@XZ:PROC			; CCollection::CCollection
;	COMDAT xdata$x
; File d:\program files\microsoft visual studio 8\vc\include\new
xdata$x	SEGMENT
__unwindtable$?CreateObj@?$CObjectFactory@VCCollection@@VLockOfWinWhileSleep@XM_Tools@@@XM_Tools@@QAEPAVCCollection@@XZ DD 0ffffffffH
	DD	FLAT:__unwindfunclet$?CreateObj@?$CObjectFactory@VCCollection@@VLockOfWinWhileSleep@XM_Tools@@@XM_Tools@@QAEPAVCCollection@@XZ$0
__ehfuncinfo$?CreateObj@?$CObjectFactory@VCCollection@@VLockOfWinWhileSleep@XM_Tools@@@XM_Tools@@QAEPAVCCollection@@XZ DD 019930522H
	DD	01H
	DD	FLAT:__unwindtable$?CreateObj@?$CObjectFactory@VCCollection@@VLockOfWinWhileSleep@XM_Tools@@@XM_Tools@@QAEPAVCCollection@@XZ
	DD	2 DUP(00H)
	DD	2 DUP(00H)
	DD	00H
	DD	01H
; Function compile flags: /Ogtpy
; File d:\project_p6\trunk\public\memmanage\cpp\objectfactory.tcc
xdata$x	ENDS
;	COMDAT ?CreateObj@?$CObjectFactory@VCCollection@@VLockOfWinWhileSleep@XM_Tools@@@XM_Tools@@QAEPAVCCollection@@XZ
_TEXT	SEGMENT
_pObj$ = -20						; size = 4
$T304007 = -16						; size = 4
__$EHRec$ = -12						; size = 12
?CreateObj@?$CObjectFactory@VCCollection@@VLockOfWinWhileSleep@XM_Tools@@@XM_Tools@@QAEPAVCCollection@@XZ PROC ; XM_Tools::CObjectFactory<CCollection,XM_Tools::LockOfWinWhileSleep>::CreateObj, COMDAT
; _this$ = ecx

; 135  : 	{

  00000	6a ff		 push	 -1
  00002	68 00 00 00 00	 push	 __ehhandler$?CreateObj@?$CObjectFactory@VCCollection@@VLockOfWinWhileSleep@XM_Tools@@@XM_Tools@@QAEPAVCCollection@@XZ
  00007	64 a1 00 00 00
	00		 mov	 eax, DWORD PTR fs:0
  0000d	50		 push	 eax
  0000e	83 ec 08	 sub	 esp, 8
  00011	56		 push	 esi
  00012	a1 00 00 00 00	 mov	 eax, DWORD PTR ___security_cookie
  00017	33 c4		 xor	 eax, esp
  00019	50		 push	 eax
  0001a	8d 44 24 10	 lea	 eax, DWORD PTR __$EHRec$[esp+28]
  0001e	64 a3 00 00 00
	00		 mov	 DWORD PTR fs:0, eax

; 136  : 		unsigned long AllocSize = sizeof(unsigned long) + sizeof(_TObject);
; 137  : 		unsigned long *pMem = (unsigned long*)GetMemManage<_TLock>().AsyncAlloc(AllocSize);

  00024	68 c4 03 00 00	 push	 964			; 000003c4H
  00029	e8 00 00 00 00	 call	 ??$GetMemManage@VLockOfWinWhileSleep@XM_Tools@@@XM_Tools@@YAAAV?$CMemManage@VLockOfWinWhileSleep@XM_Tools@@@0@XZ ; XM_Tools::GetMemManage<XM_Tools::LockOfWinWhileSleep>
  0002e	8b c8		 mov	 ecx, eax
  00030	e8 00 00 00 00	 call	 ?AsyncAlloc@?$CMemManage@VLockOfWinWhileSleep@XM_Tools@@@XM_Tools@@QAEPAXK@Z ; XM_Tools::CMemManage<XM_Tools::LockOfWinWhileSleep>::AsyncAlloc

; 138  : 		if(NULL == pMem)

  00035	85 c0		 test	 eax, eax
  00037	75 11		 jne	 SHORT $LN1@CreateObj@2

; 145  : 	}

  00039	8b 4c 24 10	 mov	 ecx, DWORD PTR __$EHRec$[esp+28]
  0003d	64 89 0d 00 00
	00 00		 mov	 DWORD PTR fs:0, ecx
  00044	59		 pop	 ecx
  00045	5e		 pop	 esi
  00046	83 c4 14	 add	 esp, 20			; 00000014H
  00049	c3		 ret	 0
$LN1@CreateObj@2:

; 139  : 			return NULL;
; 140  : 		
; 141  : 		pMem[0] = AllocSize;
; 142  : 		_TObject *pObj = (_TObject*)(pMem + 1);

  0004a	8d 70 04	 lea	 esi, DWORD PTR [eax+4]
  0004d	c7 00 c4 03 00
	00		 mov	 DWORD PTR [eax], 964	; 000003c4H
  00053	89 74 24 08	 mov	 DWORD PTR _pObj$[esp+28], esi

; 143  : 		new(pObj)_TObject();

  00057	89 74 24 0c	 mov	 DWORD PTR $T304007[esp+28], esi
  0005b	85 f6		 test	 esi, esi
  0005d	c7 44 24 18 00
	00 00 00	 mov	 DWORD PTR __$EHRec$[esp+36], 0
  00065	74 07		 je	 SHORT $LN4@CreateObj@2
  00067	8b ce		 mov	 ecx, esi
  00069	e8 00 00 00 00	 call	 ??0CCollection@@QAE@XZ	; CCollection::CCollection
$LN4@CreateObj@2:

; 144  : 		return pObj;

  0006e	8b c6		 mov	 eax, esi

; 145  : 	}

  00070	8b 4c 24 10	 mov	 ecx, DWORD PTR __$EHRec$[esp+28]
  00074	64 89 0d 00 00
	00 00		 mov	 DWORD PTR fs:0, ecx
  0007b	59		 pop	 ecx
  0007c	5e		 pop	 esi
  0007d	83 c4 14	 add	 esp, 20			; 00000014H
  00080	c3		 ret	 0
_TEXT	ENDS
;	COMDAT text$x
text$x	SEGMENT
__unwindfunclet$?CreateObj@?$CObjectFactory@VCCollection@@VLockOfWinWhileSleep@XM_Tools@@@XM_Tools@@QAEPAVCCollection@@XZ$0:
  00000	8b 45 ec	 mov	 eax, DWORD PTR _pObj$[ebp]
  00003	50		 push	 eax
  00004	8b 4d f0	 mov	 ecx, DWORD PTR $T304007[ebp]
  00007	51		 push	 ecx
  00008	e8 00 00 00 00	 call	 ??3@YAXPAX0@Z		; operator delete
  0000d	83 c4 08	 add	 esp, 8
  00010	c3		 ret	 0
__ehhandler$?CreateObj@?$CObjectFactory@VCCollection@@VLockOfWinWhileSleep@XM_Tools@@@XM_Tools@@QAEPAVCCollection@@XZ:
  00011	8b 54 24 08	 mov	 edx, DWORD PTR [esp+8]
  00015	8d 42 f4	 lea	 eax, DWORD PTR [edx-12]
  00018	8b 4a f0	 mov	 ecx, DWORD PTR [edx-16]
  0001b	33 c8		 xor	 ecx, eax
  0001d	e8 00 00 00 00	 call	 @__security_check_cookie@4
  00022	b8 00 00 00 00	 mov	 eax, OFFSET __ehfuncinfo$?CreateObj@?$CObjectFactory@VCCollection@@VLockOfWinWhileSleep@XM_Tools@@@XM_Tools@@QAEPAVCCollection@@XZ
  00027	e9 00 00 00 00	 jmp	 ___CxxFrameHandler3
text$x	ENDS
?CreateObj@?$CObjectFactory@VCCollection@@VLockOfWinWhileSleep@XM_Tools@@@XM_Tools@@QAEPAVCCollection@@XZ ENDP ; XM_Tools::CObjectFactory<CCollection,XM_Tools::LockOfWinWhileSleep>::CreateObj
PUBLIC	?ReleaseObj@?$CObjectFactory@VCCollection@@VLockOfWinWhileSleep@XM_Tools@@@XM_Tools@@QAEXPAVCCollection@@@Z ; XM_Tools::CObjectFactory<CCollection,XM_Tools::LockOfWinWhileSleep>::ReleaseObj
; Function compile flags: /Ogtpy
;	COMDAT ?ReleaseObj@?$CObjectFactory@VCCollection@@VLockOfWinWhileSleep@XM_Tools@@@XM_Tools@@QAEXPAVCCollection@@@Z
_TEXT	SEGMENT
_pObj$ = 8						; size = 4
?ReleaseObj@?$CObjectFactory@VCCollection@@VLockOfWinWhileSleep@XM_Tools@@@XM_Tools@@QAEXPAVCCollection@@@Z PROC ; XM_Tools::CObjectFactory<CCollection,XM_Tools::LockOfWinWhileSleep>::ReleaseObj, COMDAT
; _this$ = ecx

; 165  : 	{

  00000	56		 push	 esi

; 166  : 		//MM_ASSERY(NULL != pObj);
; 167  : 		if(NULL == pObj)

  00001	8b 74 24 08	 mov	 esi, DWORD PTR _pObj$[esp]
  00005	85 f6		 test	 esi, esi
  00007	74 1f		 je	 SHORT $LN2@ReleaseObj@2

; 168  : 			return;
; 169  : 		pObj->~_TObject();

  00009	8b 06		 mov	 eax, DWORD PTR [esi]
  0000b	8b 50 10	 mov	 edx, DWORD PTR [eax+16]
  0000e	6a 00		 push	 0
  00010	8b ce		 mov	 ecx, esi
  00012	ff d2		 call	 edx

; 170  : 		unsigned long *pMem = (unsigned long*)pObj;
; 171  : 		--pMem;
; 172  : 		GetMemManage<_TLock>().AsyncFree(pMem, pMem[0]);

  00014	8b 4e fc	 mov	 ecx, DWORD PTR [esi-4]
  00017	8d 46 fc	 lea	 eax, DWORD PTR [esi-4]
  0001a	51		 push	 ecx
  0001b	50		 push	 eax
  0001c	e8 00 00 00 00	 call	 ??$GetMemManage@VLockOfWinWhileSleep@XM_Tools@@@XM_Tools@@YAAAV?$CMemManage@VLockOfWinWhileSleep@XM_Tools@@@0@XZ ; XM_Tools::GetMemManage<XM_Tools::LockOfWinWhileSleep>
  00021	8b c8		 mov	 ecx, eax
  00023	e8 00 00 00 00	 call	 ?AsyncFree@?$CMemManage@VLockOfWinWhileSleep@XM_Tools@@@XM_Tools@@QAEXPAXK@Z ; XM_Tools::CMemManage<XM_Tools::LockOfWinWhileSleep>::AsyncFree
$LN2@ReleaseObj@2:
  00028	5e		 pop	 esi

; 173  : 	}

  00029	c2 04 00	 ret	 4
?ReleaseObj@?$CObjectFactory@VCCollection@@VLockOfWinWhileSleep@XM_Tools@@@XM_Tools@@QAEXPAVCCollection@@@Z ENDP ; XM_Tools::CObjectFactory<CCollection,XM_Tools::LockOfWinWhileSleep>::ReleaseObj
_TEXT	ENDS
PUBLIC	??$GetFactory@VCMonster@@VLockOfWinWhileSleep@XM_Tools@@@XM_Tools@@YAAAV?$CObjectFactory@VCMonster@@VLockOfWinWhileSleep@XM_Tools@@@0@XZ ; XM_Tools::GetFactory<CMonster,XM_Tools::LockOfWinWhileSleep>
;	COMDAT ?c_ObjectFactory@?1???$GetFactory@VCMonster@@VLockOfWinWhileSleep@XM_Tools@@@XM_Tools@@YAAAV?$CObjectFactory@VCMonster@@VLockOfWinWhileSleep@XM_Tools@@@1@XZ@4V21@A
_BSS	SEGMENT
?c_ObjectFactory@?1???$GetFactory@VCMonster@@VLockOfWinWhileSleep@XM_Tools@@@XM_Tools@@YAAAV?$CObjectFactory@VCMonster@@VLockOfWinWhileSleep@XM_Tools@@@1@XZ@4V21@A DQ 01H DUP (?) ; `XM_Tools::GetFactory<CMonster,XM_Tools::LockOfWinWhileSleep>'::`2'::c_ObjectFactory
_BSS	ENDS
;	COMDAT ?$S3@?1???$GetFactory@VCMonster@@VLockOfWinWhileSleep@XM_Tools@@@XM_Tools@@YAAAV?$CObjectFactory@VCMonster@@VLockOfWinWhileSleep@XM_Tools@@@1@XZ@4IA
_BSS	SEGMENT
?$S3@?1???$GetFactory@VCMonster@@VLockOfWinWhileSleep@XM_Tools@@@XM_Tools@@YAAAV?$CObjectFactory@VCMonster@@VLockOfWinWhileSleep@XM_Tools@@@1@XZ@4IA DD 01H DUP (?) ; `XM_Tools::GetFactory<CMonster,XM_Tools::LockOfWinWhileSleep>'::`2'::$S3
_BSS	ENDS
;	COMDAT xdata$x
xdata$x	SEGMENT
__unwindtable$??$GetFactory@VCMonster@@VLockOfWinWhileSleep@XM_Tools@@@XM_Tools@@YAAAV?$CObjectFactory@VCMonster@@VLockOfWinWhileSleep@XM_Tools@@@0@XZ DD 0ffffffffH
	DD	FLAT:__unwindfunclet$??$GetFactory@VCMonster@@VLockOfWinWhileSleep@XM_Tools@@@XM_Tools@@YAAAV?$CObjectFactory@VCMonster@@VLockOfWinWhileSleep@XM_Tools@@@0@XZ$0
__ehfuncinfo$??$GetFactory@VCMonster@@VLockOfWinWhileSleep@XM_Tools@@@XM_Tools@@YAAAV?$CObjectFactory@VCMonster@@VLockOfWinWhileSleep@XM_Tools@@@0@XZ DD 019930522H
	DD	01H
	DD	FLAT:__unwindtable$??$GetFactory@VCMonster@@VLockOfWinWhileSleep@XM_Tools@@@XM_Tools@@YAAAV?$CObjectFactory@VCMonster@@VLockOfWinWhileSleep@XM_Tools@@@0@XZ
	DD	2 DUP(00H)
	DD	2 DUP(00H)
	DD	00H
	DD	01H
; Function compile flags: /Ogtpy
xdata$x	ENDS
;	COMDAT ??$GetFactory@VCMonster@@VLockOfWinWhileSleep@XM_Tools@@@XM_Tools@@YAAAV?$CObjectFactory@VCMonster@@VLockOfWinWhileSleep@XM_Tools@@@0@XZ
_TEXT	SEGMENT
__$EHRec$ = -12						; size = 12
??$GetFactory@VCMonster@@VLockOfWinWhileSleep@XM_Tools@@@XM_Tools@@YAAAV?$CObjectFactory@VCMonster@@VLockOfWinWhileSleep@XM_Tools@@@0@XZ PROC ; XM_Tools::GetFactory<CMonster,XM_Tools::LockOfWinWhileSleep>, COMDAT

; 220  : 	{

  00000	6a ff		 push	 -1
  00002	68 00 00 00 00	 push	 __ehhandler$??$GetFactory@VCMonster@@VLockOfWinWhileSleep@XM_Tools@@@XM_Tools@@YAAAV?$CObjectFactory@VCMonster@@VLockOfWinWhileSleep@XM_Tools@@@0@XZ
  00007	64 a1 00 00 00
	00		 mov	 eax, DWORD PTR fs:0
  0000d	50		 push	 eax
  0000e	a1 00 00 00 00	 mov	 eax, DWORD PTR ___security_cookie
  00013	33 c4		 xor	 eax, esp
  00015	50		 push	 eax
  00016	8d 44 24 04	 lea	 eax, DWORD PTR __$EHRec$[esp+16]
  0001a	64 a3 00 00 00
	00		 mov	 DWORD PTR fs:0, eax

; 221  : 		static CObjectFactory<_TObject, _TLock> c_ObjectFactory(GetMemManage<_TLock>());

  00020	b8 01 00 00 00	 mov	 eax, 1
  00025	84 05 00 00 00
	00		 test	 BYTE PTR ?$S3@?1???$GetFactory@VCMonster@@VLockOfWinWhileSleep@XM_Tools@@@XM_Tools@@YAAAV?$CObjectFactory@VCMonster@@VLockOfWinWhileSleep@XM_Tools@@@1@XZ@4IA, al
  0002b	75 36		 jne	 SHORT $LN7@GetFactory@3
  0002d	09 05 00 00 00
	00		 or	 DWORD PTR ?$S3@?1???$GetFactory@VCMonster@@VLockOfWinWhileSleep@XM_Tools@@@XM_Tools@@YAAAV?$CObjectFactory@VCMonster@@VLockOfWinWhileSleep@XM_Tools@@@1@XZ@4IA, eax
  00033	c7 44 24 0c 00
	00 00 00	 mov	 DWORD PTR __$EHRec$[esp+24], 0
  0003b	e8 00 00 00 00	 call	 ??$GetMemManage@VLockOfWinWhileSleep@XM_Tools@@@XM_Tools@@YAAAV?$CMemManage@VLockOfWinWhileSleep@XM_Tools@@@0@XZ ; XM_Tools::GetMemManage<XM_Tools::LockOfWinWhileSleep>
  00040	a3 00 00 00 00	 mov	 DWORD PTR ?c_ObjectFactory@?1???$GetFactory@VCMonster@@VLockOfWinWhileSleep@XM_Tools@@@XM_Tools@@YAAAV?$CObjectFactory@VCMonster@@VLockOfWinWhileSleep@XM_Tools@@@1@XZ@4V21@A, eax
  00045	e8 00 00 00 00	 call	 ?GetObjInfoManage@XM_Tools@@YAAAVCObjInfoManage@1@XZ ; XM_Tools::GetObjInfoManage
  0004a	8b c8		 mov	 ecx, eax
  0004c	e8 00 00 00 00	 call	 ?GetNewRTID@CObjInfoManage@XM_Tools@@QAEKXZ ; XM_Tools::CObjInfoManage::GetNewRTID
  00051	68 00 00 00 00	 push	 OFFSET ??__Fc_ObjectFactory@?1???$GetFactory@VCMonster@@VLockOfWinWhileSleep@XM_Tools@@@XM_Tools@@YAAAV?$CObjectFactory@VCMonster@@VLockOfWinWhileSleep@XM_Tools@@@0@XZ@YAXXZ ; `XM_Tools::GetFactory<CMonster,XM_Tools::LockOfWinWhileSleep>'::`2'::`dynamic atexit destructor for 'c_ObjectFactory''
  00056	a3 04 00 00 00	 mov	 DWORD PTR ?c_ObjectFactory@?1???$GetFactory@VCMonster@@VLockOfWinWhileSleep@XM_Tools@@@XM_Tools@@YAAAV?$CObjectFactory@VCMonster@@VLockOfWinWhileSleep@XM_Tools@@@1@XZ@4V21@A+4, eax
  0005b	e8 00 00 00 00	 call	 _atexit
  00060	83 c4 04	 add	 esp, 4
$LN7@GetFactory@3:

; 222  : 		return c_ObjectFactory;

  00063	b8 00 00 00 00	 mov	 eax, OFFSET ?c_ObjectFactory@?1???$GetFactory@VCMonster@@VLockOfWinWhileSleep@XM_Tools@@@XM_Tools@@YAAAV?$CObjectFactory@VCMonster@@VLockOfWinWhileSleep@XM_Tools@@@1@XZ@4V21@A

; 223  : 	}

  00068	8b 4c 24 04	 mov	 ecx, DWORD PTR __$EHRec$[esp+16]
  0006c	64 89 0d 00 00
	00 00		 mov	 DWORD PTR fs:0, ecx
  00073	59		 pop	 ecx
  00074	83 c4 0c	 add	 esp, 12			; 0000000cH
  00077	c3		 ret	 0
_TEXT	ENDS
;	COMDAT text$x
text$x	SEGMENT
__unwindfunclet$??$GetFactory@VCMonster@@VLockOfWinWhileSleep@XM_Tools@@@XM_Tools@@YAAAV?$CObjectFactory@VCMonster@@VLockOfWinWhileSleep@XM_Tools@@@0@XZ$0:
  00000	a1 00 00 00 00	 mov	 eax, DWORD PTR ?$S3@?1???$GetFactory@VCMonster@@VLockOfWinWhileSleep@XM_Tools@@@XM_Tools@@YAAAV?$CObjectFactory@VCMonster@@VLockOfWinWhileSleep@XM_Tools@@@1@XZ@4IA
  00005	83 e0 fe	 and	 eax, -2			; fffffffeH
  00008	a3 00 00 00 00	 mov	 DWORD PTR ?$S3@?1???$GetFactory@VCMonster@@VLockOfWinWhileSleep@XM_Tools@@@XM_Tools@@YAAAV?$CObjectFactory@VCMonster@@VLockOfWinWhileSleep@XM_Tools@@@1@XZ@4IA, eax
  0000d	c3		 ret	 0
__ehhandler$??$GetFactory@VCMonster@@VLockOfWinWhileSleep@XM_Tools@@@XM_Tools@@YAAAV?$CObjectFactory@VCMonster@@VLockOfWinWhileSleep@XM_Tools@@@0@XZ:
  0000e	8b 54 24 08	 mov	 edx, DWORD PTR [esp+8]
  00012	8d 02		 lea	 eax, DWORD PTR [edx]
  00014	8b 4a fc	 mov	 ecx, DWORD PTR [edx-4]
  00017	33 c8		 xor	 ecx, eax
  00019	e8 00 00 00 00	 call	 @__security_check_cookie@4
  0001e	b8 00 00 00 00	 mov	 eax, OFFSET __ehfuncinfo$??$GetFactory@VCMonster@@VLockOfWinWhileSleep@XM_Tools@@@XM_Tools@@YAAAV?$CObjectFactory@VCMonster@@VLockOfWinWhileSleep@XM_Tools@@@0@XZ
  00023	e9 00 00 00 00	 jmp	 ___CxxFrameHandler3
text$x	ENDS
??$GetFactory@VCMonster@@VLockOfWinWhileSleep@XM_Tools@@@XM_Tools@@YAAAV?$CObjectFactory@VCMonster@@VLockOfWinWhileSleep@XM_Tools@@@0@XZ ENDP ; XM_Tools::GetFactory<CMonster,XM_Tools::LockOfWinWhileSleep>
PUBLIC	?CreateObj@?$CObjectFactory@VCMonster@@VLockOfWinWhileSleep@XM_Tools@@@XM_Tools@@QAEPAVCMonster@@XZ ; XM_Tools::CObjectFactory<CMonster,XM_Tools::LockOfWinWhileSleep>::CreateObj
EXTRN	??0CMonster@@QAE@XZ:PROC			; CMonster::CMonster
;	COMDAT xdata$x
; File d:\program files\microsoft visual studio 8\vc\include\new
xdata$x	SEGMENT
__unwindtable$?CreateObj@?$CObjectFactory@VCMonster@@VLockOfWinWhileSleep@XM_Tools@@@XM_Tools@@QAEPAVCMonster@@XZ DD 0ffffffffH
	DD	FLAT:__unwindfunclet$?CreateObj@?$CObjectFactory@VCMonster@@VLockOfWinWhileSleep@XM_Tools@@@XM_Tools@@QAEPAVCMonster@@XZ$0
__ehfuncinfo$?CreateObj@?$CObjectFactory@VCMonster@@VLockOfWinWhileSleep@XM_Tools@@@XM_Tools@@QAEPAVCMonster@@XZ DD 019930522H
	DD	01H
	DD	FLAT:__unwindtable$?CreateObj@?$CObjectFactory@VCMonster@@VLockOfWinWhileSleep@XM_Tools@@@XM_Tools@@QAEPAVCMonster@@XZ
	DD	2 DUP(00H)
	DD	2 DUP(00H)
	DD	00H
	DD	01H
; Function compile flags: /Ogtpy
; File d:\project_p6\trunk\public\memmanage\cpp\objectfactory.tcc
xdata$x	ENDS
;	COMDAT ?CreateObj@?$CObjectFactory@VCMonster@@VLockOfWinWhileSleep@XM_Tools@@@XM_Tools@@QAEPAVCMonster@@XZ
_TEXT	SEGMENT
_pObj$ = -20						; size = 4
$T304042 = -16						; size = 4
__$EHRec$ = -12						; size = 12
?CreateObj@?$CObjectFactory@VCMonster@@VLockOfWinWhileSleep@XM_Tools@@@XM_Tools@@QAEPAVCMonster@@XZ PROC ; XM_Tools::CObjectFactory<CMonster,XM_Tools::LockOfWinWhileSleep>::CreateObj, COMDAT
; _this$ = ecx

; 135  : 	{

  00000	6a ff		 push	 -1
  00002	68 00 00 00 00	 push	 __ehhandler$?CreateObj@?$CObjectFactory@VCMonster@@VLockOfWinWhileSleep@XM_Tools@@@XM_Tools@@QAEPAVCMonster@@XZ
  00007	64 a1 00 00 00
	00		 mov	 eax, DWORD PTR fs:0
  0000d	50		 push	 eax
  0000e	83 ec 08	 sub	 esp, 8
  00011	56		 push	 esi
  00012	a1 00 00 00 00	 mov	 eax, DWORD PTR ___security_cookie
  00017	33 c4		 xor	 eax, esp
  00019	50		 push	 eax
  0001a	8d 44 24 10	 lea	 eax, DWORD PTR __$EHRec$[esp+28]
  0001e	64 a3 00 00 00
	00		 mov	 DWORD PTR fs:0, eax

; 136  : 		unsigned long AllocSize = sizeof(unsigned long) + sizeof(_TObject);
; 137  : 		unsigned long *pMem = (unsigned long*)GetMemManage<_TLock>().AsyncAlloc(AllocSize);

  00024	68 6c 07 00 00	 push	 1900			; 0000076cH
  00029	e8 00 00 00 00	 call	 ??$GetMemManage@VLockOfWinWhileSleep@XM_Tools@@@XM_Tools@@YAAAV?$CMemManage@VLockOfWinWhileSleep@XM_Tools@@@0@XZ ; XM_Tools::GetMemManage<XM_Tools::LockOfWinWhileSleep>
  0002e	8b c8		 mov	 ecx, eax
  00030	e8 00 00 00 00	 call	 ?AsyncAlloc@?$CMemManage@VLockOfWinWhileSleep@XM_Tools@@@XM_Tools@@QAEPAXK@Z ; XM_Tools::CMemManage<XM_Tools::LockOfWinWhileSleep>::AsyncAlloc

; 138  : 		if(NULL == pMem)

  00035	85 c0		 test	 eax, eax
  00037	75 11		 jne	 SHORT $LN1@CreateObj@3

; 145  : 	}

  00039	8b 4c 24 10	 mov	 ecx, DWORD PTR __$EHRec$[esp+28]
  0003d	64 89 0d 00 00
	00 00		 mov	 DWORD PTR fs:0, ecx
  00044	59		 pop	 ecx
  00045	5e		 pop	 esi
  00046	83 c4 14	 add	 esp, 20			; 00000014H
  00049	c3		 ret	 0
$LN1@CreateObj@3:

; 139  : 			return NULL;
; 140  : 		
; 141  : 		pMem[0] = AllocSize;
; 142  : 		_TObject *pObj = (_TObject*)(pMem + 1);

  0004a	8d 70 04	 lea	 esi, DWORD PTR [eax+4]
  0004d	c7 00 6c 07 00
	00		 mov	 DWORD PTR [eax], 1900	; 0000076cH
  00053	89 74 24 08	 mov	 DWORD PTR _pObj$[esp+28], esi

; 143  : 		new(pObj)_TObject();

  00057	89 74 24 0c	 mov	 DWORD PTR $T304042[esp+28], esi
  0005b	85 f6		 test	 esi, esi
  0005d	c7 44 24 18 00
	00 00 00	 mov	 DWORD PTR __$EHRec$[esp+36], 0
  00065	74 07		 je	 SHORT $LN4@CreateObj@3
  00067	8b ce		 mov	 ecx, esi
  00069	e8 00 00 00 00	 call	 ??0CMonster@@QAE@XZ	; CMonster::CMonster
$LN4@CreateObj@3:

; 144  : 		return pObj;

  0006e	8b c6		 mov	 eax, esi

; 145  : 	}

  00070	8b 4c 24 10	 mov	 ecx, DWORD PTR __$EHRec$[esp+28]
  00074	64 89 0d 00 00
	00 00		 mov	 DWORD PTR fs:0, ecx
  0007b	59		 pop	 ecx
  0007c	5e		 pop	 esi
  0007d	83 c4 14	 add	 esp, 20			; 00000014H
  00080	c3		 ret	 0
_TEXT	ENDS
;	COMDAT text$x
text$x	SEGMENT
__unwindfunclet$?CreateObj@?$CObjectFactory@VCMonster@@VLockOfWinWhileSleep@XM_Tools@@@XM_Tools@@QAEPAVCMonster@@XZ$0:
  00000	8b 45 ec	 mov	 eax, DWORD PTR _pObj$[ebp]
  00003	50		 push	 eax
  00004	8b 4d f0	 mov	 ecx, DWORD PTR $T304042[ebp]
  00007	51		 push	 ecx
  00008	e8 00 00 00 00	 call	 ??3@YAXPAX0@Z		; operator delete
  0000d	83 c4 08	 add	 esp, 8
  00010	c3		 ret	 0
__ehhandler$?CreateObj@?$CObjectFactory@VCMonster@@VLockOfWinWhileSleep@XM_Tools@@@XM_Tools@@QAEPAVCMonster@@XZ:
  00011	8b 54 24 08	 mov	 edx, DWORD PTR [esp+8]
  00015	8d 42 f4	 lea	 eax, DWORD PTR [edx-12]
  00018	8b 4a f0	 mov	 ecx, DWORD PTR [edx-16]
  0001b	33 c8		 xor	 ecx, eax
  0001d	e8 00 00 00 00	 call	 @__security_check_cookie@4
  00022	b8 00 00 00 00	 mov	 eax, OFFSET __ehfuncinfo$?CreateObj@?$CObjectFactory@VCMonster@@VLockOfWinWhileSleep@XM_Tools@@@XM_Tools@@QAEPAVCMonster@@XZ
  00027	e9 00 00 00 00	 jmp	 ___CxxFrameHandler3
text$x	ENDS
?CreateObj@?$CObjectFactory@VCMonster@@VLockOfWinWhileSleep@XM_Tools@@@XM_Tools@@QAEPAVCMonster@@XZ ENDP ; XM_Tools::CObjectFactory<CMonster,XM_Tools::LockOfWinWhileSleep>::CreateObj
PUBLIC	?ReleaseObj@?$CObjectFactory@VCMonster@@VLockOfWinWhileSleep@XM_Tools@@@XM_Tools@@QAEXPAVCMonster@@@Z ; XM_Tools::CObjectFactory<CMonster,XM_Tools::LockOfWinWhileSleep>::ReleaseObj
; Function compile flags: /Ogtpy
;	COMDAT ?ReleaseObj@?$CObjectFactory@VCMonster@@VLockOfWinWhileSleep@XM_Tools@@@XM_Tools@@QAEXPAVCMonster@@@Z
_TEXT	SEGMENT
_pObj$ = 8						; size = 4
?ReleaseObj@?$CObjectFactory@VCMonster@@VLockOfWinWhileSleep@XM_Tools@@@XM_Tools@@QAEXPAVCMonster@@@Z PROC ; XM_Tools::CObjectFactory<CMonster,XM_Tools::LockOfWinWhileSleep>::ReleaseObj, COMDAT
; _this$ = ecx

; 165  : 	{

  00000	56		 push	 esi

; 166  : 		//MM_ASSERY(NULL != pObj);
; 167  : 		if(NULL == pObj)

  00001	8b 74 24 08	 mov	 esi, DWORD PTR _pObj$[esp]
  00005	85 f6		 test	 esi, esi
  00007	74 1f		 je	 SHORT $LN2@ReleaseObj@3

; 168  : 			return;
; 169  : 		pObj->~_TObject();

  00009	8b 06		 mov	 eax, DWORD PTR [esi]
  0000b	8b 50 10	 mov	 edx, DWORD PTR [eax+16]
  0000e	6a 00		 push	 0
  00010	8b ce		 mov	 ecx, esi
  00012	ff d2		 call	 edx

; 170  : 		unsigned long *pMem = (unsigned long*)pObj;
; 171  : 		--pMem;
; 172  : 		GetMemManage<_TLock>().AsyncFree(pMem, pMem[0]);

  00014	8b 4e fc	 mov	 ecx, DWORD PTR [esi-4]
  00017	8d 46 fc	 lea	 eax, DWORD PTR [esi-4]
  0001a	51		 push	 ecx
  0001b	50		 push	 eax
  0001c	e8 00 00 00 00	 call	 ??$GetMemManage@VLockOfWinWhileSleep@XM_Tools@@@XM_Tools@@YAAAV?$CMemManage@VLockOfWinWhileSleep@XM_Tools@@@0@XZ ; XM_Tools::GetMemManage<XM_Tools::LockOfWinWhileSleep>
  00021	8b c8		 mov	 ecx, eax
  00023	e8 00 00 00 00	 call	 ?AsyncFree@?$CMemManage@VLockOfWinWhileSleep@XM_Tools@@@XM_Tools@@QAEXPAXK@Z ; XM_Tools::CMemManage<XM_Tools::LockOfWinWhileSleep>::AsyncFree
$LN2@ReleaseObj@3:
  00028	5e		 pop	 esi

; 173  : 	}

  00029	c2 04 00	 ret	 4
?ReleaseObj@?$CObjectFactory@VCMonster@@VLockOfWinWhileSleep@XM_Tools@@@XM_Tools@@QAEXPAVCMonster@@@Z ENDP ; XM_Tools::CObjectFactory<CMonster,XM_Tools::LockOfWinWhileSleep>::ReleaseObj
_TEXT	ENDS
PUBLIC	??$GetFactory@VCPlayer@@VLockOfWinWhileSleep@XM_Tools@@@XM_Tools@@YAAAV?$CObjectFactory@VCPlayer@@VLockOfWinWhileSleep@XM_Tools@@@0@XZ ; XM_Tools::GetFactory<CPlayer,XM_Tools::LockOfWinWhileSleep>
;	COMDAT ?c_ObjectFactory@?1???$GetFactory@VCPlayer@@VLockOfWinWhileSleep@XM_Tools@@@XM_Tools@@YAAAV?$CObjectFactory@VCPlayer@@VLockOfWinWhileSleep@XM_Tools@@@1@XZ@4V21@A
_BSS	SEGMENT
?c_ObjectFactory@?1???$GetFactory@VCPlayer@@VLockOfWinWhileSleep@XM_Tools@@@XM_Tools@@YAAAV?$CObjectFactory@VCPlayer@@VLockOfWinWhileSleep@XM_Tools@@@1@XZ@4V21@A DQ 01H DUP (?) ; `XM_Tools::GetFactory<CPlayer,XM_Tools::LockOfWinWhileSleep>'::`2'::c_ObjectFactory
_BSS	ENDS
;	COMDAT ?$S4@?1???$GetFactory@VCPlayer@@VLockOfWinWhileSleep@XM_Tools@@@XM_Tools@@YAAAV?$CObjectFactory@VCPlayer@@VLockOfWinWhileSleep@XM_Tools@@@1@XZ@4IA
_BSS	SEGMENT
?$S4@?1???$GetFactory@VCPlayer@@VLockOfWinWhileSleep@XM_Tools@@@XM_Tools@@YAAAV?$CObjectFactory@VCPlayer@@VLockOfWinWhileSleep@XM_Tools@@@1@XZ@4IA DD 01H DUP (?) ; `XM_Tools::GetFactory<CPlayer,XM_Tools::LockOfWinWhileSleep>'::`2'::$S4
_BSS	ENDS
;	COMDAT xdata$x
xdata$x	SEGMENT
__unwindtable$??$GetFactory@VCPlayer@@VLockOfWinWhileSleep@XM_Tools@@@XM_Tools@@YAAAV?$CObjectFactory@VCPlayer@@VLockOfWinWhileSleep@XM_Tools@@@0@XZ DD 0ffffffffH
	DD	FLAT:__unwindfunclet$??$GetFactory@VCPlayer@@VLockOfWinWhileSleep@XM_Tools@@@XM_Tools@@YAAAV?$CObjectFactory@VCPlayer@@VLockOfWinWhileSleep@XM_Tools@@@0@XZ$0
__ehfuncinfo$??$GetFactory@VCPlayer@@VLockOfWinWhileSleep@XM_Tools@@@XM_Tools@@YAAAV?$CObjectFactory@VCPlayer@@VLockOfWinWhileSleep@XM_Tools@@@0@XZ DD 019930522H
	DD	01H
	DD	FLAT:__unwindtable$??$GetFactory@VCPlayer@@VLockOfWinWhileSleep@XM_Tools@@@XM_Tools@@YAAAV?$CObjectFactory@VCPlayer@@VLockOfWinWhileSleep@XM_Tools@@@0@XZ
	DD	2 DUP(00H)
	DD	2 DUP(00H)
	DD	00H
	DD	01H
; Function compile flags: /Ogtpy
xdata$x	ENDS
;	COMDAT ??$GetFactory@VCPlayer@@VLockOfWinWhileSleep@XM_Tools@@@XM_Tools@@YAAAV?$CObjectFactory@VCPlayer@@VLockOfWinWhileSleep@XM_Tools@@@0@XZ
_TEXT	SEGMENT
__$EHRec$ = -12						; size = 12
??$GetFactory@VCPlayer@@VLockOfWinWhileSleep@XM_Tools@@@XM_Tools@@YAAAV?$CObjectFactory@VCPlayer@@VLockOfWinWhileSleep@XM_Tools@@@0@XZ PROC ; XM_Tools::GetFactory<CPlayer,XM_Tools::LockOfWinWhileSleep>, COMDAT

; 220  : 	{

  00000	6a ff		 push	 -1
  00002	68 00 00 00 00	 push	 __ehhandler$??$GetFactory@VCPlayer@@VLockOfWinWhileSleep@XM_Tools@@@XM_Tools@@YAAAV?$CObjectFactory@VCPlayer@@VLockOfWinWhileSleep@XM_Tools@@@0@XZ
  00007	64 a1 00 00 00
	00		 mov	 eax, DWORD PTR fs:0
  0000d	50		 push	 eax
  0000e	a1 00 00 00 00	 mov	 eax, DWORD PTR ___security_cookie
  00013	33 c4		 xor	 eax, esp
  00015	50		 push	 eax
  00016	8d 44 24 04	 lea	 eax, DWORD PTR __$EHRec$[esp+16]
  0001a	64 a3 00 00 00
	00		 mov	 DWORD PTR fs:0, eax

; 221  : 		static CObjectFactory<_TObject, _TLock> c_ObjectFactory(GetMemManage<_TLock>());

  00020	b8 01 00 00 00	 mov	 eax, 1
  00025	84 05 00 00 00
	00		 test	 BYTE PTR ?$S4@?1???$GetFactory@VCPlayer@@VLockOfWinWhileSleep@XM_Tools@@@XM_Tools@@YAAAV?$CObjectFactory@VCPlayer@@VLockOfWinWhileSleep@XM_Tools@@@1@XZ@4IA, al
  0002b	75 36		 jne	 SHORT $LN7@GetFactory@4
  0002d	09 05 00 00 00
	00		 or	 DWORD PTR ?$S4@?1???$GetFactory@VCPlayer@@VLockOfWinWhileSleep@XM_Tools@@@XM_Tools@@YAAAV?$CObjectFactory@VCPlayer@@VLockOfWinWhileSleep@XM_Tools@@@1@XZ@4IA, eax
  00033	c7 44 24 0c 00
	00 00 00	 mov	 DWORD PTR __$EHRec$[esp+24], 0
  0003b	e8 00 00 00 00	 call	 ??$GetMemManage@VLockOfWinWhileSleep@XM_Tools@@@XM_Tools@@YAAAV?$CMemManage@VLockOfWinWhileSleep@XM_Tools@@@0@XZ ; XM_Tools::GetMemManage<XM_Tools::LockOfWinWhileSleep>
  00040	a3 00 00 00 00	 mov	 DWORD PTR ?c_ObjectFactory@?1???$GetFactory@VCPlayer@@VLockOfWinWhileSleep@XM_Tools@@@XM_Tools@@YAAAV?$CObjectFactory@VCPlayer@@VLockOfWinWhileSleep@XM_Tools@@@1@XZ@4V21@A, eax
  00045	e8 00 00 00 00	 call	 ?GetObjInfoManage@XM_Tools@@YAAAVCObjInfoManage@1@XZ ; XM_Tools::GetObjInfoManage
  0004a	8b c8		 mov	 ecx, eax
  0004c	e8 00 00 00 00	 call	 ?GetNewRTID@CObjInfoManage@XM_Tools@@QAEKXZ ; XM_Tools::CObjInfoManage::GetNewRTID
  00051	68 00 00 00 00	 push	 OFFSET ??__Fc_ObjectFactory@?1???$GetFactory@VCPlayer@@VLockOfWinWhileSleep@XM_Tools@@@XM_Tools@@YAAAV?$CObjectFactory@VCPlayer@@VLockOfWinWhileSleep@XM_Tools@@@0@XZ@YAXXZ ; `XM_Tools::GetFactory<CPlayer,XM_Tools::LockOfWinWhileSleep>'::`2'::`dynamic atexit destructor for 'c_ObjectFactory''
  00056	a3 04 00 00 00	 mov	 DWORD PTR ?c_ObjectFactory@?1???$GetFactory@VCPlayer@@VLockOfWinWhileSleep@XM_Tools@@@XM_Tools@@YAAAV?$CObjectFactory@VCPlayer@@VLockOfWinWhileSleep@XM_Tools@@@1@XZ@4V21@A+4, eax
  0005b	e8 00 00 00 00	 call	 _atexit
  00060	83 c4 04	 add	 esp, 4
$LN7@GetFactory@4:

; 222  : 		return c_ObjectFactory;

  00063	b8 00 00 00 00	 mov	 eax, OFFSET ?c_ObjectFactory@?1???$GetFactory@VCPlayer@@VLockOfWinWhileSleep@XM_Tools@@@XM_Tools@@YAAAV?$CObjectFactory@VCPlayer@@VLockOfWinWhileSleep@XM_Tools@@@1@XZ@4V21@A

; 223  : 	}

  00068	8b 4c 24 04	 mov	 ecx, DWORD PTR __$EHRec$[esp+16]
  0006c	64 89 0d 00 00
	00 00		 mov	 DWORD PTR fs:0, ecx
  00073	59		 pop	 ecx
  00074	83 c4 0c	 add	 esp, 12			; 0000000cH
  00077	c3		 ret	 0
_TEXT	ENDS
;	COMDAT text$x
text$x	SEGMENT
__unwindfunclet$??$GetFactory@VCPlayer@@VLockOfWinWhileSleep@XM_Tools@@@XM_Tools@@YAAAV?$CObjectFactory@VCPlayer@@VLockOfWinWhileSleep@XM_Tools@@@0@XZ$0:
  00000	a1 00 00 00 00	 mov	 eax, DWORD PTR ?$S4@?1???$GetFactory@VCPlayer@@VLockOfWinWhileSleep@XM_Tools@@@XM_Tools@@YAAAV?$CObjectFactory@VCPlayer@@VLockOfWinWhileSleep@XM_Tools@@@1@XZ@4IA
  00005	83 e0 fe	 and	 eax, -2			; fffffffeH
  00008	a3 00 00 00 00	 mov	 DWORD PTR ?$S4@?1???$GetFactory@VCPlayer@@VLockOfWinWhileSleep@XM_Tools@@@XM_Tools@@YAAAV?$CObjectFactory@VCPlayer@@VLockOfWinWhileSleep@XM_Tools@@@1@XZ@4IA, eax
  0000d	c3		 ret	 0
__ehhandler$??$GetFactory@VCPlayer@@VLockOfWinWhileSleep@XM_Tools@@@XM_Tools@@YAAAV?$CObjectFactory@VCPlayer@@VLockOfWinWhileSleep@XM_Tools@@@0@XZ:
  0000e	8b 54 24 08	 mov	 edx, DWORD PTR [esp+8]
  00012	8d 02		 lea	 eax, DWORD PTR [edx]
  00014	8b 4a fc	 mov	 ecx, DWORD PTR [edx-4]
  00017	33 c8		 xor	 ecx, eax
  00019	e8 00 00 00 00	 call	 @__security_check_cookie@4
  0001e	b8 00 00 00 00	 mov	 eax, OFFSET __ehfuncinfo$??$GetFactory@VCPlayer@@VLockOfWinWhileSleep@XM_Tools@@@XM_Tools@@YAAAV?$CObjectFactory@VCPlayer@@VLockOfWinWhileSleep@XM_Tools@@@0@XZ
  00023	e9 00 00 00 00	 jmp	 ___CxxFrameHandler3
text$x	ENDS
??$GetFactory@VCPlayer@@VLockOfWinWhileSleep@XM_Tools@@@XM_Tools@@YAAAV?$CObjectFactory@VCPlayer@@VLockOfWinWhileSleep@XM_Tools@@@0@XZ ENDP ; XM_Tools::GetFactory<CPlayer,XM_Tools::LockOfWinWhileSleep>
PUBLIC	?CreateObj@?$CObjectFactory@VCPlayer@@VLockOfWinWhileSleep@XM_Tools@@@XM_Tools@@QAEPAVCPlayer@@XZ ; XM_Tools::CObjectFactory<CPlayer,XM_Tools::LockOfWinWhileSleep>::CreateObj
EXTRN	??0CPlayer@@QAE@XZ:PROC				; CPlayer::CPlayer
;	COMDAT xdata$x
; File d:\program files\microsoft visual studio 8\vc\include\new
xdata$x	SEGMENT
__unwindtable$?CreateObj@?$CObjectFactory@VCPlayer@@VLockOfWinWhileSleep@XM_Tools@@@XM_Tools@@QAEPAVCPlayer@@XZ DD 0ffffffffH
	DD	FLAT:__unwindfunclet$?CreateObj@?$CObjectFactory@VCPlayer@@VLockOfWinWhileSleep@XM_Tools@@@XM_Tools@@QAEPAVCPlayer@@XZ$0
__ehfuncinfo$?CreateObj@?$CObjectFactory@VCPlayer@@VLockOfWinWhileSleep@XM_Tools@@@XM_Tools@@QAEPAVCPlayer@@XZ DD 019930522H
	DD	01H
	DD	FLAT:__unwindtable$?CreateObj@?$CObjectFactory@VCPlayer@@VLockOfWinWhileSleep@XM_Tools@@@XM_Tools@@QAEPAVCPlayer@@XZ
	DD	2 DUP(00H)
	DD	2 DUP(00H)
	DD	00H
	DD	01H
; Function compile flags: /Ogtpy
; File d:\project_p6\trunk\public\memmanage\cpp\objectfactory.tcc
xdata$x	ENDS
;	COMDAT ?CreateObj@?$CObjectFactory@VCPlayer@@VLockOfWinWhileSleep@XM_Tools@@@XM_Tools@@QAEPAVCPlayer@@XZ
_TEXT	SEGMENT
_pObj$ = -20						; size = 4
$T304077 = -16						; size = 4
__$EHRec$ = -12						; size = 12
?CreateObj@?$CObjectFactory@VCPlayer@@VLockOfWinWhileSleep@XM_Tools@@@XM_Tools@@QAEPAVCPlayer@@XZ PROC ; XM_Tools::CObjectFactory<CPlayer,XM_Tools::LockOfWinWhileSleep>::CreateObj, COMDAT
; _this$ = ecx

; 135  : 	{

  00000	6a ff		 push	 -1
  00002	68 00 00 00 00	 push	 __ehhandler$?CreateObj@?$CObjectFactory@VCPlayer@@VLockOfWinWhileSleep@XM_Tools@@@XM_Tools@@QAEPAVCPlayer@@XZ
  00007	64 a1 00 00 00
	00		 mov	 eax, DWORD PTR fs:0
  0000d	50		 push	 eax
  0000e	83 ec 08	 sub	 esp, 8
  00011	56		 push	 esi
  00012	a1 00 00 00 00	 mov	 eax, DWORD PTR ___security_cookie
  00017	33 c4		 xor	 eax, esp
  00019	50		 push	 eax
  0001a	8d 44 24 10	 lea	 eax, DWORD PTR __$EHRec$[esp+28]
  0001e	64 a3 00 00 00
	00		 mov	 DWORD PTR fs:0, eax

; 136  : 		unsigned long AllocSize = sizeof(unsigned long) + sizeof(_TObject);
; 137  : 		unsigned long *pMem = (unsigned long*)GetMemManage<_TLock>().AsyncAlloc(AllocSize);

  00024	68 68 51 00 00	 push	 20840			; 00005168H
  00029	e8 00 00 00 00	 call	 ??$GetMemManage@VLockOfWinWhileSleep@XM_Tools@@@XM_Tools@@YAAAV?$CMemManage@VLockOfWinWhileSleep@XM_Tools@@@0@XZ ; XM_Tools::GetMemManage<XM_Tools::LockOfWinWhileSleep>
  0002e	8b c8		 mov	 ecx, eax
  00030	e8 00 00 00 00	 call	 ?AsyncAlloc@?$CMemManage@VLockOfWinWhileSleep@XM_Tools@@@XM_Tools@@QAEPAXK@Z ; XM_Tools::CMemManage<XM_Tools::LockOfWinWhileSleep>::AsyncAlloc

; 138  : 		if(NULL == pMem)

  00035	85 c0		 test	 eax, eax
  00037	75 11		 jne	 SHORT $LN1@CreateObj@4

; 145  : 	}

  00039	8b 4c 24 10	 mov	 ecx, DWORD PTR __$EHRec$[esp+28]
  0003d	64 89 0d 00 00
	00 00		 mov	 DWORD PTR fs:0, ecx
  00044	59		 pop	 ecx
  00045	5e		 pop	 esi
  00046	83 c4 14	 add	 esp, 20			; 00000014H
  00049	c3		 ret	 0
$LN1@CreateObj@4:

; 139  : 			return NULL;
; 140  : 		
; 141  : 		pMem[0] = AllocSize;
; 142  : 		_TObject *pObj = (_TObject*)(pMem + 1);

  0004a	8d 70 04	 lea	 esi, DWORD PTR [eax+4]
  0004d	c7 00 68 51 00
	00		 mov	 DWORD PTR [eax], 20840	; 00005168H
  00053	89 74 24 08	 mov	 DWORD PTR _pObj$[esp+28], esi

; 143  : 		new(pObj)_TObject();

  00057	89 74 24 0c	 mov	 DWORD PTR $T304077[esp+28], esi
  0005b	85 f6		 test	 esi, esi
  0005d	c7 44 24 18 00
	00 00 00	 mov	 DWORD PTR __$EHRec$[esp+36], 0
  00065	74 07		 je	 SHORT $LN4@CreateObj@4
  00067	8b ce		 mov	 ecx, esi
  00069	e8 00 00 00 00	 call	 ??0CPlayer@@QAE@XZ	; CPlayer::CPlayer
$LN4@CreateObj@4:

; 144  : 		return pObj;

  0006e	8b c6		 mov	 eax, esi

; 145  : 	}

  00070	8b 4c 24 10	 mov	 ecx, DWORD PTR __$EHRec$[esp+28]
  00074	64 89 0d 00 00
	00 00		 mov	 DWORD PTR fs:0, ecx
  0007b	59		 pop	 ecx
  0007c	5e		 pop	 esi
  0007d	83 c4 14	 add	 esp, 20			; 00000014H
  00080	c3		 ret	 0
_TEXT	ENDS
;	COMDAT text$x
text$x	SEGMENT
__unwindfunclet$?CreateObj@?$CObjectFactory@VCPlayer@@VLockOfWinWhileSleep@XM_Tools@@@XM_Tools@@QAEPAVCPlayer@@XZ$0:
  00000	8b 45 ec	 mov	 eax, DWORD PTR _pObj$[ebp]
  00003	50		 push	 eax
  00004	8b 4d f0	 mov	 ecx, DWORD PTR $T304077[ebp]
  00007	51		 push	 ecx
  00008	e8 00 00 00 00	 call	 ??3@YAXPAX0@Z		; operator delete
  0000d	83 c4 08	 add	 esp, 8
  00010	c3		 ret	 0
__ehhandler$?CreateObj@?$CObjectFactory@VCPlayer@@VLockOfWinWhileSleep@XM_Tools@@@XM_Tools@@QAEPAVCPlayer@@XZ:
  00011	8b 54 24 08	 mov	 edx, DWORD PTR [esp+8]
  00015	8d 42 f4	 lea	 eax, DWORD PTR [edx-12]
  00018	8b 4a f0	 mov	 ecx, DWORD PTR [edx-16]
  0001b	33 c8		 xor	 ecx, eax
  0001d	e8 00 00 00 00	 call	 @__security_check_cookie@4
  00022	b8 00 00 00 00	 mov	 eax, OFFSET __ehfuncinfo$?CreateObj@?$CObjectFactory@VCPlayer@@VLockOfWinWhileSleep@XM_Tools@@@XM_Tools@@QAEPAVCPlayer@@XZ
  00027	e9 00 00 00 00	 jmp	 ___CxxFrameHandler3
text$x	ENDS
?CreateObj@?$CObjectFactory@VCPlayer@@VLockOfWinWhileSleep@XM_Tools@@@XM_Tools@@QAEPAVCPlayer@@XZ ENDP ; XM_Tools::CObjectFactory<CPlayer,XM_Tools::LockOfWinWhileSleep>::CreateObj
PUBLIC	?ReleaseObj@?$CObjectFactory@VCPlayer@@VLockOfWinWhileSleep@XM_Tools@@@XM_Tools@@QAEXPAVCPlayer@@@Z ; XM_Tools::CObjectFactory<CPlayer,XM_Tools::LockOfWinWhileSleep>::ReleaseObj
; Function compile flags: /Ogtpy
;	COMDAT ?ReleaseObj@?$CObjectFactory@VCPlayer@@VLockOfWinWhileSleep@XM_Tools@@@XM_Tools@@QAEXPAVCPlayer@@@Z
_TEXT	SEGMENT
_pObj$ = 8						; size = 4
?ReleaseObj@?$CObjectFactory@VCPlayer@@VLockOfWinWhileSleep@XM_Tools@@@XM_Tools@@QAEXPAVCPlayer@@@Z PROC ; XM_Tools::CObjectFactory<CPlayer,XM_Tools::LockOfWinWhileSleep>::ReleaseObj, COMDAT
; _this$ = ecx

; 165  : 	{

  00000	56		 push	 esi

; 166  : 		//MM_ASSERY(NULL != pObj);
; 167  : 		if(NULL == pObj)

  00001	8b 74 24 08	 mov	 esi, DWORD PTR _pObj$[esp]
  00005	85 f6		 test	 esi, esi
  00007	74 1f		 je	 SHORT $LN2@ReleaseObj@4

; 168  : 			return;
; 169  : 		pObj->~_TObject();

  00009	8b 06		 mov	 eax, DWORD PTR [esi]
  0000b	8b 50 10	 mov	 edx, DWORD PTR [eax+16]
  0000e	6a 00		 push	 0
  00010	8b ce		 mov	 ecx, esi
  00012	ff d2		 call	 edx

; 170  : 		unsigned long *pMem = (unsigned long*)pObj;
; 171  : 		--pMem;
; 172  : 		GetMemManage<_TLock>().AsyncFree(pMem, pMem[0]);

  00014	8b 4e fc	 mov	 ecx, DWORD PTR [esi-4]
  00017	8d 46 fc	 lea	 eax, DWORD PTR [esi-4]
  0001a	51		 push	 ecx
  0001b	50		 push	 eax
  0001c	e8 00 00 00 00	 call	 ??$GetMemManage@VLockOfWinWhileSleep@XM_Tools@@@XM_Tools@@YAAAV?$CMemManage@VLockOfWinWhileSleep@XM_Tools@@@0@XZ ; XM_Tools::GetMemManage<XM_Tools::LockOfWinWhileSleep>
  00021	8b c8		 mov	 ecx, eax
  00023	e8 00 00 00 00	 call	 ?AsyncFree@?$CMemManage@VLockOfWinWhileSleep@XM_Tools@@@XM_Tools@@QAEXPAXK@Z ; XM_Tools::CMemManage<XM_Tools::LockOfWinWhileSleep>::AsyncFree
$LN2@ReleaseObj@4:
  00028	5e		 pop	 esi

; 173  : 	}

  00029	c2 04 00	 ret	 4
?ReleaseObj@?$CObjectFactory@VCPlayer@@VLockOfWinWhileSleep@XM_Tools@@@XM_Tools@@QAEXPAVCPlayer@@@Z ENDP ; XM_Tools::CObjectFactory<CPlayer,XM_Tools::LockOfWinWhileSleep>::ReleaseObj
_TEXT	ENDS
PUBLIC	??$GetFactory@VCRegion@@VLockOfWinWhileSleep@XM_Tools@@@XM_Tools@@YAAAV?$CObjectFactory@VCRegion@@VLockOfWinWhileSleep@XM_Tools@@@0@XZ ; XM_Tools::GetFactory<CRegion,XM_Tools::LockOfWinWhileSleep>
;	COMDAT ?c_ObjectFactory@?1???$GetFactory@VCRegion@@VLockOfWinWhileSleep@XM_Tools@@@XM_Tools@@YAAAV?$CObjectFactory@VCRegion@@VLockOfWinWhileSleep@XM_Tools@@@1@XZ@4V21@A
_BSS	SEGMENT
?c_ObjectFactory@?1???$GetFactory@VCRegion@@VLockOfWinWhileSleep@XM_Tools@@@XM_Tools@@YAAAV?$CObjectFactory@VCRegion@@VLockOfWinWhileSleep@XM_Tools@@@1@XZ@4V21@A DQ 01H DUP (?) ; `XM_Tools::GetFactory<CRegion,XM_Tools::LockOfWinWhileSleep>'::`2'::c_ObjectFactory
_BSS	ENDS
;	COMDAT ?$S5@?1???$GetFactory@VCRegion@@VLockOfWinWhileSleep@XM_Tools@@@XM_Tools@@YAAAV?$CObjectFactory@VCRegion@@VLockOfWinWhileSleep@XM_Tools@@@1@XZ@4IA
_BSS	SEGMENT
?$S5@?1???$GetFactory@VCRegion@@VLockOfWinWhileSleep@XM_Tools@@@XM_Tools@@YAAAV?$CObjectFactory@VCRegion@@VLockOfWinWhileSleep@XM_Tools@@@1@XZ@4IA DD 01H DUP (?) ; `XM_Tools::GetFactory<CRegion,XM_Tools::LockOfWinWhileSleep>'::`2'::$S5
_BSS	ENDS
;	COMDAT xdata$x
xdata$x	SEGMENT
__unwindtable$??$GetFactory@VCRegion@@VLockOfWinWhileSleep@XM_Tools@@@XM_Tools@@YAAAV?$CObjectFactory@VCRegion@@VLockOfWinWhileSleep@XM_Tools@@@0@XZ DD 0ffffffffH
	DD	FLAT:__unwindfunclet$??$GetFactory@VCRegion@@VLockOfWinWhileSleep@XM_Tools@@@XM_Tools@@YAAAV?$CObjectFactory@VCRegion@@VLockOfWinWhileSleep@XM_Tools@@@0@XZ$0
__ehfuncinfo$??$GetFactory@VCRegion@@VLockOfWinWhileSleep@XM_Tools@@@XM_Tools@@YAAAV?$CObjectFactory@VCRegion@@VLockOfWinWhileSleep@XM_Tools@@@0@XZ DD 019930522H
	DD	01H
	DD	FLAT:__unwindtable$??$GetFactory@VCRegion@@VLockOfWinWhileSleep@XM_Tools@@@XM_Tools@@YAAAV?$CObjectFactory@VCRegion@@VLockOfWinWhileSleep@XM_Tools@@@0@XZ
	DD	2 DUP(00H)
	DD	2 DUP(00H)
	DD	00H
	DD	01H
; Function compile flags: /Ogtpy
xdata$x	ENDS
;	COMDAT ??$GetFactory@VCRegion@@VLockOfWinWhileSleep@XM_Tools@@@XM_Tools@@YAAAV?$CObjectFactory@VCRegion@@VLockOfWinWhileSleep@XM_Tools@@@0@XZ
_TEXT	SEGMENT
__$EHRec$ = -12						; size = 12
??$GetFactory@VCRegion@@VLockOfWinWhileSleep@XM_Tools@@@XM_Tools@@YAAAV?$CObjectFactory@VCRegion@@VLockOfWinWhileSleep@XM_Tools@@@0@XZ PROC ; XM_Tools::GetFactory<CRegion,XM_Tools::LockOfWinWhileSleep>, COMDAT

; 220  : 	{

  00000	6a ff		 push	 -1
  00002	68 00 00 00 00	 push	 __ehhandler$??$GetFactory@VCRegion@@VLockOfWinWhileSleep@XM_Tools@@@XM_Tools@@YAAAV?$CObjectFactory@VCRegion@@VLockOfWinWhileSleep@XM_Tools@@@0@XZ
  00007	64 a1 00 00 00
	00		 mov	 eax, DWORD PTR fs:0
  0000d	50		 push	 eax
  0000e	a1 00 00 00 00	 mov	 eax, DWORD PTR ___security_cookie
  00013	33 c4		 xor	 eax, esp
  00015	50		 push	 eax
  00016	8d 44 24 04	 lea	 eax, DWORD PTR __$EHRec$[esp+16]
  0001a	64 a3 00 00 00
	00		 mov	 DWORD PTR fs:0, eax

; 221  : 		static CObjectFactory<_TObject, _TLock> c_ObjectFactory(GetMemManage<_TLock>());

  00020	b8 01 00 00 00	 mov	 eax, 1
  00025	84 05 00 00 00
	00		 test	 BYTE PTR ?$S5@?1???$GetFactory@VCRegion@@VLockOfWinWhileSleep@XM_Tools@@@XM_Tools@@YAAAV?$CObjectFactory@VCRegion@@VLockOfWinWhileSleep@XM_Tools@@@1@XZ@4IA, al
  0002b	75 36		 jne	 SHORT $LN7@GetFactory@5
  0002d	09 05 00 00 00
	00		 or	 DWORD PTR ?$S5@?1???$GetFactory@VCRegion@@VLockOfWinWhileSleep@XM_Tools@@@XM_Tools@@YAAAV?$CObjectFactory@VCRegion@@VLockOfWinWhileSleep@XM_Tools@@@1@XZ@4IA, eax
  00033	c7 44 24 0c 00
	00 00 00	 mov	 DWORD PTR __$EHRec$[esp+24], 0
  0003b	e8 00 00 00 00	 call	 ??$GetMemManage@VLockOfWinWhileSleep@XM_Tools@@@XM_Tools@@YAAAV?$CMemManage@VLockOfWinWhileSleep@XM_Tools@@@0@XZ ; XM_Tools::GetMemManage<XM_Tools::LockOfWinWhileSleep>
  00040	a3 00 00 00 00	 mov	 DWORD PTR ?c_ObjectFactory@?1???$GetFactory@VCRegion@@VLockOfWinWhileSleep@XM_Tools@@@XM_Tools@@YAAAV?$CObjectFactory@VCRegion@@VLockOfWinWhileSleep@XM_Tools@@@1@XZ@4V21@A, eax
  00045	e8 00 00 00 00	 call	 ?GetObjInfoManage@XM_Tools@@YAAAVCObjInfoManage@1@XZ ; XM_Tools::GetObjInfoManage
  0004a	8b c8		 mov	 ecx, eax
  0004c	e8 00 00 00 00	 call	 ?GetNewRTID@CObjInfoManage@XM_Tools@@QAEKXZ ; XM_Tools::CObjInfoManage::GetNewRTID
  00051	68 00 00 00 00	 push	 OFFSET ??__Fc_ObjectFactory@?1???$GetFactory@VCRegion@@VLockOfWinWhileSleep@XM_Tools@@@XM_Tools@@YAAAV?$CObjectFactory@VCRegion@@VLockOfWinWhileSleep@XM_Tools@@@0@XZ@YAXXZ ; `XM_Tools::GetFactory<CRegion,XM_Tools::LockOfWinWhileSleep>'::`2'::`dynamic atexit destructor for 'c_ObjectFactory''
  00056	a3 04 00 00 00	 mov	 DWORD PTR ?c_ObjectFactory@?1???$GetFactory@VCRegion@@VLockOfWinWhileSleep@XM_Tools@@@XM_Tools@@YAAAV?$CObjectFactory@VCRegion@@VLockOfWinWhileSleep@XM_Tools@@@1@XZ@4V21@A+4, eax
  0005b	e8 00 00 00 00	 call	 _atexit
  00060	83 c4 04	 add	 esp, 4
$LN7@GetFactory@5:

; 222  : 		return c_ObjectFactory;

  00063	b8 00 00 00 00	 mov	 eax, OFFSET ?c_ObjectFactory@?1???$GetFactory@VCRegion@@VLockOfWinWhileSleep@XM_Tools@@@XM_Tools@@YAAAV?$CObjectFactory@VCRegion@@VLockOfWinWhileSleep@XM_Tools@@@1@XZ@4V21@A

; 223  : 	}

  00068	8b 4c 24 04	 mov	 ecx, DWORD PTR __$EHRec$[esp+16]
  0006c	64 89 0d 00 00
	00 00		 mov	 DWORD PTR fs:0, ecx
  00073	59		 pop	 ecx
  00074	83 c4 0c	 add	 esp, 12			; 0000000cH
  00077	c3		 ret	 0
_TEXT	ENDS
;	COMDAT text$x
text$x	SEGMENT
__unwindfunclet$??$GetFactory@VCRegion@@VLockOfWinWhileSleep@XM_Tools@@@XM_Tools@@YAAAV?$CObjectFactory@VCRegion@@VLockOfWinWhileSleep@XM_Tools@@@0@XZ$0:
  00000	a1 00 00 00 00	 mov	 eax, DWORD PTR ?$S5@?1???$GetFactory@VCRegion@@VLockOfWinWhileSleep@XM_Tools@@@XM_Tools@@YAAAV?$CObjectFactory@VCRegion@@VLockOfWinWhileSleep@XM_Tools@@@1@XZ@4IA
  00005	83 e0 fe	 and	 eax, -2			; fffffffeH
  00008	a3 00 00 00 00	 mov	 DWORD PTR ?$S5@?1???$GetFactory@VCRegion@@VLockOfWinWhileSleep@XM_Tools@@@XM_Tools@@YAAAV?$CObjectFactory@VCRegion@@VLockOfWinWhileSleep@XM_Tools@@@1@XZ@4IA, eax
  0000d	c3		 ret	 0
__ehhandler$??$GetFactory@VCRegion@@VLockOfWinWhileSleep@XM_Tools@@@XM_Tools@@YAAAV?$CObjectFactory@VCRegion@@VLockOfWinWhileSleep@XM_Tools@@@0@XZ:
  0000e	8b 54 24 08	 mov	 edx, DWORD PTR [esp+8]
  00012	8d 02		 lea	 eax, DWORD PTR [edx]
  00014	8b 4a fc	 mov	 ecx, DWORD PTR [edx-4]
  00017	33 c8		 xor	 ecx, eax
  00019	e8 00 00 00 00	 call	 @__security_check_cookie@4
  0001e	b8 00 00 00 00	 mov	 eax, OFFSET __ehfuncinfo$??$GetFactory@VCRegion@@VLockOfWinWhileSleep@XM_Tools@@@XM_Tools@@YAAAV?$CObjectFactory@VCRegion@@VLockOfWinWhileSleep@XM_Tools@@@0@XZ
  00023	e9 00 00 00 00	 jmp	 ___CxxFrameHandler3
text$x	ENDS
??$GetFactory@VCRegion@@VLockOfWinWhileSleep@XM_Tools@@@XM_Tools@@YAAAV?$CObjectFactory@VCRegion@@VLockOfWinWhileSleep@XM_Tools@@@0@XZ ENDP ; XM_Tools::GetFactory<CRegion,XM_Tools::LockOfWinWhileSleep>
PUBLIC	?CreateObj@?$CObjectFactory@VCRegion@@VLockOfWinWhileSleep@XM_Tools@@@XM_Tools@@QAEPAVCRegion@@XZ ; XM_Tools::CObjectFactory<CRegion,XM_Tools::LockOfWinWhileSleep>::CreateObj
EXTRN	??0CRegion@@QAE@XZ:PROC				; CRegion::CRegion
;	COMDAT xdata$x
; File d:\program files\microsoft visual studio 8\vc\include\new
xdata$x	SEGMENT
__unwindtable$?CreateObj@?$CObjectFactory@VCRegion@@VLockOfWinWhileSleep@XM_Tools@@@XM_Tools@@QAEPAVCRegion@@XZ DD 0ffffffffH
	DD	FLAT:__unwindfunclet$?CreateObj@?$CObjectFactory@VCRegion@@VLockOfWinWhileSleep@XM_Tools@@@XM_Tools@@QAEPAVCRegion@@XZ$0
__ehfuncinfo$?CreateObj@?$CObjectFactory@VCRegion@@VLockOfWinWhileSleep@XM_Tools@@@XM_Tools@@QAEPAVCRegion@@XZ DD 019930522H
	DD	01H
	DD	FLAT:__unwindtable$?CreateObj@?$CObjectFactory@VCRegion@@VLockOfWinWhileSleep@XM_Tools@@@XM_Tools@@QAEPAVCRegion@@XZ
	DD	2 DUP(00H)
	DD	2 DUP(00H)
	DD	00H
	DD	01H
; Function compile flags: /Ogtpy
; File d:\project_p6\trunk\public\memmanage\cpp\objectfactory.tcc
xdata$x	ENDS
;	COMDAT ?CreateObj@?$CObjectFactory@VCRegion@@VLockOfWinWhileSleep@XM_Tools@@@XM_Tools@@QAEPAVCRegion@@XZ
_TEXT	SEGMENT
_pObj$ = -20						; size = 4
$T304112 = -16						; size = 4
__$EHRec$ = -12						; size = 12
?CreateObj@?$CObjectFactory@VCRegion@@VLockOfWinWhileSleep@XM_Tools@@@XM_Tools@@QAEPAVCRegion@@XZ PROC ; XM_Tools::CObjectFactory<CRegion,XM_Tools::LockOfWinWhileSleep>::CreateObj, COMDAT
; _this$ = ecx

; 135  : 	{

  00000	6a ff		 push	 -1
  00002	68 00 00 00 00	 push	 __ehhandler$?CreateObj@?$CObjectFactory@VCRegion@@VLockOfWinWhileSleep@XM_Tools@@@XM_Tools@@QAEPAVCRegion@@XZ
  00007	64 a1 00 00 00
	00		 mov	 eax, DWORD PTR fs:0
  0000d	50		 push	 eax
  0000e	83 ec 08	 sub	 esp, 8
  00011	56		 push	 esi
  00012	a1 00 00 00 00	 mov	 eax, DWORD PTR ___security_cookie
  00017	33 c4		 xor	 eax, esp
  00019	50		 push	 eax
  0001a	8d 44 24 10	 lea	 eax, DWORD PTR __$EHRec$[esp+28]
  0001e	64 a3 00 00 00
	00		 mov	 DWORD PTR fs:0, eax

; 136  : 		unsigned long AllocSize = sizeof(unsigned long) + sizeof(_TObject);
; 137  : 		unsigned long *pMem = (unsigned long*)GetMemManage<_TLock>().AsyncAlloc(AllocSize);

  00024	68 dc 00 00 00	 push	 220			; 000000dcH
  00029	e8 00 00 00 00	 call	 ??$GetMemManage@VLockOfWinWhileSleep@XM_Tools@@@XM_Tools@@YAAAV?$CMemManage@VLockOfWinWhileSleep@XM_Tools@@@0@XZ ; XM_Tools::GetMemManage<XM_Tools::LockOfWinWhileSleep>
  0002e	8b c8		 mov	 ecx, eax
  00030	e8 00 00 00 00	 call	 ?AsyncAlloc@?$CMemManage@VLockOfWinWhileSleep@XM_Tools@@@XM_Tools@@QAEPAXK@Z ; XM_Tools::CMemManage<XM_Tools::LockOfWinWhileSleep>::AsyncAlloc

; 138  : 		if(NULL == pMem)

  00035	85 c0		 test	 eax, eax
  00037	75 11		 jne	 SHORT $LN1@CreateObj@5

; 145  : 	}

  00039	8b 4c 24 10	 mov	 ecx, DWORD PTR __$EHRec$[esp+28]
  0003d	64 89 0d 00 00
	00 00		 mov	 DWORD PTR fs:0, ecx
  00044	59		 pop	 ecx
  00045	5e		 pop	 esi
  00046	83 c4 14	 add	 esp, 20			; 00000014H
  00049	c3		 ret	 0
$LN1@CreateObj@5:

; 139  : 			return NULL;
; 140  : 		
; 141  : 		pMem[0] = AllocSize;
; 142  : 		_TObject *pObj = (_TObject*)(pMem + 1);

  0004a	8d 70 04	 lea	 esi, DWORD PTR [eax+4]
  0004d	c7 00 dc 00 00
	00		 mov	 DWORD PTR [eax], 220	; 000000dcH
  00053	89 74 24 08	 mov	 DWORD PTR _pObj$[esp+28], esi

; 143  : 		new(pObj)_TObject();

  00057	89 74 24 0c	 mov	 DWORD PTR $T304112[esp+28], esi
  0005b	85 f6		 test	 esi, esi
  0005d	c7 44 24 18 00
	00 00 00	 mov	 DWORD PTR __$EHRec$[esp+36], 0
  00065	74 07		 je	 SHORT $LN4@CreateObj@5
  00067	8b ce		 mov	 ecx, esi
  00069	e8 00 00 00 00	 call	 ??0CRegion@@QAE@XZ	; CRegion::CRegion
$LN4@CreateObj@5:

; 144  : 		return pObj;

  0006e	8b c6		 mov	 eax, esi

; 145  : 	}

  00070	8b 4c 24 10	 mov	 ecx, DWORD PTR __$EHRec$[esp+28]
  00074	64 89 0d 00 00
	00 00		 mov	 DWORD PTR fs:0, ecx
  0007b	59		 pop	 ecx
  0007c	5e		 pop	 esi
  0007d	83 c4 14	 add	 esp, 20			; 00000014H
  00080	c3		 ret	 0
_TEXT	ENDS
;	COMDAT text$x
text$x	SEGMENT
__unwindfunclet$?CreateObj@?$CObjectFactory@VCRegion@@VLockOfWinWhileSleep@XM_Tools@@@XM_Tools@@QAEPAVCRegion@@XZ$0:
  00000	8b 45 ec	 mov	 eax, DWORD PTR _pObj$[ebp]
  00003	50		 push	 eax
  00004	8b 4d f0	 mov	 ecx, DWORD PTR $T304112[ebp]
  00007	51		 push	 ecx
  00008	e8 00 00 00 00	 call	 ??3@YAXPAX0@Z		; operator delete
  0000d	83 c4 08	 add	 esp, 8
  00010	c3		 ret	 0
__ehhandler$?CreateObj@?$CObjectFactory@VCRegion@@VLockOfWinWhileSleep@XM_Tools@@@XM_Tools@@QAEPAVCRegion@@XZ:
  00011	8b 54 24 08	 mov	 edx, DWORD PTR [esp+8]
  00015	8d 42 f4	 lea	 eax, DWORD PTR [edx-12]
  00018	8b 4a f0	 mov	 ecx, DWORD PTR [edx-16]
  0001b	33 c8		 xor	 ecx, eax
  0001d	e8 00 00 00 00	 call	 @__security_check_cookie@4
  00022	b8 00 00 00 00	 mov	 eax, OFFSET __ehfuncinfo$?CreateObj@?$CObjectFactory@VCRegion@@VLockOfWinWhileSleep@XM_Tools@@@XM_Tools@@QAEPAVCRegion@@XZ
  00027	e9 00 00 00 00	 jmp	 ___CxxFrameHandler3
text$x	ENDS
?CreateObj@?$CObjectFactory@VCRegion@@VLockOfWinWhileSleep@XM_Tools@@@XM_Tools@@QAEPAVCRegion@@XZ ENDP ; XM_Tools::CObjectFactory<CRegion,XM_Tools::LockOfWinWhileSleep>::CreateObj
PUBLIC	??$GetFactory@VCBuild@@VLockOfWinWhileSleep@XM_Tools@@@XM_Tools@@YAAAV?$CObjectFactory@VCBuild@@VLockOfWinWhileSleep@XM_Tools@@@0@XZ ; XM_Tools::GetFactory<CBuild,XM_Tools::LockOfWinWhileSleep>
;	COMDAT ?c_ObjectFactory@?1???$GetFactory@VCBuild@@VLockOfWinWhileSleep@XM_Tools@@@XM_Tools@@YAAAV?$CObjectFactory@VCBuild@@VLockOfWinWhileSleep@XM_Tools@@@1@XZ@4V21@A
_BSS	SEGMENT
?c_ObjectFactory@?1???$GetFactory@VCBuild@@VLockOfWinWhileSleep@XM_Tools@@@XM_Tools@@YAAAV?$CObjectFactory@VCBuild@@VLockOfWinWhileSleep@XM_Tools@@@1@XZ@4V21@A DQ 01H DUP (?) ; `XM_Tools::GetFactory<CBuild,XM_Tools::LockOfWinWhileSleep>'::`2'::c_ObjectFactory
_BSS	ENDS
;	COMDAT ?$S6@?1???$GetFactory@VCBuild@@VLockOfWinWhileSleep@XM_Tools@@@XM_Tools@@YAAAV?$CObjectFactory@VCBuild@@VLockOfWinWhileSleep@XM_Tools@@@1@XZ@4IA
_BSS	SEGMENT
?$S6@?1???$GetFactory@VCBuild@@VLockOfWinWhileSleep@XM_Tools@@@XM_Tools@@YAAAV?$CObjectFactory@VCBuild@@VLockOfWinWhileSleep@XM_Tools@@@1@XZ@4IA DD 01H DUP (?) ; `XM_Tools::GetFactory<CBuild,XM_Tools::LockOfWinWhileSleep>'::`2'::$S6
_BSS	ENDS
;	COMDAT xdata$x
xdata$x	SEGMENT
__unwindtable$??$GetFactory@VCBuild@@VLockOfWinWhileSleep@XM_Tools@@@XM_Tools@@YAAAV?$CObjectFactory@VCBuild@@VLockOfWinWhileSleep@XM_Tools@@@0@XZ DD 0ffffffffH
	DD	FLAT:__unwindfunclet$??$GetFactory@VCBuild@@VLockOfWinWhileSleep@XM_Tools@@@XM_Tools@@YAAAV?$CObjectFactory@VCBuild@@VLockOfWinWhileSleep@XM_Tools@@@0@XZ$0
__ehfuncinfo$??$GetFactory@VCBuild@@VLockOfWinWhileSleep@XM_Tools@@@XM_Tools@@YAAAV?$CObjectFactory@VCBuild@@VLockOfWinWhileSleep@XM_Tools@@@0@XZ DD 019930522H
	DD	01H
	DD	FLAT:__unwindtable$??$GetFactory@VCBuild@@VLockOfWinWhileSleep@XM_Tools@@@XM_Tools@@YAAAV?$CObjectFactory@VCBuild@@VLockOfWinWhileSleep@XM_Tools@@@0@XZ
	DD	2 DUP(00H)
	DD	2 DUP(00H)
	DD	00H
	DD	01H
; Function compile flags: /Ogtpy
xdata$x	ENDS
;	COMDAT ??$GetFactory@VCBuild@@VLockOfWinWhileSleep@XM_Tools@@@XM_Tools@@YAAAV?$CObjectFactory@VCBuild@@VLockOfWinWhileSleep@XM_Tools@@@0@XZ
_TEXT	SEGMENT
__$EHRec$ = -12						; size = 12
??$GetFactory@VCBuild@@VLockOfWinWhileSleep@XM_Tools@@@XM_Tools@@YAAAV?$CObjectFactory@VCBuild@@VLockOfWinWhileSleep@XM_Tools@@@0@XZ PROC ; XM_Tools::GetFactory<CBuild,XM_Tools::LockOfWinWhileSleep>, COMDAT

; 220  : 	{

  00000	6a ff		 push	 -1
  00002	68 00 00 00 00	 push	 __ehhandler$??$GetFactory@VCBuild@@VLockOfWinWhileSleep@XM_Tools@@@XM_Tools@@YAAAV?$CObjectFactory@VCBuild@@VLockOfWinWhileSleep@XM_Tools@@@0@XZ
  00007	64 a1 00 00 00
	00		 mov	 eax, DWORD PTR fs:0
  0000d	50		 push	 eax
  0000e	a1 00 00 00 00	 mov	 eax, DWORD PTR ___security_cookie
  00013	33 c4		 xor	 eax, esp
  00015	50		 push	 eax
  00016	8d 44 24 04	 lea	 eax, DWORD PTR __$EHRec$[esp+16]
  0001a	64 a3 00 00 00
	00		 mov	 DWORD PTR fs:0, eax

; 221  : 		static CObjectFactory<_TObject, _TLock> c_ObjectFactory(GetMemManage<_TLock>());

  00020	b8 01 00 00 00	 mov	 eax, 1
  00025	84 05 00 00 00
	00		 test	 BYTE PTR ?$S6@?1???$GetFactory@VCBuild@@VLockOfWinWhileSleep@XM_Tools@@@XM_Tools@@YAAAV?$CObjectFactory@VCBuild@@VLockOfWinWhileSleep@XM_Tools@@@1@XZ@4IA, al
  0002b	75 36		 jne	 SHORT $LN7@GetFactory@6
  0002d	09 05 00 00 00
	00		 or	 DWORD PTR ?$S6@?1???$GetFactory@VCBuild@@VLockOfWinWhileSleep@XM_Tools@@@XM_Tools@@YAAAV?$CObjectFactory@VCBuild@@VLockOfWinWhileSleep@XM_Tools@@@1@XZ@4IA, eax
  00033	c7 44 24 0c 00
	00 00 00	 mov	 DWORD PTR __$EHRec$[esp+24], 0
  0003b	e8 00 00 00 00	 call	 ??$GetMemManage@VLockOfWinWhileSleep@XM_Tools@@@XM_Tools@@YAAAV?$CMemManage@VLockOfWinWhileSleep@XM_Tools@@@0@XZ ; XM_Tools::GetMemManage<XM_Tools::LockOfWinWhileSleep>
  00040	a3 00 00 00 00	 mov	 DWORD PTR ?c_ObjectFactory@?1???$GetFactory@VCBuild@@VLockOfWinWhileSleep@XM_Tools@@@XM_Tools@@YAAAV?$CObjectFactory@VCBuild@@VLockOfWinWhileSleep@XM_Tools@@@1@XZ@4V21@A, eax
  00045	e8 00 00 00 00	 call	 ?GetObjInfoManage@XM_Tools@@YAAAVCObjInfoManage@1@XZ ; XM_Tools::GetObjInfoManage
  0004a	8b c8		 mov	 ecx, eax
  0004c	e8 00 00 00 00	 call	 ?GetNewRTID@CObjInfoManage@XM_Tools@@QAEKXZ ; XM_Tools::CObjInfoManage::GetNewRTID
  00051	68 00 00 00 00	 push	 OFFSET ??__Fc_ObjectFactory@?1???$GetFactory@VCBuild@@VLockOfWinWhileSleep@XM_Tools@@@XM_Tools@@YAAAV?$CObjectFactory@VCBuild@@VLockOfWinWhileSleep@XM_Tools@@@0@XZ@YAXXZ ; `XM_Tools::GetFactory<CBuild,XM_Tools::LockOfWinWhileSleep>'::`2'::`dynamic atexit destructor for 'c_ObjectFactory''
  00056	a3 04 00 00 00	 mov	 DWORD PTR ?c_ObjectFactory@?1???$GetFactory@VCBuild@@VLockOfWinWhileSleep@XM_Tools@@@XM_Tools@@YAAAV?$CObjectFactory@VCBuild@@VLockOfWinWhileSleep@XM_Tools@@@1@XZ@4V21@A+4, eax
  0005b	e8 00 00 00 00	 call	 _atexit
  00060	83 c4 04	 add	 esp, 4
$LN7@GetFactory@6:

; 222  : 		return c_ObjectFactory;

  00063	b8 00 00 00 00	 mov	 eax, OFFSET ?c_ObjectFactory@?1???$GetFactory@VCBuild@@VLockOfWinWhileSleep@XM_Tools@@@XM_Tools@@YAAAV?$CObjectFactory@VCBuild@@VLockOfWinWhileSleep@XM_Tools@@@1@XZ@4V21@A

; 223  : 	}

  00068	8b 4c 24 04	 mov	 ecx, DWORD PTR __$EHRec$[esp+16]
  0006c	64 89 0d 00 00
	00 00		 mov	 DWORD PTR fs:0, ecx
  00073	59		 pop	 ecx
  00074	83 c4 0c	 add	 esp, 12			; 0000000cH
  00077	c3		 ret	 0
_TEXT	ENDS
;	COMDAT text$x
text$x	SEGMENT
__unwindfunclet$??$GetFactory@VCBuild@@VLockOfWinWhileSleep@XM_Tools@@@XM_Tools@@YAAAV?$CObjectFactory@VCBuild@@VLockOfWinWhileSleep@XM_Tools@@@0@XZ$0:
  00000	a1 00 00 00 00	 mov	 eax, DWORD PTR ?$S6@?1???$GetFactory@VCBuild@@VLockOfWinWhileSleep@XM_Tools@@@XM_Tools@@YAAAV?$CObjectFactory@VCBuild@@VLockOfWinWhileSleep@XM_Tools@@@1@XZ@4IA
  00005	83 e0 fe	 and	 eax, -2			; fffffffeH
  00008	a3 00 00 00 00	 mov	 DWORD PTR ?$S6@?1???$GetFactory@VCBuild@@VLockOfWinWhileSleep@XM_Tools@@@XM_Tools@@YAAAV?$CObjectFactory@VCBuild@@VLockOfWinWhileSleep@XM_Tools@@@1@XZ@4IA, eax
  0000d	c3		 ret	 0
__ehhandler$??$GetFactory@VCBuild@@VLockOfWinWhileSleep@XM_Tools@@@XM_Tools@@YAAAV?$CObjectFactory@VCBuild@@VLockOfWinWhileSleep@XM_Tools@@@0@XZ:
  0000e	8b 54 24 08	 mov	 edx, DWORD PTR [esp+8]
  00012	8d 02		 lea	 eax, DWORD PTR [edx]
  00014	8b 4a fc	 mov	 ecx, DWORD PTR [edx-4]
  00017	33 c8		 xor	 ecx, eax
  00019	e8 00 00 00 00	 call	 @__security_check_cookie@4
  0001e	b8 00 00 00 00	 mov	 eax, OFFSET __ehfuncinfo$??$GetFactory@VCBuild@@VLockOfWinWhileSleep@XM_Tools@@@XM_Tools@@YAAAV?$CObjectFactory@VCBuild@@VLockOfWinWhileSleep@XM_Tools@@@0@XZ
  00023	e9 00 00 00 00	 jmp	 ___CxxFrameHandler3
text$x	ENDS
??$GetFactory@VCBuild@@VLockOfWinWhileSleep@XM_Tools@@@XM_Tools@@YAAAV?$CObjectFactory@VCBuild@@VLockOfWinWhileSleep@XM_Tools@@@0@XZ ENDP ; XM_Tools::GetFactory<CBuild,XM_Tools::LockOfWinWhileSleep>
PUBLIC	?CreateObj@?$CObjectFactory@VCBuild@@VLockOfWinWhileSleep@XM_Tools@@@XM_Tools@@QAEPAVCBuild@@XZ ; XM_Tools::CObjectFactory<CBuild,XM_Tools::LockOfWinWhileSleep>::CreateObj
EXTRN	??0CBuild@@QAE@XZ:PROC				; CBuild::CBuild
;	COMDAT xdata$x
; File d:\program files\microsoft visual studio 8\vc\include\new
xdata$x	SEGMENT
__unwindtable$?CreateObj@?$CObjectFactory@VCBuild@@VLockOfWinWhileSleep@XM_Tools@@@XM_Tools@@QAEPAVCBuild@@XZ DD 0ffffffffH
	DD	FLAT:__unwindfunclet$?CreateObj@?$CObjectFactory@VCBuild@@VLockOfWinWhileSleep@XM_Tools@@@XM_Tools@@QAEPAVCBuild@@XZ$0
__ehfuncinfo$?CreateObj@?$CObjectFactory@VCBuild@@VLockOfWinWhileSleep@XM_Tools@@@XM_Tools@@QAEPAVCBuild@@XZ DD 019930522H
	DD	01H
	DD	FLAT:__unwindtable$?CreateObj@?$CObjectFactory@VCBuild@@VLockOfWinWhileSleep@XM_Tools@@@XM_Tools@@QAEPAVCBuild@@XZ
	DD	2 DUP(00H)
	DD	2 DUP(00H)
	DD	00H
	DD	01H
; Function compile flags: /Ogtpy
; File d:\project_p6\trunk\public\memmanage\cpp\objectfactory.tcc
xdata$x	ENDS
;	COMDAT ?CreateObj@?$CObjectFactory@VCBuild@@VLockOfWinWhileSleep@XM_Tools@@@XM_Tools@@QAEPAVCBuild@@XZ
_TEXT	SEGMENT
_pObj$ = -20						; size = 4
$T304144 = -16						; size = 4
__$EHRec$ = -12						; size = 12
?CreateObj@?$CObjectFactory@VCBuild@@VLockOfWinWhileSleep@XM_Tools@@@XM_Tools@@QAEPAVCBuild@@XZ PROC ; XM_Tools::CObjectFactory<CBuild,XM_Tools::LockOfWinWhileSleep>::CreateObj, COMDAT
; _this$ = ecx

; 135  : 	{

  00000	6a ff		 push	 -1
  00002	68 00 00 00 00	 push	 __ehhandler$?CreateObj@?$CObjectFactory@VCBuild@@VLockOfWinWhileSleep@XM_Tools@@@XM_Tools@@QAEPAVCBuild@@XZ
  00007	64 a1 00 00 00
	00		 mov	 eax, DWORD PTR fs:0
  0000d	50		 push	 eax
  0000e	83 ec 08	 sub	 esp, 8
  00011	56		 push	 esi
  00012	a1 00 00 00 00	 mov	 eax, DWORD PTR ___security_cookie
  00017	33 c4		 xor	 eax, esp
  00019	50		 push	 eax
  0001a	8d 44 24 10	 lea	 eax, DWORD PTR __$EHRec$[esp+28]
  0001e	64 a3 00 00 00
	00		 mov	 DWORD PTR fs:0, eax

; 136  : 		unsigned long AllocSize = sizeof(unsigned long) + sizeof(_TObject);
; 137  : 		unsigned long *pMem = (unsigned long*)GetMemManage<_TLock>().AsyncAlloc(AllocSize);

  00024	68 48 04 00 00	 push	 1096			; 00000448H
  00029	e8 00 00 00 00	 call	 ??$GetMemManage@VLockOfWinWhileSleep@XM_Tools@@@XM_Tools@@YAAAV?$CMemManage@VLockOfWinWhileSleep@XM_Tools@@@0@XZ ; XM_Tools::GetMemManage<XM_Tools::LockOfWinWhileSleep>
  0002e	8b c8		 mov	 ecx, eax
  00030	e8 00 00 00 00	 call	 ?AsyncAlloc@?$CMemManage@VLockOfWinWhileSleep@XM_Tools@@@XM_Tools@@QAEPAXK@Z ; XM_Tools::CMemManage<XM_Tools::LockOfWinWhileSleep>::AsyncAlloc

; 138  : 		if(NULL == pMem)

  00035	85 c0		 test	 eax, eax
  00037	75 11		 jne	 SHORT $LN1@CreateObj@6

; 145  : 	}

  00039	8b 4c 24 10	 mov	 ecx, DWORD PTR __$EHRec$[esp+28]
  0003d	64 89 0d 00 00
	00 00		 mov	 DWORD PTR fs:0, ecx
  00044	59		 pop	 ecx
  00045	5e		 pop	 esi
  00046	83 c4 14	 add	 esp, 20			; 00000014H
  00049	c3		 ret	 0
$LN1@CreateObj@6:

; 139  : 			return NULL;
; 140  : 		
; 141  : 		pMem[0] = AllocSize;
; 142  : 		_TObject *pObj = (_TObject*)(pMem + 1);

  0004a	8d 70 04	 lea	 esi, DWORD PTR [eax+4]
  0004d	c7 00 48 04 00
	00		 mov	 DWORD PTR [eax], 1096	; 00000448H
  00053	89 74 24 08	 mov	 DWORD PTR _pObj$[esp+28], esi

; 143  : 		new(pObj)_TObject();

  00057	89 74 24 0c	 mov	 DWORD PTR $T304144[esp+28], esi
  0005b	85 f6		 test	 esi, esi
  0005d	c7 44 24 18 00
	00 00 00	 mov	 DWORD PTR __$EHRec$[esp+36], 0
  00065	74 07		 je	 SHORT $LN4@CreateObj@6
  00067	8b ce		 mov	 ecx, esi
  00069	e8 00 00 00 00	 call	 ??0CBuild@@QAE@XZ	; CBuild::CBuild
$LN4@CreateObj@6:

; 144  : 		return pObj;

  0006e	8b c6		 mov	 eax, esi

; 145  : 	}

  00070	8b 4c 24 10	 mov	 ecx, DWORD PTR __$EHRec$[esp+28]
  00074	64 89 0d 00 00
	00 00		 mov	 DWORD PTR fs:0, ecx
  0007b	59		 pop	 ecx
  0007c	5e		 pop	 esi
  0007d	83 c4 14	 add	 esp, 20			; 00000014H
  00080	c3		 ret	 0
_TEXT	ENDS
;	COMDAT text$x
text$x	SEGMENT
__unwindfunclet$?CreateObj@?$CObjectFactory@VCBuild@@VLockOfWinWhileSleep@XM_Tools@@@XM_Tools@@QAEPAVCBuild@@XZ$0:
  00000	8b 45 ec	 mov	 eax, DWORD PTR _pObj$[ebp]
  00003	50		 push	 eax
  00004	8b 4d f0	 mov	 ecx, DWORD PTR $T304144[ebp]
  00007	51		 push	 ecx
  00008	e8 00 00 00 00	 call	 ??3@YAXPAX0@Z		; operator delete
  0000d	83 c4 08	 add	 esp, 8
  00010	c3		 ret	 0
__ehhandler$?CreateObj@?$CObjectFactory@VCBuild@@VLockOfWinWhileSleep@XM_Tools@@@XM_Tools@@QAEPAVCBuild@@XZ:
  00011	8b 54 24 08	 mov	 edx, DWORD PTR [esp+8]
  00015	8d 42 f4	 lea	 eax, DWORD PTR [edx-12]
  00018	8b 4a f0	 mov	 ecx, DWORD PTR [edx-16]
  0001b	33 c8		 xor	 ecx, eax
  0001d	e8 00 00 00 00	 call	 @__security_check_cookie@4
  00022	b8 00 00 00 00	 mov	 eax, OFFSET __ehfuncinfo$?CreateObj@?$CObjectFactory@VCBuild@@VLockOfWinWhileSleep@XM_Tools@@@XM_Tools@@QAEPAVCBuild@@XZ
  00027	e9 00 00 00 00	 jmp	 ___CxxFrameHandler3
text$x	ENDS
?CreateObj@?$CObjectFactory@VCBuild@@VLockOfWinWhileSleep@XM_Tools@@@XM_Tools@@QAEPAVCBuild@@XZ ENDP ; XM_Tools::CObjectFactory<CBuild,XM_Tools::LockOfWinWhileSleep>::CreateObj
PUBLIC	?ReleaseObj@?$CObjectFactory@VCBuild@@VLockOfWinWhileSleep@XM_Tools@@@XM_Tools@@QAEXPAVCBuild@@@Z ; XM_Tools::CObjectFactory<CBuild,XM_Tools::LockOfWinWhileSleep>::ReleaseObj
; Function compile flags: /Ogtpy
;	COMDAT ?ReleaseObj@?$CObjectFactory@VCBuild@@VLockOfWinWhileSleep@XM_Tools@@@XM_Tools@@QAEXPAVCBuild@@@Z
_TEXT	SEGMENT
_pObj$ = 8						; size = 4
?ReleaseObj@?$CObjectFactory@VCBuild@@VLockOfWinWhileSleep@XM_Tools@@@XM_Tools@@QAEXPAVCBuild@@@Z PROC ; XM_Tools::CObjectFactory<CBuild,XM_Tools::LockOfWinWhileSleep>::ReleaseObj, COMDAT
; _this$ = ecx

; 165  : 	{

  00000	56		 push	 esi

; 166  : 		//MM_ASSERY(NULL != pObj);
; 167  : 		if(NULL == pObj)

  00001	8b 74 24 08	 mov	 esi, DWORD PTR _pObj$[esp]
  00005	85 f6		 test	 esi, esi
  00007	74 1f		 je	 SHORT $LN2@ReleaseObj@5

; 168  : 			return;
; 169  : 		pObj->~_TObject();

  00009	8b 06		 mov	 eax, DWORD PTR [esi]
  0000b	8b 50 10	 mov	 edx, DWORD PTR [eax+16]
  0000e	6a 00		 push	 0
  00010	8b ce		 mov	 ecx, esi
  00012	ff d2		 call	 edx

; 170  : 		unsigned long *pMem = (unsigned long*)pObj;
; 171  : 		--pMem;
; 172  : 		GetMemManage<_TLock>().AsyncFree(pMem, pMem[0]);

  00014	8b 4e fc	 mov	 ecx, DWORD PTR [esi-4]
  00017	8d 46 fc	 lea	 eax, DWORD PTR [esi-4]
  0001a	51		 push	 ecx
  0001b	50		 push	 eax
  0001c	e8 00 00 00 00	 call	 ??$GetMemManage@VLockOfWinWhileSleep@XM_Tools@@@XM_Tools@@YAAAV?$CMemManage@VLockOfWinWhileSleep@XM_Tools@@@0@XZ ; XM_Tools::GetMemManage<XM_Tools::LockOfWinWhileSleep>
  00021	8b c8		 mov	 ecx, eax
  00023	e8 00 00 00 00	 call	 ?AsyncFree@?$CMemManage@VLockOfWinWhileSleep@XM_Tools@@@XM_Tools@@QAEXPAXK@Z ; XM_Tools::CMemManage<XM_Tools::LockOfWinWhileSleep>::AsyncFree
$LN2@ReleaseObj@5:
  00028	5e		 pop	 esi

; 173  : 	}

  00029	c2 04 00	 ret	 4
?ReleaseObj@?$CObjectFactory@VCBuild@@VLockOfWinWhileSleep@XM_Tools@@@XM_Tools@@QAEXPAVCBuild@@@Z ENDP ; XM_Tools::CObjectFactory<CBuild,XM_Tools::LockOfWinWhileSleep>::ReleaseObj
_TEXT	ENDS
PUBLIC	??$GetFactory@VCGate@@VLockOfWinWhileSleep@XM_Tools@@@XM_Tools@@YAAAV?$CObjectFactory@VCGate@@VLockOfWinWhileSleep@XM_Tools@@@0@XZ ; XM_Tools::GetFactory<CGate,XM_Tools::LockOfWinWhileSleep>
;	COMDAT ?c_ObjectFactory@?1???$GetFactory@VCGate@@VLockOfWinWhileSleep@XM_Tools@@@XM_Tools@@YAAAV?$CObjectFactory@VCGate@@VLockOfWinWhileSleep@XM_Tools@@@1@XZ@4V21@A
_BSS	SEGMENT
?c_ObjectFactory@?1???$GetFactory@VCGate@@VLockOfWinWhileSleep@XM_Tools@@@XM_Tools@@YAAAV?$CObjectFactory@VCGate@@VLockOfWinWhileSleep@XM_Tools@@@1@XZ@4V21@A DQ 01H DUP (?) ; `XM_Tools::GetFactory<CGate,XM_Tools::LockOfWinWhileSleep>'::`2'::c_ObjectFactory
_BSS	ENDS
;	COMDAT ?$S7@?1???$GetFactory@VCGate@@VLockOfWinWhileSleep@XM_Tools@@@XM_Tools@@YAAAV?$CObjectFactory@VCGate@@VLockOfWinWhileSleep@XM_Tools@@@1@XZ@4IA
_BSS	SEGMENT
?$S7@?1???$GetFactory@VCGate@@VLockOfWinWhileSleep@XM_Tools@@@XM_Tools@@YAAAV?$CObjectFactory@VCGate@@VLockOfWinWhileSleep@XM_Tools@@@1@XZ@4IA DD 01H DUP (?) ; `XM_Tools::GetFactory<CGate,XM_Tools::LockOfWinWhileSleep>'::`2'::$S7
_BSS	ENDS
;	COMDAT xdata$x
xdata$x	SEGMENT
__unwindtable$??$GetFactory@VCGate@@VLockOfWinWhileSleep@XM_Tools@@@XM_Tools@@YAAAV?$CObjectFactory@VCGate@@VLockOfWinWhileSleep@XM_Tools@@@0@XZ DD 0ffffffffH
	DD	FLAT:__unwindfunclet$??$GetFactory@VCGate@@VLockOfWinWhileSleep@XM_Tools@@@XM_Tools@@YAAAV?$CObjectFactory@VCGate@@VLockOfWinWhileSleep@XM_Tools@@@0@XZ$0
__ehfuncinfo$??$GetFactory@VCGate@@VLockOfWinWhileSleep@XM_Tools@@@XM_Tools@@YAAAV?$CObjectFactory@VCGate@@VLockOfWinWhileSleep@XM_Tools@@@0@XZ DD 019930522H
	DD	01H
	DD	FLAT:__unwindtable$??$GetFactory@VCGate@@VLockOfWinWhileSleep@XM_Tools@@@XM_Tools@@YAAAV?$CObjectFactory@VCGate@@VLockOfWinWhileSleep@XM_Tools@@@0@XZ
	DD	2 DUP(00H)
	DD	2 DUP(00H)
	DD	00H
	DD	01H
; Function compile flags: /Ogtpy
xdata$x	ENDS
;	COMDAT ??$GetFactory@VCGate@@VLockOfWinWhileSleep@XM_Tools@@@XM_Tools@@YAAAV?$CObjectFactory@VCGate@@VLockOfWinWhileSleep@XM_Tools@@@0@XZ
_TEXT	SEGMENT
__$EHRec$ = -12						; size = 12
??$GetFactory@VCGate@@VLockOfWinWhileSleep@XM_Tools@@@XM_Tools@@YAAAV?$CObjectFactory@VCGate@@VLockOfWinWhileSleep@XM_Tools@@@0@XZ PROC ; XM_Tools::GetFactory<CGate,XM_Tools::LockOfWinWhileSleep>, COMDAT

; 220  : 	{

  00000	6a ff		 push	 -1
  00002	68 00 00 00 00	 push	 __ehhandler$??$GetFactory@VCGate@@VLockOfWinWhileSleep@XM_Tools@@@XM_Tools@@YAAAV?$CObjectFactory@VCGate@@VLockOfWinWhileSleep@XM_Tools@@@0@XZ
  00007	64 a1 00 00 00
	00		 mov	 eax, DWORD PTR fs:0
  0000d	50		 push	 eax
  0000e	a1 00 00 00 00	 mov	 eax, DWORD PTR ___security_cookie
  00013	33 c4		 xor	 eax, esp
  00015	50		 push	 eax
  00016	8d 44 24 04	 lea	 eax, DWORD PTR __$EHRec$[esp+16]
  0001a	64 a3 00 00 00
	00		 mov	 DWORD PTR fs:0, eax

; 221  : 		static CObjectFactory<_TObject, _TLock> c_ObjectFactory(GetMemManage<_TLock>());

  00020	b8 01 00 00 00	 mov	 eax, 1
  00025	84 05 00 00 00
	00		 test	 BYTE PTR ?$S7@?1???$GetFactory@VCGate@@VLockOfWinWhileSleep@XM_Tools@@@XM_Tools@@YAAAV?$CObjectFactory@VCGate@@VLockOfWinWhileSleep@XM_Tools@@@1@XZ@4IA, al
  0002b	75 36		 jne	 SHORT $LN7@GetFactory@7
  0002d	09 05 00 00 00
	00		 or	 DWORD PTR ?$S7@?1???$GetFactory@VCGate@@VLockOfWinWhileSleep@XM_Tools@@@XM_Tools@@YAAAV?$CObjectFactory@VCGate@@VLockOfWinWhileSleep@XM_Tools@@@1@XZ@4IA, eax
  00033	c7 44 24 0c 00
	00 00 00	 mov	 DWORD PTR __$EHRec$[esp+24], 0
  0003b	e8 00 00 00 00	 call	 ??$GetMemManage@VLockOfWinWhileSleep@XM_Tools@@@XM_Tools@@YAAAV?$CMemManage@VLockOfWinWhileSleep@XM_Tools@@@0@XZ ; XM_Tools::GetMemManage<XM_Tools::LockOfWinWhileSleep>
  00040	a3 00 00 00 00	 mov	 DWORD PTR ?c_ObjectFactory@?1???$GetFactory@VCGate@@VLockOfWinWhileSleep@XM_Tools@@@XM_Tools@@YAAAV?$CObjectFactory@VCGate@@VLockOfWinWhileSleep@XM_Tools@@@1@XZ@4V21@A, eax
  00045	e8 00 00 00 00	 call	 ?GetObjInfoManage@XM_Tools@@YAAAVCObjInfoManage@1@XZ ; XM_Tools::GetObjInfoManage
  0004a	8b c8		 mov	 ecx, eax
  0004c	e8 00 00 00 00	 call	 ?GetNewRTID@CObjInfoManage@XM_Tools@@QAEKXZ ; XM_Tools::CObjInfoManage::GetNewRTID
  00051	68 00 00 00 00	 push	 OFFSET ??__Fc_ObjectFactory@?1???$GetFactory@VCGate@@VLockOfWinWhileSleep@XM_Tools@@@XM_Tools@@YAAAV?$CObjectFactory@VCGate@@VLockOfWinWhileSleep@XM_Tools@@@0@XZ@YAXXZ ; `XM_Tools::GetFactory<CGate,XM_Tools::LockOfWinWhileSleep>'::`2'::`dynamic atexit destructor for 'c_ObjectFactory''
  00056	a3 04 00 00 00	 mov	 DWORD PTR ?c_ObjectFactory@?1???$GetFactory@VCGate@@VLockOfWinWhileSleep@XM_Tools@@@XM_Tools@@YAAAV?$CObjectFactory@VCGate@@VLockOfWinWhileSleep@XM_Tools@@@1@XZ@4V21@A+4, eax
  0005b	e8 00 00 00 00	 call	 _atexit
  00060	83 c4 04	 add	 esp, 4
$LN7@GetFactory@7:

; 222  : 		return c_ObjectFactory;

  00063	b8 00 00 00 00	 mov	 eax, OFFSET ?c_ObjectFactory@?1???$GetFactory@VCGate@@VLockOfWinWhileSleep@XM_Tools@@@XM_Tools@@YAAAV?$CObjectFactory@VCGate@@VLockOfWinWhileSleep@XM_Tools@@@1@XZ@4V21@A

; 223  : 	}

  00068	8b 4c 24 04	 mov	 ecx, DWORD PTR __$EHRec$[esp+16]
  0006c	64 89 0d 00 00
	00 00		 mov	 DWORD PTR fs:0, ecx
  00073	59		 pop	 ecx
  00074	83 c4 0c	 add	 esp, 12			; 0000000cH
  00077	c3		 ret	 0
_TEXT	ENDS
;	COMDAT text$x
text$x	SEGMENT
__unwindfunclet$??$GetFactory@VCGate@@VLockOfWinWhileSleep@XM_Tools@@@XM_Tools@@YAAAV?$CObjectFactory@VCGate@@VLockOfWinWhileSleep@XM_Tools@@@0@XZ$0:
  00000	a1 00 00 00 00	 mov	 eax, DWORD PTR ?$S7@?1???$GetFactory@VCGate@@VLockOfWinWhileSleep@XM_Tools@@@XM_Tools@@YAAAV?$CObjectFactory@VCGate@@VLockOfWinWhileSleep@XM_Tools@@@1@XZ@4IA
  00005	83 e0 fe	 and	 eax, -2			; fffffffeH
  00008	a3 00 00 00 00	 mov	 DWORD PTR ?$S7@?1???$GetFactory@VCGate@@VLockOfWinWhileSleep@XM_Tools@@@XM_Tools@@YAAAV?$CObjectFactory@VCGate@@VLockOfWinWhileSleep@XM_Tools@@@1@XZ@4IA, eax
  0000d	c3		 ret	 0
__ehhandler$??$GetFactory@VCGate@@VLockOfWinWhileSleep@XM_Tools@@@XM_Tools@@YAAAV?$CObjectFactory@VCGate@@VLockOfWinWhileSleep@XM_Tools@@@0@XZ:
  0000e	8b 54 24 08	 mov	 edx, DWORD PTR [esp+8]
  00012	8d 02		 lea	 eax, DWORD PTR [edx]
  00014	8b 4a fc	 mov	 ecx, DWORD PTR [edx-4]
  00017	33 c8		 xor	 ecx, eax
  00019	e8 00 00 00 00	 call	 @__security_check_cookie@4
  0001e	b8 00 00 00 00	 mov	 eax, OFFSET __ehfuncinfo$??$GetFactory@VCGate@@VLockOfWinWhileSleep@XM_Tools@@@XM_Tools@@YAAAV?$CObjectFactory@VCGate@@VLockOfWinWhileSleep@XM_Tools@@@0@XZ
  00023	e9 00 00 00 00	 jmp	 ___CxxFrameHandler3
text$x	ENDS
??$GetFactory@VCGate@@VLockOfWinWhileSleep@XM_Tools@@@XM_Tools@@YAAAV?$CObjectFactory@VCGate@@VLockOfWinWhileSleep@XM_Tools@@@0@XZ ENDP ; XM_Tools::GetFactory<CGate,XM_Tools::LockOfWinWhileSleep>
PUBLIC	?CreateObj@?$CObjectFactory@VCGate@@VLockOfWinWhileSleep@XM_Tools@@@XM_Tools@@QAEPAVCGate@@XZ ; XM_Tools::CObjectFactory<CGate,XM_Tools::LockOfWinWhileSleep>::CreateObj
EXTRN	??0CGate@@QAE@XZ:PROC				; CGate::CGate
;	COMDAT xdata$x
; File d:\program files\microsoft visual studio 8\vc\include\new
xdata$x	SEGMENT
__unwindtable$?CreateObj@?$CObjectFactory@VCGate@@VLockOfWinWhileSleep@XM_Tools@@@XM_Tools@@QAEPAVCGate@@XZ DD 0ffffffffH
	DD	FLAT:__unwindfunclet$?CreateObj@?$CObjectFactory@VCGate@@VLockOfWinWhileSleep@XM_Tools@@@XM_Tools@@QAEPAVCGate@@XZ$0
__ehfuncinfo$?CreateObj@?$CObjectFactory@VCGate@@VLockOfWinWhileSleep@XM_Tools@@@XM_Tools@@QAEPAVCGate@@XZ DD 019930522H
	DD	01H
	DD	FLAT:__unwindtable$?CreateObj@?$CObjectFactory@VCGate@@VLockOfWinWhileSleep@XM_Tools@@@XM_Tools@@QAEPAVCGate@@XZ
	DD	2 DUP(00H)
	DD	2 DUP(00H)
	DD	00H
	DD	01H
; Function compile flags: /Ogtpy
; File d:\project_p6\trunk\public\memmanage\cpp\objectfactory.tcc
xdata$x	ENDS
;	COMDAT ?CreateObj@?$CObjectFactory@VCGate@@VLockOfWinWhileSleep@XM_Tools@@@XM_Tools@@QAEPAVCGate@@XZ
_TEXT	SEGMENT
_pObj$ = -20						; size = 4
$T304179 = -16						; size = 4
__$EHRec$ = -12						; size = 12
?CreateObj@?$CObjectFactory@VCGate@@VLockOfWinWhileSleep@XM_Tools@@@XM_Tools@@QAEPAVCGate@@XZ PROC ; XM_Tools::CObjectFactory<CGate,XM_Tools::LockOfWinWhileSleep>::CreateObj, COMDAT
; _this$ = ecx

; 135  : 	{

  00000	6a ff		 push	 -1
  00002	68 00 00 00 00	 push	 __ehhandler$?CreateObj@?$CObjectFactory@VCGate@@VLockOfWinWhileSleep@XM_Tools@@@XM_Tools@@QAEPAVCGate@@XZ
  00007	64 a1 00 00 00
	00		 mov	 eax, DWORD PTR fs:0
  0000d	50		 push	 eax
  0000e	83 ec 08	 sub	 esp, 8
  00011	56		 push	 esi
  00012	a1 00 00 00 00	 mov	 eax, DWORD PTR ___security_cookie
  00017	33 c4		 xor	 eax, esp
  00019	50		 push	 eax
  0001a	8d 44 24 10	 lea	 eax, DWORD PTR __$EHRec$[esp+28]
  0001e	64 a3 00 00 00
	00		 mov	 DWORD PTR fs:0, eax

; 136  : 		unsigned long AllocSize = sizeof(unsigned long) + sizeof(_TObject);
; 137  : 		unsigned long *pMem = (unsigned long*)GetMemManage<_TLock>().AsyncAlloc(AllocSize);

  00024	68 b8 04 00 00	 push	 1208			; 000004b8H
  00029	e8 00 00 00 00	 call	 ??$GetMemManage@VLockOfWinWhileSleep@XM_Tools@@@XM_Tools@@YAAAV?$CMemManage@VLockOfWinWhileSleep@XM_Tools@@@0@XZ ; XM_Tools::GetMemManage<XM_Tools::LockOfWinWhileSleep>
  0002e	8b c8		 mov	 ecx, eax
  00030	e8 00 00 00 00	 call	 ?AsyncAlloc@?$CMemManage@VLockOfWinWhileSleep@XM_Tools@@@XM_Tools@@QAEPAXK@Z ; XM_Tools::CMemManage<XM_Tools::LockOfWinWhileSleep>::AsyncAlloc

; 138  : 		if(NULL == pMem)

  00035	85 c0		 test	 eax, eax
  00037	75 11		 jne	 SHORT $LN1@CreateObj@7

; 145  : 	}

  00039	8b 4c 24 10	 mov	 ecx, DWORD PTR __$EHRec$[esp+28]
  0003d	64 89 0d 00 00
	00 00		 mov	 DWORD PTR fs:0, ecx
  00044	59		 pop	 ecx
  00045	5e		 pop	 esi
  00046	83 c4 14	 add	 esp, 20			; 00000014H
  00049	c3		 ret	 0
$LN1@CreateObj@7:

; 139  : 			return NULL;
; 140  : 		
; 141  : 		pMem[0] = AllocSize;
; 142  : 		_TObject *pObj = (_TObject*)(pMem + 1);

  0004a	8d 70 04	 lea	 esi, DWORD PTR [eax+4]
  0004d	c7 00 b8 04 00
	00		 mov	 DWORD PTR [eax], 1208	; 000004b8H
  00053	89 74 24 08	 mov	 DWORD PTR _pObj$[esp+28], esi

; 143  : 		new(pObj)_TObject();

  00057	89 74 24 0c	 mov	 DWORD PTR $T304179[esp+28], esi
  0005b	85 f6		 test	 esi, esi
  0005d	c7 44 24 18 00
	00 00 00	 mov	 DWORD PTR __$EHRec$[esp+36], 0
  00065	74 07		 je	 SHORT $LN4@CreateObj@7
  00067	8b ce		 mov	 ecx, esi
  00069	e8 00 00 00 00	 call	 ??0CGate@@QAE@XZ	; CGate::CGate
$LN4@CreateObj@7:

; 144  : 		return pObj;

  0006e	8b c6		 mov	 eax, esi

; 145  : 	}

  00070	8b 4c 24 10	 mov	 ecx, DWORD PTR __$EHRec$[esp+28]
  00074	64 89 0d 00 00
	00 00		 mov	 DWORD PTR fs:0, ecx
  0007b	59		 pop	 ecx
  0007c	5e		 pop	 esi
  0007d	83 c4 14	 add	 esp, 20			; 00000014H
  00080	c3		 ret	 0
_TEXT	ENDS
;	COMDAT text$x
text$x	SEGMENT
__unwindfunclet$?CreateObj@?$CObjectFactory@VCGate@@VLockOfWinWhileSleep@XM_Tools@@@XM_Tools@@QAEPAVCGate@@XZ$0:
  00000	8b 45 ec	 mov	 eax, DWORD PTR _pObj$[ebp]
  00003	50		 push	 eax
  00004	8b 4d f0	 mov	 ecx, DWORD PTR $T304179[ebp]
  00007	51		 push	 ecx
  00008	e8 00 00 00 00	 call	 ??3@YAXPAX0@Z		; operator delete
  0000d	83 c4 08	 add	 esp, 8
  00010	c3		 ret	 0
__ehhandler$?CreateObj@?$CObjectFactory@VCGate@@VLockOfWinWhileSleep@XM_Tools@@@XM_Tools@@QAEPAVCGate@@XZ:
  00011	8b 54 24 08	 mov	 edx, DWORD PTR [esp+8]
  00015	8d 42 f4	 lea	 eax, DWORD PTR [edx-12]
  00018	8b 4a f0	 mov	 ecx, DWORD PTR [edx-16]
  0001b	33 c8		 xor	 ecx, eax
  0001d	e8 00 00 00 00	 call	 @__security_check_cookie@4
  00022	b8 00 00 00 00	 mov	 eax, OFFSET __ehfuncinfo$?CreateObj@?$CObjectFactory@VCGate@@VLockOfWinWhileSleep@XM_Tools@@@XM_Tools@@QAEPAVCGate@@XZ
  00027	e9 00 00 00 00	 jmp	 ___CxxFrameHandler3
text$x	ENDS
?CreateObj@?$CObjectFactory@VCGate@@VLockOfWinWhileSleep@XM_Tools@@@XM_Tools@@QAEPAVCGate@@XZ ENDP ; XM_Tools::CObjectFactory<CGate,XM_Tools::LockOfWinWhileSleep>::CreateObj
PUBLIC	?ReleaseObj@?$CObjectFactory@VCGate@@VLockOfWinWhileSleep@XM_Tools@@@XM_Tools@@QAEXPAVCGate@@@Z ; XM_Tools::CObjectFactory<CGate,XM_Tools::LockOfWinWhileSleep>::ReleaseObj
; Function compile flags: /Ogtpy
;	COMDAT ?ReleaseObj@?$CObjectFactory@VCGate@@VLockOfWinWhileSleep@XM_Tools@@@XM_Tools@@QAEXPAVCGate@@@Z
_TEXT	SEGMENT
_pObj$ = 8						; size = 4
?ReleaseObj@?$CObjectFactory@VCGate@@VLockOfWinWhileSleep@XM_Tools@@@XM_Tools@@QAEXPAVCGate@@@Z PROC ; XM_Tools::CObjectFactory<CGate,XM_Tools::LockOfWinWhileSleep>::ReleaseObj, COMDAT
; _this$ = ecx

; 165  : 	{

  00000	56		 push	 esi

; 166  : 		//MM_ASSERY(NULL != pObj);
; 167  : 		if(NULL == pObj)

  00001	8b 74 24 08	 mov	 esi, DWORD PTR _pObj$[esp]
  00005	85 f6		 test	 esi, esi
  00007	74 1f		 je	 SHORT $LN2@ReleaseObj@6

; 168  : 			return;
; 169  : 		pObj->~_TObject();

  00009	8b 06		 mov	 eax, DWORD PTR [esi]
  0000b	8b 50 10	 mov	 edx, DWORD PTR [eax+16]
  0000e	6a 00		 push	 0
  00010	8b ce		 mov	 ecx, esi
  00012	ff d2		 call	 edx

; 170  : 		unsigned long *pMem = (unsigned long*)pObj;
; 171  : 		--pMem;
; 172  : 		GetMemManage<_TLock>().AsyncFree(pMem, pMem[0]);

  00014	8b 4e fc	 mov	 ecx, DWORD PTR [esi-4]
  00017	8d 46 fc	 lea	 eax, DWORD PTR [esi-4]
  0001a	51		 push	 ecx
  0001b	50		 push	 eax
  0001c	e8 00 00 00 00	 call	 ??$GetMemManage@VLockOfWinWhileSleep@XM_Tools@@@XM_Tools@@YAAAV?$CMemManage@VLockOfWinWhileSleep@XM_Tools@@@0@XZ ; XM_Tools::GetMemManage<XM_Tools::LockOfWinWhileSleep>
  00021	8b c8		 mov	 ecx, eax
  00023	e8 00 00 00 00	 call	 ?AsyncFree@?$CMemManage@VLockOfWinWhileSleep@XM_Tools@@@XM_Tools@@QAEXPAXK@Z ; XM_Tools::CMemManage<XM_Tools::LockOfWinWhileSleep>::AsyncFree
$LN2@ReleaseObj@6:
  00028	5e		 pop	 esi

; 173  : 	}

  00029	c2 04 00	 ret	 4
?ReleaseObj@?$CObjectFactory@VCGate@@VLockOfWinWhileSleep@XM_Tools@@@XM_Tools@@QAEXPAVCGate@@@Z ENDP ; XM_Tools::CObjectFactory<CGate,XM_Tools::LockOfWinWhileSleep>::ReleaseObj
_TEXT	ENDS
PUBLIC	??$GetFactory@VCServerRegion@@VLockOfWinWhileSleep@XM_Tools@@@XM_Tools@@YAAAV?$CObjectFactory@VCServerRegion@@VLockOfWinWhileSleep@XM_Tools@@@0@XZ ; XM_Tools::GetFactory<CServerRegion,XM_Tools::LockOfWinWhileSleep>
;	COMDAT ?c_ObjectFactory@?1???$GetFactory@VCServerRegion@@VLockOfWinWhileSleep@XM_Tools@@@XM_Tools@@YAAAV?$CObjectFactory@VCServerRegion@@VLockOfWinWhileSleep@XM_Tools@@@1@XZ@4V21@A
_BSS	SEGMENT
?c_ObjectFactory@?1???$GetFactory@VCServerRegion@@VLockOfWinWhileSleep@XM_Tools@@@XM_Tools@@YAAAV?$CObjectFactory@VCServerRegion@@VLockOfWinWhileSleep@XM_Tools@@@1@XZ@4V21@A DQ 01H DUP (?) ; `XM_Tools::GetFactory<CServerRegion,XM_Tools::LockOfWinWhileSleep>'::`2'::c_ObjectFactory
_BSS	ENDS
;	COMDAT ?$S8@?1???$GetFactory@VCServerRegion@@VLockOfWinWhileSleep@XM_Tools@@@XM_Tools@@YAAAV?$CObjectFactory@VCServerRegion@@VLockOfWinWhileSleep@XM_Tools@@@1@XZ@4IA
_BSS	SEGMENT
?$S8@?1???$GetFactory@VCServerRegion@@VLockOfWinWhileSleep@XM_Tools@@@XM_Tools@@YAAAV?$CObjectFactory@VCServerRegion@@VLockOfWinWhileSleep@XM_Tools@@@1@XZ@4IA DD 01H DUP (?) ; `XM_Tools::GetFactory<CServerRegion,XM_Tools::LockOfWinWhileSleep>'::`2'::$S8
_BSS	ENDS
;	COMDAT xdata$x
xdata$x	SEGMENT
__unwindtable$??$GetFactory@VCServerRegion@@VLockOfWinWhileSleep@XM_Tools@@@XM_Tools@@YAAAV?$CObjectFactory@VCServerRegion@@VLockOfWinWhileSleep@XM_Tools@@@0@XZ DD 0ffffffffH
	DD	FLAT:__unwindfunclet$??$GetFactory@VCServerRegion@@VLockOfWinWhileSleep@XM_Tools@@@XM_Tools@@YAAAV?$CObjectFactory@VCServerRegion@@VLockOfWinWhileSleep@XM_Tools@@@0@XZ$0
__ehfuncinfo$??$GetFactory@VCServerRegion@@VLockOfWinWhileSleep@XM_Tools@@@XM_Tools@@YAAAV?$CObjectFactory@VCServerRegion@@VLockOfWinWhileSleep@XM_Tools@@@0@XZ DD 019930522H
	DD	01H
	DD	FLAT:__unwindtable$??$GetFactory@VCServerRegion@@VLockOfWinWhileSleep@XM_Tools@@@XM_Tools@@YAAAV?$CObjectFactory@VCServerRegion@@VLockOfWinWhileSleep@XM_Tools@@@0@XZ
	DD	2 DUP(00H)
	DD	2 DUP(00H)
	DD	00H
	DD	01H
; Function compile flags: /Ogtpy
xdata$x	ENDS
;	COMDAT ??$GetFactory@VCServerRegion@@VLockOfWinWhileSleep@XM_Tools@@@XM_Tools@@YAAAV?$CObjectFactory@VCServerRegion@@VLockOfWinWhileSleep@XM_Tools@@@0@XZ
_TEXT	SEGMENT
__$EHRec$ = -12						; size = 12
??$GetFactory@VCServerRegion@@VLockOfWinWhileSleep@XM_Tools@@@XM_Tools@@YAAAV?$CObjectFactory@VCServerRegion@@VLockOfWinWhileSleep@XM_Tools@@@0@XZ PROC ; XM_Tools::GetFactory<CServerRegion,XM_Tools::LockOfWinWhileSleep>, COMDAT

; 220  : 	{

  00000	6a ff		 push	 -1
  00002	68 00 00 00 00	 push	 __ehhandler$??$GetFactory@VCServerRegion@@VLockOfWinWhileSleep@XM_Tools@@@XM_Tools@@YAAAV?$CObjectFactory@VCServerRegion@@VLockOfWinWhileSleep@XM_Tools@@@0@XZ
  00007	64 a1 00 00 00
	00		 mov	 eax, DWORD PTR fs:0
  0000d	50		 push	 eax
  0000e	a1 00 00 00 00	 mov	 eax, DWORD PTR ___security_cookie
  00013	33 c4		 xor	 eax, esp
  00015	50		 push	 eax
  00016	8d 44 24 04	 lea	 eax, DWORD PTR __$EHRec$[esp+16]
  0001a	64 a3 00 00 00
	00		 mov	 DWORD PTR fs:0, eax

; 221  : 		static CObjectFactory<_TObject, _TLock> c_ObjectFactory(GetMemManage<_TLock>());

  00020	b8 01 00 00 00	 mov	 eax, 1
  00025	84 05 00 00 00
	00		 test	 BYTE PTR ?$S8@?1???$GetFactory@VCServerRegion@@VLockOfWinWhileSleep@XM_Tools@@@XM_Tools@@YAAAV?$CObjectFactory@VCServerRegion@@VLockOfWinWhileSleep@XM_Tools@@@1@XZ@4IA, al
  0002b	75 36		 jne	 SHORT $LN7@GetFactory@8
  0002d	09 05 00 00 00
	00		 or	 DWORD PTR ?$S8@?1???$GetFactory@VCServerRegion@@VLockOfWinWhileSleep@XM_Tools@@@XM_Tools@@YAAAV?$CObjectFactory@VCServerRegion@@VLockOfWinWhileSleep@XM_Tools@@@1@XZ@4IA, eax
  00033	c7 44 24 0c 00
	00 00 00	 mov	 DWORD PTR __$EHRec$[esp+24], 0
  0003b	e8 00 00 00 00	 call	 ??$GetMemManage@VLockOfWinWhileSleep@XM_Tools@@@XM_Tools@@YAAAV?$CMemManage@VLockOfWinWhileSleep@XM_Tools@@@0@XZ ; XM_Tools::GetMemManage<XM_Tools::LockOfWinWhileSleep>
  00040	a3 00 00 00 00	 mov	 DWORD PTR ?c_ObjectFactory@?1???$GetFactory@VCServerRegion@@VLockOfWinWhileSleep@XM_Tools@@@XM_Tools@@YAAAV?$CObjectFactory@VCServerRegion@@VLockOfWinWhileSleep@XM_Tools@@@1@XZ@4V21@A, eax
  00045	e8 00 00 00 00	 call	 ?GetObjInfoManage@XM_Tools@@YAAAVCObjInfoManage@1@XZ ; XM_Tools::GetObjInfoManage
  0004a	8b c8		 mov	 ecx, eax
  0004c	e8 00 00 00 00	 call	 ?GetNewRTID@CObjInfoManage@XM_Tools@@QAEKXZ ; XM_Tools::CObjInfoManage::GetNewRTID
  00051	68 00 00 00 00	 push	 OFFSET ??__Fc_ObjectFactory@?1???$GetFactory@VCServerRegion@@VLockOfWinWhileSleep@XM_Tools@@@XM_Tools@@YAAAV?$CObjectFactory@VCServerRegion@@VLockOfWinWhileSleep@XM_Tools@@@0@XZ@YAXXZ ; `XM_Tools::GetFactory<CServerRegion,XM_Tools::LockOfWinWhileSleep>'::`2'::`dynamic atexit destructor for 'c_ObjectFactory''
  00056	a3 04 00 00 00	 mov	 DWORD PTR ?c_ObjectFactory@?1???$GetFactory@VCServerRegion@@VLockOfWinWhileSleep@XM_Tools@@@XM_Tools@@YAAAV?$CObjectFactory@VCServerRegion@@VLockOfWinWhileSleep@XM_Tools@@@1@XZ@4V21@A+4, eax
  0005b	e8 00 00 00 00	 call	 _atexit
  00060	83 c4 04	 add	 esp, 4
$LN7@GetFactory@8:

; 222  : 		return c_ObjectFactory;

  00063	b8 00 00 00 00	 mov	 eax, OFFSET ?c_ObjectFactory@?1???$GetFactory@VCServerRegion@@VLockOfWinWhileSleep@XM_Tools@@@XM_Tools@@YAAAV?$CObjectFactory@VCServerRegion@@VLockOfWinWhileSleep@XM_Tools@@@1@XZ@4V21@A

; 223  : 	}

  00068	8b 4c 24 04	 mov	 ecx, DWORD PTR __$EHRec$[esp+16]
  0006c	64 89 0d 00 00
	00 00		 mov	 DWORD PTR fs:0, ecx
  00073	59		 pop	 ecx
  00074	83 c4 0c	 add	 esp, 12			; 0000000cH
  00077	c3		 ret	 0
_TEXT	ENDS
;	COMDAT text$x
text$x	SEGMENT
__unwindfunclet$??$GetFactory@VCServerRegion@@VLockOfWinWhileSleep@XM_Tools@@@XM_Tools@@YAAAV?$CObjectFactory@VCServerRegion@@VLockOfWinWhileSleep@XM_Tools@@@0@XZ$0:
  00000	a1 00 00 00 00	 mov	 eax, DWORD PTR ?$S8@?1???$GetFactory@VCServerRegion@@VLockOfWinWhileSleep@XM_Tools@@@XM_Tools@@YAAAV?$CObjectFactory@VCServerRegion@@VLockOfWinWhileSleep@XM_Tools@@@1@XZ@4IA
  00005	83 e0 fe	 and	 eax, -2			; fffffffeH
  00008	a3 00 00 00 00	 mov	 DWORD PTR ?$S8@?1???$GetFactory@VCServerRegion@@VLockOfWinWhileSleep@XM_Tools@@@XM_Tools@@YAAAV?$CObjectFactory@VCServerRegion@@VLockOfWinWhileSleep@XM_Tools@@@1@XZ@4IA, eax
  0000d	c3		 ret	 0
__ehhandler$??$GetFactory@VCServerRegion@@VLockOfWinWhileSleep@XM_Tools@@@XM_Tools@@YAAAV?$CObjectFactory@VCServerRegion@@VLockOfWinWhileSleep@XM_Tools@@@0@XZ:
  0000e	8b 54 24 08	 mov	 edx, DWORD PTR [esp+8]
  00012	8d 02		 lea	 eax, DWORD PTR [edx]
  00014	8b 4a fc	 mov	 ecx, DWORD PTR [edx-4]
  00017	33 c8		 xor	 ecx, eax
  00019	e8 00 00 00 00	 call	 @__security_check_cookie@4
  0001e	b8 00 00 00 00	 mov	 eax, OFFSET __ehfuncinfo$??$GetFactory@VCServerRegion@@VLockOfWinWhileSleep@XM_Tools@@@XM_Tools@@YAAAV?$CObjectFactory@VCServerRegion@@VLockOfWinWhileSleep@XM_Tools@@@0@XZ
  00023	e9 00 00 00 00	 jmp	 ___CxxFrameHandler3
text$x	ENDS
??$GetFactory@VCServerRegion@@VLockOfWinWhileSleep@XM_Tools@@@XM_Tools@@YAAAV?$CObjectFactory@VCServerRegion@@VLockOfWinWhileSleep@XM_Tools@@@0@XZ ENDP ; XM_Tools::GetFactory<CServerRegion,XM_Tools::LockOfWinWhileSleep>
PUBLIC	?ReleaseObj@?$CObjectFactory@VCServerRegion@@VLockOfWinWhileSleep@XM_Tools@@@XM_Tools@@QAEXPAVCServerRegion@@@Z ; XM_Tools::CObjectFactory<CServerRegion,XM_Tools::LockOfWinWhileSleep>::ReleaseObj
; Function compile flags: /Ogtpy
;	COMDAT ?ReleaseObj@?$CObjectFactory@VCServerRegion@@VLockOfWinWhileSleep@XM_Tools@@@XM_Tools@@QAEXPAVCServerRegion@@@Z
_TEXT	SEGMENT
_pObj$ = 8						; size = 4
?ReleaseObj@?$CObjectFactory@VCServerRegion@@VLockOfWinWhileSleep@XM_Tools@@@XM_Tools@@QAEXPAVCServerRegion@@@Z PROC ; XM_Tools::CObjectFactory<CServerRegion,XM_Tools::LockOfWinWhileSleep>::ReleaseObj, COMDAT
; _this$ = ecx

; 165  : 	{

  00000	56		 push	 esi

; 166  : 		//MM_ASSERY(NULL != pObj);
; 167  : 		if(NULL == pObj)

  00001	8b 74 24 08	 mov	 esi, DWORD PTR _pObj$[esp]
  00005	85 f6		 test	 esi, esi
  00007	74 1f		 je	 SHORT $LN2@ReleaseObj@7

; 168  : 			return;
; 169  : 		pObj->~_TObject();

  00009	8b 06		 mov	 eax, DWORD PTR [esi]
  0000b	8b 50 10	 mov	 edx, DWORD PTR [eax+16]
  0000e	6a 00		 push	 0
  00010	8b ce		 mov	 ecx, esi
  00012	ff d2		 call	 edx

; 170  : 		unsigned long *pMem = (unsigned long*)pObj;
; 171  : 		--pMem;
; 172  : 		GetMemManage<_TLock>().AsyncFree(pMem, pMem[0]);

  00014	8b 4e fc	 mov	 ecx, DWORD PTR [esi-4]
  00017	8d 46 fc	 lea	 eax, DWORD PTR [esi-4]
  0001a	51		 push	 ecx
  0001b	50		 push	 eax
  0001c	e8 00 00 00 00	 call	 ??$GetMemManage@VLockOfWinWhileSleep@XM_Tools@@@XM_Tools@@YAAAV?$CMemManage@VLockOfWinWhileSleep@XM_Tools@@@0@XZ ; XM_Tools::GetMemManage<XM_Tools::LockOfWinWhileSleep>
  00021	8b c8		 mov	 ecx, eax
  00023	e8 00 00 00 00	 call	 ?AsyncFree@?$CMemManage@VLockOfWinWhileSleep@XM_Tools@@@XM_Tools@@QAEXPAXK@Z ; XM_Tools::CMemManage<XM_Tools::LockOfWinWhileSleep>::AsyncFree
$LN2@ReleaseObj@7:
  00028	5e		 pop	 esi

; 173  : 	}

  00029	c2 04 00	 ret	 4
?ReleaseObj@?$CObjectFactory@VCServerRegion@@VLockOfWinWhileSleep@XM_Tools@@@XM_Tools@@QAEXPAVCServerRegion@@@Z ENDP ; XM_Tools::CObjectFactory<CServerRegion,XM_Tools::LockOfWinWhileSleep>::ReleaseObj
_TEXT	ENDS
PUBLIC	??$_Insert@V?$_Iterator@$00@?$list@U?$pair@$$CBVCGUID@@PAVCBaseObject@@@std@@V?$allocator@U?$pair@$$CBVCGUID@@PAVCBaseObject@@@std@@@2@@std@@@?$list@U?$pair@$$CBVCGUID@@PAVCBaseObject@@@std@@V?$allocator@U?$pair@$$CBVCGUID@@PAVCBaseObject@@@std@@@2@@std@@QAEXV?$_Iterator@$00@01@00Uforward_iterator_tag@1@@Z ; std::list<std::pair<CGUID const ,CBaseObject *>,std::allocator<std::pair<CGUID const ,CBaseObject *> > >::_Insert<std::list<std::pair<CGUID const ,CBaseObject *>,std::allocator<std::pair<CGUID const ,CBaseObject *> > >::_Iterator<1> >
;	COMDAT xdata$x
; File d:\program files\microsoft visual studio 8\vc\include\list
xdata$x	SEGMENT
__catchsym$??$_Insert@V?$_Iterator@$00@?$list@U?$pair@$$CBVCGUID@@PAVCBaseObject@@@std@@V?$allocator@U?$pair@$$CBVCGUID@@PAVCBaseObject@@@std@@@2@@std@@@?$list@U?$pair@$$CBVCGUID@@PAVCBaseObject@@@std@@V?$allocator@U?$pair@$$CBVCGUID@@PAVCBaseObject@@@std@@@2@@std@@QAEXV?$_Iterator@$00@01@00Uforward_iterator_tag@1@@Z$2 DD 040H
	DD	00H
	DD	00H
	DD	FLAT:__catch$??$_Insert@V?$_Iterator@$00@?$list@U?$pair@$$CBVCGUID@@PAVCBaseObject@@@std@@V?$allocator@U?$pair@$$CBVCGUID@@PAVCBaseObject@@@std@@@2@@std@@@?$list@U?$pair@$$CBVCGUID@@PAVCBaseObject@@@std@@V?$allocator@U?$pair@$$CBVCGUID@@PAVCBaseObject@@@std@@@2@@std@@QAEXV?$_Iterator@$00@01@00Uforward_iterator_tag@1@@Z$0
__unwindtable$??$_Insert@V?$_Iterator@$00@?$list@U?$pair@$$CBVCGUID@@PAVCBaseObject@@@std@@V?$allocator@U?$pair@$$CBVCGUID@@PAVCBaseObject@@@std@@@2@@std@@@?$list@U?$pair@$$CBVCGUID@@PAVCBaseObject@@@std@@V?$allocator@U?$pair@$$CBVCGUID@@PAVCBaseObject@@@std@@@2@@std@@QAEXV?$_Iterator@$00@01@00Uforward_iterator_tag@1@@Z DD 0ffffffffH
	DD	00H
	DD	0ffffffffH
	DD	00H
__tryblocktable$??$_Insert@V?$_Iterator@$00@?$list@U?$pair@$$CBVCGUID@@PAVCBaseObject@@@std@@V?$allocator@U?$pair@$$CBVCGUID@@PAVCBaseObject@@@std@@@2@@std@@@?$list@U?$pair@$$CBVCGUID@@PAVCBaseObject@@@std@@V?$allocator@U?$pair@$$CBVCGUID@@PAVCBaseObject@@@std@@@2@@std@@QAEXV?$_Iterator@$00@01@00Uforward_iterator_tag@1@@Z DD 00H
	DD	00H
	DD	01H
	DD	01H
	DD	FLAT:__catchsym$??$_Insert@V?$_Iterator@$00@?$list@U?$pair@$$CBVCGUID@@PAVCBaseObject@@@std@@V?$allocator@U?$pair@$$CBVCGUID@@PAVCBaseObject@@@std@@@2@@std@@@?$list@U?$pair@$$CBVCGUID@@PAVCBaseObject@@@std@@V?$allocator@U?$pair@$$CBVCGUID@@PAVCBaseObject@@@std@@@2@@std@@QAEXV?$_Iterator@$00@01@00Uforward_iterator_tag@1@@Z$2
__ehfuncinfo$??$_Insert@V?$_Iterator@$00@?$list@U?$pair@$$CBVCGUID@@PAVCBaseObject@@@std@@V?$allocator@U?$pair@$$CBVCGUID@@PAVCBaseObject@@@std@@@2@@std@@@?$list@U?$pair@$$CBVCGUID@@PAVCBaseObject@@@std@@V?$allocator@U?$pair@$$CBVCGUID@@PAVCBaseObject@@@std@@@2@@std@@QAEXV?$_Iterator@$00@01@00Uforward_iterator_tag@1@@Z DD 019930522H
	DD	02H
	DD	FLAT:__unwindtable$??$_Insert@V?$_Iterator@$00@?$list@U?$pair@$$CBVCGUID@@PAVCBaseObject@@@std@@V?$allocator@U?$pair@$$CBVCGUID@@PAVCBaseObject@@@std@@@2@@std@@@?$list@U?$pair@$$CBVCGUID@@PAVCBaseObject@@@std@@V?$allocator@U?$pair@$$CBVCGUID@@PAVCBaseObject@@@std@@@2@@std@@QAEXV?$_Iterator@$00@01@00Uforward_iterator_tag@1@@Z
	DD	01H
	DD	FLAT:__tryblocktable$??$_Insert@V?$_Iterator@$00@?$list@U?$pair@$$CBVCGUID@@PAVCBaseObject@@@std@@V?$allocator@U?$pair@$$CBVCGUID@@PAVCBaseObject@@@std@@@2@@std@@@?$list@U?$pair@$$CBVCGUID@@PAVCBaseObject@@@std@@V?$allocator@U?$pair@$$CBVCGUID@@PAVCBaseObject@@@std@@@2@@std@@QAEXV?$_Iterator@$00@01@00Uforward_iterator_tag@1@@Z
	DD	2 DUP(00H)
	DD	00H
	DD	01H
; Function compile flags: /Ogtpy
xdata$x	ENDS
;	COMDAT ??$_Insert@V?$_Iterator@$00@?$list@U?$pair@$$CBVCGUID@@PAVCBaseObject@@@std@@V?$allocator@U?$pair@$$CBVCGUID@@PAVCBaseObject@@@std@@@2@@std@@@?$list@U?$pair@$$CBVCGUID@@PAVCBaseObject@@@std@@V?$allocator@U?$pair@$$CBVCGUID@@PAVCBaseObject@@@std@@@2@@std@@QAEXV?$_Iterator@$00@01@00Uforward_iterator_tag@1@@Z
_TEXT	SEGMENT
__Next$ = -28						; size = 8
_this$ = -20						; size = 4
__$EHRec$ = -16						; size = 16
__Before$289074 = 8					; size = 8
__Where$ = 8						; size = 8
__First$ = 16						; size = 8
$T304216 = 24						; size = 8
__Last$ = 24						; size = 8
___formal$ = 32						; size = 1
??$_Insert@V?$_Iterator@$00@?$list@U?$pair@$$CBVCGUID@@PAVCBaseObject@@@std@@V?$allocator@U?$pair@$$CBVCGUID@@PAVCBaseObject@@@std@@@2@@std@@@?$list@U?$pair@$$CBVCGUID@@PAVCBaseObject@@@std@@V?$allocator@U?$pair@$$CBVCGUID@@PAVCBaseObject@@@std@@@2@@std@@QAEXV?$_Iterator@$00@01@00Uforward_iterator_tag@1@@Z PROC ; std::list<std::pair<CGUID const ,CBaseObject *>,std::allocator<std::pair<CGUID const ,CBaseObject *> > >::_Insert<std::list<std::pair<CGUID const ,CBaseObject *>,std::allocator<std::pair<CGUID const ,CBaseObject *> > >::_Iterator<1> >, COMDAT
; _this$ = ecx

; 746  : 		void _Insert(iterator _Where,

  00000	55		 push	 ebp
  00001	8b ec		 mov	 ebp, esp
  00003	6a ff		 push	 -1
  00005	68 00 00 00 00	 push	 __ehhandler$??$_Insert@V?$_Iterator@$00@?$list@U?$pair@$$CBVCGUID@@PAVCBaseObject@@@std@@V?$allocator@U?$pair@$$CBVCGUID@@PAVCBaseObject@@@std@@@2@@std@@@?$list@U?$pair@$$CBVCGUID@@PAVCBaseObject@@@std@@V?$allocator@U?$pair@$$CBVCGUID@@PAVCBaseObject@@@std@@@2@@std@@QAEXV?$_Iterator@$00@01@00Uforward_iterator_tag@1@@Z
  0000a	64 a1 00 00 00
	00		 mov	 eax, DWORD PTR fs:0
  00010	50		 push	 eax
  00011	83 ec 10	 sub	 esp, 16			; 00000010H
  00014	53		 push	 ebx
  00015	56		 push	 esi
  00016	57		 push	 edi
  00017	a1 00 00 00 00	 mov	 eax, DWORD PTR ___security_cookie
  0001c	33 c5		 xor	 eax, ebp
  0001e	50		 push	 eax
  0001f	8d 45 f4	 lea	 eax, DWORD PTR __$EHRec$[ebp+4]
  00022	64 a3 00 00 00
	00		 mov	 DWORD PTR fs:0, eax
  00028	89 65 f0	 mov	 DWORD PTR __$EHRec$[ebp], esp
  0002b	89 4d ec	 mov	 DWORD PTR _this$[ebp], ecx

; 747  : 			_Iter _First, _Iter _Last, forward_iterator_tag)
; 748  : 		{	// insert [_First, _Last) at _Where, forward iterators
; 749  : 
; 750  :  #if _HAS_ITERATOR_DEBUGGING
; 751  : 		_DEBUG_RANGE(_First, _Last);
; 752  : 		if (_Debug_get_cont(_First) == this)
; 753  : 			_DEBUG_ERROR("list insertion overlaps range");
; 754  :  #endif /* _HAS_ITERATOR_DEBUGGING */
; 755  : 
; 756  : 		_Iter _Next = _First;

  0002e	8b 75 10	 mov	 esi, DWORD PTR __First$[ebp]
  00031	8b 7d 14	 mov	 edi, DWORD PTR __First$[ebp+4]

; 757  : 
; 758  : 		_TRY_BEGIN

  00034	8b 5d 0c	 mov	 ebx, DWORD PTR __Where$[ebp+4]
  00037	89 75 e4	 mov	 DWORD PTR __Next$[ebp], esi
  0003a	89 7d e8	 mov	 DWORD PTR __Next$[ebp+4], edi
  0003d	c7 45 fc 00 00
	00 00		 mov	 DWORD PTR __$EHRec$[ebp+12], 0

; 759  : 		for (; _First != _Last; ++_First)

$LL20@Insert:
  00044	85 f6		 test	 esi, esi
  00046	74 05		 je	 SHORT $LN26@Insert
  00048	3b 75 18	 cmp	 esi, DWORD PTR __Last$[ebp]
  0004b	74 05		 je	 SHORT $LN27@Insert
$LN26@Insert:
  0004d	e8 00 00 00 00	 call	 __invalid_parameter_noinfo
$LN27@Insert:
  00052	3b 7d 1c	 cmp	 edi, DWORD PTR __Last$[ebp+4]
  00055	0f 84 a9 00 00
	00		 je	 $LN4@Insert

; 760  : 			_Insert(_Where, *_First);

  0005b	85 f6		 test	 esi, esi
  0005d	75 05		 jne	 SHORT $LN35@Insert
  0005f	e8 00 00 00 00	 call	 __invalid_parameter_noinfo
$LN35@Insert:
  00064	3b 7e 04	 cmp	 edi, DWORD PTR [esi+4]
  00067	75 05		 jne	 SHORT $LN33@Insert
  00069	e8 00 00 00 00	 call	 __invalid_parameter_noinfo
$LN33@Insert:
  0006e	8b 4d ec	 mov	 ecx, DWORD PTR _this$[ebp]
  00071	8d 47 08	 lea	 eax, DWORD PTR [edi+8]
  00074	50		 push	 eax
  00075	8b 43 04	 mov	 eax, DWORD PTR [ebx+4]
  00078	50		 push	 eax
  00079	53		 push	 ebx
  0007a	e8 00 00 00 00	 call	 ?_Buynode@?$list@U?$pair@$$CBVCGUID@@PAVCBaseObject@@@std@@V?$allocator@U?$pair@$$CBVCGUID@@PAVCBaseObject@@@std@@@2@@std@@IAEPAU_Node@?$_List_nod@U?$pair@$$CBVCGUID@@PAVCBaseObject@@@std@@V?$allocator@U?$pair@$$CBVCGUID@@PAVCBaseObject@@@std@@@2@@2@PAU342@0ABU?$pair@$$CBVCGUID@@PAVCBaseObject@@@2@@Z ; std::list<std::pair<CGUID const ,CBaseObject *>,std::allocator<std::pair<CGUID const ,CBaseObject *> > >::_Buynode
  0007f	8b 4d ec	 mov	 ecx, DWORD PTR _this$[ebp]
  00082	6a 01		 push	 1
  00084	8b f0		 mov	 esi, eax
  00086	e8 00 00 00 00	 call	 ?_Incsize@?$list@U?$pair@$$CBVCGUID@@PAVCBaseObject@@@std@@V?$allocator@U?$pair@$$CBVCGUID@@PAVCBaseObject@@@std@@@2@@std@@IAEXI@Z ; std::list<std::pair<CGUID const ,CBaseObject *>,std::allocator<std::pair<CGUID const ,CBaseObject *> > >::_Incsize
  0008b	8b 55 10	 mov	 edx, DWORD PTR __First$[ebp]
  0008e	89 73 04	 mov	 DWORD PTR [ebx+4], esi
  00091	8b 4e 04	 mov	 ecx, DWORD PTR [esi+4]
  00094	89 31		 mov	 DWORD PTR [ecx], esi
  00096	3b 7a 04	 cmp	 edi, DWORD PTR [edx+4]
  00099	75 05		 jne	 SHORT $LN16@Insert

; 759  : 		for (; _First != _Last; ++_First)

  0009b	e8 00 00 00 00	 call	 __invalid_parameter_noinfo
$LN16@Insert:
  000a0	8b 3f		 mov	 edi, DWORD PTR [edi]
  000a2	8b 75 10	 mov	 esi, DWORD PTR __First$[ebp]
  000a5	89 7d 14	 mov	 DWORD PTR __First$[ebp+4], edi
  000a8	eb 9a		 jmp	 SHORT $LL20@Insert
__catch$??$_Insert@V?$_Iterator@$00@?$list@U?$pair@$$CBVCGUID@@PAVCBaseObject@@@std@@V?$allocator@U?$pair@$$CBVCGUID@@PAVCBaseObject@@@std@@@2@@std@@@?$list@U?$pair@$$CBVCGUID@@PAVCBaseObject@@@std@@V?$allocator@U?$pair@$$CBVCGUID@@PAVCBaseObject@@@std@@@2@@std@@QAEXV?$_Iterator@$00@01@00Uforward_iterator_tag@1@@Z$0:

; 761  : 		_CATCH_ALL
; 762  : 		for (; _Next != _First; ++_Next)

  000aa	8d 45 10	 lea	 eax, DWORD PTR __First$[ebp]
  000ad	50		 push	 eax
  000ae	8d 4d e4	 lea	 ecx, DWORD PTR __Next$[ebp]
  000b1	e8 00 00 00 00	 call	 ??9?$_Const_iterator@$00@?$list@U?$pair@$$CBVCGUID@@PAVCBaseObject@@@std@@V?$allocator@U?$pair@$$CBVCGUID@@PAVCBaseObject@@@std@@@2@@std@@QBE_NABV012@@Z ; std::list<std::pair<CGUID const ,CBaseObject *>,std::allocator<std::pair<CGUID const ,CBaseObject *> > >::_Const_iterator<1>::operator!=
  000b6	84 c0		 test	 al, al
  000b8	74 41		 je	 SHORT $LN1@Insert
  000ba	8b 75 ec	 mov	 esi, DWORD PTR _this$[ebp]
  000bd	8b 7d 0c	 mov	 edi, DWORD PTR __Where$[ebp+4]
  000c0	8b 5d 08	 mov	 ebx, DWORD PTR __Where$[ebp]
$LL3@Insert:

; 763  : 			{	// undo inserts
; 764  : 			iterator _Before = _Where;
; 765  : 			erase(--_Before);

  000c3	8d 4d 08	 lea	 ecx, DWORD PTR __Before$289074[ebp]
  000c6	89 5d 08	 mov	 DWORD PTR __Before$289074[ebp], ebx
  000c9	89 7d 0c	 mov	 DWORD PTR __Before$289074[ebp+4], edi
  000cc	e8 00 00 00 00	 call	 ??F?$_Iterator@$00@?$list@U?$pair@$$CBVCGUID@@PAVCBaseObject@@@std@@V?$allocator@U?$pair@$$CBVCGUID@@PAVCBaseObject@@@std@@@2@@std@@QAEAAV012@XZ ; std::list<std::pair<CGUID const ,CBaseObject *>,std::allocator<std::pair<CGUID const ,CBaseObject *> > >::_Iterator<1>::operator--
  000d1	8b 48 04	 mov	 ecx, DWORD PTR [eax+4]
  000d4	8b 10		 mov	 edx, DWORD PTR [eax]
  000d6	51		 push	 ecx
  000d7	52		 push	 edx
  000d8	8d 45 18	 lea	 eax, DWORD PTR $T304216[ebp]
  000db	50		 push	 eax
  000dc	8b ce		 mov	 ecx, esi
  000de	e8 00 00 00 00	 call	 ?erase@?$list@U?$pair@$$CBVCGUID@@PAVCBaseObject@@@std@@V?$allocator@U?$pair@$$CBVCGUID@@PAVCBaseObject@@@std@@@2@@std@@QAE?AV?$_Iterator@$00@12@V312@@Z ; std::list<std::pair<CGUID const ,CBaseObject *>,std::allocator<std::pair<CGUID const ,CBaseObject *> > >::erase
  000e3	8d 4d e4	 lea	 ecx, DWORD PTR __Next$[ebp]
  000e6	e8 00 00 00 00	 call	 ??E?$_Iterator@$00@?$list@U?$pair@$$CBVCGUID@@PAVCBaseObject@@@std@@V?$allocator@U?$pair@$$CBVCGUID@@PAVCBaseObject@@@std@@@2@@std@@QAEAAV012@XZ ; std::list<std::pair<CGUID const ,CBaseObject *>,std::allocator<std::pair<CGUID const ,CBaseObject *> > >::_Iterator<1>::operator++
  000eb	8d 4d 10	 lea	 ecx, DWORD PTR __First$[ebp]
  000ee	51		 push	 ecx
  000ef	8d 4d e4	 lea	 ecx, DWORD PTR __Next$[ebp]
  000f2	e8 00 00 00 00	 call	 ??9?$_Const_iterator@$00@?$list@U?$pair@$$CBVCGUID@@PAVCBaseObject@@@std@@V?$allocator@U?$pair@$$CBVCGUID@@PAVCBaseObject@@@std@@@2@@std@@QBE_NABV012@@Z ; std::list<std::pair<CGUID const ,CBaseObject *>,std::allocator<std::pair<CGUID const ,CBaseObject *> > >::_Const_iterator<1>::operator!=
  000f7	84 c0		 test	 al, al
  000f9	75 c8		 jne	 SHORT $LL3@Insert
$LN1@Insert:

; 766  : 			}
; 767  : 		_RERAISE;

  000fb	6a 00		 push	 0
  000fd	6a 00		 push	 0
  000ff	e8 00 00 00 00	 call	 __CxxThrowException@8
$LN59@Insert:
$LN4@Insert:

; 768  : 		_CATCH_END
; 769  : 		}

  00104	8b 4d f4	 mov	 ecx, DWORD PTR __$EHRec$[ebp+4]
  00107	64 89 0d 00 00
	00 00		 mov	 DWORD PTR fs:0, ecx
  0010e	59		 pop	 ecx
  0010f	5f		 pop	 edi
  00110	5e		 pop	 esi
  00111	5b		 pop	 ebx
  00112	8b e5		 mov	 esp, ebp
  00114	5d		 pop	 ebp
  00115	c2 1c 00	 ret	 28			; 0000001cH
$LN58@Insert:
_TEXT	ENDS
;	COMDAT text$x
text$x	SEGMENT
__ehhandler$??$_Insert@V?$_Iterator@$00@?$list@U?$pair@$$CBVCGUID@@PAVCBaseObject@@@std@@V?$allocator@U?$pair@$$CBVCGUID@@PAVCBaseObject@@@std@@@2@@std@@@?$list@U?$pair@$$CBVCGUID@@PAVCBaseObject@@@std@@V?$allocator@U?$pair@$$CBVCGUID@@PAVCBaseObject@@@std@@@2@@std@@QAEXV?$_Iterator@$00@01@00Uforward_iterator_tag@1@@Z:
  00000	8b 54 24 08	 mov	 edx, DWORD PTR [esp+8]
  00004	8d 42 0c	 lea	 eax, DWORD PTR [edx+12]
  00007	8b 4a e0	 mov	 ecx, DWORD PTR [edx-32]
  0000a	33 c8		 xor	 ecx, eax
  0000c	e8 00 00 00 00	 call	 @__security_check_cookie@4
  00011	b8 00 00 00 00	 mov	 eax, OFFSET __ehfuncinfo$??$_Insert@V?$_Iterator@$00@?$list@U?$pair@$$CBVCGUID@@PAVCBaseObject@@@std@@V?$allocator@U?$pair@$$CBVCGUID@@PAVCBaseObject@@@std@@@2@@std@@@?$list@U?$pair@$$CBVCGUID@@PAVCBaseObject@@@std@@V?$allocator@U?$pair@$$CBVCGUID@@PAVCBaseObject@@@std@@@2@@std@@QAEXV?$_Iterator@$00@01@00Uforward_iterator_tag@1@@Z
  00016	e9 00 00 00 00	 jmp	 ___CxxFrameHandler3
text$x	ENDS
??$_Insert@V?$_Iterator@$00@?$list@U?$pair@$$CBVCGUID@@PAVCBaseObject@@@std@@V?$allocator@U?$pair@$$CBVCGUID@@PAVCBaseObject@@@std@@@2@@std@@@?$list@U?$pair@$$CBVCGUID@@PAVCBaseObject@@@std@@V?$allocator@U?$pair@$$CBVCGUID@@PAVCBaseObject@@@std@@@2@@std@@QAEXV?$_Iterator@$00@01@00Uforward_iterator_tag@1@@Z ENDP ; std::list<std::pair<CGUID const ,CBaseObject *>,std::allocator<std::pair<CGUID const ,CBaseObject *> > >::_Insert<std::list<std::pair<CGUID const ,CBaseObject *>,std::allocator<std::pair<CGUID const ,CBaseObject *> > >::_Iterator<1> >
PUBLIC	?insert@?$list@U?$pair@$$CBVCGUID@@PAVCBaseObject@@@std@@V?$allocator@U?$pair@$$CBVCGUID@@PAVCBaseObject@@@std@@@2@@std@@QAE?AV?$_Iterator@$00@12@V312@ABU?$pair@$$CBVCGUID@@PAVCBaseObject@@@2@@Z ; std::list<std::pair<CGUID const ,CBaseObject *>,std::allocator<std::pair<CGUID const ,CBaseObject *> > >::insert
; Function compile flags: /Ogtpy
;	COMDAT ?insert@?$list@U?$pair@$$CBVCGUID@@PAVCBaseObject@@@std@@V?$allocator@U?$pair@$$CBVCGUID@@PAVCBaseObject@@@std@@@2@@std@@QAE?AV?$_Iterator@$00@12@V312@ABU?$pair@$$CBVCGUID@@PAVCBaseObject@@@2@@Z
_TEXT	SEGMENT
___$ReturnUdt$ = 8					; size = 4
__Where$ = 12						; size = 8
__Val$ = 20						; size = 4
?insert@?$list@U?$pair@$$CBVCGUID@@PAVCBaseObject@@@std@@V?$allocator@U?$pair@$$CBVCGUID@@PAVCBaseObject@@@std@@@2@@std@@QAE?AV?$_Iterator@$00@12@V312@ABU?$pair@$$CBVCGUID@@PAVCBaseObject@@@2@@Z PROC ; std::list<std::pair<CGUID const ,CBaseObject *>,std::allocator<std::pair<CGUID const ,CBaseObject *> > >::insert, COMDAT
; _this$ = ecx

; 688  : 		_Insert(_Where, _Val);

  00000	8b 44 24 10	 mov	 eax, DWORD PTR __Val$[esp-4]
  00004	53		 push	 ebx
  00005	56		 push	 esi
  00006	57		 push	 edi
  00007	8b 7c 24 18	 mov	 edi, DWORD PTR __Where$[esp+12]
  0000b	8b d9		 mov	 ebx, ecx
  0000d	8b 4f 04	 mov	 ecx, DWORD PTR [edi+4]
  00010	50		 push	 eax
  00011	51		 push	 ecx
  00012	57		 push	 edi
  00013	8b cb		 mov	 ecx, ebx
  00015	e8 00 00 00 00	 call	 ?_Buynode@?$list@U?$pair@$$CBVCGUID@@PAVCBaseObject@@@std@@V?$allocator@U?$pair@$$CBVCGUID@@PAVCBaseObject@@@std@@@2@@std@@IAEPAU_Node@?$_List_nod@U?$pair@$$CBVCGUID@@PAVCBaseObject@@@std@@V?$allocator@U?$pair@$$CBVCGUID@@PAVCBaseObject@@@std@@@2@@2@PAU342@0ABU?$pair@$$CBVCGUID@@PAVCBaseObject@@@2@@Z ; std::list<std::pair<CGUID const ,CBaseObject *>,std::allocator<std::pair<CGUID const ,CBaseObject *> > >::_Buynode
  0001a	6a 01		 push	 1
  0001c	8b cb		 mov	 ecx, ebx
  0001e	8b f0		 mov	 esi, eax
  00020	e8 00 00 00 00	 call	 ?_Incsize@?$list@U?$pair@$$CBVCGUID@@PAVCBaseObject@@@std@@V?$allocator@U?$pair@$$CBVCGUID@@PAVCBaseObject@@@std@@@2@@std@@IAEXI@Z ; std::list<std::pair<CGUID const ,CBaseObject *>,std::allocator<std::pair<CGUID const ,CBaseObject *> > >::_Incsize
  00025	89 77 04	 mov	 DWORD PTR [edi+4], esi
  00028	8b 56 04	 mov	 edx, DWORD PTR [esi+4]
  0002b	89 32		 mov	 DWORD PTR [edx], esi

; 689  : 		return (--_Where);

  0002d	8b 74 24 14	 mov	 esi, DWORD PTR __Where$[esp+8]
  00031	85 f6		 test	 esi, esi
  00033	75 05		 jne	 SHORT $LN19@insert
  00035	e8 00 00 00 00	 call	 __invalid_parameter_noinfo
$LN19@insert:
  0003a	8b 7f 04	 mov	 edi, DWORD PTR [edi+4]
  0003d	3b 7e 04	 cmp	 edi, DWORD PTR [esi+4]
  00040	75 05		 jne	 SHORT $LN17@insert
  00042	e8 00 00 00 00	 call	 __invalid_parameter_noinfo
$LN17@insert:
  00047	8b 44 24 10	 mov	 eax, DWORD PTR ___$ReturnUdt$[esp+8]
  0004b	89 78 04	 mov	 DWORD PTR [eax+4], edi
  0004e	5f		 pop	 edi
  0004f	89 30		 mov	 DWORD PTR [eax], esi
  00051	5e		 pop	 esi
  00052	5b		 pop	 ebx

; 690  : 		}

  00053	c2 10 00	 ret	 16			; 00000010H
?insert@?$list@U?$pair@$$CBVCGUID@@PAVCBaseObject@@@std@@V?$allocator@U?$pair@$$CBVCGUID@@PAVCBaseObject@@@std@@@2@@std@@QAE?AV?$_Iterator@$00@12@V312@ABU?$pair@$$CBVCGUID@@PAVCBaseObject@@@2@@Z ENDP ; std::list<std::pair<CGUID const ,CBaseObject *>,std::allocator<std::pair<CGUID const ,CBaseObject *> > >::insert
_TEXT	ENDS
PUBLIC	?resize@?$vector@U_List_position@?$_Hash@V?$_Hmap_traits@VCGUID@@PAVCBaseObject@@Vhash_guid_compare@@V?$allocator@U?$pair@$$CBVCGUID@@PAVCBaseObject@@@std@@@std@@$0A@@stdext@@@stdext@@V?$allocator@U_List_position@?$_Hash@V?$_Hmap_traits@VCGUID@@PAVCBaseObject@@Vhash_guid_compare@@V?$allocator@U?$pair@$$CBVCGUID@@PAVCBaseObject@@@std@@@std@@$0A@@stdext@@@stdext@@@std@@@std@@QAEXIU_List_position@?$_Hash@V?$_Hmap_traits@VCGUID@@PAVCBaseObject@@Vhash_guid_compare@@V?$allocator@U?$pair@$$CBVCGUID@@PAVCBaseObject@@@std@@@std@@$0A@@stdext@@@stdext@@@Z ; std::vector<stdext::_Hash<stdext::_Hmap_traits<CGUID,CBaseObject *,hash_guid_compare,std::allocator<std::pair<CGUID const ,CBaseObject *> >,0> >::_List_position,std::allocator<stdext::_Hash<stdext::_Hmap_traits<CGUID,CBaseObject *,hash_guid_compare,std::allocator<std::pair<CGUID const ,CBaseObject *> >,0> >::_List_position> >::resize
; Function compile flags: /Ogtpy
; File d:\program files\microsoft visual studio 8\vc\include\vector
;	COMDAT ?resize@?$vector@U_List_position@?$_Hash@V?$_Hmap_traits@VCGUID@@PAVCBaseObject@@Vhash_guid_compare@@V?$allocator@U?$pair@$$CBVCGUID@@PAVCBaseObject@@@std@@@std@@$0A@@stdext@@@stdext@@V?$allocator@U_List_position@?$_Hash@V?$_Hmap_traits@VCGUID@@PAVCBaseObject@@Vhash_guid_compare@@V?$allocator@U?$pair@$$CBVCGUID@@PAVCBaseObject@@@std@@@std@@$0A@@stdext@@@stdext@@@std@@@std@@QAEXIU_List_position@?$_Hash@V?$_Hmap_traits@VCGUID@@PAVCBaseObject@@Vhash_guid_compare@@V?$allocator@U?$pair@$$CBVCGUID@@PAVCBaseObject@@@std@@@std@@$0A@@stdext@@@stdext@@@Z
_TEXT	SEGMENT
__Newsize$ = 8						; size = 4
__Tmp$304565 = 12					; size = 8
$T304393 = 12						; size = 8
__Val$ = 12						; size = 8
?resize@?$vector@U_List_position@?$_Hash@V?$_Hmap_traits@VCGUID@@PAVCBaseObject@@Vhash_guid_compare@@V?$allocator@U?$pair@$$CBVCGUID@@PAVCBaseObject@@@std@@@std@@$0A@@stdext@@@stdext@@V?$allocator@U_List_position@?$_Hash@V?$_Hmap_traits@VCGUID@@PAVCBaseObject@@Vhash_guid_compare@@V?$allocator@U?$pair@$$CBVCGUID@@PAVCBaseObject@@@std@@@std@@$0A@@stdext@@@stdext@@@std@@@std@@QAEXIU_List_position@?$_Hash@V?$_Hmap_traits@VCGUID@@PAVCBaseObject@@Vhash_guid_compare@@V?$allocator@U?$pair@$$CBVCGUID@@PAVCBaseObject@@@std@@@std@@$0A@@stdext@@@stdext@@@Z PROC ; std::vector<stdext::_Hash<stdext::_Hmap_traits<CGUID,CBaseObject *,hash_guid_compare,std::allocator<std::pair<CGUID const ,CBaseObject *> >,0> >::_List_position,std::allocator<stdext::_Hash<stdext::_Hmap_traits<CGUID,CBaseObject *,hash_guid_compare,std::allocator<std::pair<CGUID const ,CBaseObject *> >,0> >::_List_position> >::resize, COMDAT
; _this$ = ecx

; 694  : 		{	// determine new length, padding with _Val elements as needed

  00000	53		 push	 ebx
  00001	55		 push	 ebp
  00002	56		 push	 esi
  00003	8b f1		 mov	 esi, ecx

; 695  : 		if (size() < _Newsize)

  00005	8b 4e 04	 mov	 ecx, DWORD PTR [esi+4]
  00008	85 c9		 test	 ecx, ecx
  0000a	57		 push	 edi
  0000b	75 04		 jne	 SHORT $LN8@resize
  0000d	33 c0		 xor	 eax, eax
  0000f	eb 08		 jmp	 SHORT $LN9@resize
$LN8@resize:
  00011	8b 46 08	 mov	 eax, DWORD PTR [esi+8]
  00014	2b c1		 sub	 eax, ecx
  00016	c1 f8 03	 sar	 eax, 3
$LN9@resize:
  00019	8b 5c 24 14	 mov	 ebx, DWORD PTR __Newsize$[esp+12]
  0001d	3b c3		 cmp	 eax, ebx
  0001f	73 34		 jae	 SHORT $LN3@resize

; 696  : 			_Insert_n(end(), _Newsize - size(), _Val);

  00021	85 c9		 test	 ecx, ecx
  00023	75 04		 jne	 SHORT $LN12@resize
  00025	33 ff		 xor	 edi, edi
  00027	eb 08		 jmp	 SHORT $LN13@resize
$LN12@resize:
  00029	8b 7e 08	 mov	 edi, DWORD PTR [esi+8]
  0002c	2b f9		 sub	 edi, ecx
  0002e	c1 ff 03	 sar	 edi, 3
$LN13@resize:
  00031	8b 6e 08	 mov	 ebp, DWORD PTR [esi+8]
  00034	3b cd		 cmp	 ecx, ebp
  00036	76 05		 jbe	 SHORT $LN19@resize
  00038	e8 00 00 00 00	 call	 __invalid_parameter_noinfo
$LN19@resize:
  0003d	8d 44 24 18	 lea	 eax, DWORD PTR __Val$[esp+12]
  00041	50		 push	 eax
  00042	2b df		 sub	 ebx, edi
  00044	53		 push	 ebx
  00045	55		 push	 ebp
  00046	56		 push	 esi
  00047	8b ce		 mov	 ecx, esi
  00049	e8 00 00 00 00	 call	 ?_Insert_n@?$vector@U_List_position@?$_Hash@V?$_Hmap_traits@VCGUID@@PAVCBaseObject@@Vhash_guid_compare@@V?$allocator@U?$pair@$$CBVCGUID@@PAVCBaseObject@@@std@@@std@@$0A@@stdext@@@stdext@@V?$allocator@U_List_position@?$_Hash@V?$_Hmap_traits@VCGUID@@PAVCBaseObject@@Vhash_guid_compare@@V?$allocator@U?$pair@$$CBVCGUID@@PAVCBaseObject@@@std@@@std@@$0A@@stdext@@@stdext@@@std@@@std@@IAEXV?$_Vector_iterator@U_List_position@?$_Hash@V?$_Hmap_traits@VCGUID@@PAVCBaseObject@@Vhash_guid_compare@@V?$allocator@U?$pair@$$CBVCGUID@@PAVCBaseObject@@@std@@@std@@$0A@@stdext@@@stdext@@V?$allocator@U_List_position@?$_Hash@V?$_Hmap_traits@VCGUID@@PAVCBaseObject@@Vhash_guid_compare@@V?$allocator@U?$pair@$$CBVCGUID@@PAVCBaseObject@@@std@@@std@@$0A@@stdext@@@stdext@@@std@@@2@IABU_List_position@?$_Hash@V?$_Hmap_traits@VCGUID@@PAVCBaseObject@@Vhash_guid_compare@@V?$allocator@U?$pair@$$CBVCGUID@@PAVCBaseObject@@@std@@@std@@$0A@@stdext@@@stdext@@@Z ; std::vector<stdext::_Hash<stdext::_Hmap_traits<CGUID,CBaseObject *,hash_guid_compare,std::allocator<std::pair<CGUID const ,CBaseObject *> >,0> >::_List_position,std::allocator<stdext::_Hash<stdext::_Hmap_traits<CGUID,CBaseObject *,hash_guid_compare,std::allocator<std::pair<CGUID const ,CBaseObject *> >,0> >::_List_position> >::_Insert_n
  0004e	5f		 pop	 edi
  0004f	5e		 pop	 esi
  00050	5d		 pop	 ebp
  00051	5b		 pop	 ebx

; 699  : 		}

  00052	c2 0c 00	 ret	 12			; 0000000cH
$LN3@resize:

; 697  : 		else if (_Newsize < size())

  00055	85 c9		 test	 ecx, ecx
  00057	74 4a		 je	 SHORT $LN1@resize
  00059	8b 6e 08	 mov	 ebp, DWORD PTR [esi+8]
  0005c	8b c5		 mov	 eax, ebp
  0005e	2b c1		 sub	 eax, ecx
  00060	c1 f8 03	 sar	 eax, 3
  00063	3b d8		 cmp	 ebx, eax
  00065	73 3c		 jae	 SHORT $LN1@resize

; 698  : 			erase(begin() + _Newsize, end());

  00067	3b cd		 cmp	 ecx, ebp
  00069	76 05		 jbe	 SHORT $LN35@resize
  0006b	e8 00 00 00 00	 call	 __invalid_parameter_noinfo
$LN35@resize:
  00070	8b 7e 04	 mov	 edi, DWORD PTR [esi+4]
  00073	3b 7e 08	 cmp	 edi, DWORD PTR [esi+8]
  00076	76 05		 jbe	 SHORT $LN47@resize
  00078	e8 00 00 00 00	 call	 __invalid_parameter_noinfo
$LN47@resize:
  0007d	89 7c 24 1c	 mov	 DWORD PTR __Tmp$304565[esp+16], edi
  00081	8d 3c df	 lea	 edi, DWORD PTR [edi+ebx*8]
  00084	3b 7e 08	 cmp	 edi, DWORD PTR [esi+8]
  00087	77 05		 ja	 SHORT $LN58@resize
  00089	3b 7e 04	 cmp	 edi, DWORD PTR [esi+4]
  0008c	73 05		 jae	 SHORT $LN59@resize
$LN58@resize:
  0008e	e8 00 00 00 00	 call	 __invalid_parameter_noinfo
$LN59@resize:
  00093	55		 push	 ebp
  00094	56		 push	 esi
  00095	57		 push	 edi
  00096	56		 push	 esi
  00097	8d 4c 24 28	 lea	 ecx, DWORD PTR $T304393[esp+28]
  0009b	51		 push	 ecx
  0009c	8b ce		 mov	 ecx, esi
  0009e	e8 00 00 00 00	 call	 ?erase@?$vector@U_List_position@?$_Hash@V?$_Hmap_traits@VCGUID@@PAVCBaseObject@@Vhash_guid_compare@@V?$allocator@U?$pair@$$CBVCGUID@@PAVCBaseObject@@@std@@@std@@$0A@@stdext@@@stdext@@V?$allocator@U_List_position@?$_Hash@V?$_Hmap_traits@VCGUID@@PAVCBaseObject@@Vhash_guid_compare@@V?$allocator@U?$pair@$$CBVCGUID@@PAVCBaseObject@@@std@@@std@@$0A@@stdext@@@stdext@@@std@@@std@@QAE?AV?$_Vector_iterator@U_List_position@?$_Hash@V?$_Hmap_traits@VCGUID@@PAVCBaseObject@@Vhash_guid_compare@@V?$allocator@U?$pair@$$CBVCGUID@@PAVCBaseObject@@@std@@@std@@$0A@@stdext@@@stdext@@V?$allocator@U_List_position@?$_Hash@V?$_Hmap_traits@VCGUID@@PAVCBaseObject@@Vhash_guid_compare@@V?$allocator@U?$pair@$$CBVCGUID@@PAVCBaseObject@@@std@@@std@@$0A@@stdext@@@stdext@@@std@@@2@V32@0@Z ; std::vector<stdext::_Hash<stdext::_Hmap_traits<CGUID,CBaseObject *,hash_guid_compare,std::allocator<std::pair<CGUID const ,CBaseObject *> >,0> >::_List_position,std::allocator<stdext::_Hash<stdext::_Hmap_traits<CGUID,CBaseObject *,hash_guid_compare,std::allocator<std::pair<CGUID const ,CBaseObject *> >,0> >::_List_position> >::erase
$LN1@resize:
  000a3	5f		 pop	 edi
  000a4	5e		 pop	 esi
  000a5	5d		 pop	 ebp
  000a6	5b		 pop	 ebx

; 699  : 		}

  000a7	c2 0c 00	 ret	 12			; 0000000cH
?resize@?$vector@U_List_position@?$_Hash@V?$_Hmap_traits@VCGUID@@PAVCBaseObject@@Vhash_guid_compare@@V?$allocator@U?$pair@$$CBVCGUID@@PAVCBaseObject@@@std@@@std@@$0A@@stdext@@@stdext@@V?$allocator@U_List_position@?$_Hash@V?$_Hmap_traits@VCGUID@@PAVCBaseObject@@Vhash_guid_compare@@V?$allocator@U?$pair@$$CBVCGUID@@PAVCBaseObject@@@std@@@std@@$0A@@stdext@@@stdext@@@std@@@std@@QAEXIU_List_position@?$_Hash@V?$_Hmap_traits@VCGUID@@PAVCBaseObject@@Vhash_guid_compare@@V?$allocator@U?$pair@$$CBVCGUID@@PAVCBaseObject@@@std@@@std@@$0A@@stdext@@@stdext@@@Z ENDP ; std::vector<stdext::_Hash<stdext::_Hmap_traits<CGUID,CBaseObject *,hash_guid_compare,std::allocator<std::pair<CGUID const ,CBaseObject *> >,0> >::_List_position,std::allocator<stdext::_Hash<stdext::_Hmap_traits<CGUID,CBaseObject *,hash_guid_compare,std::allocator<std::pair<CGUID const ,CBaseObject *> >,0> >::_List_position> >::resize
_TEXT	ENDS
PUBLIC	?_Assign_n@?$vector@U_List_position@?$_Hash@V?$_Hmap_traits@VCGUID@@PAVCBaseObject@@Vhash_guid_compare@@V?$allocator@U?$pair@$$CBVCGUID@@PAVCBaseObject@@@std@@@std@@$0A@@stdext@@@stdext@@V?$allocator@U_List_position@?$_Hash@V?$_Hmap_traits@VCGUID@@PAVCBaseObject@@Vhash_guid_compare@@V?$allocator@U?$pair@$$CBVCGUID@@PAVCBaseObject@@@std@@@std@@$0A@@stdext@@@stdext@@@std@@@std@@IAEXIABU_List_position@?$_Hash@V?$_Hmap_traits@VCGUID@@PAVCBaseObject@@Vhash_guid_compare@@V?$allocator@U?$pair@$$CBVCGUID@@PAVCBaseObject@@@std@@@std@@$0A@@stdext@@@stdext@@@Z ; std::vector<stdext::_Hash<stdext::_Hmap_traits<CGUID,CBaseObject *,hash_guid_compare,std::allocator<std::pair<CGUID const ,CBaseObject *> >,0> >::_List_position,std::allocator<stdext::_Hash<stdext::_Hmap_traits<CGUID,CBaseObject *,hash_guid_compare,std::allocator<std::pair<CGUID const ,CBaseObject *> >,0> >::_List_position> >::_Assign_n
; Function compile flags: /Ogtpy
;	COMDAT ?_Assign_n@?$vector@U_List_position@?$_Hash@V?$_Hmap_traits@VCGUID@@PAVCBaseObject@@Vhash_guid_compare@@V?$allocator@U?$pair@$$CBVCGUID@@PAVCBaseObject@@@std@@@std@@$0A@@stdext@@@stdext@@V?$allocator@U_List_position@?$_Hash@V?$_Hmap_traits@VCGUID@@PAVCBaseObject@@Vhash_guid_compare@@V?$allocator@U?$pair@$$CBVCGUID@@PAVCBaseObject@@@std@@@std@@$0A@@stdext@@@stdext@@@std@@@std@@IAEXIABU_List_position@?$_Hash@V?$_Hmap_traits@VCGUID@@PAVCBaseObject@@Vhash_guid_compare@@V?$allocator@U?$pair@$$CBVCGUID@@PAVCBaseObject@@@std@@@std@@$0A@@stdext@@@stdext@@@Z
_TEXT	SEGMENT
__Tmp$ = -16						; size = 8
$T304571 = -8						; size = 8
__Count$ = 8						; size = 4
__Val$ = 12						; size = 4
?_Assign_n@?$vector@U_List_position@?$_Hash@V?$_Hmap_traits@VCGUID@@PAVCBaseObject@@Vhash_guid_compare@@V?$allocator@U?$pair@$$CBVCGUID@@PAVCBaseObject@@@std@@@std@@$0A@@stdext@@@stdext@@V?$allocator@U_List_position@?$_Hash@V?$_Hmap_traits@VCGUID@@PAVCBaseObject@@Vhash_guid_compare@@V?$allocator@U?$pair@$$CBVCGUID@@PAVCBaseObject@@@std@@@std@@$0A@@stdext@@@stdext@@@std@@@std@@IAEXIABU_List_position@?$_Hash@V?$_Hmap_traits@VCGUID@@PAVCBaseObject@@Vhash_guid_compare@@V?$allocator@U?$pair@$$CBVCGUID@@PAVCBaseObject@@@std@@@std@@$0A@@stdext@@@stdext@@@Z PROC ; std::vector<stdext::_Hash<stdext::_Hmap_traits<CGUID,CBaseObject *,hash_guid_compare,std::allocator<std::pair<CGUID const ,CBaseObject *> >,0> >::_List_position,std::allocator<stdext::_Hash<stdext::_Hmap_traits<CGUID,CBaseObject *,hash_guid_compare,std::allocator<std::pair<CGUID const ,CBaseObject *> >,0> >::_List_position> >::_Assign_n, COMDAT
; _this$ = ecx

; 1059 : 		{	// assign _Count * _Val

  00000	83 ec 10	 sub	 esp, 16			; 00000010H

; 1060 : 		_Ty _Tmp = _Val;	// in case _Val is in sequence

  00003	8b 44 24 18	 mov	 eax, DWORD PTR __Val$[esp+12]
  00007	8b 50 04	 mov	 edx, DWORD PTR [eax+4]
  0000a	56		 push	 esi
  0000b	8b f1		 mov	 esi, ecx
  0000d	8b 08		 mov	 ecx, DWORD PTR [eax]
  0000f	57		 push	 edi

; 1061 : 		erase(begin(), end());

  00010	8b 7e 08	 mov	 edi, DWORD PTR [esi+8]
  00013	39 7e 04	 cmp	 DWORD PTR [esi+4], edi
  00016	89 4c 24 08	 mov	 DWORD PTR __Tmp$[esp+24], ecx
  0001a	89 54 24 0c	 mov	 DWORD PTR __Tmp$[esp+28], edx
  0001e	76 05		 jbe	 SHORT $LN8@Assign_n
  00020	e8 00 00 00 00	 call	 __invalid_parameter_noinfo
$LN8@Assign_n:
  00025	53		 push	 ebx
  00026	8b 5e 04	 mov	 ebx, DWORD PTR [esi+4]
  00029	3b 5e 08	 cmp	 ebx, DWORD PTR [esi+8]
  0002c	76 05		 jbe	 SHORT $LN20@Assign_n
  0002e	e8 00 00 00 00	 call	 __invalid_parameter_noinfo
$LN20@Assign_n:
  00033	57		 push	 edi
  00034	56		 push	 esi
  00035	53		 push	 ebx
  00036	56		 push	 esi
  00037	8d 44 24 24	 lea	 eax, DWORD PTR $T304571[esp+44]
  0003b	50		 push	 eax
  0003c	8b ce		 mov	 ecx, esi
  0003e	e8 00 00 00 00	 call	 ?erase@?$vector@U_List_position@?$_Hash@V?$_Hmap_traits@VCGUID@@PAVCBaseObject@@Vhash_guid_compare@@V?$allocator@U?$pair@$$CBVCGUID@@PAVCBaseObject@@@std@@@std@@$0A@@stdext@@@stdext@@V?$allocator@U_List_position@?$_Hash@V?$_Hmap_traits@VCGUID@@PAVCBaseObject@@Vhash_guid_compare@@V?$allocator@U?$pair@$$CBVCGUID@@PAVCBaseObject@@@std@@@std@@$0A@@stdext@@@stdext@@@std@@@std@@QAE?AV?$_Vector_iterator@U_List_position@?$_Hash@V?$_Hmap_traits@VCGUID@@PAVCBaseObject@@Vhash_guid_compare@@V?$allocator@U?$pair@$$CBVCGUID@@PAVCBaseObject@@@std@@@std@@$0A@@stdext@@@stdext@@V?$allocator@U_List_position@?$_Hash@V?$_Hmap_traits@VCGUID@@PAVCBaseObject@@Vhash_guid_compare@@V?$allocator@U?$pair@$$CBVCGUID@@PAVCBaseObject@@@std@@@std@@$0A@@stdext@@@stdext@@@std@@@2@V32@0@Z ; std::vector<stdext::_Hash<stdext::_Hmap_traits<CGUID,CBaseObject *,hash_guid_compare,std::allocator<std::pair<CGUID const ,CBaseObject *> >,0> >::_List_position,std::allocator<stdext::_Hash<stdext::_Hmap_traits<CGUID,CBaseObject *,hash_guid_compare,std::allocator<std::pair<CGUID const ,CBaseObject *> >,0> >::_List_position> >::erase

; 1062 : 		insert(begin(), _Count, _Tmp);

  00043	8b 7e 04	 mov	 edi, DWORD PTR [esi+4]
  00046	3b 7e 08	 cmp	 edi, DWORD PTR [esi+8]
  00049	5b		 pop	 ebx
  0004a	76 05		 jbe	 SHORT $LN32@Assign_n
  0004c	e8 00 00 00 00	 call	 __invalid_parameter_noinfo
$LN32@Assign_n:
  00051	8b 54 24 1c	 mov	 edx, DWORD PTR __Count$[esp+20]
  00055	8d 4c 24 08	 lea	 ecx, DWORD PTR __Tmp$[esp+24]
  00059	51		 push	 ecx
  0005a	52		 push	 edx
  0005b	57		 push	 edi
  0005c	56		 push	 esi
  0005d	8b ce		 mov	 ecx, esi
  0005f	e8 00 00 00 00	 call	 ?_Insert_n@?$vector@U_List_position@?$_Hash@V?$_Hmap_traits@VCGUID@@PAVCBaseObject@@Vhash_guid_compare@@V?$allocator@U?$pair@$$CBVCGUID@@PAVCBaseObject@@@std@@@std@@$0A@@stdext@@@stdext@@V?$allocator@U_List_position@?$_Hash@V?$_Hmap_traits@VCGUID@@PAVCBaseObject@@Vhash_guid_compare@@V?$allocator@U?$pair@$$CBVCGUID@@PAVCBaseObject@@@std@@@std@@$0A@@stdext@@@stdext@@@std@@@std@@IAEXV?$_Vector_iterator@U_List_position@?$_Hash@V?$_Hmap_traits@VCGUID@@PAVCBaseObject@@Vhash_guid_compare@@V?$allocator@U?$pair@$$CBVCGUID@@PAVCBaseObject@@@std@@@std@@$0A@@stdext@@@stdext@@V?$allocator@U_List_position@?$_Hash@V?$_Hmap_traits@VCGUID@@PAVCBaseObject@@Vhash_guid_compare@@V?$allocator@U?$pair@$$CBVCGUID@@PAVCBaseObject@@@std@@@std@@$0A@@stdext@@@stdext@@@std@@@2@IABU_List_position@?$_Hash@V?$_Hmap_traits@VCGUID@@PAVCBaseObject@@Vhash_guid_compare@@V?$allocator@U?$pair@$$CBVCGUID@@PAVCBaseObject@@@std@@@std@@$0A@@stdext@@@stdext@@@Z ; std::vector<stdext::_Hash<stdext::_Hmap_traits<CGUID,CBaseObject *,hash_guid_compare,std::allocator<std::pair<CGUID const ,CBaseObject *> >,0> >::_List_position,std::allocator<stdext::_Hash<stdext::_Hmap_traits<CGUID,CBaseObject *,hash_guid_compare,std::allocator<std::pair<CGUID const ,CBaseObject *> >,0> >::_List_position> >::_Insert_n
  00064	5f		 pop	 edi
  00065	5e		 pop	 esi

; 1063 : 		}

  00066	83 c4 10	 add	 esp, 16			; 00000010H
  00069	c2 08 00	 ret	 8
?_Assign_n@?$vector@U_List_position@?$_Hash@V?$_Hmap_traits@VCGUID@@PAVCBaseObject@@Vhash_guid_compare@@V?$allocator@U?$pair@$$CBVCGUID@@PAVCBaseObject@@@std@@@std@@$0A@@stdext@@@stdext@@V?$allocator@U_List_position@?$_Hash@V?$_Hmap_traits@VCGUID@@PAVCBaseObject@@Vhash_guid_compare@@V?$allocator@U?$pair@$$CBVCGUID@@PAVCBaseObject@@@std@@@std@@$0A@@stdext@@@stdext@@@std@@@std@@IAEXIABU_List_position@?$_Hash@V?$_Hmap_traits@VCGUID@@PAVCBaseObject@@Vhash_guid_compare@@V?$allocator@U?$pair@$$CBVCGUID@@PAVCBaseObject@@@std@@@std@@$0A@@stdext@@@stdext@@@Z ENDP ; std::vector<stdext::_Hash<stdext::_Hmap_traits<CGUID,CBaseObject *,hash_guid_compare,std::allocator<std::pair<CGUID const ,CBaseObject *> >,0> >::_List_position,std::allocator<stdext::_Hash<stdext::_Hmap_traits<CGUID,CBaseObject *,hash_guid_compare,std::allocator<std::pair<CGUID const ,CBaseObject *> >,0> >::_List_position> >::_Assign_n
_TEXT	ENDS
PUBLIC	??$insert@V?$_Iterator@$00@?$list@U?$pair@$$CBVCGUID@@PAVCBaseObject@@@std@@V?$allocator@U?$pair@$$CBVCGUID@@PAVCBaseObject@@@std@@@2@@std@@@?$list@U?$pair@$$CBVCGUID@@PAVCBaseObject@@@std@@V?$allocator@U?$pair@$$CBVCGUID@@PAVCBaseObject@@@std@@@2@@std@@QAEXV?$_Iterator@$00@01@00@Z ; std::list<std::pair<CGUID const ,CBaseObject *>,std::allocator<std::pair<CGUID const ,CBaseObject *> > >::insert<std::list<std::pair<CGUID const ,CBaseObject *>,std::allocator<std::pair<CGUID const ,CBaseObject *> > >::_Iterator<1> >
; Function compile flags: /Ogtpy
; File d:\program files\microsoft visual studio 8\vc\include\list
;	COMDAT ??$insert@V?$_Iterator@$00@?$list@U?$pair@$$CBVCGUID@@PAVCBaseObject@@@std@@V?$allocator@U?$pair@$$CBVCGUID@@PAVCBaseObject@@@std@@@2@@std@@@?$list@U?$pair@$$CBVCGUID@@PAVCBaseObject@@@std@@V?$allocator@U?$pair@$$CBVCGUID@@PAVCBaseObject@@@std@@@2@@std@@QAEXV?$_Iterator@$00@01@00@Z
_TEXT	SEGMENT
__Where$ = 8						; size = 8
__First$ = 16						; size = 8
$T304707 = 24						; size = 1
__Last$ = 24						; size = 8
??$insert@V?$_Iterator@$00@?$list@U?$pair@$$CBVCGUID@@PAVCBaseObject@@@std@@V?$allocator@U?$pair@$$CBVCGUID@@PAVCBaseObject@@@std@@@2@@std@@@?$list@U?$pair@$$CBVCGUID@@PAVCBaseObject@@@std@@V?$allocator@U?$pair@$$CBVCGUID@@PAVCBaseObject@@@std@@@2@@std@@QAEXV?$_Iterator@$00@01@00@Z PROC ; std::list<std::pair<CGUID const ,CBaseObject *>,std::allocator<std::pair<CGUID const ,CBaseObject *> > >::insert<std::list<std::pair<CGUID const ,CBaseObject *>,std::allocator<std::pair<CGUID const ,CBaseObject *> > >::_Iterator<1> >, COMDAT
; _this$ = ecx

; 715  : 		{	// insert [_First, _Last) at _Where
; 716  : 		_Insert(_Where, _First, _Last, _Iter_cat(_First));

  00000	8b 44 24 14	 mov	 eax, DWORD PTR $T304707[esp-4]
  00004	8b 54 24 18	 mov	 edx, DWORD PTR __Last$[esp]
  00008	50		 push	 eax
  00009	8b 44 24 18	 mov	 eax, DWORD PTR __Last$[esp]
  0000d	52		 push	 edx
  0000e	8b 54 24 18	 mov	 edx, DWORD PTR __First$[esp+8]
  00012	50		 push	 eax
  00013	8b 44 24 18	 mov	 eax, DWORD PTR __First$[esp+8]
  00017	52		 push	 edx
  00018	8b 54 24 18	 mov	 edx, DWORD PTR __Where$[esp+16]
  0001c	50		 push	 eax
  0001d	8b 44 24 18	 mov	 eax, DWORD PTR __Where$[esp+16]
  00021	52		 push	 edx
  00022	50		 push	 eax
  00023	e8 00 00 00 00	 call	 ??$_Insert@V?$_Iterator@$00@?$list@U?$pair@$$CBVCGUID@@PAVCBaseObject@@@std@@V?$allocator@U?$pair@$$CBVCGUID@@PAVCBaseObject@@@std@@@2@@std@@@?$list@U?$pair@$$CBVCGUID@@PAVCBaseObject@@@std@@V?$allocator@U?$pair@$$CBVCGUID@@PAVCBaseObject@@@std@@@2@@std@@QAEXV?$_Iterator@$00@01@00Uforward_iterator_tag@1@@Z ; std::list<std::pair<CGUID const ,CBaseObject *>,std::allocator<std::pair<CGUID const ,CBaseObject *> > >::_Insert<std::list<std::pair<CGUID const ,CBaseObject *>,std::allocator<std::pair<CGUID const ,CBaseObject *> > >::_Iterator<1> >

; 717  : 		}

  00028	c2 18 00	 ret	 24			; 00000018H
??$insert@V?$_Iterator@$00@?$list@U?$pair@$$CBVCGUID@@PAVCBaseObject@@@std@@V?$allocator@U?$pair@$$CBVCGUID@@PAVCBaseObject@@@std@@@2@@std@@@?$list@U?$pair@$$CBVCGUID@@PAVCBaseObject@@@std@@V?$allocator@U?$pair@$$CBVCGUID@@PAVCBaseObject@@@std@@@2@@std@@QAEXV?$_Iterator@$00@01@00@Z ENDP ; std::list<std::pair<CGUID const ,CBaseObject *>,std::allocator<std::pair<CGUID const ,CBaseObject *> > >::insert<std::list<std::pair<CGUID const ,CBaseObject *>,std::allocator<std::pair<CGUID const ,CBaseObject *> > >::_Iterator<1> >
_TEXT	ENDS
PUBLIC	?_Splice@?$list@U?$pair@$$CBVCGUID@@PAVCBaseObject@@@std@@V?$allocator@U?$pair@$$CBVCGUID@@PAVCBaseObject@@@std@@@2@@std@@QAEXV?$_Iterator@$00@12@AAV12@00I_N@Z ; std::list<std::pair<CGUID const ,CBaseObject *>,std::allocator<std::pair<CGUID const ,CBaseObject *> > >::_Splice
; Function compile flags: /Ogtpy
;	COMDAT ?_Splice@?$list@U?$pair@$$CBVCGUID@@PAVCBaseObject@@@std@@V?$allocator@U?$pair@$$CBVCGUID@@PAVCBaseObject@@@std@@@2@@std@@QAEXV?$_Iterator@$00@12@AAV12@00I_N@Z
_TEXT	SEGMENT
__Where$ = 8						; size = 8
__Right$ = 16						; size = 4
__First$ = 20						; size = 8
__Last$ = 28						; size = 8
__Count$ = 36						; size = 4
__Keep$ = 40						; size = 1
?_Splice@?$list@U?$pair@$$CBVCGUID@@PAVCBaseObject@@@std@@V?$allocator@U?$pair@$$CBVCGUID@@PAVCBaseObject@@@std@@@2@@std@@QAEXV?$_Iterator@$00@12@AAV12@00I_N@Z PROC ; std::list<std::pair<CGUID const ,CBaseObject *>,std::allocator<std::pair<CGUID const ,CBaseObject *> > >::_Splice, COMDAT
; _this$ = ecx

; 1097 : 		{	// splice _Right [_First, _Last) before _Where

  00000	56		 push	 esi

; 1098 :  #if _HAS_ITERATOR_DEBUGGING
; 1099 : 		if (_Where._Mycont != this)
; 1100 : 			_DEBUG_ERROR("list splice iterator outside range");
; 1101 : 		if (this->_Alval == _Right._Alval)
; 1102 : 			{	// same allocator, just relink
; 1103 : 			if (!_Keep && this != &_Right)
; 1104 : 				for (iterator _Next = _First; _Next != _Last; )
; 1105 : 					_Orphan_ptr(_Right, (_Next++)._Ptr);
; 1106 : 
; 1107 :  #else /* _HAS_ITERATOR_DEBUGGING */
; 1108 :         _Keep;                  // unused in this branch
; 1109 : 		if (this->_Alval == _Right._Alval)
; 1110 : 			{	// same allocator, just relink
; 1111 :  #endif /* _HAS_ITERATOR_DEBUGGING */
; 1112 : 
; 1113 : 			if (this != &_Right)

  00001	8b 74 24 10	 mov	 esi, DWORD PTR __Right$[esp]
  00005	3b ce		 cmp	 ecx, esi
  00007	57		 push	 edi
  00008	74 0d		 je	 SHORT $LN2@Splice

; 1114 : 				{	// splicing from another list, adjust counts
; 1115 : 				_Incsize(_Count);

  0000a	8b 7c 24 28	 mov	 edi, DWORD PTR __Count$[esp+4]
  0000e	57		 push	 edi
  0000f	e8 00 00 00 00	 call	 ?_Incsize@?$list@U?$pair@$$CBVCGUID@@PAVCBaseObject@@@std@@V?$allocator@U?$pair@$$CBVCGUID@@PAVCBaseObject@@@std@@@2@@std@@IAEXI@Z ; std::list<std::pair<CGUID const ,CBaseObject *>,std::allocator<std::pair<CGUID const ,CBaseObject *> > >::_Incsize

; 1116 : 				_Right._Mysize -= _Count;

  00014	29 7e 08	 sub	 DWORD PTR [esi+8], edi
$LN2@Splice:

; 1117 : 				}
; 1118 : 			_Nextnode(_Prevnode(_First._Mynode())) = _Last._Mynode();

  00017	8b 44 24 1c	 mov	 eax, DWORD PTR __First$[esp+8]
  0001b	8b 50 04	 mov	 edx, DWORD PTR [eax+4]
  0001e	8b 4c 24 24	 mov	 ecx, DWORD PTR __Last$[esp+8]
  00022	89 0a		 mov	 DWORD PTR [edx], ecx

; 1119 : 			_Nextnode(_Prevnode(_Last._Mynode())) = _Where._Mynode();

  00024	8b 71 04	 mov	 esi, DWORD PTR [ecx+4]
  00027	8b 54 24 10	 mov	 edx, DWORD PTR __Where$[esp+8]
  0002b	89 16		 mov	 DWORD PTR [esi], edx

; 1120 : 			_Nextnode(_Prevnode(_Where._Mynode())) = _First._Mynode();

  0002d	8b 72 04	 mov	 esi, DWORD PTR [edx+4]
  00030	89 06		 mov	 DWORD PTR [esi], eax

; 1121 : 			_Nodeptr _Pnode = _Prevnode(_Where._Mynode());

  00032	8b 72 04	 mov	 esi, DWORD PTR [edx+4]

; 1122 : 			_Prevnode(_Where._Mynode()) = _Prevnode(_Last._Mynode());

  00035	8b 79 04	 mov	 edi, DWORD PTR [ecx+4]
  00038	89 7a 04	 mov	 DWORD PTR [edx+4], edi

; 1123 : 			_Prevnode(_Last._Mynode()) = _Prevnode(_First._Mynode());

  0003b	8b 50 04	 mov	 edx, DWORD PTR [eax+4]
  0003e	89 51 04	 mov	 DWORD PTR [ecx+4], edx
  00041	5f		 pop	 edi

; 1124 : 			_Prevnode(_First._Mynode()) = _Pnode;

  00042	89 70 04	 mov	 DWORD PTR [eax+4], esi
  00045	5e		 pop	 esi

; 1125 : 			}
; 1126 : 		else
; 1127 : 			{	// different allocator, copy nodes then erase source
; 1128 : 			insert(_Where, _First, _Last);
; 1129 : 			_Right.erase(_First, _Last);
; 1130 : 			}
; 1131 :         }

  00046	c2 24 00	 ret	 36			; 00000024H
?_Splice@?$list@U?$pair@$$CBVCGUID@@PAVCBaseObject@@@std@@V?$allocator@U?$pair@$$CBVCGUID@@PAVCBaseObject@@@std@@@2@@std@@QAEXV?$_Iterator@$00@12@AAV12@00I_N@Z ENDP ; std::list<std::pair<CGUID const ,CBaseObject *>,std::allocator<std::pair<CGUID const ,CBaseObject *> > >::_Splice
_TEXT	ENDS
PUBLIC	?assign@?$vector@U_List_position@?$_Hash@V?$_Hmap_traits@VCGUID@@PAVCBaseObject@@Vhash_guid_compare@@V?$allocator@U?$pair@$$CBVCGUID@@PAVCBaseObject@@@std@@@std@@$0A@@stdext@@@stdext@@V?$allocator@U_List_position@?$_Hash@V?$_Hmap_traits@VCGUID@@PAVCBaseObject@@Vhash_guid_compare@@V?$allocator@U?$pair@$$CBVCGUID@@PAVCBaseObject@@@std@@@std@@$0A@@stdext@@@stdext@@@std@@@std@@QAEXIABU_List_position@?$_Hash@V?$_Hmap_traits@VCGUID@@PAVCBaseObject@@Vhash_guid_compare@@V?$allocator@U?$pair@$$CBVCGUID@@PAVCBaseObject@@@std@@@std@@$0A@@stdext@@@stdext@@@Z ; std::vector<stdext::_Hash<stdext::_Hmap_traits<CGUID,CBaseObject *,hash_guid_compare,std::allocator<std::pair<CGUID const ,CBaseObject *> >,0> >::_List_position,std::allocator<stdext::_Hash<stdext::_Hmap_traits<CGUID,CBaseObject *,hash_guid_compare,std::allocator<std::pair<CGUID const ,CBaseObject *> >,0> >::_List_position> >::assign
; Function compile flags: /Ogtpy
; File d:\program files\microsoft visual studio 8\vc\include\vector
;	COMDAT ?assign@?$vector@U_List_position@?$_Hash@V?$_Hmap_traits@VCGUID@@PAVCBaseObject@@Vhash_guid_compare@@V?$allocator@U?$pair@$$CBVCGUID@@PAVCBaseObject@@@std@@@std@@$0A@@stdext@@@stdext@@V?$allocator@U_List_position@?$_Hash@V?$_Hmap_traits@VCGUID@@PAVCBaseObject@@Vhash_guid_compare@@V?$allocator@U?$pair@$$CBVCGUID@@PAVCBaseObject@@@std@@@std@@$0A@@stdext@@@stdext@@@std@@@std@@QAEXIABU_List_position@?$_Hash@V?$_Hmap_traits@VCGUID@@PAVCBaseObject@@Vhash_guid_compare@@V?$allocator@U?$pair@$$CBVCGUID@@PAVCBaseObject@@@std@@@std@@$0A@@stdext@@@stdext@@@Z
_TEXT	SEGMENT
__Count$ = 8						; size = 4
__Val$ = 12						; size = 4
?assign@?$vector@U_List_position@?$_Hash@V?$_Hmap_traits@VCGUID@@PAVCBaseObject@@Vhash_guid_compare@@V?$allocator@U?$pair@$$CBVCGUID@@PAVCBaseObject@@@std@@@std@@$0A@@stdext@@@stdext@@V?$allocator@U_List_position@?$_Hash@V?$_Hmap_traits@VCGUID@@PAVCBaseObject@@Vhash_guid_compare@@V?$allocator@U?$pair@$$CBVCGUID@@PAVCBaseObject@@@std@@@std@@$0A@@stdext@@@stdext@@@std@@@std@@QAEXIABU_List_position@?$_Hash@V?$_Hmap_traits@VCGUID@@PAVCBaseObject@@Vhash_guid_compare@@V?$allocator@U?$pair@$$CBVCGUID@@PAVCBaseObject@@@std@@@std@@$0A@@stdext@@@stdext@@@Z PROC ; std::vector<stdext::_Hash<stdext::_Hmap_traits<CGUID,CBaseObject *,hash_guid_compare,std::allocator<std::pair<CGUID const ,CBaseObject *> >,0> >::_List_position,std::allocator<stdext::_Hash<stdext::_Hmap_traits<CGUID,CBaseObject *,hash_guid_compare,std::allocator<std::pair<CGUID const ,CBaseObject *> >,0> >::_List_position> >::assign, COMDAT
; _this$ = ecx

; 848  : 		_Assign_n(_Count, _Val);

  00000	e9 00 00 00 00	 jmp	 ?_Assign_n@?$vector@U_List_position@?$_Hash@V?$_Hmap_traits@VCGUID@@PAVCBaseObject@@Vhash_guid_compare@@V?$allocator@U?$pair@$$CBVCGUID@@PAVCBaseObject@@@std@@@std@@$0A@@stdext@@@stdext@@V?$allocator@U_List_position@?$_Hash@V?$_Hmap_traits@VCGUID@@PAVCBaseObject@@Vhash_guid_compare@@V?$allocator@U?$pair@$$CBVCGUID@@PAVCBaseObject@@@std@@@std@@$0A@@stdext@@@stdext@@@std@@@std@@IAEXIABU_List_position@?$_Hash@V?$_Hmap_traits@VCGUID@@PAVCBaseObject@@Vhash_guid_compare@@V?$allocator@U?$pair@$$CBVCGUID@@PAVCBaseObject@@@std@@@std@@$0A@@stdext@@@stdext@@@Z ; std::vector<stdext::_Hash<stdext::_Hmap_traits<CGUID,CBaseObject *,hash_guid_compare,std::allocator<std::pair<CGUID const ,CBaseObject *> >,0> >::_List_position,std::allocator<stdext::_Hash<stdext::_Hmap_traits<CGUID,CBaseObject *,hash_guid_compare,std::allocator<std::pair<CGUID const ,CBaseObject *> >,0> >::_List_position> >::_Assign_n
?assign@?$vector@U_List_position@?$_Hash@V?$_Hmap_traits@VCGUID@@PAVCBaseObject@@Vhash_guid_compare@@V?$allocator@U?$pair@$$CBVCGUID@@PAVCBaseObject@@@std@@@std@@$0A@@stdext@@@stdext@@V?$allocator@U_List_position@?$_Hash@V?$_Hmap_traits@VCGUID@@PAVCBaseObject@@Vhash_guid_compare@@V?$allocator@U?$pair@$$CBVCGUID@@PAVCBaseObject@@@std@@@std@@$0A@@stdext@@@stdext@@@std@@@std@@QAEXIABU_List_position@?$_Hash@V?$_Hmap_traits@VCGUID@@PAVCBaseObject@@Vhash_guid_compare@@V?$allocator@U?$pair@$$CBVCGUID@@PAVCBaseObject@@@std@@@std@@$0A@@stdext@@@stdext@@@Z ENDP ; std::vector<stdext::_Hash<stdext::_Hmap_traits<CGUID,CBaseObject *,hash_guid_compare,std::allocator<std::pair<CGUID const ,CBaseObject *> >,0> >::_List_position,std::allocator<stdext::_Hash<stdext::_Hmap_traits<CGUID,CBaseObject *,hash_guid_compare,std::allocator<std::pair<CGUID const ,CBaseObject *> >,0> >::_List_position> >::assign
_TEXT	ENDS
PUBLIC	?insert@?$_Hash@V?$_Hmap_traits@VCGUID@@PAVCBaseObject@@Vhash_guid_compare@@V?$allocator@U?$pair@$$CBVCGUID@@PAVCBaseObject@@@std@@@std@@$0A@@stdext@@@stdext@@QAE?AU?$pair@V?$_Iterator@$00@?$list@U?$pair@$$CBVCGUID@@PAVCBaseObject@@@std@@V?$allocator@U?$pair@$$CBVCGUID@@PAVCBaseObject@@@std@@@2@@std@@_N@std@@ABU?$pair@$$CBVCGUID@@PAVCBaseObject@@@4@@Z ; stdext::_Hash<stdext::_Hmap_traits<CGUID,CBaseObject *,hash_guid_compare,std::allocator<std::pair<CGUID const ,CBaseObject *> >,0> >::insert
; Function compile flags: /Ogtpy
; File d:\program files\microsoft visual studio 8\vc\include\xhash
;	COMDAT ?insert@?$_Hash@V?$_Hmap_traits@VCGUID@@PAVCBaseObject@@Vhash_guid_compare@@V?$allocator@U?$pair@$$CBVCGUID@@PAVCBaseObject@@@std@@@std@@$0A@@stdext@@@stdext@@QAE?AU?$pair@V?$_Iterator@$00@?$list@U?$pair@$$CBVCGUID@@PAVCBaseObject@@@std@@V?$allocator@U?$pair@$$CBVCGUID@@PAVCBaseObject@@@std@@@2@@std@@_N@std@@ABU?$pair@$$CBVCGUID@@PAVCBaseObject@@@4@@Z
_TEXT	SEGMENT
__Bucket$275578 = -48					; size = 4
_this$ = -44						; size = 4
__Plist$ = -40						; size = 8
$T306492 = -32						; size = 8
__Pnext$275588 = -32					; size = 8
$T304833 = -24						; size = 8
$T304838 = -16						; size = 8
$T304839 = -8						; size = 8
___$ReturnUdt$ = 8					; size = 4
__Bucket$ = 12						; size = 4
__Val$ = 12						; size = 4
?insert@?$_Hash@V?$_Hmap_traits@VCGUID@@PAVCBaseObject@@Vhash_guid_compare@@V?$allocator@U?$pair@$$CBVCGUID@@PAVCBaseObject@@@std@@@std@@$0A@@stdext@@@stdext@@QAE?AU?$pair@V?$_Iterator@$00@?$list@U?$pair@$$CBVCGUID@@PAVCBaseObject@@@std@@V?$allocator@U?$pair@$$CBVCGUID@@PAVCBaseObject@@@std@@@2@@std@@_N@std@@ABU?$pair@$$CBVCGUID@@PAVCBaseObject@@@4@@Z PROC ; stdext::_Hash<stdext::_Hmap_traits<CGUID,CBaseObject *,hash_guid_compare,std::allocator<std::pair<CGUID const ,CBaseObject *> >,0> >::insert, COMDAT
; _this$ = ecx

; 374  : 		{	// try to insert node with value _Val

  00000	83 ec 30	 sub	 esp, 48			; 00000030H
  00003	53		 push	 ebx
  00004	8b d9		 mov	 ebx, ecx

; 375  : 		iterator _Plist, _Where;
; 376  : 		if (_Maxidx <= size() / bucket_size)

  00006	8b 43 0c	 mov	 eax, DWORD PTR [ebx+12]
  00009	8b 53 24	 mov	 edx, DWORD PTR [ebx+36]
  0000c	55		 push	 ebp
  0000d	c1 e8 02	 shr	 eax, 2
  00010	3b d0		 cmp	 edx, eax
  00012	56		 push	 esi
  00013	57		 push	 edi
  00014	89 5c 24 14	 mov	 DWORD PTR _this$[esp+64], ebx
  00018	0f 87 c1 02 00
	00		 ja	 $LN31@insert@2

; 377  : 			{	// too dense, need to grow hash table
; 378  : 			if (_Vec.size() - 1 <= _Maxidx)

  0001e	8b 4b 14	 mov	 ecx, DWORD PTR [ebx+20]
  00021	85 c9		 test	 ecx, ecx
  00023	8d 73 10	 lea	 esi, DWORD PTR [ebx+16]
  00026	75 04		 jne	 SHORT $LN56@insert@2
  00028	33 c0		 xor	 eax, eax
  0002a	eb 08		 jmp	 SHORT $LN57@insert@2
$LN56@insert@2:
  0002c	8b 46 08	 mov	 eax, DWORD PTR [esi+8]
  0002f	2b c1		 sub	 eax, ecx
  00031	c1 f8 03	 sar	 eax, 3
$LN57@insert@2:
  00034	83 c0 ff	 add	 eax, -1
  00037	3b c2		 cmp	 eax, edx
  00039	77 3d		 ja	 SHORT $LN30@insert@2

; 379  : 				{	// table full, double its size
; 380  : 				_Mask = ((_Vec.size() - 1) << 1) - 1;

  0003b	85 c9		 test	 ecx, ecx
  0003d	75 04		 jne	 SHORT $LN60@insert@2
  0003f	33 c0		 xor	 eax, eax
  00041	eb 08		 jmp	 SHORT $LN61@insert@2
$LN60@insert@2:
  00043	8b 46 08	 mov	 eax, DWORD PTR [esi+8]
  00046	2b c1		 sub	 eax, ecx
  00048	c1 f8 03	 sar	 eax, 3
$LN61@insert@2:
  0004b	8d 4c 00 fd	 lea	 ecx, DWORD PTR [eax+eax-3]
  0004f	89 4b 20	 mov	 DWORD PTR [ebx+32], ecx

; 381  : 				_Vec.resize(_Mask + 2, end());

  00052	8b 53 08	 mov	 edx, DWORD PTR [ebx+8]
  00055	83 ec 08	 sub	 esp, 8
  00058	8b c4		 mov	 eax, esp
  0005a	8d 4b 04	 lea	 ecx, DWORD PTR [ebx+4]
  0005d	c7 00 00 00 00
	00		 mov	 DWORD PTR [eax], 0
  00063	89 50 04	 mov	 DWORD PTR [eax+4], edx
  00066	89 08		 mov	 DWORD PTR [eax], ecx
  00068	8b 53 20	 mov	 edx, DWORD PTR [ebx+32]
  0006b	83 c2 02	 add	 edx, 2
  0006e	52		 push	 edx
  0006f	8b ce		 mov	 ecx, esi
  00071	e8 00 00 00 00	 call	 ?resize@?$vector@U_List_position@?$_Hash@V?$_Hmap_traits@VCGUID@@PAVCBaseObject@@Vhash_guid_compare@@V?$allocator@U?$pair@$$CBVCGUID@@PAVCBaseObject@@@std@@@std@@$0A@@stdext@@@stdext@@V?$allocator@U_List_position@?$_Hash@V?$_Hmap_traits@VCGUID@@PAVCBaseObject@@Vhash_guid_compare@@V?$allocator@U?$pair@$$CBVCGUID@@PAVCBaseObject@@@std@@@std@@$0A@@stdext@@@stdext@@@std@@@std@@QAEXIU_List_position@?$_Hash@V?$_Hmap_traits@VCGUID@@PAVCBaseObject@@Vhash_guid_compare@@V?$allocator@U?$pair@$$CBVCGUID@@PAVCBaseObject@@@std@@@std@@$0A@@stdext@@@stdext@@@Z ; std::vector<stdext::_Hash<stdext::_Hmap_traits<CGUID,CBaseObject *,hash_guid_compare,std::allocator<std::pair<CGUID const ,CBaseObject *> >,0> >::_List_position,std::allocator<stdext::_Hash<stdext::_Hmap_traits<CGUID,CBaseObject *,hash_guid_compare,std::allocator<std::pair<CGUID const ,CBaseObject *> >,0> >::_List_position> >::resize
  00076	eb 0e		 jmp	 SHORT $LN28@insert@2
$LN30@insert@2:

; 382  : 				}
; 383  : 			else if (_Mask < _Maxidx)

  00078	8b 43 20	 mov	 eax, DWORD PTR [ebx+32]
  0007b	3b c2		 cmp	 eax, edx
  0007d	73 07		 jae	 SHORT $LN28@insert@2

; 384  : 				_Mask = (_Mask << 1) + 1;

  0007f	8d 44 00 01	 lea	 eax, DWORD PTR [eax+eax+1]
  00083	89 43 20	 mov	 DWORD PTR [ebx+32], eax
$LN28@insert@2:

; 385  : 
; 386  : 			size_type _Bucket = _Maxidx - (_Mask >> 1) - 1;

  00086	8b 4b 20	 mov	 ecx, DWORD PTR [ebx+32]
  00089	8b 7b 24	 mov	 edi, DWORD PTR [ebx+36]
  0008c	d1 e9		 shr	 ecx, 1
  0008e	2b f9		 sub	 edi, ecx

; 387  : 			for (_Plist = _Get_iter_from_vec(_Vec[_Bucket]); _Vec[_Bucket + 1] != _Plist; )

  00090	8b 4e 04	 mov	 ecx, DWORD PTR [esi+4]
  00093	83 ef 01	 sub	 edi, 1
  00096	85 c9		 test	 ecx, ecx
  00098	89 7c 24 10	 mov	 DWORD PTR __Bucket$275578[esp+64], edi
  0009c	74 0c		 je	 SHORT $LN617@insert@2
  0009e	8b 46 08	 mov	 eax, DWORD PTR [esi+8]
  000a1	2b c1		 sub	 eax, ecx
  000a3	c1 f8 03	 sar	 eax, 3
  000a6	3b f8		 cmp	 edi, eax
  000a8	72 05		 jb	 SHORT $LN90@insert@2
$LN617@insert@2:
  000aa	e8 00 00 00 00	 call	 __invalid_parameter_noinfo
$LN90@insert@2:
  000af	83 c3 04	 add	 ebx, 4
  000b2	8b 56 04	 mov	 edx, DWORD PTR [esi+4]
  000b5	8b 6c fa 04	 mov	 ebp, DWORD PTR [edx+edi*8+4]
  000b9	75 05		 jne	 SHORT $LN105@insert@2
  000bb	e8 00 00 00 00	 call	 __invalid_parameter_noinfo
$LN105@insert@2:
  000c0	89 5c 24 18	 mov	 DWORD PTR __Plist$[esp+64], ebx
$LL27@insert@2:
  000c4	8b 4e 04	 mov	 ecx, DWORD PTR [esi+4]
  000c7	85 c9		 test	 ecx, ecx
  000c9	74 0f		 je	 SHORT $LN618@insert@2
  000cb	8b 46 08	 mov	 eax, DWORD PTR [esi+8]
  000ce	2b c1		 sub	 eax, ecx
  000d0	c1 f8 03	 sar	 eax, 3
  000d3	8d 4f 01	 lea	 ecx, DWORD PTR [edi+1]
  000d6	3b c8		 cmp	 ecx, eax
  000d8	72 05		 jb	 SHORT $LN113@insert@2
$LN618@insert@2:
  000da	e8 00 00 00 00	 call	 __invalid_parameter_noinfo
$LN113@insert@2:
  000df	8b 4e 04	 mov	 ecx, DWORD PTR [esi+4]
  000e2	39 6c f9 0c	 cmp	 DWORD PTR [ecx+edi*8+12], ebp
  000e6	8d 47 01	 lea	 eax, DWORD PTR [edi+1]
  000e9	0f 84 e6 01 00
	00		 je	 $LN614@insert@2

; 388  : 				{	// split old bucket
; 389  : 				size_type _Newbucket =
; 390  : 					this->comp(this->_Kfn(*_Plist)) & _Mask;

  000ef	8b 7c 24 18	 mov	 edi, DWORD PTR __Plist$[esp+64]
  000f3	85 ff		 test	 edi, edi
  000f5	75 05		 jne	 SHORT $LN132@insert@2
  000f7	e8 00 00 00 00	 call	 __invalid_parameter_noinfo
$LN132@insert@2:
  000fc	3b 6f 04	 cmp	 ebp, DWORD PTR [edi+4]
  000ff	75 05		 jne	 SHORT $LN130@insert@2
  00101	e8 00 00 00 00	 call	 __invalid_parameter_noinfo
$LN130@insert@2:

; 391  : 				if (_Newbucket == _Bucket)

  00106	8b 55 14	 mov	 edx, DWORD PTR [ebp+20]
  00109	03 55 10	 add	 edx, DWORD PTR [ebp+16]
  0010c	8b 44 24 14	 mov	 eax, DWORD PTR _this$[esp+64]
  00110	03 55 0c	 add	 edx, DWORD PTR [ebp+12]
  00113	8b 7c 24 10	 mov	 edi, DWORD PTR __Bucket$275578[esp+64]
  00117	03 55 08	 add	 edx, DWORD PTR [ebp+8]
  0011a	23 50 20	 and	 edx, DWORD PTR [eax+32]
  0011d	3b d7		 cmp	 edx, edi
  0011f	75 13		 jne	 SHORT $LN25@insert@2

; 392  : 					++_Plist;	// leave element in old bucket

  00121	8b 4c 24 18	 mov	 ecx, DWORD PTR __Plist$[esp+64]
  00125	3b 69 04	 cmp	 ebp, DWORD PTR [ecx+4]
  00128	75 05		 jne	 SHORT $LN144@insert@2
  0012a	e8 00 00 00 00	 call	 __invalid_parameter_noinfo
$LN144@insert@2:
  0012f	8b 6d 00	 mov	 ebp, DWORD PTR [ebp]

; 393  : 
; 394  :  #if _HAS_ITERATOR_DEBUGGING
; 395  : 				else if (_Newbucket != _Maxidx)
; 396  : 					_DEBUG_ERROR("bad hash function");
; 397  :  #endif /* _HAS_ITERATOR_DEBUGGING */
; 398  : 
; 399  : 				else

  00132	eb 90		 jmp	 SHORT $LL27@insert@2
$LN25@insert@2:

; 400  : 					{	// move element to new bucket
; 401  : 					size_type _Idx;
; 402  : 					iterator _Pnext = _Plist;

  00134	8b 44 24 18	 mov	 eax, DWORD PTR __Plist$[esp+64]

; 403  : 					if (++_Pnext != end())

  00138	3b 68 04	 cmp	 ebp, DWORD PTR [eax+4]
  0013b	8b 53 04	 mov	 edx, DWORD PTR [ebx+4]
  0013e	8b f8		 mov	 edi, eax
  00140	89 7c 24 20	 mov	 DWORD PTR __Pnext$275588[esp+64], edi
  00144	89 6c 24 24	 mov	 DWORD PTR __Pnext$275588[esp+68], ebp
  00148	89 54 24 2c	 mov	 DWORD PTR $T304833[esp+68], edx
  0014c	75 05		 jne	 SHORT $LN168@insert@2
  0014e	e8 00 00 00 00	 call	 __invalid_parameter_noinfo
$LN168@insert@2:
  00153	3b fb		 cmp	 edi, ebx
  00155	8b 45 00	 mov	 eax, DWORD PTR [ebp]
  00158	89 44 24 24	 mov	 DWORD PTR __Pnext$275588[esp+68], eax
  0015c	74 05		 je	 SHORT $LN179@insert@2
  0015e	e8 00 00 00 00	 call	 __invalid_parameter_noinfo
$LN179@insert@2:
  00163	8b 4c 24 2c	 mov	 ecx, DWORD PTR $T304833[esp+68]
  00167	39 4c 24 24	 cmp	 DWORD PTR __Pnext$275588[esp+68], ecx
  0016b	0f 84 d6 00 00
	00		 je	 $LN634@insert@2

; 404  : 						{	// not at end, move it
; 405  : 						for (_Idx = _Bucket; _Vec[_Idx] == _Plist; --_Idx)

  00171	8b 7c 24 10	 mov	 edi, DWORD PTR __Bucket$275578[esp+64]
$LL22@insert@2:
  00175	8b 4e 04	 mov	 ecx, DWORD PTR [esi+4]
  00178	85 c9		 test	 ecx, ecx
  0017a	74 0c		 je	 SHORT $LN619@insert@2
  0017c	8b 46 08	 mov	 eax, DWORD PTR [esi+8]
  0017f	2b c1		 sub	 eax, ecx
  00181	c1 f8 03	 sar	 eax, 3
  00184	3b f8		 cmp	 edi, eax
  00186	72 05		 jb	 SHORT $LN183@insert@2
$LN619@insert@2:
  00188	e8 00 00 00 00	 call	 __invalid_parameter_noinfo
$LN183@insert@2:
  0018d	8b 56 04	 mov	 edx, DWORD PTR [esi+4]
  00190	39 6c fa 04	 cmp	 DWORD PTR [edx+edi*8+4], ebp
  00194	75 32		 jne	 SHORT $LN612@insert@2

; 406  : 							{	// update end iterators if moving first
; 407  : 							_Vec[_Idx] = _Pnext;

  00196	8b ca		 mov	 ecx, edx
  00198	85 c9		 test	 ecx, ecx
  0019a	74 0c		 je	 SHORT $LN620@insert@2
  0019c	8b 46 08	 mov	 eax, DWORD PTR [esi+8]
  0019f	2b c1		 sub	 eax, ecx
  001a1	c1 f8 03	 sar	 eax, 3
  001a4	3b f8		 cmp	 edi, eax
  001a6	72 05		 jb	 SHORT $LN210@insert@2
$LN620@insert@2:
  001a8	e8 00 00 00 00	 call	 __invalid_parameter_noinfo
$LN210@insert@2:

; 408  : 							if (_Idx == 0)

  001ad	85 ff		 test	 edi, edi
  001af	8b 46 04	 mov	 eax, DWORD PTR [esi+4]
  001b2	8b 4c 24 20	 mov	 ecx, DWORD PTR __Pnext$275588[esp+64]
  001b6	8b 54 24 24	 mov	 edx, DWORD PTR __Pnext$275588[esp+68]
  001ba	89 0c f8	 mov	 DWORD PTR [eax+edi*8], ecx
  001bd	89 54 f8 04	 mov	 DWORD PTR [eax+edi*8+4], edx
  001c1	74 05		 je	 SHORT $LN612@insert@2

; 404  : 						{	// not at end, move it
; 405  : 						for (_Idx = _Bucket; _Vec[_Idx] == _Plist; --_Idx)

  001c3	83 ef 01	 sub	 edi, 1
  001c6	eb ad		 jmp	 SHORT $LL22@insert@2
$LN612@insert@2:

; 409  : 								break;
; 410  : 							}
; 411  : 						_List._Splice(end(), _List, _Plist, _Pnext, 0);

  001c8	3b db		 cmp	 ebx, ebx
  001ca	8b 7b 04	 mov	 edi, DWORD PTR [ebx+4]
  001cd	74 09		 je	 SHORT $LN232@insert@2
  001cf	6a 00		 push	 0
  001d1	8b cb		 mov	 ecx, ebx
  001d3	e8 00 00 00 00	 call	 ?_Incsize@?$list@U?$pair@$$CBVCGUID@@PAVCBaseObject@@@std@@V?$allocator@U?$pair@$$CBVCGUID@@PAVCBaseObject@@@std@@@2@@std@@IAEXI@Z ; std::list<std::pair<CGUID const ,CBaseObject *>,std::allocator<std::pair<CGUID const ,CBaseObject *> > >::_Incsize
$LN232@insert@2:
  001d8	8b 45 04	 mov	 eax, DWORD PTR [ebp+4]
  001db	8b 4c 24 24	 mov	 ecx, DWORD PTR __Pnext$275588[esp+68]
  001df	89 08		 mov	 DWORD PTR [eax], ecx
  001e1	8b 51 04	 mov	 edx, DWORD PTR [ecx+4]
  001e4	89 3a		 mov	 DWORD PTR [edx], edi
  001e6	8b 47 04	 mov	 eax, DWORD PTR [edi+4]
  001e9	89 28		 mov	 DWORD PTR [eax], ebp
  001eb	8b 51 04	 mov	 edx, DWORD PTR [ecx+4]
  001ee	8b 47 04	 mov	 eax, DWORD PTR [edi+4]
  001f1	89 57 04	 mov	 DWORD PTR [edi+4], edx
  001f4	8b 55 04	 mov	 edx, DWORD PTR [ebp+4]
  001f7	89 51 04	 mov	 DWORD PTR [ecx+4], edx
  001fa	89 45 04	 mov	 DWORD PTR [ebp+4], eax

; 412  : 						_Plist = --end();

  001fd	8b 43 04	 mov	 eax, DWORD PTR [ebx+4]
  00200	8b 68 04	 mov	 ebp, DWORD PTR [eax+4]
  00203	3b e8		 cmp	 ebp, eax
  00205	75 05		 jne	 SHORT $LN636@insert@2
  00207	e8 00 00 00 00	 call	 __invalid_parameter_noinfo
$LN636@insert@2:

; 413  : 						_Vec[_Maxidx + 1] = end();

  0020c	8b 43 04	 mov	 eax, DWORD PTR [ebx+4]
  0020f	8b 4c 24 14	 mov	 ecx, DWORD PTR _this$[esp+64]
  00213	8b 79 24	 mov	 edi, DWORD PTR [ecx+36]
  00216	89 44 24 34	 mov	 DWORD PTR $T304838[esp+68], eax
  0021a	8b 46 04	 mov	 eax, DWORD PTR [esi+4]
  0021d	83 c7 01	 add	 edi, 1
  00220	85 c0		 test	 eax, eax
  00222	89 5c 24 18	 mov	 DWORD PTR __Plist$[esp+64], ebx
  00226	74 0c		 je	 SHORT $LN621@insert@2
  00228	8b 4e 08	 mov	 ecx, DWORD PTR [esi+8]
  0022b	2b c8		 sub	 ecx, eax
  0022d	c1 f9 03	 sar	 ecx, 3
  00230	3b f9		 cmp	 edi, ecx
  00232	72 05		 jb	 SHORT $LN342@insert@2
$LN621@insert@2:
  00234	e8 00 00 00 00	 call	 __invalid_parameter_noinfo
$LN342@insert@2:
  00239	8b 46 04	 mov	 eax, DWORD PTR [esi+4]
  0023c	8b 54 24 34	 mov	 edx, DWORD PTR $T304838[esp+68]
  00240	89 1c f8	 mov	 DWORD PTR [eax+edi*8], ebx
  00243	89 54 f8 04	 mov	 DWORD PTR [eax+edi*8+4], edx
$LN634@insert@2:

; 414  : 						}
; 415  : 
; 416  : 					for (_Idx = _Maxidx; _Bucket < _Idx; --_Idx)

  00247	8b 44 24 14	 mov	 eax, DWORD PTR _this$[esp+64]
  0024b	8b 78 24	 mov	 edi, DWORD PTR [eax+36]
  0024e	39 7c 24 10	 cmp	 DWORD PTR __Bucket$275578[esp+64], edi
  00252	73 5a		 jae	 SHORT $LN613@insert@2
$LL18@insert@2:

; 417  : 						{	// update end iterators if new bucket filled
; 418  : 						if (_Vec[_Idx] != end())

  00254	8b 4b 04	 mov	 ecx, DWORD PTR [ebx+4]
  00257	89 4c 24 3c	 mov	 DWORD PTR $T304839[esp+68], ecx
  0025b	8b 4e 04	 mov	 ecx, DWORD PTR [esi+4]
  0025e	85 c9		 test	 ecx, ecx
  00260	74 0c		 je	 SHORT $LN622@insert@2
  00262	8b 46 08	 mov	 eax, DWORD PTR [esi+8]
  00265	2b c1		 sub	 eax, ecx
  00267	c1 f8 03	 sar	 eax, 3
  0026a	3b f8		 cmp	 edi, eax
  0026c	72 05		 jb	 SHORT $LN363@insert@2
$LN622@insert@2:
  0026e	e8 00 00 00 00	 call	 __invalid_parameter_noinfo
$LN363@insert@2:
  00273	8b 56 04	 mov	 edx, DWORD PTR [esi+4]
  00276	8b 44 24 3c	 mov	 eax, DWORD PTR $T304839[esp+68]
  0027a	39 44 fa 04	 cmp	 DWORD PTR [edx+edi*8+4], eax
  0027e	75 2e		 jne	 SHORT $LN613@insert@2

; 419  : 							break;
; 420  : 						_Vec[_Idx] = _Plist;

  00280	8b ca		 mov	 ecx, edx
  00282	85 c9		 test	 ecx, ecx
  00284	74 0c		 je	 SHORT $LN623@insert@2
  00286	8b 46 08	 mov	 eax, DWORD PTR [esi+8]
  00289	2b c1		 sub	 eax, ecx
  0028b	c1 f8 03	 sar	 eax, 3
  0028e	3b f8		 cmp	 edi, eax
  00290	72 05		 jb	 SHORT $LN392@insert@2
$LN623@insert@2:
  00292	e8 00 00 00 00	 call	 __invalid_parameter_noinfo
$LN392@insert@2:
  00297	8b 46 04	 mov	 eax, DWORD PTR [esi+4]
  0029a	8b 4c 24 18	 mov	 ecx, DWORD PTR __Plist$[esp+64]
  0029e	89 0c f8	 mov	 DWORD PTR [eax+edi*8], ecx
  002a1	89 6c f8 04	 mov	 DWORD PTR [eax+edi*8+4], ebp
  002a5	83 ef 01	 sub	 edi, 1
  002a8	39 7c 24 10	 cmp	 DWORD PTR __Bucket$275578[esp+64], edi
  002ac	72 a6		 jb	 SHORT $LL18@insert@2
$LN613@insert@2:

; 421  : 						}
; 422  : 
; 423  : 					if (_Pnext == end())

  002ae	39 5c 24 20	 cmp	 DWORD PTR __Pnext$275588[esp+64], ebx
  002b2	8b 7b 04	 mov	 edi, DWORD PTR [ebx+4]
  002b5	74 05		 je	 SHORT $LN414@insert@2
  002b7	e8 00 00 00 00	 call	 __invalid_parameter_noinfo
$LN414@insert@2:
  002bc	8b 6c 24 24	 mov	 ebp, DWORD PTR __Pnext$275588[esp+68]
  002c0	3b ef		 cmp	 ebp, edi
  002c2	74 11		 je	 SHORT $LN614@insert@2

; 424  : 						break;
; 425  : 					else
; 426  : 						_Plist = _Pnext;

  002c4	8b 54 24 20	 mov	 edx, DWORD PTR __Pnext$275588[esp+64]

; 427  : 					}
; 428  : 				}

  002c8	8b 7c 24 10	 mov	 edi, DWORD PTR __Bucket$275578[esp+64]
  002cc	89 54 24 18	 mov	 DWORD PTR __Plist$[esp+64], edx
  002d0	e9 ef fd ff ff	 jmp	 $LL27@insert@2
$LN614@insert@2:

; 429  : 			++_Maxidx;	// open new bucket for hash lookup

  002d5	8b 44 24 14	 mov	 eax, DWORD PTR _this$[esp+64]
  002d9	83 40 24 01	 add	 DWORD PTR [eax+36], 1
  002dd	8b d8		 mov	 ebx, eax
$LN31@insert@2:

; 430  : 			}
; 431  : 
; 432  : 		size_type _Bucket = _Hashval(this->_Kfn(_Val));

  002df	8b 6c 24 48	 mov	 ebp, DWORD PTR __Val$[esp+60]
  002e3	8b 7d 04	 mov	 edi, DWORD PTR [ebp+4]
  002e6	03 7d 08	 add	 edi, DWORD PTR [ebp+8]
  002e9	8b 43 20	 mov	 eax, DWORD PTR [ebx+32]
  002ec	03 7d 00	 add	 edi, DWORD PTR [ebp]
  002ef	03 7d 0c	 add	 edi, DWORD PTR [ebp+12]
  002f2	23 f8		 and	 edi, eax
  002f4	39 7b 24	 cmp	 DWORD PTR [ebx+36], edi
  002f7	77 09		 ja	 SHORT $LN420@insert@2
  002f9	d1 e8		 shr	 eax, 1
  002fb	83 c9 ff	 or	 ecx, -1
  002fe	2b c8		 sub	 ecx, eax
  00300	03 f9		 add	 edi, ecx
$LN420@insert@2:

; 433  : 		for (_Plist = _Get_iter_from_vec(_Vec[_Bucket + 1]); _Vec[_Bucket] != _Plist; )

  00302	8b 4b 14	 mov	 ecx, DWORD PTR [ebx+20]
  00305	85 c9		 test	 ecx, ecx
  00307	89 7c 24 48	 mov	 DWORD PTR __Bucket$[esp+60], edi
  0030b	8d 77 01	 lea	 esi, DWORD PTR [edi+1]
  0030e	74 0c		 je	 SHORT $LN624@insert@2
  00310	8b 43 18	 mov	 eax, DWORD PTR [ebx+24]
  00313	2b c1		 sub	 eax, ecx
  00315	c1 f8 03	 sar	 eax, 3
  00318	3b f0		 cmp	 esi, eax
  0031a	72 05		 jb	 SHORT $LN425@insert@2
$LN624@insert@2:
  0031c	e8 00 00 00 00	 call	 __invalid_parameter_noinfo
$LN425@insert@2:
  00321	8b 53 14	 mov	 edx, DWORD PTR [ebx+20]
  00324	8b 74 f2 04	 mov	 esi, DWORD PTR [edx+esi*8+4]
  00328	8d 43 04	 lea	 eax, DWORD PTR [ebx+4]
  0032b	85 c0		 test	 eax, eax
  0032d	75 05		 jne	 SHORT $LN440@insert@2
  0032f	e8 00 00 00 00	 call	 __invalid_parameter_noinfo
$LN440@insert@2:
  00334	8d 43 04	 lea	 eax, DWORD PTR [ebx+4]
  00337	89 44 24 18	 mov	 DWORD PTR __Plist$[esp+64], eax
  0033b	eb 03 8d 49 00	 npad	 5
$LL12@insert@2:
  00340	8b 4b 14	 mov	 ecx, DWORD PTR [ebx+20]
  00343	85 c9		 test	 ecx, ecx
  00345	74 0c		 je	 SHORT $LN625@insert@2
  00347	8b 43 18	 mov	 eax, DWORD PTR [ebx+24]
  0034a	2b c1		 sub	 eax, ecx
  0034c	c1 f8 03	 sar	 eax, 3
  0034f	3b f8		 cmp	 edi, eax
  00351	72 05		 jb	 SHORT $LN448@insert@2
$LN625@insert@2:
  00353	e8 00 00 00 00	 call	 __invalid_parameter_noinfo
$LN448@insert@2:
  00358	8b 43 14	 mov	 eax, DWORD PTR [ebx+20]
  0035b	39 74 f8 04	 cmp	 DWORD PTR [eax+edi*8+4], esi
  0035f	0f 84 b1 00 00
	00		 je	 $LN11@insert@2

; 434  : 			if (this->comp(this->_Kfn(_Val), this->_Kfn(*--_Plist)))

  00365	83 7c 24 18 00	 cmp	 DWORD PTR __Plist$[esp+64], 0
  0036a	75 05		 jne	 SHORT $LN467@insert@2
  0036c	e8 00 00 00 00	 call	 __invalid_parameter_noinfo
$LN467@insert@2:
  00371	8b 76 04	 mov	 esi, DWORD PTR [esi+4]
  00374	8b 4c 24 18	 mov	 ecx, DWORD PTR __Plist$[esp+64]
  00378	3b 71 04	 cmp	 esi, DWORD PTR [ecx+4]
  0037b	75 05		 jne	 SHORT $LN465@insert@2
  0037d	e8 00 00 00 00	 call	 __invalid_parameter_noinfo
$LN465@insert@2:
  00382	8b 54 24 18	 mov	 edx, DWORD PTR __Plist$[esp+64]
  00386	3b 72 04	 cmp	 esi, DWORD PTR [edx+4]
  00389	75 05		 jne	 SHORT $LN475@insert@2
  0038b	e8 00 00 00 00	 call	 __invalid_parameter_noinfo
$LN475@insert@2:
  00390	8b 45 00	 mov	 eax, DWORD PTR [ebp]
  00393	8b 4e 08	 mov	 ecx, DWORD PTR [esi+8]
  00396	3b c1		 cmp	 eax, ecx
  00398	72 a6		 jb	 SHORT $LL12@insert@2
  0039a	75 20		 jne	 SHORT $LN492@insert@2
  0039c	8b 45 04	 mov	 eax, DWORD PTR [ebp+4]
  0039f	8b 4e 0c	 mov	 ecx, DWORD PTR [esi+12]
  003a2	3b c1		 cmp	 eax, ecx
  003a4	72 9a		 jb	 SHORT $LL12@insert@2
  003a6	75 14		 jne	 SHORT $LN492@insert@2
  003a8	8b 45 08	 mov	 eax, DWORD PTR [ebp+8]
  003ab	8b 4e 10	 mov	 ecx, DWORD PTR [esi+16]
  003ae	3b c1		 cmp	 eax, ecx
  003b0	72 8e		 jb	 SHORT $LL12@insert@2
  003b2	75 08		 jne	 SHORT $LN492@insert@2
  003b4	8b 45 0c	 mov	 eax, DWORD PTR [ebp+12]
  003b7	3b 46 14	 cmp	 eax, DWORD PTR [esi+20]
  003ba	72 84		 jb	 SHORT $LL12@insert@2
$LN492@insert@2:

; 435  : 				;	// still too high in bucket list
; 436  : 			else if (this->comp(this->_Kfn(*_Plist), this->_Kfn(_Val)))

  003bc	8b 4c 24 18	 mov	 ecx, DWORD PTR __Plist$[esp+64]
  003c0	3b 71 04	 cmp	 esi, DWORD PTR [ecx+4]
  003c3	75 05		 jne	 SHORT $LN508@insert@2
  003c5	e8 00 00 00 00	 call	 __invalid_parameter_noinfo
$LN508@insert@2:
  003ca	8b 46 08	 mov	 eax, DWORD PTR [esi+8]
  003cd	8b 4d 00	 mov	 ecx, DWORD PTR [ebp]
  003d0	3b c1		 cmp	 eax, ecx
  003d2	72 32		 jb	 SHORT $LN629@insert@2
  003d4	0f 85 da 00 00
	00		 jne	 $LN8@insert@2
  003da	8b 46 0c	 mov	 eax, DWORD PTR [esi+12]
  003dd	8b 4d 04	 mov	 ecx, DWORD PTR [ebp+4]
  003e0	3b c1		 cmp	 eax, ecx
  003e2	72 22		 jb	 SHORT $LN629@insert@2
  003e4	0f 85 ca 00 00
	00		 jne	 $LN8@insert@2
  003ea	8b 46 10	 mov	 eax, DWORD PTR [esi+16]
  003ed	8b 4d 08	 mov	 ecx, DWORD PTR [ebp+8]
  003f0	3b c1		 cmp	 eax, ecx
  003f2	72 12		 jb	 SHORT $LN629@insert@2
  003f4	0f 85 ba 00 00
	00		 jne	 $LN8@insert@2
  003fa	8b 56 14	 mov	 edx, DWORD PTR [esi+20]
  003fd	3b 55 0c	 cmp	 edx, DWORD PTR [ebp+12]
  00400	0f 83 ae 00 00
	00		 jae	 $LN8@insert@2
$LN629@insert@2:

; 437  : 				{	// found insertion point, back up to it
; 438  : 				++_Plist;

  00406	8b 44 24 18	 mov	 eax, DWORD PTR __Plist$[esp+64]
  0040a	3b 70 04	 cmp	 esi, DWORD PTR [eax+4]
  0040d	75 05		 jne	 SHORT $LN537@insert@2
  0040f	e8 00 00 00 00	 call	 __invalid_parameter_noinfo
$LN537@insert@2:
  00414	8b 36		 mov	 esi, DWORD PTR [esi]
$LN11@insert@2:

; 445  : 
; 446  : 		_Where = _List.insert(_Plist, _Val);	// insert new element

  00416	8b 46 04	 mov	 eax, DWORD PTR [esi+4]
  00419	8b 54 24 18	 mov	 edx, DWORD PTR __Plist$[esp+64]
  0041d	55		 push	 ebp
  0041e	50		 push	 eax
  0041f	56		 push	 esi
  00420	8d 4b 04	 lea	 ecx, DWORD PTR [ebx+4]
  00423	89 54 24 2c	 mov	 DWORD PTR $T306492[esp+76], edx
  00427	89 74 24 30	 mov	 DWORD PTR $T306492[esp+80], esi
  0042b	e8 00 00 00 00	 call	 ?_Buynode@?$list@U?$pair@$$CBVCGUID@@PAVCBaseObject@@@std@@V?$allocator@U?$pair@$$CBVCGUID@@PAVCBaseObject@@@std@@@2@@std@@IAEPAU_Node@?$_List_nod@U?$pair@$$CBVCGUID@@PAVCBaseObject@@@std@@V?$allocator@U?$pair@$$CBVCGUID@@PAVCBaseObject@@@std@@@2@@2@PAU342@0ABU?$pair@$$CBVCGUID@@PAVCBaseObject@@@2@@Z ; std::list<std::pair<CGUID const ,CBaseObject *>,std::allocator<std::pair<CGUID const ,CBaseObject *> > >::_Buynode
  00430	6a 01		 push	 1
  00432	8d 4b 04	 lea	 ecx, DWORD PTR [ebx+4]
  00435	8b f8		 mov	 edi, eax
  00437	e8 00 00 00 00	 call	 ?_Incsize@?$list@U?$pair@$$CBVCGUID@@PAVCBaseObject@@@std@@V?$allocator@U?$pair@$$CBVCGUID@@PAVCBaseObject@@@std@@@2@@std@@IAEXI@Z ; std::list<std::pair<CGUID const ,CBaseObject *>,std::allocator<std::pair<CGUID const ,CBaseObject *> > >::_Incsize
  0043c	83 7c 24 18 00	 cmp	 DWORD PTR __Plist$[esp+64], 0
  00441	89 7e 04	 mov	 DWORD PTR [esi+4], edi
  00444	8b 4f 04	 mov	 ecx, DWORD PTR [edi+4]
  00447	89 39		 mov	 DWORD PTR [ecx], edi
  00449	75 05		 jne	 SHORT $LN565@insert@2
  0044b	e8 00 00 00 00	 call	 __invalid_parameter_noinfo
$LN565@insert@2:
  00450	8b 6e 04	 mov	 ebp, DWORD PTR [esi+4]
  00453	8b 54 24 20	 mov	 edx, DWORD PTR $T306492[esp+64]
  00457	3b 6a 04	 cmp	 ebp, DWORD PTR [edx+4]
  0045a	75 05		 jne	 SHORT $LN633@insert@2
  0045c	e8 00 00 00 00	 call	 __invalid_parameter_noinfo
$LN633@insert@2:
  00461	8b 7c 24 48	 mov	 edi, DWORD PTR __Bucket$[esp+60]
$LL632@insert@2:

; 447  : 		for (; _Vec[_Bucket] == _Plist; --_Bucket)

  00465	8b 4b 14	 mov	 ecx, DWORD PTR [ebx+20]
  00468	85 c9		 test	 ecx, ecx
  0046a	74 0c		 je	 SHORT $LN630@insert@2
  0046c	8b 43 18	 mov	 eax, DWORD PTR [ebx+24]
  0046f	2b c1		 sub	 eax, ecx
  00471	c1 f8 03	 sar	 eax, 3
  00474	3b f8		 cmp	 edi, eax
  00476	72 05		 jb	 SHORT $LN571@insert@2
$LN630@insert@2:
  00478	e8 00 00 00 00	 call	 __invalid_parameter_noinfo
$LN571@insert@2:
  0047d	8b 43 14	 mov	 eax, DWORD PTR [ebx+20]
  00480	39 74 f8 04	 cmp	 DWORD PTR [eax+edi*8+4], esi
  00484	75 49		 jne	 SHORT $LN635@insert@2

; 448  : 			{	// update end iterators if new first bucket element
; 449  : 			_Vec[_Bucket] = _Where;

  00486	8b c8		 mov	 ecx, eax
  00488	85 c9		 test	 ecx, ecx
  0048a	74 0c		 je	 SHORT $LN631@insert@2
  0048c	8b 43 18	 mov	 eax, DWORD PTR [ebx+24]
  0048f	2b c1		 sub	 eax, ecx
  00491	c1 f8 03	 sar	 eax, 3
  00494	3b f8		 cmp	 edi, eax
  00496	72 05		 jb	 SHORT $LN598@insert@2
$LN631@insert@2:
  00498	e8 00 00 00 00	 call	 __invalid_parameter_noinfo
$LN598@insert@2:

; 450  : 			if (_Bucket == 0)

  0049d	85 ff		 test	 edi, edi
  0049f	8b 43 14	 mov	 eax, DWORD PTR [ebx+20]
  004a2	8b 4c 24 20	 mov	 ecx, DWORD PTR $T306492[esp+64]
  004a6	89 0c f8	 mov	 DWORD PTR [eax+edi*8], ecx
  004a9	89 6c f8 04	 mov	 DWORD PTR [eax+edi*8+4], ebp
  004ad	74 20		 je	 SHORT $LN635@insert@2

; 447  : 		for (; _Vec[_Bucket] == _Plist; --_Bucket)

  004af	83 ef 01	 sub	 edi, 1
  004b2	eb b1		 jmp	 SHORT $LL632@insert@2
$LN8@insert@2:

; 439  : 				break;
; 440  : 				}
; 441  : 			else if (_Multi)
; 442  : 				break;	// equivalent, insert only if multi
; 443  : 			else
; 444  : 				return (_Pairib(_Plist, false));	// already present

  004b4	8b 44 24 44	 mov	 eax, DWORD PTR ___$ReturnUdt$[esp+60]
  004b8	8b 4c 24 18	 mov	 ecx, DWORD PTR __Plist$[esp+64]
  004bc	89 08		 mov	 DWORD PTR [eax], ecx
  004be	89 70 04	 mov	 DWORD PTR [eax+4], esi
  004c1	c6 40 08 00	 mov	 BYTE PTR [eax+8], 0

; 455  : 		}

  004c5	5f		 pop	 edi
  004c6	5e		 pop	 esi
  004c7	5d		 pop	 ebp
  004c8	5b		 pop	 ebx
  004c9	83 c4 30	 add	 esp, 48			; 00000030H
  004cc	c2 08 00	 ret	 8
$LN635@insert@2:

; 451  : 				break;
; 452  : 			}
; 453  : 
; 454  : 		return (_Pairib(_Where, true));	// return iterator for new element

  004cf	8b 44 24 44	 mov	 eax, DWORD PTR ___$ReturnUdt$[esp+60]
  004d3	8b 54 24 20	 mov	 edx, DWORD PTR $T306492[esp+64]

; 455  : 		}

  004d7	5f		 pop	 edi
  004d8	5e		 pop	 esi
  004d9	89 68 04	 mov	 DWORD PTR [eax+4], ebp
  004dc	5d		 pop	 ebp
  004dd	89 10		 mov	 DWORD PTR [eax], edx
  004df	c6 40 08 01	 mov	 BYTE PTR [eax+8], 1
  004e3	5b		 pop	 ebx
  004e4	83 c4 30	 add	 esp, 48			; 00000030H
  004e7	c2 08 00	 ret	 8
?insert@?$_Hash@V?$_Hmap_traits@VCGUID@@PAVCBaseObject@@Vhash_guid_compare@@V?$allocator@U?$pair@$$CBVCGUID@@PAVCBaseObject@@@std@@@std@@$0A@@stdext@@@stdext@@QAE?AU?$pair@V?$_Iterator@$00@?$list@U?$pair@$$CBVCGUID@@PAVCBaseObject@@@std@@V?$allocator@U?$pair@$$CBVCGUID@@PAVCBaseObject@@@std@@@2@@std@@_N@std@@ABU?$pair@$$CBVCGUID@@PAVCBaseObject@@@4@@Z ENDP ; stdext::_Hash<stdext::_Hmap_traits<CGUID,CBaseObject *,hash_guid_compare,std::allocator<std::pair<CGUID const ,CBaseObject *> >,0> >::insert
_TEXT	ENDS
PUBLIC	?clear@?$_Hash@V?$_Hmap_traits@VCGUID@@PAVCBaseObject@@Vhash_guid_compare@@V?$allocator@U?$pair@$$CBVCGUID@@PAVCBaseObject@@@std@@@std@@$0A@@stdext@@@stdext@@QAEXXZ ; stdext::_Hash<stdext::_Hmap_traits<CGUID,CBaseObject *,hash_guid_compare,std::allocator<std::pair<CGUID const ,CBaseObject *> >,0> >::clear
; Function compile flags: /Ogtpy
;	COMDAT ?clear@?$_Hash@V?$_Hmap_traits@VCGUID@@PAVCBaseObject@@Vhash_guid_compare@@V?$allocator@U?$pair@$$CBVCGUID@@PAVCBaseObject@@@std@@@std@@$0A@@stdext@@@stdext@@QAEXXZ
_TEXT	SEGMENT
$T306625 = -8						; size = 8
?clear@?$_Hash@V?$_Hmap_traits@VCGUID@@PAVCBaseObject@@Vhash_guid_compare@@V?$allocator@U?$pair@$$CBVCGUID@@PAVCBaseObject@@@std@@@std@@$0A@@stdext@@@stdext@@QAEXXZ PROC ; stdext::_Hash<stdext::_Hmap_traits<CGUID,CBaseObject *,hash_guid_compare,std::allocator<std::pair<CGUID const ,CBaseObject *> >,0> >::clear, COMDAT
; _this$ = ecx

; 528  : 		{	// erase all

  00000	83 ec 08	 sub	 esp, 8
  00003	56		 push	 esi
  00004	57		 push	 edi
  00005	8b f9		 mov	 edi, ecx

; 529  : 		_List.clear();

  00007	8b 4f 08	 mov	 ecx, DWORD PTR [edi+8]
  0000a	8b 01		 mov	 eax, DWORD PTR [ecx]
  0000c	8d 77 04	 lea	 esi, DWORD PTR [edi+4]
  0000f	89 09		 mov	 DWORD PTR [ecx], ecx
  00011	8b 4e 04	 mov	 ecx, DWORD PTR [esi+4]
  00014	89 49 04	 mov	 DWORD PTR [ecx+4], ecx
  00017	3b 46 04	 cmp	 eax, DWORD PTR [esi+4]
  0001a	c7 46 08 00 00
	00 00		 mov	 DWORD PTR [esi+8], 0
  00021	74 14		 je	 SHORT $LN3@clear@2
  00023	53		 push	 ebx
$LL5@clear@2:
  00024	8b 18		 mov	 ebx, DWORD PTR [eax]
  00026	50		 push	 eax
  00027	e8 00 00 00 00	 call	 ??3@YAXPAX@Z		; operator delete
  0002c	83 c4 04	 add	 esp, 4
  0002f	3b 5e 04	 cmp	 ebx, DWORD PTR [esi+4]
  00032	8b c3		 mov	 eax, ebx
  00034	75 ee		 jne	 SHORT $LL5@clear@2
  00036	5b		 pop	 ebx
$LN3@clear@2:

; 530  : 		_Vec.assign(min_buckets + 1, end());

  00037	8b 46 04	 mov	 eax, DWORD PTR [esi+4]
  0003a	89 44 24 0c	 mov	 DWORD PTR $T306625[esp+20], eax
  0003e	8d 44 24 08	 lea	 eax, DWORD PTR $T306625[esp+16]
  00042	50		 push	 eax
  00043	6a 09		 push	 9
  00045	8d 4f 10	 lea	 ecx, DWORD PTR [edi+16]
  00048	89 74 24 10	 mov	 DWORD PTR $T306625[esp+24], esi
  0004c	e8 00 00 00 00	 call	 ?_Assign_n@?$vector@U_List_position@?$_Hash@V?$_Hmap_traits@VCGUID@@PAVCBaseObject@@Vhash_guid_compare@@V?$allocator@U?$pair@$$CBVCGUID@@PAVCBaseObject@@@std@@@std@@$0A@@stdext@@@stdext@@V?$allocator@U_List_position@?$_Hash@V?$_Hmap_traits@VCGUID@@PAVCBaseObject@@Vhash_guid_compare@@V?$allocator@U?$pair@$$CBVCGUID@@PAVCBaseObject@@@std@@@std@@$0A@@stdext@@@stdext@@@std@@@std@@IAEXIABU_List_position@?$_Hash@V?$_Hmap_traits@VCGUID@@PAVCBaseObject@@Vhash_guid_compare@@V?$allocator@U?$pair@$$CBVCGUID@@PAVCBaseObject@@@std@@@std@@$0A@@stdext@@@stdext@@@Z ; std::vector<stdext::_Hash<stdext::_Hmap_traits<CGUID,CBaseObject *,hash_guid_compare,std::allocator<std::pair<CGUID const ,CBaseObject *> >,0> >::_List_position,std::allocator<stdext::_Hash<stdext::_Hmap_traits<CGUID,CBaseObject *,hash_guid_compare,std::allocator<std::pair<CGUID const ,CBaseObject *> >,0> >::_List_position> >::_Assign_n

; 531  : 		_Mask = 1;

  00051	b8 01 00 00 00	 mov	 eax, 1
  00056	89 47 20	 mov	 DWORD PTR [edi+32], eax

; 532  : 		_Maxidx = 1;

  00059	89 47 24	 mov	 DWORD PTR [edi+36], eax
  0005c	5f		 pop	 edi
  0005d	5e		 pop	 esi

; 533  : 		}

  0005e	83 c4 08	 add	 esp, 8
  00061	c3		 ret	 0
?clear@?$_Hash@V?$_Hmap_traits@VCGUID@@PAVCBaseObject@@Vhash_guid_compare@@V?$allocator@U?$pair@$$CBVCGUID@@PAVCBaseObject@@@std@@@std@@$0A@@stdext@@@stdext@@QAEXXZ ENDP ; stdext::_Hash<stdext::_Hmap_traits<CGUID,CBaseObject *,hash_guid_compare,std::allocator<std::pair<CGUID const ,CBaseObject *> >,0> >::clear
_TEXT	ENDS
PUBLIC	??A?$hash_map@VCGUID@@PAVCBaseObject@@Vhash_guid_compare@@V?$allocator@U?$pair@$$CBVCGUID@@PAVCBaseObject@@@std@@@std@@@stdext@@QAEAAPAVCBaseObject@@ABVCGUID@@@Z ; stdext::hash_map<CGUID,CBaseObject *,hash_guid_compare,std::allocator<std::pair<CGUID const ,CBaseObject *> > >::operator[]
; Function compile flags: /Ogtpy
; File d:\program files\microsoft visual studio 8\vc\include\hash_map
;	COMDAT ??A?$hash_map@VCGUID@@PAVCBaseObject@@Vhash_guid_compare@@V?$allocator@U?$pair@$$CBVCGUID@@PAVCBaseObject@@@std@@@std@@@stdext@@QAEAAPAVCBaseObject@@ABVCGUID@@@Z
_TEXT	SEGMENT
__Where$ = -40						; size = 8
$T306806 = -32						; size = 12
$T306803 = -32						; size = 8
$T306804 = -20						; size = 20
__Keyval$ = 8						; size = 4
??A?$hash_map@VCGUID@@PAVCBaseObject@@Vhash_guid_compare@@V?$allocator@U?$pair@$$CBVCGUID@@PAVCBaseObject@@@std@@@std@@@stdext@@QAEAAPAVCBaseObject@@ABVCGUID@@@Z PROC ; stdext::hash_map<CGUID,CBaseObject *,hash_guid_compare,std::allocator<std::pair<CGUID const ,CBaseObject *> > >::operator[], COMDAT
; _this$ = ecx

; 159  : 		{	// find element matching _Keyval or insert with default mapped

  00000	83 ec 28	 sub	 esp, 40			; 00000028H
  00003	53		 push	 ebx

; 160  : 		iterator _Where = this->lower_bound(_Keyval);

  00004	8b 5c 24 30	 mov	 ebx, DWORD PTR __Keyval$[esp+40]
  00008	55		 push	 ebp
  00009	56		 push	 esi
  0000a	57		 push	 edi
  0000b	53		 push	 ebx
  0000c	8d 44 24 14	 lea	 eax, DWORD PTR __Where$[esp+60]
  00010	50		 push	 eax
  00011	8b f1		 mov	 esi, ecx
  00013	e8 00 00 00 00	 call	 ?lower_bound@?$_Hash@V?$_Hmap_traits@VCGUID@@PAVCBaseObject@@Vhash_guid_compare@@V?$allocator@U?$pair@$$CBVCGUID@@PAVCBaseObject@@@std@@@std@@$0A@@stdext@@@stdext@@QAE?AV?$_Iterator@$00@?$list@U?$pair@$$CBVCGUID@@PAVCBaseObject@@@std@@V?$allocator@U?$pair@$$CBVCGUID@@PAVCBaseObject@@@std@@@2@@std@@ABVCGUID@@@Z ; stdext::_Hash<stdext::_Hmap_traits<CGUID,CBaseObject *,hash_guid_compare,std::allocator<std::pair<CGUID const ,CBaseObject *> >,0> >::lower_bound

; 161  : 		if (_Where == this->end())

  00018	8b 7c 24 10	 mov	 edi, DWORD PTR __Where$[esp+56]
  0001c	85 ff		 test	 edi, edi
  0001e	8b 4e 08	 mov	 ecx, DWORD PTR [esi+8]
  00021	8d 46 04	 lea	 eax, DWORD PTR [esi+4]
  00024	89 4c 24 1c	 mov	 DWORD PTR $T306803[esp+60], ecx
  00028	74 04		 je	 SHORT $LN18@operator@21
  0002a	3b f8		 cmp	 edi, eax
  0002c	74 05		 je	 SHORT $LN19@operator@21
$LN18@operator@21:
  0002e	e8 00 00 00 00	 call	 __invalid_parameter_noinfo
$LN19@operator@21:
  00033	8b 6c 24 14	 mov	 ebp, DWORD PTR __Where$[esp+60]
  00037	3b 6c 24 1c	 cmp	 ebp, DWORD PTR $T306803[esp+60]
  0003b	75 33		 jne	 SHORT $LN36@operator@21

; 162  : 			_Where = this->insert(value_type(_Keyval, mapped_type())).first;

  0003d	f3 0f 7e 03	 movq	 xmm0, QWORD PTR [ebx]
  00041	8d 54 24 24	 lea	 edx, DWORD PTR $T306804[esp+56]
  00045	52		 push	 edx
  00046	8d 44 24 1c	 lea	 eax, DWORD PTR $T306806[esp+60]
  0004a	66 0f d6 44 24
	28		 movq	 QWORD PTR $T306804[esp+60], xmm0
  00050	f3 0f 7e 43 08	 movq	 xmm0, QWORD PTR [ebx+8]
  00055	50		 push	 eax
  00056	8b ce		 mov	 ecx, esi
  00058	66 0f d6 44 24
	34		 movq	 QWORD PTR $T306804[esp+72], xmm0
  0005e	c7 44 24 3c 00
	00 00 00	 mov	 DWORD PTR $T306804[esp+80], 0
  00066	e8 00 00 00 00	 call	 ?insert@?$_Hash@V?$_Hmap_traits@VCGUID@@PAVCBaseObject@@Vhash_guid_compare@@V?$allocator@U?$pair@$$CBVCGUID@@PAVCBaseObject@@@std@@@std@@$0A@@stdext@@@stdext@@QAE?AU?$pair@V?$_Iterator@$00@?$list@U?$pair@$$CBVCGUID@@PAVCBaseObject@@@std@@V?$allocator@U?$pair@$$CBVCGUID@@PAVCBaseObject@@@std@@@2@@std@@_N@std@@ABU?$pair@$$CBVCGUID@@PAVCBaseObject@@@4@@Z ; stdext::_Hash<stdext::_Hmap_traits<CGUID,CBaseObject *,hash_guid_compare,std::allocator<std::pair<CGUID const ,CBaseObject *> >,0> >::insert
  0006b	8b 38		 mov	 edi, DWORD PTR [eax]
  0006d	8b 68 04	 mov	 ebp, DWORD PTR [eax+4]
$LN36@operator@21:

; 163  : 		return ((*_Where).second);

  00070	85 ff		 test	 edi, edi
  00072	75 05		 jne	 SHORT $LN29@operator@21
  00074	e8 00 00 00 00	 call	 __invalid_parameter_noinfo
$LN29@operator@21:
  00079	3b 6f 04	 cmp	 ebp, DWORD PTR [edi+4]
  0007c	75 05		 jne	 SHORT $LN35@operator@21
  0007e	e8 00 00 00 00	 call	 __invalid_parameter_noinfo
$LN35@operator@21:
  00083	5f		 pop	 edi
  00084	5e		 pop	 esi
  00085	8d 45 18	 lea	 eax, DWORD PTR [ebp+24]
  00088	5d		 pop	 ebp
  00089	5b		 pop	 ebx

; 164  : 		}

  0008a	83 c4 28	 add	 esp, 40			; 00000028H
  0008d	c2 04 00	 ret	 4
??A?$hash_map@VCGUID@@PAVCBaseObject@@Vhash_guid_compare@@V?$allocator@U?$pair@$$CBVCGUID@@PAVCBaseObject@@@std@@@std@@@stdext@@QAEAAPAVCBaseObject@@ABVCGUID@@@Z ENDP ; stdext::hash_map<CGUID,CBaseObject *,hash_guid_compare,std::allocator<std::pair<CGUID const ,CBaseObject *> > >::operator[]
_TEXT	ENDS
PUBLIC	?erase@?$_Hash@V?$_Hmap_traits@VCGUID@@PAVCBaseObject@@Vhash_guid_compare@@V?$allocator@U?$pair@$$CBVCGUID@@PAVCBaseObject@@@std@@@std@@$0A@@stdext@@@stdext@@QAE?AV?$_Iterator@$00@?$list@U?$pair@$$CBVCGUID@@PAVCBaseObject@@@std@@V?$allocator@U?$pair@$$CBVCGUID@@PAVCBaseObject@@@std@@@2@@std@@V345@0@Z ; stdext::_Hash<stdext::_Hmap_traits<CGUID,CBaseObject *,hash_guid_compare,std::allocator<std::pair<CGUID const ,CBaseObject *> >,0> >::erase
; Function compile flags: /Ogtpy
; File d:\program files\microsoft visual studio 8\vc\include\xhash
;	COMDAT ?erase@?$_Hash@V?$_Hmap_traits@VCGUID@@PAVCBaseObject@@Vhash_guid_compare@@V?$allocator@U?$pair@$$CBVCGUID@@PAVCBaseObject@@@std@@@std@@$0A@@stdext@@@stdext@@QAE?AV?$_Iterator@$00@?$list@U?$pair@$$CBVCGUID@@PAVCBaseObject@@@std@@V?$allocator@U?$pair@$$CBVCGUID@@PAVCBaseObject@@@std@@@2@@std@@V345@0@Z
_TEXT	SEGMENT
_this$ = -4						; size = 4
___$ReturnUdt$ = 8					; size = 4
$T306905 = 12						; size = 8
__First$ = 12						; size = 8
__Last$ = 20						; size = 8
?erase@?$_Hash@V?$_Hmap_traits@VCGUID@@PAVCBaseObject@@Vhash_guid_compare@@V?$allocator@U?$pair@$$CBVCGUID@@PAVCBaseObject@@@std@@@std@@$0A@@stdext@@@stdext@@QAE?AV?$_Iterator@$00@?$list@U?$pair@$$CBVCGUID@@PAVCBaseObject@@@std@@V?$allocator@U?$pair@$$CBVCGUID@@PAVCBaseObject@@@std@@@2@@std@@V345@0@Z PROC ; stdext::_Hash<stdext::_Hmap_traits<CGUID,CBaseObject *,hash_guid_compare,std::allocator<std::pair<CGUID const ,CBaseObject *> >,0> >::erase, COMDAT
; _this$ = ecx

; 495  : 		{	// erase [_First, _Last)

  00000	51		 push	 ecx

; 496  : 		_DEBUG_RANGE(_First, _Last);
; 497  : 		if (_First == begin() && _Last == end())

  00001	8b 41 08	 mov	 eax, DWORD PTR [ecx+8]
  00004	53		 push	 ebx
  00005	55		 push	 ebp
  00006	8b 28		 mov	 ebp, DWORD PTR [eax]
  00008	56		 push	 esi
  00009	57		 push	 edi
  0000a	8b 7c 24 1c	 mov	 edi, DWORD PTR __First$[esp+16]
  0000e	85 ff		 test	 edi, edi
  00010	8d 59 04	 lea	 ebx, DWORD PTR [ecx+4]
  00013	89 4c 24 10	 mov	 DWORD PTR _this$[esp+20], ecx
  00017	74 04		 je	 SHORT $LN23@erase@6
  00019	3b fb		 cmp	 edi, ebx
  0001b	74 05		 je	 SHORT $LN24@erase@6
$LN23@erase@6:
  0001d	e8 00 00 00 00	 call	 __invalid_parameter_noinfo
$LN24@erase@6:
  00022	8b 74 24 20	 mov	 esi, DWORD PTR __First$[esp+20]
  00026	3b f5		 cmp	 esi, ebp
  00028	75 39		 jne	 SHORT $LL2@erase@6
  0002a	8b 44 24 24	 mov	 eax, DWORD PTR __Last$[esp+16]
  0002e	85 c0		 test	 eax, eax
  00030	8b 6b 04	 mov	 ebp, DWORD PTR [ebx+4]
  00033	74 04		 je	 SHORT $LN42@erase@6
  00035	3b c3		 cmp	 eax, ebx
  00037	74 05		 je	 SHORT $LN43@erase@6
$LN42@erase@6:
  00039	e8 00 00 00 00	 call	 __invalid_parameter_noinfo
$LN43@erase@6:
  0003e	39 6c 24 28	 cmp	 DWORD PTR __Last$[esp+20], ebp
  00042	75 1f		 jne	 SHORT $LL2@erase@6

; 498  : 			{	// erase all
; 499  : 			clear();

  00044	8b 4c 24 10	 mov	 ecx, DWORD PTR _this$[esp+20]
  00048	e8 00 00 00 00	 call	 ?clear@?$_Hash@V?$_Hmap_traits@VCGUID@@PAVCBaseObject@@Vhash_guid_compare@@V?$allocator@U?$pair@$$CBVCGUID@@PAVCBaseObject@@@std@@@std@@$0A@@stdext@@@stdext@@QAEXXZ ; stdext::_Hash<stdext::_Hmap_traits<CGUID,CBaseObject *,hash_guid_compare,std::allocator<std::pair<CGUID const ,CBaseObject *> >,0> >::clear

; 500  : 			return (begin());

  0004d	8b 4b 04	 mov	 ecx, DWORD PTR [ebx+4]
  00050	8b 44 24 18	 mov	 eax, DWORD PTR ___$ReturnUdt$[esp+16]
  00054	8b 11		 mov	 edx, DWORD PTR [ecx]
  00056	5f		 pop	 edi
  00057	5e		 pop	 esi
  00058	5d		 pop	 ebp
  00059	89 18		 mov	 DWORD PTR [eax], ebx
  0005b	89 50 04	 mov	 DWORD PTR [eax+4], edx
  0005e	5b		 pop	 ebx

; 507  : 			}
; 508  : 		}

  0005f	59		 pop	 ecx
  00060	c2 14 00	 ret	 20			; 00000014H
$LL2@erase@6:

; 501  : 			}
; 502  : 		else
; 503  : 			{	// partial erase, one at a time
; 504  : 			while (_First != _Last)

  00063	85 ff		 test	 edi, edi
  00065	74 06		 je	 SHORT $LN65@erase@6
  00067	3b 7c 24 24	 cmp	 edi, DWORD PTR __Last$[esp+16]
  0006b	74 05		 je	 SHORT $LN66@erase@6
$LN65@erase@6:
  0006d	e8 00 00 00 00	 call	 __invalid_parameter_noinfo
$LN66@erase@6:
  00072	3b 74 24 28	 cmp	 esi, DWORD PTR __Last$[esp+20]
  00076	74 29		 je	 SHORT $LN1@erase@6

; 505  : 				erase(_First++);

  00078	85 ff		 test	 edi, edi
  0007a	8b de		 mov	 ebx, esi
  0007c	75 05		 jne	 SHORT $LN76@erase@6
  0007e	e8 00 00 00 00	 call	 __invalid_parameter_noinfo
$LN76@erase@6:
  00083	3b 77 04	 cmp	 esi, DWORD PTR [edi+4]
  00086	75 05		 jne	 SHORT $LN74@erase@6
  00088	e8 00 00 00 00	 call	 __invalid_parameter_noinfo
$LN74@erase@6:
  0008d	8b 4c 24 10	 mov	 ecx, DWORD PTR _this$[esp+20]
  00091	8b 36		 mov	 esi, DWORD PTR [esi]
  00093	53		 push	 ebx
  00094	57		 push	 edi
  00095	8d 44 24 24	 lea	 eax, DWORD PTR $T306905[esp+24]
  00099	50		 push	 eax
  0009a	e8 00 00 00 00	 call	 ?erase@?$_Hash@V?$_Hmap_traits@VCGUID@@PAVCBaseObject@@Vhash_guid_compare@@V?$allocator@U?$pair@$$CBVCGUID@@PAVCBaseObject@@@std@@@std@@$0A@@stdext@@@stdext@@QAE?AV?$_Iterator@$00@?$list@U?$pair@$$CBVCGUID@@PAVCBaseObject@@@std@@V?$allocator@U?$pair@$$CBVCGUID@@PAVCBaseObject@@@std@@@2@@std@@V345@@Z ; stdext::_Hash<stdext::_Hmap_traits<CGUID,CBaseObject *,hash_guid_compare,std::allocator<std::pair<CGUID const ,CBaseObject *> >,0> >::erase
  0009f	eb c2		 jmp	 SHORT $LL2@erase@6
$LN1@erase@6:

; 506  : 			return (_First);

  000a1	8b 44 24 18	 mov	 eax, DWORD PTR ___$ReturnUdt$[esp+16]
  000a5	89 38		 mov	 DWORD PTR [eax], edi
  000a7	5f		 pop	 edi
  000a8	89 70 04	 mov	 DWORD PTR [eax+4], esi
  000ab	5e		 pop	 esi
  000ac	5d		 pop	 ebp
  000ad	5b		 pop	 ebx

; 507  : 			}
; 508  : 		}

  000ae	59		 pop	 ecx
  000af	c2 14 00	 ret	 20			; 00000014H
?erase@?$_Hash@V?$_Hmap_traits@VCGUID@@PAVCBaseObject@@Vhash_guid_compare@@V?$allocator@U?$pair@$$CBVCGUID@@PAVCBaseObject@@@std@@@std@@$0A@@stdext@@@stdext@@QAE?AV?$_Iterator@$00@?$list@U?$pair@$$CBVCGUID@@PAVCBaseObject@@@std@@V?$allocator@U?$pair@$$CBVCGUID@@PAVCBaseObject@@@std@@@2@@std@@V345@0@Z ENDP ; stdext::_Hash<stdext::_Hmap_traits<CGUID,CBaseObject *,hash_guid_compare,std::allocator<std::pair<CGUID const ,CBaseObject *> >,0> >::erase
_TEXT	ENDS
PUBLIC	?CreateObject@GameManager@@QAEPAVCBaseObject@@JABVCGUID@@PBD@Z ; GameManager::CreateObject
; Function compile flags: /Ogtpy
; File d:\project_p6\trunk\server\gameserver\server\gamemanagerex.cpp
;	COMDAT ?CreateObject@GameManager@@QAEPAVCBaseObject@@JABVCGUID@@PBD@Z
_TEXT	SEGMENT
_typeID$ = 8						; size = 4
_guid$ = 12						; size = 4
_pInfo$ = 16						; size = 4
?CreateObject@GameManager@@QAEPAVCBaseObject@@JABVCGUID@@PBD@Z PROC ; GameManager::CreateObject, COMDAT
; _this$ = ecx

; 26   : {

  00000	53		 push	 ebx
  00001	55		 push	 ebp

; 27   : 	int *nNum = 0;
; 28   : 	CBaseObject* pObject = NULL;
; 29   : 
; 30   : 	switch(typeID)

  00002	8b 6c 24 0c	 mov	 ebp, DWORD PTR _typeID$[esp+4]
  00006	81 fd 58 02 00
	00		 cmp	 ebp, 600		; 00000258H
  0000c	56		 push	 esi
  0000d	57		 push	 edi
  0000e	8b d9		 mov	 ebx, ecx
  00010	7f 67		 jg	 SHORT $LN13@CreateObje
  00012	74 54		 je	 SHORT $LN6@CreateObje
  00014	8b c5		 mov	 eax, ebp
  00016	2d c8 00 00 00	 sub	 eax, 200		; 000000c8H
  0001b	74 37		 je	 SHORT $LN4@CreateObje
  0001d	2d c8 00 00 00	 sub	 eax, 200		; 000000c8H
  00022	74 1c		 je	 SHORT $LN5@CreateObje
  00024	83 e8 64	 sub	 eax, 100		; 00000064H
  00027	75 65		 jne	 SHORT $LN1@CreateObje

; 41   : 		}
; 42   : 		break;
; 43   : 
; 44   : 	case TYPE_COLLECTION:
; 45   : 		{
; 46   : 			//! GUID
; 47   : 			assert(m_CollectionList.end() == m_CollectionList.find(guid));
; 48   : 
; 49   : 			/*pObject = (CBaseObject*)m_MultiMemPool.Multi_Alloc(sizeof(CCollection), pInfo);
; 50   : 			new(pObject)CCollection();*/
; 51   : 			pObject = OBJ_CREATE(CCollection);

  00029	e8 00 00 00 00	 call	 ??$GetFactory@VCCollection@@VLockOfWinWhileSleep@XM_Tools@@@XM_Tools@@YAAAV?$CObjectFactory@VCCollection@@VLockOfWinWhileSleep@XM_Tools@@@0@XZ ; XM_Tools::GetFactory<CCollection,XM_Tools::LockOfWinWhileSleep>
  0002e	8b c8		 mov	 ecx, eax
  00030	e8 00 00 00 00	 call	 ?CreateObj@?$CObjectFactory@VCCollection@@VLockOfWinWhileSleep@XM_Tools@@@XM_Tools@@QAEPAVCCollection@@XZ ; XM_Tools::CObjectFactory<CCollection,XM_Tools::LockOfWinWhileSleep>::CreateObj

; 52   : 			m_CollectionList[guid] = pObject;

  00035	8d 8b a0 00 00
	00		 lea	 ecx, DWORD PTR [ebx+160]

; 53   : 		}
; 54   : 		break;

  0003b	e9 8e 00 00 00	 jmp	 $LN22@CreateObje
$LN5@CreateObje:

; 67   : 
; 68   : 	case TYPE_PLAYER:		// 
; 69   : 		{
; 70   : 			//! GUID
; 71   : 			assert(m_PlayerList.end() == m_PlayerList.find(guid));
; 72   : 
; 73   : 			/*pObject = (CBaseObject*)m_MultiMemPool.Multi_Alloc(sizeof(CPlayer), pInfo);
; 74   : 			new(pObject)CPlayer();*/
; 75   : 			pObject = OBJ_CREATE(CPlayer);

  00040	e8 00 00 00 00	 call	 ??$GetFactory@VCPlayer@@VLockOfWinWhileSleep@XM_Tools@@@XM_Tools@@YAAAV?$CObjectFactory@VCPlayer@@VLockOfWinWhileSleep@XM_Tools@@@0@XZ ; XM_Tools::GetFactory<CPlayer,XM_Tools::LockOfWinWhileSleep>
  00045	8b c8		 mov	 ecx, eax
  00047	e8 00 00 00 00	 call	 ?CreateObj@?$CObjectFactory@VCPlayer@@VLockOfWinWhileSleep@XM_Tools@@@XM_Tools@@QAEPAVCPlayer@@XZ ; XM_Tools::CObjectFactory<CPlayer,XM_Tools::LockOfWinWhileSleep>::CreateObj

; 76   : 			m_PlayerList[guid] = pObject;

  0004c	8d 8b c8 00 00
	00		 lea	 ecx, DWORD PTR [ebx+200]

; 77   : 		}
; 78   : 		break;

  00052	eb 7a		 jmp	 SHORT $LN22@CreateObje
$LN4@CreateObje:

; 79   : 
; 80   : 	case TYPE_REGION:		// 
; 81   : 		{
; 82   : 			//! GUID
; 83   : 			assert(m_RegionList.end() == m_RegionList.find(guid));
; 84   : 
; 85   : 			/*pObject = (CBaseObject*)m_MultiMemPool.Multi_Alloc(sizeof(CRegion), pInfo);
; 86   : 			new(pObject)CRegion(guid);*/
; 87   : 			pObject = OBJ_CREATE(CRegion);

  00054	e8 00 00 00 00	 call	 ??$GetFactory@VCRegion@@VLockOfWinWhileSleep@XM_Tools@@@XM_Tools@@YAAAV?$CObjectFactory@VCRegion@@VLockOfWinWhileSleep@XM_Tools@@@0@XZ ; XM_Tools::GetFactory<CRegion,XM_Tools::LockOfWinWhileSleep>
  00059	8b c8		 mov	 ecx, eax
  0005b	e8 00 00 00 00	 call	 ?CreateObj@?$CObjectFactory@VCRegion@@VLockOfWinWhileSleep@XM_Tools@@@XM_Tools@@QAEPAVCRegion@@XZ ; XM_Tools::CObjectFactory<CRegion,XM_Tools::LockOfWinWhileSleep>::CreateObj

; 88   : 			m_RegionList[guid] = pObject;

  00060	8d 8b f0 00 00
	00		 lea	 ecx, DWORD PTR [ebx+240]

; 89   : 		}
; 90   : 		break;

  00066	eb 66		 jmp	 SHORT $LN22@CreateObje
$LN6@CreateObje:

; 55   : 
; 56   : 	case TYPE_MONSTER:		// 
; 57   : 		{
; 58   : 			//! GUID
; 59   : 			assert(m_MonsterList.end() == m_MonsterList.find(guid));
; 60   : 
; 61   : 			/*pObject = (CBaseObject*)m_MultiMemPool.Multi_Alloc(sizeof(CMonster), pInfo);
; 62   : 			new(pObject)CMonster;*/
; 63   : 			pObject = OBJ_CREATE(CMonster);

  00068	e8 00 00 00 00	 call	 ??$GetFactory@VCMonster@@VLockOfWinWhileSleep@XM_Tools@@@XM_Tools@@YAAAV?$CObjectFactory@VCMonster@@VLockOfWinWhileSleep@XM_Tools@@@0@XZ ; XM_Tools::GetFactory<CMonster,XM_Tools::LockOfWinWhileSleep>
  0006d	8b c8		 mov	 ecx, eax
  0006f	e8 00 00 00 00	 call	 ?CreateObj@?$CObjectFactory@VCMonster@@VLockOfWinWhileSleep@XM_Tools@@@XM_Tools@@QAEPAVCMonster@@XZ ; XM_Tools::CObjectFactory<CMonster,XM_Tools::LockOfWinWhileSleep>::CreateObj

; 64   : 			m_MonsterList[guid] = pObject;

  00074	8d 4b 78	 lea	 ecx, DWORD PTR [ebx+120]

; 65   : 		}
; 66   : 		break;

  00077	eb 55		 jmp	 SHORT $LN22@CreateObje
$LN13@CreateObje:

; 27   : 	int *nNum = 0;
; 28   : 	CBaseObject* pObject = NULL;
; 29   : 
; 30   : 	switch(typeID)

  00079	8b c5		 mov	 eax, ebp
  0007b	2d bc 02 00 00	 sub	 eax, 700		; 000002bcH
  00080	74 3d		 je	 SHORT $LN8@CreateObje
  00082	2d 90 01 00 00	 sub	 eax, 400		; 00000190H
  00087	74 22		 je	 SHORT $LN3@CreateObje
  00089	83 e8 64	 sub	 eax, 100		; 00000064H
  0008c	74 09		 je	 SHORT $LN2@CreateObje
$LN1@CreateObje:
  0008e	5f		 pop	 edi
  0008f	5e		 pop	 esi
  00090	5d		 pop	 ebp

; 115  : 
; 116  : 	default:
; 117  : 		return NULL;

  00091	33 c0		 xor	 eax, eax
  00093	5b		 pop	 ebx

; 124  : }

  00094	c2 0c 00	 ret	 12			; 0000000cH
$LN2@CreateObje:

; 103  : 
; 104  : 	case TYPE_CITYGATE:
; 105  : 		{
; 106  : 			//! GUID
; 107  : 			assert(m_GateList.end() == m_GateList.find(guid));
; 108  : 
; 109  : 			/*pObject = (CBaseObject*)m_MultiMemPool.Multi_Alloc(sizeof(CGate), pInfo);
; 110  : 			new(pObject)CGate();*/
; 111  : 			pObject = OBJ_CREATE(CGate);

  00097	e8 00 00 00 00	 call	 ??$GetFactory@VCGate@@VLockOfWinWhileSleep@XM_Tools@@@XM_Tools@@YAAAV?$CObjectFactory@VCGate@@VLockOfWinWhileSleep@XM_Tools@@@0@XZ ; XM_Tools::GetFactory<CGate,XM_Tools::LockOfWinWhileSleep>
  0009c	8b c8		 mov	 ecx, eax
  0009e	e8 00 00 00 00	 call	 ?CreateObj@?$CObjectFactory@VCGate@@VLockOfWinWhileSleep@XM_Tools@@@XM_Tools@@QAEPAVCGate@@XZ ; XM_Tools::CObjectFactory<CGate,XM_Tools::LockOfWinWhileSleep>::CreateObj

; 112  : 			m_GateList[guid] = pObject;

  000a3	8d 8b 40 01 00
	00		 lea	 ecx, DWORD PTR [ebx+320]

; 113  : 		}
; 114  : 		break;

  000a9	eb 23		 jmp	 SHORT $LN22@CreateObje
$LN3@CreateObje:

; 91   : 
; 92   : 	case TYPE_BUILD:
; 93   : 		{
; 94   : 			//! GUID
; 95   : 			assert(m_BuildList.end() == m_BuildList.find(guid));
; 96   : 
; 97   : 			/*pObject = (CBaseObject*)m_MultiMemPool.Multi_Alloc(sizeof(CBuild), pInfo);
; 98   : 			new(pObject)CBuild();*/
; 99   : 			pObject = OBJ_CREATE(CBuild);

  000ab	e8 00 00 00 00	 call	 ??$GetFactory@VCBuild@@VLockOfWinWhileSleep@XM_Tools@@@XM_Tools@@YAAAV?$CObjectFactory@VCBuild@@VLockOfWinWhileSleep@XM_Tools@@@0@XZ ; XM_Tools::GetFactory<CBuild,XM_Tools::LockOfWinWhileSleep>
  000b0	8b c8		 mov	 ecx, eax
  000b2	e8 00 00 00 00	 call	 ?CreateObj@?$CObjectFactory@VCBuild@@VLockOfWinWhileSleep@XM_Tools@@@XM_Tools@@QAEPAVCBuild@@XZ ; XM_Tools::CObjectFactory<CBuild,XM_Tools::LockOfWinWhileSleep>::CreateObj

; 100  : 			m_BuildList[guid] = pObject;

  000b7	8d 8b 18 01 00
	00		 lea	 ecx, DWORD PTR [ebx+280]

; 101  : 		}
; 102  : 		break;

  000bd	eb 0f		 jmp	 SHORT $LN22@CreateObje
$LN8@CreateObje:

; 31   : 	{
; 32   : 	case TYPE_GOODS:		// 
; 33   : 		{
; 34   : 			//! GUID
; 35   : 			assert(m_GoodsList.end() == m_GoodsList.find(guid));
; 36   : 
; 37   : 			/*pObject = (CBaseObject*)m_MultiMemPool.Multi_Alloc(sizeof(CGoods), pInfo);
; 38   : 			new(pObject)CGoods();*/
; 39   : 			pObject = OBJ_CREATE(CGoods);

  000bf	e8 00 00 00 00	 call	 ??$GetFactory@VCGoods@@VLockOfWinWhileSleep@XM_Tools@@@XM_Tools@@YAAAV?$CObjectFactory@VCGoods@@VLockOfWinWhileSleep@XM_Tools@@@0@XZ ; XM_Tools::GetFactory<CGoods,XM_Tools::LockOfWinWhileSleep>
  000c4	8b c8		 mov	 ecx, eax
  000c6	e8 00 00 00 00	 call	 ?CreateObj@?$CObjectFactory@VCGoods@@VLockOfWinWhileSleep@XM_Tools@@@XM_Tools@@QAEPAVCGoods@@XZ ; XM_Tools::CObjectFactory<CGoods,XM_Tools::LockOfWinWhileSleep>::CreateObj

; 40   : 			m_GoodsList[guid] = pObject;

  000cb	8d 4b 50	 lea	 ecx, DWORD PTR [ebx+80]
$LN22@CreateObje:
  000ce	8b 7c 24 18	 mov	 edi, DWORD PTR _guid$[esp+12]
  000d2	57		 push	 edi
  000d3	8b f0		 mov	 esi, eax
  000d5	e8 00 00 00 00	 call	 ??A?$hash_map@VCGUID@@PAVCBaseObject@@Vhash_guid_compare@@V?$allocator@U?$pair@$$CBVCGUID@@PAVCBaseObject@@@std@@@std@@@stdext@@QAEAAPAVCBaseObject@@ABVCGUID@@@Z ; stdext::hash_map<CGUID,CBaseObject *,hash_guid_compare,std::allocator<std::pair<CGUID const ,CBaseObject *> > >::operator[]
  000da	89 30		 mov	 DWORD PTR [eax], esi

; 118  : 	}
; 119  : 
; 120  : 	pObject->SetExID(guid);

  000dc	8d 46 08	 lea	 eax, DWORD PTR [esi+8]
  000df	3b f8		 cmp	 edi, eax
  000e1	74 12		 je	 SHORT $LN16@CreateObje
  000e3	f3 0f 7e 07	 movq	 xmm0, QWORD PTR [edi]
  000e7	66 0f d6 00	 movq	 QWORD PTR [eax], xmm0
  000eb	f3 0f 7e 47 08	 movq	 xmm0, QWORD PTR [edi+8]
  000f0	66 0f d6 40 08	 movq	 QWORD PTR [eax+8], xmm0
$LN16@CreateObje:

; 121  : 	pObject->SetType(typeID);

  000f5	83 7e 04 00	 cmp	 DWORD PTR [esi+4], 0
  000f9	75 03		 jne	 SHORT $LN19@CreateObje
  000fb	89 6e 04	 mov	 DWORD PTR [esi+4], ebp
$LN19@CreateObje:
  000fe	5f		 pop	 edi

; 122  : 
; 123  : 	return pObject;

  000ff	8b c6		 mov	 eax, esi
  00101	5e		 pop	 esi
  00102	5d		 pop	 ebp
  00103	5b		 pop	 ebx

; 124  : }

  00104	c2 0c 00	 ret	 12			; 0000000cH
?CreateObject@GameManager@@QAEPAVCBaseObject@@JABVCGUID@@PBD@Z ENDP ; GameManager::CreateObject
_TEXT	ENDS
PUBLIC	?erase@?$_Hash@V?$_Hmap_traits@VCGUID@@PAVCBaseObject@@Vhash_guid_compare@@V?$allocator@U?$pair@$$CBVCGUID@@PAVCBaseObject@@@std@@@std@@$0A@@stdext@@@stdext@@QAEIABVCGUID@@@Z ; stdext::_Hash<stdext::_Hmap_traits<CGUID,CBaseObject *,hash_guid_compare,std::allocator<std::pair<CGUID const ,CBaseObject *> >,0> >::erase
; Function compile flags: /Ogtpy
; File d:\program files\microsoft visual studio 8\vc\include\xhash
;	COMDAT ?erase@?$_Hash@V?$_Hmap_traits@VCGUID@@PAVCBaseObject@@Vhash_guid_compare@@V?$allocator@U?$pair@$$CBVCGUID@@PAVCBaseObject@@@std@@@std@@$0A@@stdext@@@stdext@@QAEIABVCGUID@@@Z
_TEXT	SEGMENT
$T307188 = -16						; size = 8
__Where$ = -16						; size = 16
$T307197 = 8						; size = 1
__Num$ = 8						; size = 4
__Keyval$ = 8						; size = 4
?erase@?$_Hash@V?$_Hmap_traits@VCGUID@@PAVCBaseObject@@Vhash_guid_compare@@V?$allocator@U?$pair@$$CBVCGUID@@PAVCBaseObject@@@std@@@std@@$0A@@stdext@@@stdext@@QAEIABVCGUID@@@Z PROC ; stdext::_Hash<stdext::_Hmap_traits<CGUID,CBaseObject *,hash_guid_compare,std::allocator<std::pair<CGUID const ,CBaseObject *> >,0> >::erase, COMDAT
; _this$ = ecx

; 511  : 		{	// erase and count all that match _Keyval

  00000	83 ec 10	 sub	 esp, 16			; 00000010H

; 512  : 		_Pairii _Where = equal_range(_Keyval);

  00003	8b 44 24 14	 mov	 eax, DWORD PTR __Keyval$[esp+12]
  00007	53		 push	 ebx
  00008	55		 push	 ebp
  00009	56		 push	 esi
  0000a	57		 push	 edi
  0000b	8b f1		 mov	 esi, ecx
  0000d	50		 push	 eax
  0000e	8d 4c 24 14	 lea	 ecx, DWORD PTR __Where$[esp+36]
  00012	51		 push	 ecx
  00013	8b ce		 mov	 ecx, esi
  00015	e8 00 00 00 00	 call	 ?equal_range@?$_Hash@V?$_Hmap_traits@VCGUID@@PAVCBaseObject@@Vhash_guid_compare@@V?$allocator@U?$pair@$$CBVCGUID@@PAVCBaseObject@@@std@@@std@@$0A@@stdext@@@stdext@@QAE?AU?$pair@V?$_Iterator@$00@?$list@U?$pair@$$CBVCGUID@@PAVCBaseObject@@@std@@V?$allocator@U?$pair@$$CBVCGUID@@PAVCBaseObject@@@std@@@2@@std@@V123@@std@@ABVCGUID@@@Z ; stdext::_Hash<stdext::_Hmap_traits<CGUID,CBaseObject *,hash_guid_compare,std::allocator<std::pair<CGUID const ,CBaseObject *> >,0> >::equal_range

; 513  : 		size_type _Num = 0;
; 514  : 		_Distance(_Where.first, _Where.second, _Num);

  0001a	8b 7c 24 1c	 mov	 edi, DWORD PTR __Where$[esp+44]
  0001e	8b 5c 24 18	 mov	 ebx, DWORD PTR __Where$[esp+40]
  00022	8b 6c 24 14	 mov	 ebp, DWORD PTR __Where$[esp+36]
  00026	8b 4c 24 10	 mov	 ecx, DWORD PTR __Where$[esp+32]
  0002a	c7 44 24 24 00
	00 00 00	 mov	 DWORD PTR __Num$[esp+28], 0
  00032	8b 54 24 24	 mov	 edx, DWORD PTR $T307197[esp+28]
  00036	52		 push	 edx
  00037	8d 44 24 28	 lea	 eax, DWORD PTR __Num$[esp+32]
  0003b	50		 push	 eax
  0003c	57		 push	 edi
  0003d	53		 push	 ebx
  0003e	55		 push	 ebp
  0003f	51		 push	 ecx
  00040	e8 00 00 00 00	 call	 ??$_Distance2@V?$_Iterator@$00@?$list@U?$pair@$$CBVCGUID@@PAVCBaseObject@@@std@@V?$allocator@U?$pair@$$CBVCGUID@@PAVCBaseObject@@@std@@@2@@std@@I@std@@YAXV?$_Iterator@$00@?$list@U?$pair@$$CBVCGUID@@PAVCBaseObject@@@std@@V?$allocator@U?$pair@$$CBVCGUID@@PAVCBaseObject@@@std@@@2@@0@0AAIUbidirectional_iterator_tag@0@@Z ; std::_Distance2<std::list<std::pair<CGUID const ,CBaseObject *>,std::allocator<std::pair<CGUID const ,CBaseObject *> > >::_Iterator<1>,unsigned int>

; 515  : 		erase(_Where.first, _Where.second);

  00045	8b 54 24 28	 mov	 edx, DWORD PTR __Where$[esp+56]
  00049	83 c4 18	 add	 esp, 24			; 00000018H
  0004c	57		 push	 edi
  0004d	53		 push	 ebx
  0004e	55		 push	 ebp
  0004f	52		 push	 edx
  00050	8d 44 24 20	 lea	 eax, DWORD PTR $T307188[esp+48]
  00054	50		 push	 eax
  00055	8b ce		 mov	 ecx, esi
  00057	e8 00 00 00 00	 call	 ?erase@?$_Hash@V?$_Hmap_traits@VCGUID@@PAVCBaseObject@@Vhash_guid_compare@@V?$allocator@U?$pair@$$CBVCGUID@@PAVCBaseObject@@@std@@@std@@$0A@@stdext@@@stdext@@QAE?AV?$_Iterator@$00@?$list@U?$pair@$$CBVCGUID@@PAVCBaseObject@@@std@@V?$allocator@U?$pair@$$CBVCGUID@@PAVCBaseObject@@@std@@@2@@std@@V345@0@Z ; stdext::_Hash<stdext::_Hmap_traits<CGUID,CBaseObject *,hash_guid_compare,std::allocator<std::pair<CGUID const ,CBaseObject *> >,0> >::erase

; 516  : 		return (_Num);

  0005c	8b 44 24 24	 mov	 eax, DWORD PTR __Num$[esp+28]
  00060	5f		 pop	 edi
  00061	5e		 pop	 esi
  00062	5d		 pop	 ebp
  00063	5b		 pop	 ebx

; 517  : 		}

  00064	83 c4 10	 add	 esp, 16			; 00000010H
  00067	c2 04 00	 ret	 4
?erase@?$_Hash@V?$_Hmap_traits@VCGUID@@PAVCBaseObject@@Vhash_guid_compare@@V?$allocator@U?$pair@$$CBVCGUID@@PAVCBaseObject@@@std@@@std@@$0A@@stdext@@@stdext@@QAEIABVCGUID@@@Z ENDP ; stdext::_Hash<stdext::_Hmap_traits<CGUID,CBaseObject *,hash_guid_compare,std::allocator<std::pair<CGUID const ,CBaseObject *> >,0> >::erase
_TEXT	ENDS
PUBLIC	??_R0?AVCGoods@@@8				; CGoods `RTTI Type Descriptor'
PUBLIC	??_R0?AVCBuild@@@8				; CBuild `RTTI Type Descriptor'
PUBLIC	??_R0?AVCGate@@@8				; CGate `RTTI Type Descriptor'
PUBLIC	??_R0?AVCMonster@@@8				; CMonster `RTTI Type Descriptor'
PUBLIC	??_R0?AVCServerRegion@@@8			; CServerRegion `RTTI Type Descriptor'
PUBLIC	??_R0?AVCPlayer@@@8				; CPlayer `RTTI Type Descriptor'
PUBLIC	??_R0?AVCBaseObject@@@8				; CBaseObject `RTTI Type Descriptor'
PUBLIC	??_R0?AVCCollection@@@8				; CCollection `RTTI Type Descriptor'
PUBLIC	?FreeObject@GameManager@@QAEXPAPAVCBaseObject@@@Z ; GameManager::FreeObject
EXTRN	___RTDynamicCast:PROC
;	COMDAT ??_R0?AVCGoods@@@8
; File d:\project_p6\trunk\public\memmanage\cpp\objectfactory.tcc
_DATA	SEGMENT
??_R0?AVCGoods@@@8 DD FLAT:??_7type_info@@6B@		; CGoods `RTTI Type Descriptor'
	DD	00H
	DB	'.?AVCGoods@@', 00H
_DATA	ENDS
;	COMDAT ??_R0?AVCBuild@@@8
_DATA	SEGMENT
??_R0?AVCBuild@@@8 DD FLAT:??_7type_info@@6B@		; CBuild `RTTI Type Descriptor'
	DD	00H
	DB	'.?AVCBuild@@', 00H
_DATA	ENDS
;	COMDAT ??_R0?AVCGate@@@8
_DATA	SEGMENT
??_R0?AVCGate@@@8 DD FLAT:??_7type_info@@6B@		; CGate `RTTI Type Descriptor'
	DD	00H
	DB	'.?AVCGate@@', 00H
_DATA	ENDS
;	COMDAT ??_R0?AVCMonster@@@8
_DATA	SEGMENT
??_R0?AVCMonster@@@8 DD FLAT:??_7type_info@@6B@		; CMonster `RTTI Type Descriptor'
	DD	00H
	DB	'.?AVCMonster@@', 00H
_DATA	ENDS
;	COMDAT ??_R0?AVCServerRegion@@@8
_DATA	SEGMENT
??_R0?AVCServerRegion@@@8 DD FLAT:??_7type_info@@6B@	; CServerRegion `RTTI Type Descriptor'
	DD	00H
	DB	'.?AVCServerRegion@@', 00H
_DATA	ENDS
;	COMDAT ??_R0?AVCPlayer@@@8
_DATA	SEGMENT
??_R0?AVCPlayer@@@8 DD FLAT:??_7type_info@@6B@		; CPlayer `RTTI Type Descriptor'
	DD	00H
	DB	'.?AVCPlayer@@', 00H
_DATA	ENDS
;	COMDAT ??_R0?AVCBaseObject@@@8
_DATA	SEGMENT
??_R0?AVCBaseObject@@@8 DD FLAT:??_7type_info@@6B@	; CBaseObject `RTTI Type Descriptor'
	DD	00H
	DB	'.?AVCBaseObject@@', 00H
_DATA	ENDS
;	COMDAT ??_R0?AVCCollection@@@8
_DATA	SEGMENT
??_R0?AVCCollection@@@8 DD FLAT:??_7type_info@@6B@	; CCollection `RTTI Type Descriptor'
	DD	00H
	DB	'.?AVCCollection@@', 00H
; Function compile flags: /Ogtpy
; File d:\project_p6\trunk\server\gameserver\server\gamemanagerex.cpp
_DATA	ENDS
;	COMDAT ?FreeObject@GameManager@@QAEXPAPAVCBaseObject@@@Z
_TEXT	SEGMENT
_ppObj$ = 8						; size = 4
?FreeObject@GameManager@@QAEXPAPAVCBaseObject@@@Z PROC	; GameManager::FreeObject, COMDAT
; _this$ = ecx

; 127  : {

  00000	57		 push	 edi

; 128  : 	if (NULL == ppObj)

  00001	8b 7c 24 08	 mov	 edi, DWORD PTR _ppObj$[esp]
  00005	85 ff		 test	 edi, edi
  00007	0f 84 ce 01 00
	00		 je	 $LN34@FreeObject
  0000d	56		 push	 esi

; 129  : 	{
; 130  : 		return;
; 131  : 	}
; 132  : 	if (NULL == *ppObj)

  0000e	8b 37		 mov	 esi, DWORD PTR [edi]
  00010	85 f6		 test	 esi, esi
  00012	0f 84 c2 01 00
	00		 je	 $LN62@FreeObject

; 133  : 	{
; 134  : 		return;
; 135  : 	}
; 136  : 	CBaseObject *pObj = *ppObj;
; 137  : 	
; 138  : 	const CGUID&	guid	= pObj->GetExID();
; 139  : 
; 140  : 	switch(pObj->GetType())

  00018	8b 56 04	 mov	 edx, DWORD PTR [esi+4]
  0001b	81 fa 58 02 00
	00		 cmp	 edx, 600		; 00000258H
  00021	8d 46 08	 lea	 eax, DWORD PTR [esi+8]
  00024	0f 8f ef 00 00
	00		 jg	 $LN36@FreeObject
  0002a	0f 84 bd 00 00
	00		 je	 $LN21@FreeObject
  00030	81 ea c8 00 00
	00		 sub	 edx, 200		; 000000c8H
  00036	0f 84 82 00 00
	00		 je	 $LN13@FreeObject
  0003c	81 ea c8 00 00
	00		 sub	 edx, 200		; 000000c8H
  00042	74 4b		 je	 SHORT $LN17@FreeObject
  00044	83 ea 64	 sub	 edx, 100		; 00000064H
  00047	0f 85 87 01 00
	00		 jne	 $LN42@FreeObject

; 148  : 		}
; 149  : 		break;
; 150  : 
; 151  : 	case TYPE_COLLECTION:
; 152  : 		{
; 153  : 			m_CollectionList.erase(guid);

  0004d	50		 push	 eax
  0004e	81 c1 a0 00 00
	00		 add	 ecx, 160		; 000000a0H
  00054	e8 00 00 00 00	 call	 ?erase@?$_Hash@V?$_Hmap_traits@VCGUID@@PAVCBaseObject@@Vhash_guid_compare@@V?$allocator@U?$pair@$$CBVCGUID@@PAVCBaseObject@@@std@@@std@@$0A@@stdext@@@stdext@@QAEIABVCGUID@@@Z ; stdext::_Hash<stdext::_Hmap_traits<CGUID,CBaseObject *,hash_guid_compare,std::allocator<std::pair<CGUID const ,CBaseObject *> >,0> >::erase

; 154  : 			/*((CCollection*)pObj)->~CCollection();
; 155  : 			m_MultiMemPool.Multi_Free((void*)pObj, sizeof(CCollection));*/
; 156  : 			OBJ_RELEASE(CCollection, pObj);

  00059	6a 00		 push	 0
  0005b	68 00 00 00 00	 push	 OFFSET ??_R0?AVCCollection@@@8
  00060	68 00 00 00 00	 push	 OFFSET ??_R0?AVCBaseObject@@@8
  00065	6a 00		 push	 0
  00067	56		 push	 esi
  00068	e8 00 00 00 00	 call	 ___RTDynamicCast
  0006d	83 c4 14	 add	 esp, 20			; 00000014H
  00070	8b f0		 mov	 esi, eax
  00072	e8 00 00 00 00	 call	 ??$GetFactory@VCCollection@@VLockOfWinWhileSleep@XM_Tools@@@XM_Tools@@YAAAV?$CObjectFactory@VCCollection@@VLockOfWinWhileSleep@XM_Tools@@@0@XZ ; XM_Tools::GetFactory<CCollection,XM_Tools::LockOfWinWhileSleep>
  00077	85 f6		 test	 esi, esi
  00079	0f 84 55 01 00
	00		 je	 $LN42@FreeObject
  0007f	8b 06		 mov	 eax, DWORD PTR [esi]
  00081	8b 50 10	 mov	 edx, DWORD PTR [eax+16]
  00084	6a 00		 push	 0
  00086	8b ce		 mov	 ecx, esi
  00088	ff d2		 call	 edx

; 157  : 		}
; 158  : 		break;

  0008a	e9 31 01 00 00	 jmp	 $LN63@FreeObject
$LN17@FreeObject:

; 168  : 
; 169  : 	case TYPE_PLAYER:		// 
; 170  : 		{
; 171  : 			m_PlayerList.erase(guid);

  0008f	50		 push	 eax
  00090	81 c1 c8 00 00
	00		 add	 ecx, 200		; 000000c8H
  00096	e8 00 00 00 00	 call	 ?erase@?$_Hash@V?$_Hmap_traits@VCGUID@@PAVCBaseObject@@Vhash_guid_compare@@V?$allocator@U?$pair@$$CBVCGUID@@PAVCBaseObject@@@std@@@std@@$0A@@stdext@@@stdext@@QAEIABVCGUID@@@Z ; stdext::_Hash<stdext::_Hmap_traits<CGUID,CBaseObject *,hash_guid_compare,std::allocator<std::pair<CGUID const ,CBaseObject *> >,0> >::erase

; 172  : // 			((CPlayer*)pObj)->~CPlayer();
; 173  : // 			m_MultiMemPool.Multi_Free((void*)pObj, sizeof(CPlayer));
; 174  : 			OBJ_RELEASE(CPlayer, pObj);

  0009b	6a 00		 push	 0
  0009d	68 00 00 00 00	 push	 OFFSET ??_R0?AVCPlayer@@@8
  000a2	68 00 00 00 00	 push	 OFFSET ??_R0?AVCBaseObject@@@8
  000a7	6a 00		 push	 0
  000a9	56		 push	 esi
  000aa	e8 00 00 00 00	 call	 ___RTDynamicCast
  000af	83 c4 14	 add	 esp, 20			; 00000014H
  000b2	8b f0		 mov	 esi, eax
  000b4	e8 00 00 00 00	 call	 ??$GetFactory@VCPlayer@@VLockOfWinWhileSleep@XM_Tools@@@XM_Tools@@YAAAV?$CObjectFactory@VCPlayer@@VLockOfWinWhileSleep@XM_Tools@@@0@XZ ; XM_Tools::GetFactory<CPlayer,XM_Tools::LockOfWinWhileSleep>

; 175  : 		}
; 176  : 		break;

  000b9	e9 f3 00 00 00	 jmp	 $LN65@FreeObject
$LN13@FreeObject:

; 177  : 
; 178  : 	case TYPE_REGION:		// 
; 179  : 		{
; 180  : 			m_RegionList.erase(guid);

  000be	50		 push	 eax
  000bf	81 c1 f0 00 00
	00		 add	 ecx, 240		; 000000f0H
  000c5	e8 00 00 00 00	 call	 ?erase@?$_Hash@V?$_Hmap_traits@VCGUID@@PAVCBaseObject@@Vhash_guid_compare@@V?$allocator@U?$pair@$$CBVCGUID@@PAVCBaseObject@@@std@@@std@@$0A@@stdext@@@stdext@@QAEIABVCGUID@@@Z ; stdext::_Hash<stdext::_Hmap_traits<CGUID,CBaseObject *,hash_guid_compare,std::allocator<std::pair<CGUID const ,CBaseObject *> >,0> >::erase

; 181  : // 			((CRegion*)pObj)->~CRegion();
; 182  : // 			m_MultiMemPool.Multi_Free((void*)pObj, sizeof(CRegion));
; 183  : 			OBJ_RELEASE(CServerRegion, pObj);

  000ca	6a 00		 push	 0
  000cc	68 00 00 00 00	 push	 OFFSET ??_R0?AVCServerRegion@@@8
  000d1	68 00 00 00 00	 push	 OFFSET ??_R0?AVCBaseObject@@@8
  000d6	6a 00		 push	 0
  000d8	56		 push	 esi
  000d9	e8 00 00 00 00	 call	 ___RTDynamicCast
  000de	83 c4 14	 add	 esp, 20			; 00000014H
  000e1	8b f0		 mov	 esi, eax
  000e3	e8 00 00 00 00	 call	 ??$GetFactory@VCServerRegion@@VLockOfWinWhileSleep@XM_Tools@@@XM_Tools@@YAAAV?$CObjectFactory@VCServerRegion@@VLockOfWinWhileSleep@XM_Tools@@@0@XZ ; XM_Tools::GetFactory<CServerRegion,XM_Tools::LockOfWinWhileSleep>

; 184  : 		}
; 185  : 		break;

  000e8	e9 c4 00 00 00	 jmp	 $LN65@FreeObject
$LN21@FreeObject:

; 159  : 
; 160  : 	case TYPE_MONSTER:		// 
; 161  : 		{
; 162  : 			m_MonsterList.erase(guid);

  000ed	50		 push	 eax
  000ee	83 c1 78	 add	 ecx, 120		; 00000078H
  000f1	e8 00 00 00 00	 call	 ?erase@?$_Hash@V?$_Hmap_traits@VCGUID@@PAVCBaseObject@@Vhash_guid_compare@@V?$allocator@U?$pair@$$CBVCGUID@@PAVCBaseObject@@@std@@@std@@$0A@@stdext@@@stdext@@QAEIABVCGUID@@@Z ; stdext::_Hash<stdext::_Hmap_traits<CGUID,CBaseObject *,hash_guid_compare,std::allocator<std::pair<CGUID const ,CBaseObject *> >,0> >::erase

; 163  : 			/*((CMonster*)pObj)->~CMonster();
; 164  : 			m_MultiMemPool.Multi_Free((void*)pObj, sizeof(CMonster));*/
; 165  : 			OBJ_RELEASE(CMonster, pObj);

  000f6	6a 00		 push	 0
  000f8	68 00 00 00 00	 push	 OFFSET ??_R0?AVCMonster@@@8
  000fd	68 00 00 00 00	 push	 OFFSET ??_R0?AVCBaseObject@@@8
  00102	6a 00		 push	 0
  00104	56		 push	 esi
  00105	e8 00 00 00 00	 call	 ___RTDynamicCast
  0010a	83 c4 14	 add	 esp, 20			; 00000014H
  0010d	8b f0		 mov	 esi, eax
  0010f	e8 00 00 00 00	 call	 ??$GetFactory@VCMonster@@VLockOfWinWhileSleep@XM_Tools@@@XM_Tools@@YAAAV?$CObjectFactory@VCMonster@@VLockOfWinWhileSleep@XM_Tools@@@0@XZ ; XM_Tools::GetFactory<CMonster,XM_Tools::LockOfWinWhileSleep>

; 166  : 		}
; 167  : 		break;

  00114	e9 98 00 00 00	 jmp	 $LN65@FreeObject
$LN36@FreeObject:

; 133  : 	{
; 134  : 		return;
; 135  : 	}
; 136  : 	CBaseObject *pObj = *ppObj;
; 137  : 	
; 138  : 	const CGUID&	guid	= pObj->GetExID();
; 139  : 
; 140  : 	switch(pObj->GetType())

  00119	81 ea bc 02 00
	00		 sub	 edx, 700		; 000002bcH
  0011f	74 69		 je	 SHORT $LN29@FreeObject
  00121	81 ea 90 01 00
	00		 sub	 edx, 400		; 00000190H
  00127	74 35		 je	 SHORT $LN9@FreeObject
  00129	83 ea 64	 sub	 edx, 100		; 00000064H
  0012c	0f 85 a2 00 00
	00		 jne	 $LN42@FreeObject

; 195  : 
; 196  : 	case TYPE_CITYGATE:
; 197  : 		{
; 198  : 			m_GateList.erase(guid);

  00132	50		 push	 eax
  00133	81 c1 40 01 00
	00		 add	 ecx, 320		; 00000140H
  00139	e8 00 00 00 00	 call	 ?erase@?$_Hash@V?$_Hmap_traits@VCGUID@@PAVCBaseObject@@Vhash_guid_compare@@V?$allocator@U?$pair@$$CBVCGUID@@PAVCBaseObject@@@std@@@std@@$0A@@stdext@@@stdext@@QAEIABVCGUID@@@Z ; stdext::_Hash<stdext::_Hmap_traits<CGUID,CBaseObject *,hash_guid_compare,std::allocator<std::pair<CGUID const ,CBaseObject *> >,0> >::erase

; 199  : // 			((CGate*)pObj)->~CGate();
; 200  : // 			m_MultiMemPool.Multi_Free(pObj, sizeof(CGate));
; 201  : 			OBJ_RELEASE(CGate, pObj);

  0013e	6a 00		 push	 0
  00140	68 00 00 00 00	 push	 OFFSET ??_R0?AVCGate@@@8
  00145	68 00 00 00 00	 push	 OFFSET ??_R0?AVCBaseObject@@@8
  0014a	6a 00		 push	 0
  0014c	56		 push	 esi
  0014d	e8 00 00 00 00	 call	 ___RTDynamicCast
  00152	83 c4 14	 add	 esp, 20			; 00000014H
  00155	8b f0		 mov	 esi, eax
  00157	e8 00 00 00 00	 call	 ??$GetFactory@VCGate@@VLockOfWinWhileSleep@XM_Tools@@@XM_Tools@@YAAAV?$CObjectFactory@VCGate@@VLockOfWinWhileSleep@XM_Tools@@@0@XZ ; XM_Tools::GetFactory<CGate,XM_Tools::LockOfWinWhileSleep>

; 202  : 		}
; 203  : 		break;

  0015c	eb 53		 jmp	 SHORT $LN65@FreeObject
$LN9@FreeObject:

; 186  : 
; 187  : 	case TYPE_BUILD:
; 188  : 		{
; 189  : 			m_BuildList.erase(guid);

  0015e	50		 push	 eax
  0015f	81 c1 18 01 00
	00		 add	 ecx, 280		; 00000118H
  00165	e8 00 00 00 00	 call	 ?erase@?$_Hash@V?$_Hmap_traits@VCGUID@@PAVCBaseObject@@Vhash_guid_compare@@V?$allocator@U?$pair@$$CBVCGUID@@PAVCBaseObject@@@std@@@std@@$0A@@stdext@@@stdext@@QAEIABVCGUID@@@Z ; stdext::_Hash<stdext::_Hmap_traits<CGUID,CBaseObject *,hash_guid_compare,std::allocator<std::pair<CGUID const ,CBaseObject *> >,0> >::erase

; 190  : // 			((CBuild*)pObj)->~CBuild();
; 191  : // 			m_MultiMemPool.Multi_Free(pObj, sizeof(CBuild));
; 192  : 			OBJ_RELEASE(CBuild, pObj);

  0016a	6a 00		 push	 0
  0016c	68 00 00 00 00	 push	 OFFSET ??_R0?AVCBuild@@@8
  00171	68 00 00 00 00	 push	 OFFSET ??_R0?AVCBaseObject@@@8
  00176	6a 00		 push	 0
  00178	56		 push	 esi
  00179	e8 00 00 00 00	 call	 ___RTDynamicCast
  0017e	83 c4 14	 add	 esp, 20			; 00000014H
  00181	8b f0		 mov	 esi, eax
  00183	e8 00 00 00 00	 call	 ??$GetFactory@VCBuild@@VLockOfWinWhileSleep@XM_Tools@@@XM_Tools@@YAAAV?$CObjectFactory@VCBuild@@VLockOfWinWhileSleep@XM_Tools@@@0@XZ ; XM_Tools::GetFactory<CBuild,XM_Tools::LockOfWinWhileSleep>

; 193  : 		}
; 194  : 		break;

  00188	eb 27		 jmp	 SHORT $LN65@FreeObject
$LN29@FreeObject:

; 141  : 	{
; 142  : 	case TYPE_GOODS:		// 
; 143  : 		{
; 144  : 			m_GoodsList.erase(guid);

  0018a	50		 push	 eax
  0018b	83 c1 50	 add	 ecx, 80			; 00000050H
  0018e	e8 00 00 00 00	 call	 ?erase@?$_Hash@V?$_Hmap_traits@VCGUID@@PAVCBaseObject@@Vhash_guid_compare@@V?$allocator@U?$pair@$$CBVCGUID@@PAVCBaseObject@@@std@@@std@@$0A@@stdext@@@stdext@@QAEIABVCGUID@@@Z ; stdext::_Hash<stdext::_Hmap_traits<CGUID,CBaseObject *,hash_guid_compare,std::allocator<std::pair<CGUID const ,CBaseObject *> >,0> >::erase

; 145  : 			/*((CGoods*)pObj)->~CGoods();
; 146  : 			m_MultiMemPool.Multi_Free((void*)pObj, sizeof(CGoods));*/
; 147  : 			OBJ_RELEASE(CGoods, pObj);

  00193	6a 00		 push	 0
  00195	68 00 00 00 00	 push	 OFFSET ??_R0?AVCGoods@@@8
  0019a	68 00 00 00 00	 push	 OFFSET ??_R0?AVCBaseObject@@@8
  0019f	6a 00		 push	 0
  001a1	56		 push	 esi
  001a2	e8 00 00 00 00	 call	 ___RTDynamicCast
  001a7	83 c4 14	 add	 esp, 20			; 00000014H
  001aa	8b f0		 mov	 esi, eax
  001ac	e8 00 00 00 00	 call	 ??$GetFactory@VCGoods@@VLockOfWinWhileSleep@XM_Tools@@@XM_Tools@@YAAAV?$CObjectFactory@VCGoods@@VLockOfWinWhileSleep@XM_Tools@@@0@XZ ; XM_Tools::GetFactory<CGoods,XM_Tools::LockOfWinWhileSleep>
$LN65@FreeObject:
  001b1	85 f6		 test	 esi, esi
  001b3	74 1f		 je	 SHORT $LN42@FreeObject
  001b5	8b 16		 mov	 edx, DWORD PTR [esi]
  001b7	8b 42 10	 mov	 eax, DWORD PTR [edx+16]
  001ba	6a 00		 push	 0
  001bc	8b ce		 mov	 ecx, esi
  001be	ff d0		 call	 eax
$LN63@FreeObject:
  001c0	8b 4e fc	 mov	 ecx, DWORD PTR [esi-4]
  001c3	8d 46 fc	 lea	 eax, DWORD PTR [esi-4]
  001c6	51		 push	 ecx
  001c7	50		 push	 eax
  001c8	e8 00 00 00 00	 call	 ??$GetMemManage@VLockOfWinWhileSleep@XM_Tools@@@XM_Tools@@YAAAV?$CMemManage@VLockOfWinWhileSleep@XM_Tools@@@0@XZ ; XM_Tools::GetMemManage<XM_Tools::LockOfWinWhileSleep>
  001cd	8b c8		 mov	 ecx, eax
  001cf	e8 00 00 00 00	 call	 ?AsyncFree@?$CMemManage@VLockOfWinWhileSleep@XM_Tools@@@XM_Tools@@QAEXPAXK@Z ; XM_Tools::CMemManage<XM_Tools::LockOfWinWhileSleep>::AsyncFree
$LN42@FreeObject:

; 204  : 
; 205  : 	default:
; 206  : 		assert(false);
; 207  : 	}
; 208  : 
; 209  : 	*ppObj = NULL;

  001d4	c7 07 00 00 00
	00		 mov	 DWORD PTR [edi], 0
$LN62@FreeObject:
  001da	5e		 pop	 esi
$LN34@FreeObject:
  001db	5f		 pop	 edi

; 210  : }

  001dc	c2 04 00	 ret	 4
?FreeObject@GameManager@@QAEXPAPAVCBaseObject@@@Z ENDP	; GameManager::FreeObject
_TEXT	ENDS
EXTRN	?GUID_INVALID@CGUID@@2V1@A:BYTE			; CGUID::GUID_INVALID
; Function compile flags: /Ogtpy
; File d:\project_p6\trunk\public\module\guid.h
;	COMDAT ??__ENULL_GUID@@YAXXZ
text$yc	SEGMENT
??__ENULL_GUID@@YAXXZ PROC				; `dynamic initializer for 'NULL_GUID'', COMDAT

; 140  : const CGUID NULL_GUID = CGUID::GUID_INVALID;

  00000	f3 0f 7e 05 00
	00 00 00	 movq	 xmm0, QWORD PTR ?GUID_INVALID@CGUID@@2V1@A
  00008	66 0f d6 05 00
	00 00 00	 movq	 QWORD PTR _NULL_GUID, xmm0
  00010	f3 0f 7e 05 08
	00 00 00	 movq	 xmm0, QWORD PTR ?GUID_INVALID@CGUID@@2V1@A+8
  00018	68 00 00 00 00	 push	 OFFSET ??__FNULL_GUID@@YAXXZ ; `dynamic atexit destructor for 'NULL_GUID''
  0001d	66 0f d6 05 08
	00 00 00	 movq	 QWORD PTR _NULL_GUID+8, xmm0
  00025	e8 00 00 00 00	 call	 _atexit
  0002a	59		 pop	 ecx
  0002b	c3		 ret	 0
??__ENULL_GUID@@YAXXZ ENDP				; `dynamic initializer for 'NULL_GUID''
; Function compile flags: /Ogtpy
text$yc	ENDS
;	COMDAT ??__FNULL_GUID@@YAXXZ
text$yd	SEGMENT
??__FNULL_GUID@@YAXXZ PROC				; `dynamic atexit destructor for 'NULL_GUID'', COMDAT
  00000	c3		 ret	 0
??__FNULL_GUID@@YAXXZ ENDP				; `dynamic atexit destructor for 'NULL_GUID''
; Function compile flags: /Ogtpy
text$yd	ENDS
;	COMDAT ??__Fc_ObjectFactory@?1???$GetFactory@VCServerRegion@@VLockOfWinWhileSleep@XM_Tools@@@XM_Tools@@YAAAV?$CObjectFactory@VCServerRegion@@VLockOfWinWhileSleep@XM_Tools@@@0@XZ@YAXXZ
text$yd	SEGMENT
??__Fc_ObjectFactory@?1???$GetFactory@VCServerRegion@@VLockOfWinWhileSleep@XM_Tools@@@XM_Tools@@YAAAV?$CObjectFactory@VCServerRegion@@VLockOfWinWhileSleep@XM_Tools@@@0@XZ@YAXXZ PROC ; `XM_Tools::GetFactory<CServerRegion,XM_Tools::LockOfWinWhileSleep>'::`2'::`dynamic atexit destructor for 'c_ObjectFactory'', COMDAT
  00000	c3		 ret	 0
??__Fc_ObjectFactory@?1???$GetFactory@VCServerRegion@@VLockOfWinWhileSleep@XM_Tools@@@XM_Tools@@YAAAV?$CObjectFactory@VCServerRegion@@VLockOfWinWhileSleep@XM_Tools@@@0@XZ@YAXXZ ENDP ; `XM_Tools::GetFactory<CServerRegion,XM_Tools::LockOfWinWhileSleep>'::`2'::`dynamic atexit destructor for 'c_ObjectFactory''
; Function compile flags: /Ogtpy
text$yd	ENDS
;	COMDAT ??__Fc_ObjectFactory@?1???$GetFactory@VCGate@@VLockOfWinWhileSleep@XM_Tools@@@XM_Tools@@YAAAV?$CObjectFactory@VCGate@@VLockOfWinWhileSleep@XM_Tools@@@0@XZ@YAXXZ
text$yd	SEGMENT
??__Fc_ObjectFactory@?1???$GetFactory@VCGate@@VLockOfWinWhileSleep@XM_Tools@@@XM_Tools@@YAAAV?$CObjectFactory@VCGate@@VLockOfWinWhileSleep@XM_Tools@@@0@XZ@YAXXZ PROC ; `XM_Tools::GetFactory<CGate,XM_Tools::LockOfWinWhileSleep>'::`2'::`dynamic atexit destructor for 'c_ObjectFactory'', COMDAT
  00000	c3		 ret	 0
??__Fc_ObjectFactory@?1???$GetFactory@VCGate@@VLockOfWinWhileSleep@XM_Tools@@@XM_Tools@@YAAAV?$CObjectFactory@VCGate@@VLockOfWinWhileSleep@XM_Tools@@@0@XZ@YAXXZ ENDP ; `XM_Tools::GetFactory<CGate,XM_Tools::LockOfWinWhileSleep>'::`2'::`dynamic atexit destructor for 'c_ObjectFactory''
; Function compile flags: /Ogtpy
text$yd	ENDS
;	COMDAT ??__Fc_ObjectFactory@?1???$GetFactory@VCBuild@@VLockOfWinWhileSleep@XM_Tools@@@XM_Tools@@YAAAV?$CObjectFactory@VCBuild@@VLockOfWinWhileSleep@XM_Tools@@@0@XZ@YAXXZ
text$yd	SEGMENT
??__Fc_ObjectFactory@?1???$GetFactory@VCBuild@@VLockOfWinWhileSleep@XM_Tools@@@XM_Tools@@YAAAV?$CObjectFactory@VCBuild@@VLockOfWinWhileSleep@XM_Tools@@@0@XZ@YAXXZ PROC ; `XM_Tools::GetFactory<CBuild,XM_Tools::LockOfWinWhileSleep>'::`2'::`dynamic atexit destructor for 'c_ObjectFactory'', COMDAT
  00000	c3		 ret	 0
??__Fc_ObjectFactory@?1???$GetFactory@VCBuild@@VLockOfWinWhileSleep@XM_Tools@@@XM_Tools@@YAAAV?$CObjectFactory@VCBuild@@VLockOfWinWhileSleep@XM_Tools@@@0@XZ@YAXXZ ENDP ; `XM_Tools::GetFactory<CBuild,XM_Tools::LockOfWinWhileSleep>'::`2'::`dynamic atexit destructor for 'c_ObjectFactory''
; Function compile flags: /Ogtpy
text$yd	ENDS
;	COMDAT ??__Fc_ObjectFactory@?1???$GetFactory@VCRegion@@VLockOfWinWhileSleep@XM_Tools@@@XM_Tools@@YAAAV?$CObjectFactory@VCRegion@@VLockOfWinWhileSleep@XM_Tools@@@0@XZ@YAXXZ
text$yd	SEGMENT
??__Fc_ObjectFactory@?1???$GetFactory@VCRegion@@VLockOfWinWhileSleep@XM_Tools@@@XM_Tools@@YAAAV?$CObjectFactory@VCRegion@@VLockOfWinWhileSleep@XM_Tools@@@0@XZ@YAXXZ PROC ; `XM_Tools::GetFactory<CRegion,XM_Tools::LockOfWinWhileSleep>'::`2'::`dynamic atexit destructor for 'c_ObjectFactory'', COMDAT
  00000	c3		 ret	 0
??__Fc_ObjectFactory@?1???$GetFactory@VCRegion@@VLockOfWinWhileSleep@XM_Tools@@@XM_Tools@@YAAAV?$CObjectFactory@VCRegion@@VLockOfWinWhileSleep@XM_Tools@@@0@XZ@YAXXZ ENDP ; `XM_Tools::GetFactory<CRegion,XM_Tools::LockOfWinWhileSleep>'::`2'::`dynamic atexit destructor for 'c_ObjectFactory''
; Function compile flags: /Ogtpy
text$yd	ENDS
;	COMDAT ??__Fc_ObjectFactory@?1???$GetFactory@VCPlayer@@VLockOfWinWhileSleep@XM_Tools@@@XM_Tools@@YAAAV?$CObjectFactory@VCPlayer@@VLockOfWinWhileSleep@XM_Tools@@@0@XZ@YAXXZ
text$yd	SEGMENT
??__Fc_ObjectFactory@?1???$GetFactory@VCPlayer@@VLockOfWinWhileSleep@XM_Tools@@@XM_Tools@@YAAAV?$CObjectFactory@VCPlayer@@VLockOfWinWhileSleep@XM_Tools@@@0@XZ@YAXXZ PROC ; `XM_Tools::GetFactory<CPlayer,XM_Tools::LockOfWinWhileSleep>'::`2'::`dynamic atexit destructor for 'c_ObjectFactory'', COMDAT
  00000	c3		 ret	 0
??__Fc_ObjectFactory@?1???$GetFactory@VCPlayer@@VLockOfWinWhileSleep@XM_Tools@@@XM_Tools@@YAAAV?$CObjectFactory@VCPlayer@@VLockOfWinWhileSleep@XM_Tools@@@0@XZ@YAXXZ ENDP ; `XM_Tools::GetFactory<CPlayer,XM_Tools::LockOfWinWhileSleep>'::`2'::`dynamic atexit destructor for 'c_ObjectFactory''
; Function compile flags: /Ogtpy
text$yd	ENDS
;	COMDAT ??__Fc_ObjectFactory@?1???$GetFactory@VCMonster@@VLockOfWinWhileSleep@XM_Tools@@@XM_Tools@@YAAAV?$CObjectFactory@VCMonster@@VLockOfWinWhileSleep@XM_Tools@@@0@XZ@YAXXZ
text$yd	SEGMENT
??__Fc_ObjectFactory@?1???$GetFactory@VCMonster@@VLockOfWinWhileSleep@XM_Tools@@@XM_Tools@@YAAAV?$CObjectFactory@VCMonster@@VLockOfWinWhileSleep@XM_Tools@@@0@XZ@YAXXZ PROC ; `XM_Tools::GetFactory<CMonster,XM_Tools::LockOfWinWhileSleep>'::`2'::`dynamic atexit destructor for 'c_ObjectFactory'', COMDAT
  00000	c3		 ret	 0
??__Fc_ObjectFactory@?1???$GetFactory@VCMonster@@VLockOfWinWhileSleep@XM_Tools@@@XM_Tools@@YAAAV?$CObjectFactory@VCMonster@@VLockOfWinWhileSleep@XM_Tools@@@0@XZ@YAXXZ ENDP ; `XM_Tools::GetFactory<CMonster,XM_Tools::LockOfWinWhileSleep>'::`2'::`dynamic atexit destructor for 'c_ObjectFactory''
; Function compile flags: /Ogtpy
text$yd	ENDS
;	COMDAT ??__Fc_ObjectFactory@?1???$GetFactory@VCCollection@@VLockOfWinWhileSleep@XM_Tools@@@XM_Tools@@YAAAV?$CObjectFactory@VCCollection@@VLockOfWinWhileSleep@XM_Tools@@@0@XZ@YAXXZ
text$yd	SEGMENT
??__Fc_ObjectFactory@?1???$GetFactory@VCCollection@@VLockOfWinWhileSleep@XM_Tools@@@XM_Tools@@YAAAV?$CObjectFactory@VCCollection@@VLockOfWinWhileSleep@XM_Tools@@@0@XZ@YAXXZ PROC ; `XM_Tools::GetFactory<CCollection,XM_Tools::LockOfWinWhileSleep>'::`2'::`dynamic atexit destructor for 'c_ObjectFactory'', COMDAT
  00000	c3		 ret	 0
??__Fc_ObjectFactory@?1???$GetFactory@VCCollection@@VLockOfWinWhileSleep@XM_Tools@@@XM_Tools@@YAAAV?$CObjectFactory@VCCollection@@VLockOfWinWhileSleep@XM_Tools@@@0@XZ@YAXXZ ENDP ; `XM_Tools::GetFactory<CCollection,XM_Tools::LockOfWinWhileSleep>'::`2'::`dynamic atexit destructor for 'c_ObjectFactory''
; Function compile flags: /Ogtpy
text$yd	ENDS
;	COMDAT ??__Fc_ObjectFactory@?1???$GetFactory@VCGoods@@VLockOfWinWhileSleep@XM_Tools@@@XM_Tools@@YAAAV?$CObjectFactory@VCGoods@@VLockOfWinWhileSleep@XM_Tools@@@0@XZ@YAXXZ
text$yd	SEGMENT
??__Fc_ObjectFactory@?1???$GetFactory@VCGoods@@VLockOfWinWhileSleep@XM_Tools@@@XM_Tools@@YAAAV?$CObjectFactory@VCGoods@@VLockOfWinWhileSleep@XM_Tools@@@0@XZ@YAXXZ PROC ; `XM_Tools::GetFactory<CGoods,XM_Tools::LockOfWinWhileSleep>'::`2'::`dynamic atexit destructor for 'c_ObjectFactory'', COMDAT
  00000	c3		 ret	 0
??__Fc_ObjectFactory@?1???$GetFactory@VCGoods@@VLockOfWinWhileSleep@XM_Tools@@@XM_Tools@@YAAAV?$CObjectFactory@VCGoods@@VLockOfWinWhileSleep@XM_Tools@@@0@XZ@YAXXZ ENDP ; `XM_Tools::GetFactory<CGoods,XM_Tools::LockOfWinWhileSleep>'::`2'::`dynamic atexit destructor for 'c_ObjectFactory''
; Function compile flags: /Ogtpy
text$yd	ENDS
;	COMDAT ??__Fc_MemManage@?1???$GetMemManage@VLockOfWinWhileSleep@XM_Tools@@@XM_Tools@@YAAAV?$CMemManage@VLockOfWinWhileSleep@XM_Tools@@@0@XZ@YAXXZ
text$yd	SEGMENT
??__Fc_MemManage@?1???$GetMemManage@VLockOfWinWhileSleep@XM_Tools@@@XM_Tools@@YAAAV?$CMemManage@VLockOfWinWhileSleep@XM_Tools@@@0@XZ@YAXXZ PROC ; `XM_Tools::GetMemManage<XM_Tools::LockOfWinWhileSleep>'::`2'::`dynamic atexit destructor for 'c_MemManage'', COMDAT
  00000	b9 00 00 00 00	 mov	 ecx, OFFSET ?c_MemManage@?1???$GetMemManage@VLockOfWinWhileSleep@XM_Tools@@@XM_Tools@@YAAAV?$CMemManage@VLockOfWinWhileSleep@XM_Tools@@@1@XZ@4V21@A
  00005	e9 00 00 00 00	 jmp	 ??1?$CMemManage@VLockOfWinWhileSleep@XM_Tools@@@XM_Tools@@QAE@XZ ; XM_Tools::CMemManage<XM_Tools::LockOfWinWhileSleep>::~CMemManage<XM_Tools::LockOfWinWhileSleep>
??__Fc_MemManage@?1???$GetMemManage@VLockOfWinWhileSleep@XM_Tools@@@XM_Tools@@YAAAV?$CMemManage@VLockOfWinWhileSleep@XM_Tools@@@0@XZ@YAXXZ ENDP ; `XM_Tools::GetMemManage<XM_Tools::LockOfWinWhileSleep>'::`2'::`dynamic atexit destructor for 'c_MemManage''
text$yd	ENDS
PUBLIC	?id@?$codecvt@DDH@std@@2V0locale@2@A		; std::codecvt<char,char,int>::id
;	COMDAT ?id@?$codecvt@DDH@std@@2V0locale@2@A
_BSS	SEGMENT
?id@?$codecvt@DDH@std@@2V0locale@2@A DD 01H DUP (?)	; std::codecvt<char,char,int>::id
_BSS	ENDS
_BSS	SEGMENT
_NULL_GUID DB	010H DUP (?)
_BSS	ENDS
CRT$XCU	SEGMENT
_NULL_GUID$initializer$ DD FLAT:??__ENULL_GUID@@YAXXZ
CRT$XCU	ENDS
END
