; Listing generated by Microsoft (R) Optimizing Compiler Version 14.00.50727.762 

	TITLE	D:\Project_P6\trunk\Server\GameServer\Server\GameManagerEx.cpp
	.686P
	.XMM
	include listing.inc
	.model	flat

INCLUDELIB LIBCMT
INCLUDELIB OLDNAMES

PUBLIC	??_C@_07HHAEFFJO@CLS?9RGN?$AA@			; `string'
PUBLIC	?SUBPACK_NUM@CSubpackContainer@@2HB		; CSubpackContainer::SUBPACK_NUM
;	COMDAT ?SUBPACK_NUM@CSubpackContainer@@2HB
CONST	SEGMENT
?SUBPACK_NUM@CSubpackContainer@@2HB DD 05H		; CSubpackContainer::SUBPACK_NUM
CONST	ENDS
;	COMDAT ??_C@_07HHAEFFJO@CLS?9RGN?$AA@
CONST	SEGMENT
??_C@_07HHAEFFJO@CLS?9RGN?$AA@ DB 'CLS-RGN', 00H	; `string'
CONST	ENDS
_DATA	SEGMENT
__area	DD	00H
	DD	00H
	DD	0ffffffffH
	DD	0ffffffffH
	DD	00H
	DD	0ffffffffH
	DD	01H
	DD	0ffffffffH
	DD	0ffffffffH
	DD	00H
	DD	01H
	DD	00H
	DD	0ffffffffH
	DD	01H
	DD	00H
	DD	01H
	DD	01H
	DD	01H
_g_strRegionHead DD FLAT:??_C@_07HHAEFFJO@CLS?9RGN?$AA@
_DATA	ENDS
CONST	SEGMENT
_MIN_VAL DD	00H
	DD	00H
	DD	00H
	DD	00H
	DD	080000001H
	DD	0ffff8001H
	DD	00H
_MAX_VAL DD	0100H
	DD	010000H
	DD	07fffffffH
	DD	05f5e100H
	DD	07fffffffH
	DD	07fffH
	DD	01H
_PI	DD	040490fdbr			; 3.14159
CONST	ENDS
PUBLIC	?GetType@CBaseObject@@QBEJXZ			; CBaseObject::GetType
; Function compile flags: /Ogtpy
; File d:\project_p6\trunk\server\gameserver\app\baseobject.h
;	COMDAT ?GetType@CBaseObject@@QBEJXZ
_TEXT	SEGMENT
?GetType@CBaseObject@@QBEJXZ PROC			; CBaseObject::GetType, COMDAT
; _this$ = ecx

; 66   : 	long GetType() const								{ return m_lType;					};

  00000	8b 41 04	 mov	 eax, DWORD PTR [ecx+4]
  00003	c3		 ret	 0
?GetType@CBaseObject@@QBEJXZ ENDP			; CBaseObject::GetType
_TEXT	ENDS
PUBLIC	?SetType@CBaseObject@@QAEXJ@Z			; CBaseObject::SetType
; Function compile flags: /Ogtpy
;	COMDAT ?SetType@CBaseObject@@QAEXJ@Z
_TEXT	SEGMENT
_l$ = 8							; size = 4
?SetType@CBaseObject@@QAEXJ@Z PROC			; CBaseObject::SetType, COMDAT
; _this$ = ecx

; 67   : 	void SetType(long l)								{ if(0 == m_lType) m_lType = l;		};

  00000	83 79 04 00	 cmp	 DWORD PTR [ecx+4], 0
  00004	75 07		 jne	 SHORT $LN1@SetType
  00006	8b 44 24 04	 mov	 eax, DWORD PTR _l$[esp-4]
  0000a	89 41 04	 mov	 DWORD PTR [ecx+4], eax
$LN1@SetType:
  0000d	c2 04 00	 ret	 4
?SetType@CBaseObject@@QAEXJ@Z ENDP			; CBaseObject::SetType
_TEXT	ENDS
PUBLIC	?GetExID@CBaseObject@@QBEABVCGUID@@XZ		; CBaseObject::GetExID
; Function compile flags: /Ogtpy
;	COMDAT ?GetExID@CBaseObject@@QBEABVCGUID@@XZ
_TEXT	SEGMENT
?GetExID@CBaseObject@@QBEABVCGUID@@XZ PROC		; CBaseObject::GetExID, COMDAT
; _this$ = ecx

; 70   : 	const CGUID&	GetExID() const						{return m_guid;						};

  00000	8d 41 08	 lea	 eax, DWORD PTR [ecx+8]
  00003	c3		 ret	 0
?GetExID@CBaseObject@@QBEABVCGUID@@XZ ENDP		; CBaseObject::GetExID
_TEXT	ENDS
PUBLIC	?assign@?$char_traits@D@std@@SAXAADABD@Z	; std::char_traits<char>::assign
; Function compile flags: /Ogtpy
; File d:\program files\microsoft visual studio 8\vc\include\iosfwd
;	COMDAT ?assign@?$char_traits@D@std@@SAXAADABD@Z
_TEXT	SEGMENT
__Left$ = 8						; size = 4
__Right$ = 12						; size = 4
?assign@?$char_traits@D@std@@SAXAADABD@Z PROC		; std::char_traits<char>::assign, COMDAT

; 418  : 		_Left = _Right;

  00000	8b 44 24 08	 mov	 eax, DWORD PTR __Right$[esp-4]
  00004	8a 08		 mov	 cl, BYTE PTR [eax]
  00006	8b 54 24 04	 mov	 edx, DWORD PTR __Left$[esp-4]
  0000a	88 0a		 mov	 BYTE PTR [edx], cl

; 419  : 		}

  0000c	c3		 ret	 0
?assign@?$char_traits@D@std@@SAXAADABD@Z ENDP		; std::char_traits<char>::assign
_TEXT	ENDS
PUBLIC	?length@?$char_traits@D@std@@SAIPBD@Z		; std::char_traits<char>::length
; Function compile flags: /Ogtpy
;	COMDAT ?length@?$char_traits@D@std@@SAIPBD@Z
_TEXT	SEGMENT
__First$ = 8						; size = 4
?length@?$char_traits@D@std@@SAIPBD@Z PROC		; std::char_traits<char>::length, COMDAT

; 441  : //		_DEBUG_POINTER(_First);
; 442  : 		return (::strlen(_First));

  00000	8b 44 24 04	 mov	 eax, DWORD PTR __First$[esp-4]
  00004	8d 50 01	 lea	 edx, DWORD PTR [eax+1]
$LL3@length:
  00007	8a 08		 mov	 cl, BYTE PTR [eax]
  00009	83 c0 01	 add	 eax, 1
  0000c	84 c9		 test	 cl, cl
  0000e	75 f7		 jne	 SHORT $LL3@length
  00010	2b c2		 sub	 eax, edx

; 443  : 		}

  00012	c3		 ret	 0
?length@?$char_traits@D@std@@SAIPBD@Z ENDP		; std::char_traits<char>::length
_TEXT	ENDS
PUBLIC	?_Copy_s@?$char_traits@D@std@@SAPADPADIPBDI@Z	; std::char_traits<char>::_Copy_s
EXTRN	_memcpy_s:PROC
; Function compile flags: /Ogtpy
;	COMDAT ?_Copy_s@?$char_traits@D@std@@SAPADPADIPBDI@Z
_TEXT	SEGMENT
__First1$ = 8						; size = 4
__Size_in_bytes$ = 12					; size = 4
__First2$ = 16						; size = 4
__Count$ = 20						; size = 4
?_Copy_s@?$char_traits@D@std@@SAPADPADIPBDI@Z PROC	; std::char_traits<char>::_Copy_s, COMDAT

; 456  : //		_DEBUG_POINTER(_First1);
; 457  : //		_DEBUG_POINTER(_First2);
; 458  : 		_CRT_SECURE_MEMCPY(_First1, _Size_in_bytes, _First2, _Count);

  00000	8b 44 24 10	 mov	 eax, DWORD PTR __Count$[esp-4]
  00004	8b 4c 24 0c	 mov	 ecx, DWORD PTR __First2$[esp-4]
  00008	8b 54 24 08	 mov	 edx, DWORD PTR __Size_in_bytes$[esp-4]
  0000c	56		 push	 esi
  0000d	8b 74 24 08	 mov	 esi, DWORD PTR __First1$[esp]
  00011	50		 push	 eax
  00012	51		 push	 ecx
  00013	52		 push	 edx
  00014	56		 push	 esi
  00015	e8 00 00 00 00	 call	 _memcpy_s
  0001a	83 c4 10	 add	 esp, 16			; 00000010H

; 459  : 		return _First1;

  0001d	8b c6		 mov	 eax, esi
  0001f	5e		 pop	 esi

; 460  : 		}

  00020	c3		 ret	 0
?_Copy_s@?$char_traits@D@std@@SAPADPADIPBDI@Z ENDP	; std::char_traits<char>::_Copy_s
_TEXT	ENDS
PUBLIC	?_Move_s@?$char_traits@D@std@@SAPADPADIPBDI@Z	; std::char_traits<char>::_Move_s
EXTRN	_memmove_s:PROC
; Function compile flags: /Ogtpy
;	COMDAT ?_Move_s@?$char_traits@D@std@@SAPADPADIPBDI@Z
_TEXT	SEGMENT
__First1$ = 8						; size = 4
__Size_in_bytes$ = 12					; size = 4
__First2$ = 16						; size = 4
__Count$ = 20						; size = 4
?_Move_s@?$char_traits@D@std@@SAPADPADIPBDI@Z PROC	; std::char_traits<char>::_Move_s, COMDAT

; 480  : //		_DEBUG_POINTER(_First1);
; 481  : //		_DEBUG_POINTER(_First2);
; 482  : 		_CRT_SECURE_MEMMOVE(_First1, _Size_in_bytes, _First2, _Count);

  00000	8b 44 24 10	 mov	 eax, DWORD PTR __Count$[esp-4]
  00004	8b 4c 24 0c	 mov	 ecx, DWORD PTR __First2$[esp-4]
  00008	8b 54 24 08	 mov	 edx, DWORD PTR __Size_in_bytes$[esp-4]
  0000c	56		 push	 esi
  0000d	8b 74 24 08	 mov	 esi, DWORD PTR __First1$[esp]
  00011	50		 push	 eax
  00012	51		 push	 ecx
  00013	52		 push	 edx
  00014	56		 push	 esi
  00015	e8 00 00 00 00	 call	 _memmove_s
  0001a	83 c4 10	 add	 esp, 16			; 00000010H

; 483  : 		return _First1;

  0001d	8b c6		 mov	 eax, esi
  0001f	5e		 pop	 esi

; 484  : 		}

  00020	c3		 ret	 0
?_Move_s@?$char_traits@D@std@@SAPADPADIPBDI@Z ENDP	; std::char_traits<char>::_Move_s
_TEXT	ENDS
PUBLIC	??0_Iterator_base@std@@QAE@XZ			; std::_Iterator_base::_Iterator_base
; Function compile flags: /Ogtpy
; File d:\program files\microsoft visual studio 8\vc\include\xutility
;	COMDAT ??0_Iterator_base@std@@QAE@XZ
_TEXT	SEGMENT
??0_Iterator_base@std@@QAE@XZ PROC			; std::_Iterator_base::_Iterator_base, COMDAT
; _this$ = ecx

; 441  : 		{

  00000	8b c1		 mov	 eax, ecx
  00002	c7 00 00 00 00
	00		 mov	 DWORD PTR [eax], 0

; 442  : 		}

  00008	c3		 ret	 0
??0_Iterator_base@std@@QAE@XZ ENDP			; std::_Iterator_base::_Iterator_base
_TEXT	ENDS
PUBLIC	??_7bad_alloc@std@@6B@				; std::bad_alloc::`vftable'
PUBLIC	??0bad_alloc@std@@QAE@PBD@Z			; std::bad_alloc::bad_alloc
PUBLIC	??_R4bad_alloc@std@@6B@				; std::bad_alloc::`RTTI Complete Object Locator'
PUBLIC	??_R0?AVbad_alloc@std@@@8			; std::bad_alloc `RTTI Type Descriptor'
PUBLIC	??_R3bad_alloc@std@@8				; std::bad_alloc::`RTTI Class Hierarchy Descriptor'
PUBLIC	??_R2bad_alloc@std@@8				; std::bad_alloc::`RTTI Base Class Array'
PUBLIC	??_R1A@?0A@EA@bad_alloc@std@@8			; std::bad_alloc::`RTTI Base Class Descriptor at (0,-1,0,64)'
PUBLIC	??_R1A@?0A@EA@exception@std@@8			; std::exception::`RTTI Base Class Descriptor at (0,-1,0,64)'
PUBLIC	??_R0?AVexception@std@@@8			; std::exception `RTTI Type Descriptor'
PUBLIC	??_R3exception@std@@8				; std::exception::`RTTI Class Hierarchy Descriptor'
PUBLIC	??_R2exception@std@@8				; std::exception::`RTTI Base Class Array'
EXTRN	??0exception@std@@QAE@ABQBD@Z:PROC		; std::exception::exception
EXTRN	??_7type_info@@6B@:QWORD			; type_info::`vftable'
EXTRN	??_Ebad_alloc@std@@UAEPAXI@Z:PROC		; std::bad_alloc::`vector deleting destructor'
EXTRN	?what@exception@std@@UBEPBDXZ:PROC		; std::exception::what
;	COMDAT ??_R2exception@std@@8
; File d:\program files\microsoft visual studio 8\vc\include\exception
rdata$r	SEGMENT
??_R2exception@std@@8 DD FLAT:??_R1A@?0A@EA@exception@std@@8 ; std::exception::`RTTI Base Class Array'
rdata$r	ENDS
;	COMDAT ??_R3exception@std@@8
rdata$r	SEGMENT
??_R3exception@std@@8 DD 00H				; std::exception::`RTTI Class Hierarchy Descriptor'
	DD	00H
	DD	01H
	DD	FLAT:??_R2exception@std@@8
rdata$r	ENDS
;	COMDAT ??_R0?AVexception@std@@@8
_DATA	SEGMENT
??_R0?AVexception@std@@@8 DD FLAT:??_7type_info@@6B@	; std::exception `RTTI Type Descriptor'
	DD	00H
	DB	'.?AVexception@std@@', 00H
_DATA	ENDS
;	COMDAT ??_R1A@?0A@EA@exception@std@@8
rdata$r	SEGMENT
??_R1A@?0A@EA@exception@std@@8 DD FLAT:??_R0?AVexception@std@@@8 ; std::exception::`RTTI Base Class Descriptor at (0,-1,0,64)'
	DD	00H
	DD	00H
	DD	0ffffffffH
	DD	00H
	DD	040H
	DD	FLAT:??_R3exception@std@@8
rdata$r	ENDS
;	COMDAT ??_R1A@?0A@EA@bad_alloc@std@@8
rdata$r	SEGMENT
??_R1A@?0A@EA@bad_alloc@std@@8 DD FLAT:??_R0?AVbad_alloc@std@@@8 ; std::bad_alloc::`RTTI Base Class Descriptor at (0,-1,0,64)'
	DD	01H
	DD	00H
	DD	0ffffffffH
	DD	00H
	DD	040H
	DD	FLAT:??_R3bad_alloc@std@@8
rdata$r	ENDS
;	COMDAT ??_R2bad_alloc@std@@8
rdata$r	SEGMENT
??_R2bad_alloc@std@@8 DD FLAT:??_R1A@?0A@EA@bad_alloc@std@@8 ; std::bad_alloc::`RTTI Base Class Array'
	DD	FLAT:??_R1A@?0A@EA@exception@std@@8
rdata$r	ENDS
;	COMDAT ??_R3bad_alloc@std@@8
rdata$r	SEGMENT
??_R3bad_alloc@std@@8 DD 00H				; std::bad_alloc::`RTTI Class Hierarchy Descriptor'
	DD	00H
	DD	02H
	DD	FLAT:??_R2bad_alloc@std@@8
rdata$r	ENDS
;	COMDAT ??_R0?AVbad_alloc@std@@@8
_DATA	SEGMENT
??_R0?AVbad_alloc@std@@@8 DD FLAT:??_7type_info@@6B@	; std::bad_alloc `RTTI Type Descriptor'
	DD	00H
	DB	'.?AVbad_alloc@std@@', 00H
_DATA	ENDS
;	COMDAT ??_R4bad_alloc@std@@6B@
rdata$r	SEGMENT
??_R4bad_alloc@std@@6B@ DD 00H				; std::bad_alloc::`RTTI Complete Object Locator'
	DD	00H
	DD	00H
	DD	FLAT:??_R0?AVbad_alloc@std@@@8
	DD	FLAT:??_R3bad_alloc@std@@8
rdata$r	ENDS
;	COMDAT ??_7bad_alloc@std@@6B@
CONST	SEGMENT
??_7bad_alloc@std@@6B@ DD FLAT:??_R4bad_alloc@std@@6B@	; std::bad_alloc::`vftable'
	DD	FLAT:??_Ebad_alloc@std@@UAEPAXI@Z
	DD	FLAT:?what@exception@std@@UBEPBDXZ
; Function compile flags: /Ogtpy
CONST	ENDS
;	COMDAT ??0bad_alloc@std@@QAE@PBD@Z
_TEXT	SEGMENT
__Message$ = 8						; size = 4
??0bad_alloc@std@@QAE@PBD@Z PROC			; std::bad_alloc::bad_alloc, COMDAT
; _this$ = ecx

; 371  : 		{	// construct from message string

  00000	56		 push	 esi
  00001	8d 44 24 08	 lea	 eax, DWORD PTR __Message$[esp]
  00005	50		 push	 eax
  00006	8b f1		 mov	 esi, ecx
  00008	e8 00 00 00 00	 call	 ??0exception@std@@QAE@ABQBD@Z ; std::exception::exception
  0000d	c7 06 00 00 00
	00		 mov	 DWORD PTR [esi], OFFSET ??_7bad_alloc@std@@6B@

; 372  : 		}

  00013	8b c6		 mov	 eax, esi
  00015	5e		 pop	 esi
  00016	c2 04 00	 ret	 4
??0bad_alloc@std@@QAE@PBD@Z ENDP			; std::bad_alloc::bad_alloc
_TEXT	ENDS
PUBLIC	??1bad_alloc@std@@UAE@XZ			; std::bad_alloc::~bad_alloc
EXTRN	??1exception@std@@UAE@XZ:PROC			; std::exception::~exception
; Function compile flags: /Ogtpy
;	COMDAT ??1bad_alloc@std@@UAE@XZ
_TEXT	SEGMENT
??1bad_alloc@std@@UAE@XZ PROC				; std::bad_alloc::~bad_alloc, COMDAT
; _this$ = ecx

; 380  : 		{	// destroy the object

  00000	c7 01 00 00 00
	00		 mov	 DWORD PTR [ecx], OFFSET ??_7bad_alloc@std@@6B@

; 381  : 		}

  00006	e9 00 00 00 00	 jmp	 ??1exception@std@@UAE@XZ ; std::exception::~exception
??1bad_alloc@std@@UAE@XZ ENDP				; std::bad_alloc::~bad_alloc
_TEXT	ENDS
EXTRN	??3@YAXPAX@Z:PROC				; operator delete
; Function compile flags: /Ogtpy
;	COMDAT ??_Gbad_alloc@std@@UAEPAXI@Z
_TEXT	SEGMENT
___flags$ = 8						; size = 4
??_Gbad_alloc@std@@UAEPAXI@Z PROC			; std::bad_alloc::`scalar deleting destructor', COMDAT
; _this$ = ecx
  00000	56		 push	 esi
  00001	8b f1		 mov	 esi, ecx
  00003	c7 06 00 00 00
	00		 mov	 DWORD PTR [esi], OFFSET ??_7bad_alloc@std@@6B@
  00009	e8 00 00 00 00	 call	 ??1exception@std@@UAE@XZ ; std::exception::~exception
  0000e	f6 44 24 08 01	 test	 BYTE PTR ___flags$[esp], 1
  00013	74 09		 je	 SHORT $LN6@scalar
  00015	56		 push	 esi
  00016	e8 00 00 00 00	 call	 ??3@YAXPAX@Z		; operator delete
  0001b	83 c4 04	 add	 esp, 4
$LN6@scalar:
  0001e	8b c6		 mov	 eax, esi
  00020	5e		 pop	 esi
  00021	c2 04 00	 ret	 4
??_Gbad_alloc@std@@UAEPAXI@Z ENDP			; std::bad_alloc::`scalar deleting destructor'
_TEXT	ENDS
PUBLIC	??2@YAPAXIPAX@Z					; operator new
; Function compile flags: /Ogtpy
; File d:\program files\microsoft visual studio 8\vc\include\new
;	COMDAT ??2@YAPAXIPAX@Z
_TEXT	SEGMENT
___formal$ = 8						; size = 4
__Where$ = 12						; size = 4
??2@YAPAXIPAX@Z PROC					; operator new, COMDAT

; 60   : 	return (_Where);

  00000	8b 44 24 08	 mov	 eax, DWORD PTR __Where$[esp-4]

; 61   : 	}

  00004	c3		 ret	 0
??2@YAPAXIPAX@Z ENDP					; operator new
_TEXT	ENDS
PUBLIC	??3@YAXPAX0@Z					; operator delete
; Function compile flags: /Ogtpy
;	COMDAT ??3@YAXPAX0@Z
_TEXT	SEGMENT
___formal$ = 8						; size = 4
___formal$ = 12						; size = 4
??3@YAXPAX0@Z PROC					; operator delete, COMDAT

; 65   : 	}

  00000	c3		 ret	 0
??3@YAXPAX0@Z ENDP					; operator delete
_TEXT	ENDS
PUBLIC	??0id@locale@std@@QAE@I@Z			; std::locale::id::id
; Function compile flags: /Ogtpy
; File d:\program files\microsoft visual studio 8\vc\include\xlocale
;	COMDAT ??0id@locale@std@@QAE@I@Z
_TEXT	SEGMENT
__Val$ = 8						; size = 4
??0id@locale@std@@QAE@I@Z PROC				; std::locale::id::id, COMDAT
; _this$ = ecx

; 73   : 			{	// construct with specified stamp value

  00000	8b c1		 mov	 eax, ecx
  00002	8b 4c 24 04	 mov	 ecx, DWORD PTR __Val$[esp-4]
  00006	89 08		 mov	 DWORD PTR [eax], ecx

; 74   : 			}

  00008	c2 04 00	 ret	 4
??0id@locale@std@@QAE@I@Z ENDP				; std::locale::id::id
_TEXT	ENDS
PUBLIC	??1CGUID@@QAE@XZ				; CGUID::~CGUID
; Function compile flags: /Ogtpy
; File d:\project_p6\trunk\public\module\guid.h
;	COMDAT ??1CGUID@@QAE@XZ
_TEXT	SEGMENT
??1CGUID@@QAE@XZ PROC					; CGUID::~CGUID, COMDAT
; _this$ = ecx

; 45   : 	}

  00000	c3		 ret	 0
??1CGUID@@QAE@XZ ENDP					; CGUID::~CGUID
_TEXT	ENDS
PUBLIC	??4CGUID@@QAEAAV0@ABV0@@Z			; CGUID::operator=
; Function compile flags: /Ogtpy
;	COMDAT ??4CGUID@@QAEAAV0@ABV0@@Z
_TEXT	SEGMENT
_guid$ = 8						; size = 4
??4CGUID@@QAEAAV0@ABV0@@Z PROC				; CGUID::operator=, COMDAT
; _this$ = ecx

; 48   : 	{

  00000	8b c1		 mov	 eax, ecx

; 49   : 		if( &guid != this )

  00002	8b 4c 24 04	 mov	 ecx, DWORD PTR _guid$[esp-4]
  00006	3b c8		 cmp	 ecx, eax
  00008	74 12		 je	 SHORT $LN1@operator

; 50   : 			memcpy(this, &guid, sizeof(CGUID));

  0000a	f3 0f 7e 01	 movq	 xmm0, QWORD PTR [ecx]
  0000e	66 0f d6 00	 movq	 QWORD PTR [eax], xmm0
  00012	f3 0f 7e 41 08	 movq	 xmm0, QWORD PTR [ecx+8]
  00017	66 0f d6 40 08	 movq	 QWORD PTR [eax+8], xmm0
$LN1@operator:

; 51   : 		return *this;
; 52   : 	}

  0001c	c2 04 00	 ret	 4
??4CGUID@@QAEAAV0@ABV0@@Z ENDP				; CGUID::operator=
_TEXT	ENDS
PUBLIC	??MCGUID@@QBE_NABV0@@Z				; CGUID::operator<
; Function compile flags: /Ogtpy
;	COMDAT ??MCGUID@@QBE_NABV0@@Z
_TEXT	SEGMENT
_guid$ = 8						; size = 4
??MCGUID@@QBE_NABV0@@Z PROC				; CGUID::operator<, COMDAT
; _this$ = ecx

; 69   : 		if( ((ulong *)this)[0] < ((ulong *)&guid)[0] )

  00000	8b 44 24 04	 mov	 eax, DWORD PTR _guid$[esp-4]
  00004	8b 11		 mov	 edx, DWORD PTR [ecx]
  00006	56		 push	 esi
  00007	8b 30		 mov	 esi, DWORD PTR [eax]
  00009	3b d6		 cmp	 edx, esi
  0000b	73 06		 jae	 SHORT $LN13@operator@2
$LN16@operator@2:

; 70   : 			return true;

  0000d	b0 01		 mov	 al, 1
  0000f	5e		 pop	 esi

; 85   : 	}

  00010	c2 04 00	 ret	 4
$LN13@operator@2:

; 71   : 		else if( ((ulong *)this)[0] == ((ulong *)&guid)[0] )

  00013	75 20		 jne	 SHORT $LN1@operator@2

; 72   : 		{
; 73   : 			if(( (ulong *)this)[1] < ((ulong *)&guid)[1] )

  00015	8b 51 04	 mov	 edx, DWORD PTR [ecx+4]
  00018	8b 70 04	 mov	 esi, DWORD PTR [eax+4]
  0001b	3b d6		 cmp	 edx, esi

; 74   : 				return true;

  0001d	72 ee		 jb	 SHORT $LN16@operator@2

; 75   : 			else if( ((ulong *)this)[1] == ((ulong *)&guid)[1])

  0001f	75 14		 jne	 SHORT $LN1@operator@2

; 76   : 			{
; 77   : 				if( ((ulong *)this)[2] < ((ulong *)&guid)[2] )

  00021	8b 51 08	 mov	 edx, DWORD PTR [ecx+8]
  00024	8b 70 08	 mov	 esi, DWORD PTR [eax+8]
  00027	3b d6		 cmp	 edx, esi

; 78   : 					return true;

  00029	72 e2		 jb	 SHORT $LN16@operator@2

; 79   : 				else if( ((ulong *)this)[2] == ((ulong *)&guid)[2])

  0002b	75 08		 jne	 SHORT $LN1@operator@2

; 80   : 					if( ((ulong *)this)[3] < ((ulong *)&guid)[3] )

  0002d	8b 49 0c	 mov	 ecx, DWORD PTR [ecx+12]
  00030	3b 48 0c	 cmp	 ecx, DWORD PTR [eax+12]

; 81   : 						return true;

  00033	72 d8		 jb	 SHORT $LN16@operator@2
$LN1@operator@2:

; 82   : 			}
; 83   : 		}
; 84   : 		return false;

  00035	32 c0		 xor	 al, al
  00037	5e		 pop	 esi

; 85   : 	}

  00038	c2 04 00	 ret	 4
??MCGUID@@QBE_NABV0@@Z ENDP				; CGUID::operator<
_TEXT	ENDS
PUBLIC	??Rguid_compare@@QBE_NABVCGUID@@0@Z		; guid_compare::operator()
; Function compile flags: /Ogtpy
;	COMDAT ??Rguid_compare@@QBE_NABVCGUID@@0@Z
_TEXT	SEGMENT
_Key1$ = 8						; size = 4
_Key2$ = 12						; size = 4
??Rguid_compare@@QBE_NABVCGUID@@0@Z PROC		; guid_compare::operator(), COMDAT
; _this$ = ecx

; 115  : 		if(Key1 < Key2)

  00000	8b 44 24 04	 mov	 eax, DWORD PTR _Key1$[esp-4]
  00004	8b 4c 24 08	 mov	 ecx, DWORD PTR _Key2$[esp-4]
  00008	8b 10		 mov	 edx, DWORD PTR [eax]
  0000a	56		 push	 esi
  0000b	8b 31		 mov	 esi, DWORD PTR [ecx]
  0000d	3b d6		 cmp	 edx, esi
  0000f	72 22		 jb	 SHORT $LN16@operator@3
  00011	75 26		 jne	 SHORT $LN1@operator@3
  00013	8b 50 04	 mov	 edx, DWORD PTR [eax+4]
  00016	8b 71 04	 mov	 esi, DWORD PTR [ecx+4]
  00019	3b d6		 cmp	 edx, esi
  0001b	72 16		 jb	 SHORT $LN16@operator@3
  0001d	75 1a		 jne	 SHORT $LN1@operator@3
  0001f	8b 50 08	 mov	 edx, DWORD PTR [eax+8]
  00022	8b 71 08	 mov	 esi, DWORD PTR [ecx+8]
  00025	3b d6		 cmp	 edx, esi
  00027	72 0a		 jb	 SHORT $LN16@operator@3
  00029	75 0e		 jne	 SHORT $LN1@operator@3
  0002b	8b 40 0c	 mov	 eax, DWORD PTR [eax+12]
  0002e	3b 41 0c	 cmp	 eax, DWORD PTR [ecx+12]
  00031	73 06		 jae	 SHORT $LN1@operator@3
$LN16@operator@3:

; 116  : 			return true;

  00033	b0 01		 mov	 al, 1
  00035	5e		 pop	 esi

; 118  : 	}

  00036	c2 08 00	 ret	 8
$LN1@operator@3:

; 117  : 		return false;

  00039	32 c0		 xor	 al, al
  0003b	5e		 pop	 esi

; 118  : 	}

  0003c	c2 08 00	 ret	 8
??Rguid_compare@@QBE_NABVCGUID@@0@Z ENDP		; guid_compare::operator()
_TEXT	ENDS
PUBLIC	??Rhash_guid_compare@@QBEIABVCGUID@@@Z		; hash_guid_compare::operator()
; Function compile flags: /Ogtpy
;	COMDAT ??Rhash_guid_compare@@QBEIABVCGUID@@@Z
_TEXT	SEGMENT
_Key$ = 8						; size = 4
??Rhash_guid_compare@@QBEIABVCGUID@@@Z PROC		; hash_guid_compare::operator(), COMDAT
; _this$ = ecx

; 130  : 		return ((ulong *) &Key)[0] + ((ulong *) &Key)[1] +
; 131  : 			((ulong *) &Key)[2] + ((ulong *) &Key)[3];

  00000	8b 4c 24 04	 mov	 ecx, DWORD PTR _Key$[esp-4]
  00004	8b 41 0c	 mov	 eax, DWORD PTR [ecx+12]
  00007	03 41 08	 add	 eax, DWORD PTR [ecx+8]
  0000a	03 41 04	 add	 eax, DWORD PTR [ecx+4]
  0000d	03 01		 add	 eax, DWORD PTR [ecx]

; 132  : 	}

  0000f	c2 04 00	 ret	 4
??Rhash_guid_compare@@QBEIABVCGUID@@@Z ENDP		; hash_guid_compare::operator()
_TEXT	ENDS
PUBLIC	??Rhash_guid_compare@@QBE_NABVCGUID@@0@Z	; hash_guid_compare::operator()
; Function compile flags: /Ogtpy
;	COMDAT ??Rhash_guid_compare@@QBE_NABVCGUID@@0@Z
_TEXT	SEGMENT
__Key1$ = 8						; size = 4
__Key2$ = 12						; size = 4
??Rhash_guid_compare@@QBE_NABVCGUID@@0@Z PROC		; hash_guid_compare::operator(), COMDAT
; _this$ = ecx

; 136  : 		return comp(_Key1,_Key2);

  00000	8b 44 24 04	 mov	 eax, DWORD PTR __Key1$[esp-4]
  00004	8b 4c 24 08	 mov	 ecx, DWORD PTR __Key2$[esp-4]
  00008	8b 10		 mov	 edx, DWORD PTR [eax]
  0000a	56		 push	 esi
  0000b	8b 31		 mov	 esi, DWORD PTR [ecx]
  0000d	3b d6		 cmp	 edx, esi
  0000f	72 22		 jb	 SHORT $LN18@operator@4
  00011	75 26		 jne	 SHORT $LN3@operator@4
  00013	8b 50 04	 mov	 edx, DWORD PTR [eax+4]
  00016	8b 71 04	 mov	 esi, DWORD PTR [ecx+4]
  00019	3b d6		 cmp	 edx, esi
  0001b	72 16		 jb	 SHORT $LN18@operator@4
  0001d	75 1a		 jne	 SHORT $LN3@operator@4
  0001f	8b 50 08	 mov	 edx, DWORD PTR [eax+8]
  00022	8b 71 08	 mov	 esi, DWORD PTR [ecx+8]
  00025	3b d6		 cmp	 edx, esi
  00027	72 0a		 jb	 SHORT $LN18@operator@4
  00029	75 0e		 jne	 SHORT $LN3@operator@4
  0002b	8b 40 0c	 mov	 eax, DWORD PTR [eax+12]
  0002e	3b 41 0c	 cmp	 eax, DWORD PTR [ecx+12]
  00031	73 06		 jae	 SHORT $LN3@operator@4
$LN18@operator@4:
  00033	b0 01		 mov	 al, 1
  00035	5e		 pop	 esi

; 137  : 	}

  00036	c2 08 00	 ret	 8

; 136  : 		return comp(_Key1,_Key2);

$LN3@operator@4:
  00039	32 c0		 xor	 al, al
  0003b	5e		 pop	 esi

; 137  : 	}

  0003c	c2 08 00	 ret	 8
??Rhash_guid_compare@@QBE_NABVCGUID@@0@Z ENDP		; hash_guid_compare::operator()
_TEXT	ENDS
PUBLIC	??0LockOfWinWhileSleep@XM_Tools@@QAE@XZ		; XM_Tools::LockOfWinWhileSleep::LockOfWinWhileSleep
; Function compile flags: /Ogtpy
; File d:\project_p6\trunk\public\memmanage\lock.h
;	COMDAT ??0LockOfWinWhileSleep@XM_Tools@@QAE@XZ
_TEXT	SEGMENT
??0LockOfWinWhileSleep@XM_Tools@@QAE@XZ PROC		; XM_Tools::LockOfWinWhileSleep::LockOfWinWhileSleep, COMDAT
; _this$ = ecx

; 73   : 		LockOfWinWhileSleep(void):m_lLockFlag(0), m_lWaitCount(0){}

  00000	8b c1		 mov	 eax, ecx
  00002	33 c9		 xor	 ecx, ecx
  00004	89 48 20	 mov	 DWORD PTR [eax+32], ecx
  00007	89 48 24	 mov	 DWORD PTR [eax+36], ecx
  0000a	c3		 ret	 0
??0LockOfWinWhileSleep@XM_Tools@@QAE@XZ ENDP		; XM_Tools::LockOfWinWhileSleep::LockOfWinWhileSleep
_TEXT	ENDS
PUBLIC	??1LockOfWinWhileSleep@XM_Tools@@QAE@XZ		; XM_Tools::LockOfWinWhileSleep::~LockOfWinWhileSleep
; Function compile flags: /Ogtpy
;	COMDAT ??1LockOfWinWhileSleep@XM_Tools@@QAE@XZ
_TEXT	SEGMENT
??1LockOfWinWhileSleep@XM_Tools@@QAE@XZ PROC		; XM_Tools::LockOfWinWhileSleep::~LockOfWinWhileSleep, COMDAT
; _this$ = ecx

; 74   : 		~LockOfWinWhileSleep(void)	{}

  00000	c3		 ret	 0
??1LockOfWinWhileSleep@XM_Tools@@QAE@XZ ENDP		; XM_Tools::LockOfWinWhileSleep::~LockOfWinWhileSleep
_TEXT	ENDS
PUBLIC	?Lock@LockOfWinWhileSleep@XM_Tools@@QAEXXZ	; XM_Tools::LockOfWinWhileSleep::Lock
EXTRN	__imp__InterlockedDecrement@4:PROC
EXTRN	__imp__InterlockedIncrement@4:PROC
EXTRN	__imp__Sleep@4:PROC
EXTRN	__imp__InterlockedCompareExchange@12:PROC
; Function compile flags: /Ogtpy
;	COMDAT ?Lock@LockOfWinWhileSleep@XM_Tools@@QAEXXZ
_TEXT	SEGMENT
?Lock@LockOfWinWhileSleep@XM_Tools@@QAEXXZ PROC		; XM_Tools::LockOfWinWhileSleep::Lock, COMDAT
; _this$ = ecx

; 78   : 		{

  00000	53		 push	 ebx
  00001	55		 push	 ebp

; 79   : 			bool bIncrement = false;
; 80   : 			while(1 == InterlockedCompareExchange(&m_lLockFlag, 1, 0))

  00002	8b 2d 00 00 00
	00		 mov	 ebp, DWORD PTR __imp__InterlockedCompareExchange@12
  00008	56		 push	 esi
  00009	57		 push	 edi
  0000a	6a 00		 push	 0
  0000c	8b f9		 mov	 edi, ecx
  0000e	6a 01		 push	 1
  00010	8d 77 20	 lea	 esi, DWORD PTR [edi+32]
  00013	56		 push	 esi
  00014	32 db		 xor	 bl, bl
  00016	ff d5		 call	 ebp
  00018	83 f8 01	 cmp	 eax, 1
  0001b	75 3f		 jne	 SHORT $LN1@Lock
  0001d	8d 49 00	 npad	 3
$LL7@Lock:

; 81   : 			{
; 82   : 				if(bIncrement || 2 > m_lWaitCount)

  00020	84 db		 test	 bl, bl
  00022	75 1c		 jne	 SHORT $LN3@Lock
  00024	83 7f 24 02	 cmp	 DWORD PTR [edi+36], 2
  00028	8d 47 24	 lea	 eax, DWORD PTR [edi+36]
  0002b	7c 0a		 jl	 SHORT $LN11@Lock

; 90   : 				}
; 91   : 				else
; 92   : 					Sleep(1);

  0002d	6a 01		 push	 1
  0002f	ff 15 00 00 00
	00		 call	 DWORD PTR __imp__Sleep@4
  00035	eb 0b		 jmp	 SHORT $LN2@Lock
$LN11@Lock:

; 83   : 				{
; 84   : 					if(!bIncrement)
; 85   : 					{
; 86   : 						InterlockedIncrement(&m_lWaitCount);

  00037	50		 push	 eax
  00038	ff 15 00 00 00
	00		 call	 DWORD PTR __imp__InterlockedIncrement@4

; 87   : 						bIncrement = true;

  0003e	b3 01		 mov	 bl, 1
$LN3@Lock:

; 88   : 					}
; 89   : 					__asm rep nop

  00040	f3 90		 rep	  npad	 1
$LN2@Lock:

; 79   : 			bool bIncrement = false;
; 80   : 			while(1 == InterlockedCompareExchange(&m_lLockFlag, 1, 0))

  00042	6a 00		 push	 0
  00044	6a 01		 push	 1
  00046	56		 push	 esi
  00047	ff d5		 call	 ebp
  00049	83 f8 01	 cmp	 eax, 1
  0004c	74 d2		 je	 SHORT $LL7@Lock

; 93   : 			}
; 94   : 
; 95   : 			if(bIncrement)

  0004e	84 db		 test	 bl, bl
  00050	74 0a		 je	 SHORT $LN1@Lock

; 96   : 				InterlockedDecrement(&m_lWaitCount);

  00052	83 c7 24	 add	 edi, 36			; 00000024H
  00055	57		 push	 edi
  00056	ff 15 00 00 00
	00		 call	 DWORD PTR __imp__InterlockedDecrement@4
$LN1@Lock:
  0005c	5f		 pop	 edi
  0005d	5e		 pop	 esi
  0005e	5d		 pop	 ebp
  0005f	5b		 pop	 ebx

; 97   : 		}

  00060	c3		 ret	 0
?Lock@LockOfWinWhileSleep@XM_Tools@@QAEXXZ ENDP		; XM_Tools::LockOfWinWhileSleep::Lock
_TEXT	ENDS
PUBLIC	?UnLock@LockOfWinWhileSleep@XM_Tools@@QAEXXZ	; XM_Tools::LockOfWinWhileSleep::UnLock
; Function compile flags: /Ogtpy
;	COMDAT ?UnLock@LockOfWinWhileSleep@XM_Tools@@QAEXXZ
_TEXT	SEGMENT
?UnLock@LockOfWinWhileSleep@XM_Tools@@QAEXXZ PROC	; XM_Tools::LockOfWinWhileSleep::UnLock, COMDAT
; _this$ = ecx

; 101  : 			if(0 == InterlockedCompareExchange(&m_lLockFlag, 0, 1))

  00000	6a 01		 push	 1
  00002	6a 00		 push	 0
  00004	83 c1 20	 add	 ecx, 32			; 00000020H
  00007	51		 push	 ecx
  00008	ff 15 00 00 00
	00		 call	 DWORD PTR __imp__InterlockedCompareExchange@12

; 102  : 			{
; 103  : 				assert(false);
; 104  : 			}
; 105  : 		}

  0000e	c3		 ret	 0
?UnLock@LockOfWinWhileSleep@XM_Tools@@QAEXXZ ENDP	; XM_Tools::LockOfWinWhileSleep::UnLock
_TEXT	ENDS
PUBLIC	?SNAP_TO_GRID@XM_Tools@@YAKKK@Z			; XM_Tools::SNAP_TO_GRID
; Function compile flags: /Ogtpy
; File d:\project_p6\trunk\public\memmanage\include\mmdef.h
;	COMDAT ?SNAP_TO_GRID@XM_Tools@@YAKKK@Z
_TEXT	SEGMENT
_uSrcNum$ = 8						; size = 4
_uGrid$ = 12						; size = 4
?SNAP_TO_GRID@XM_Tools@@YAKKK@Z PROC			; XM_Tools::SNAP_TO_GRID, COMDAT

; 108  : 		return (uSrcNum / uGrid + ((uSrcNum % uGrid) ? 1 : 0)) * uGrid;

  00000	8b 4c 24 08	 mov	 ecx, DWORD PTR _uGrid$[esp-4]
  00004	8b 44 24 04	 mov	 eax, DWORD PTR _uSrcNum$[esp-4]
  00008	33 d2		 xor	 edx, edx
  0000a	f7 f1		 div	 ecx
  0000c	56		 push	 esi
  0000d	8b f0		 mov	 esi, eax
  0000f	33 c0		 xor	 eax, eax
  00011	85 d2		 test	 edx, edx
  00013	0f 95 c0	 setne	 al
  00016	03 c6		 add	 eax, esi
  00018	0f af c1	 imul	 eax, ecx
  0001b	5e		 pop	 esi

; 109  : 	}

  0001c	c3		 ret	 0
?SNAP_TO_GRID@XM_Tools@@YAKKK@Z ENDP			; XM_Tools::SNAP_TO_GRID
_TEXT	ENDS
PUBLIC	?GetNext@?$CListNode@X@XM_Tools@@QAEPAV12@XZ	; XM_Tools::CListNode<void>::GetNext
; Function compile flags: /Ogtpy
; File d:\project_p6\trunk\public\memmanage\include\memlist.h
;	COMDAT ?GetNext@?$CListNode@X@XM_Tools@@QAEPAV12@XZ
_TEXT	SEGMENT
?GetNext@?$CListNode@X@XM_Tools@@QAEPAV12@XZ PROC	; XM_Tools::CListNode<void>::GetNext, COMDAT
; _this$ = ecx

; 62   : 		inline CListNode*		GetNext(void)					{return m_pNext;}

  00000	8b 01		 mov	 eax, DWORD PTR [ecx]
  00002	c3		 ret	 0
?GetNext@?$CListNode@X@XM_Tools@@QAEPAV12@XZ ENDP	; XM_Tools::CListNode<void>::GetNext
_TEXT	ENDS
PUBLIC	?SetNext@?$CListNode@X@XM_Tools@@QAEXPAV12@@Z	; XM_Tools::CListNode<void>::SetNext
; Function compile flags: /Ogtpy
;	COMDAT ?SetNext@?$CListNode@X@XM_Tools@@QAEXPAV12@@Z
_TEXT	SEGMENT
_pNext$ = 8						; size = 4
?SetNext@?$CListNode@X@XM_Tools@@QAEXPAV12@@Z PROC	; XM_Tools::CListNode<void>::SetNext, COMDAT
; _this$ = ecx

; 63   : 		inline void				SetNext(CListNode<void> *pNext)	{m_pNext = pNext;}

  00000	8b 44 24 04	 mov	 eax, DWORD PTR _pNext$[esp-4]
  00004	89 01		 mov	 DWORD PTR [ecx], eax
  00006	c2 04 00	 ret	 4
?SetNext@?$CListNode@X@XM_Tools@@QAEXPAV12@@Z ENDP	; XM_Tools::CListNode<void>::SetNext
_TEXT	ENDS
PUBLIC	?size@?$basic_string@DU?$char_traits@D@std@@V?$allocator@D@2@@std@@QBEIXZ ; std::basic_string<char,std::char_traits<char>,std::allocator<char> >::size
; Function compile flags: /Ogtpy
; File d:\program files\microsoft visual studio 8\vc\include\xstring
;	COMDAT ?size@?$basic_string@DU?$char_traits@D@std@@V?$allocator@D@2@@std@@QBEIXZ
_TEXT	SEGMENT
?size@?$basic_string@DU?$char_traits@D@std@@V?$allocator@D@2@@std@@QBEIXZ PROC ; std::basic_string<char,std::char_traits<char>,std::allocator<char> >::size, COMDAT
; _this$ = ecx

; 1637 : 		return (_Mysize);

  00000	8b 41 14	 mov	 eax, DWORD PTR [ecx+20]

; 1638 : 		}

  00003	c3		 ret	 0
?size@?$basic_string@DU?$char_traits@D@std@@V?$allocator@D@2@@std@@QBEIXZ ENDP ; std::basic_string<char,std::char_traits<char>,std::allocator<char> >::size
_TEXT	ENDS
PUBLIC	?_Myptr@?$basic_string@DU?$char_traits@D@std@@V?$allocator@D@2@@std@@IBEPBDXZ ; std::basic_string<char,std::char_traits<char>,std::allocator<char> >::_Myptr
; Function compile flags: /Ogtpy
;	COMDAT ?_Myptr@?$basic_string@DU?$char_traits@D@std@@V?$allocator@D@2@@std@@IBEPBDXZ
_TEXT	SEGMENT
?_Myptr@?$basic_string@DU?$char_traits@D@std@@V?$allocator@D@2@@std@@IBEPBDXZ PROC ; std::basic_string<char,std::char_traits<char>,std::allocator<char> >::_Myptr, COMDAT
; _this$ = ecx

; 2093 : 		return (_BUF_SIZE <= _Myres ? _Bx._Ptr : _Bx._Buf);

  00000	83 79 18 10	 cmp	 DWORD PTR [ecx+24], 16	; 00000010H
  00004	72 04		 jb	 SHORT $LN3@Myptr
  00006	8b 41 04	 mov	 eax, DWORD PTR [ecx+4]

; 2094 : 		}

  00009	c3		 ret	 0
$LN3@Myptr:

; 2093 : 		return (_BUF_SIZE <= _Myres ? _Bx._Ptr : _Bx._Buf);

  0000a	8d 41 04	 lea	 eax, DWORD PTR [ecx+4]

; 2094 : 		}

  0000d	c3		 ret	 0
?_Myptr@?$basic_string@DU?$char_traits@D@std@@V?$allocator@D@2@@std@@IBEPBDXZ ENDP ; std::basic_string<char,std::char_traits<char>,std::allocator<char> >::_Myptr
_TEXT	ENDS
PUBLIC	??0?$allocator@D@std@@QAE@XZ			; std::allocator<char>::allocator<char>
; Function compile flags: /Ogtpy
; File d:\program files\microsoft visual studio 8\vc\include\xmemory
;	COMDAT ??0?$allocator@D@std@@QAE@XZ
_TEXT	SEGMENT
??0?$allocator@D@std@@QAE@XZ PROC			; std::allocator<char>::allocator<char>, COMDAT
; _this$ = ecx

; 120  : 	allocator() _THROW0()

  00000	8b c1		 mov	 eax, ecx

; 121  : 		{	// construct default allocator (do nothing)
; 122  : 		}

  00002	c3		 ret	 0
??0?$allocator@D@std@@QAE@XZ ENDP			; std::allocator<char>::allocator<char>
_TEXT	ENDS
PUBLIC	?deallocate@?$allocator@D@std@@QAEXPADI@Z	; std::allocator<char>::deallocate
; Function compile flags: /Ogtpy
;	COMDAT ?deallocate@?$allocator@D@std@@QAEXPADI@Z
_TEXT	SEGMENT
__Ptr$ = 8						; size = 4
___formal$ = 12						; size = 4
?deallocate@?$allocator@D@std@@QAEXPADI@Z PROC		; std::allocator<char>::deallocate, COMDAT
; _this$ = ecx

; 141  : 		::operator delete(_Ptr);

  00000	8b 44 24 04	 mov	 eax, DWORD PTR __Ptr$[esp-4]
  00004	50		 push	 eax
  00005	e8 00 00 00 00	 call	 ??3@YAXPAX@Z		; operator delete
  0000a	59		 pop	 ecx

; 142  : 		}

  0000b	c2 08 00	 ret	 8
?deallocate@?$allocator@D@std@@QAEXPADI@Z ENDP		; std::allocator<char>::deallocate
_TEXT	ENDS
PUBLIC	??1?$pair@$$CBVCGUID@@PAVCBaseObject@@@std@@QAE@XZ ; std::pair<CGUID const ,CBaseObject *>::~pair<CGUID const ,CBaseObject *>
; Function compile flags: /Ogtpy
;	COMDAT ??1?$pair@$$CBVCGUID@@PAVCBaseObject@@@std@@QAE@XZ
_TEXT	SEGMENT
??1?$pair@$$CBVCGUID@@PAVCBaseObject@@@std@@QAE@XZ PROC	; std::pair<CGUID const ,CBaseObject *>::~pair<CGUID const ,CBaseObject *>, COMDAT
; _this$ = ecx
  00000	c3		 ret	 0
??1?$pair@$$CBVCGUID@@PAVCBaseObject@@@std@@QAE@XZ ENDP	; std::pair<CGUID const ,CBaseObject *>::~pair<CGUID const ,CBaseObject *>
_TEXT	ENDS
PUBLIC	?_Myptr@?$basic_string@DU?$char_traits@D@std@@V?$allocator@D@2@@std@@IAEPADXZ ; std::basic_string<char,std::char_traits<char>,std::allocator<char> >::_Myptr
; Function compile flags: /Ogtpy
; File d:\program files\microsoft visual studio 8\vc\include\xstring
;	COMDAT ?_Myptr@?$basic_string@DU?$char_traits@D@std@@V?$allocator@D@2@@std@@IAEPADXZ
_TEXT	SEGMENT
?_Myptr@?$basic_string@DU?$char_traits@D@std@@V?$allocator@D@2@@std@@IAEPADXZ PROC ; std::basic_string<char,std::char_traits<char>,std::allocator<char> >::_Myptr, COMDAT
; _this$ = ecx

; 2088 : 		return (_BUF_SIZE <= _Myres ? _Bx._Ptr : _Bx._Buf);

  00000	83 79 18 10	 cmp	 DWORD PTR [ecx+24], 16	; 00000010H
  00004	72 04		 jb	 SHORT $LN3@Myptr@2
  00006	8b 41 04	 mov	 eax, DWORD PTR [ecx+4]

; 2089 : 		}

  00009	c3		 ret	 0
$LN3@Myptr@2:

; 2088 : 		return (_BUF_SIZE <= _Myres ? _Bx._Ptr : _Bx._Buf);

  0000a	8d 41 04	 lea	 eax, DWORD PTR [ecx+4]

; 2089 : 		}

  0000d	c3		 ret	 0
?_Myptr@?$basic_string@DU?$char_traits@D@std@@V?$allocator@D@2@@std@@IAEPADXZ ENDP ; std::basic_string<char,std::char_traits<char>,std::allocator<char> >::_Myptr
_TEXT	ENDS
PUBLIC	??0?$allocator@D@std@@QAE@ABV01@@Z		; std::allocator<char>::allocator<char>
; Function compile flags: /Ogtpy
; File d:\program files\microsoft visual studio 8\vc\include\xmemory
;	COMDAT ??0?$allocator@D@std@@QAE@ABV01@@Z
_TEXT	SEGMENT
___formal$ = 8						; size = 4
??0?$allocator@D@std@@QAE@ABV01@@Z PROC			; std::allocator<char>::allocator<char>, COMDAT
; _this$ = ecx

; 124  : 	allocator(const allocator<_Ty>&) _THROW0()

  00000	8b c1		 mov	 eax, ecx

; 125  : 		{	// construct by copying (do nothing)
; 126  : 		}

  00002	c2 04 00	 ret	 4
??0?$allocator@D@std@@QAE@ABV01@@Z ENDP			; std::allocator<char>::allocator<char>
_TEXT	ENDS
PUBLIC	?max_size@?$allocator@D@std@@QBEIXZ		; std::allocator<char>::max_size
; Function compile flags: /Ogtpy
;	COMDAT ?max_size@?$allocator@D@std@@QBEIXZ
_TEXT	SEGMENT
?max_size@?$allocator@D@std@@QBEIXZ PROC		; std::allocator<char>::max_size, COMDAT
; _this$ = ecx

; 166  : 		_SIZT _Count = (_SIZT)(-1) / sizeof (_Ty);
; 167  : 		return (0 < _Count ? _Count : 1);

  00000	83 c8 ff	 or	 eax, -1

; 168  : 		}

  00003	c3		 ret	 0
?max_size@?$allocator@D@std@@QBEIXZ ENDP		; std::allocator<char>::max_size
_TEXT	ENDS
PUBLIC	??8?$_Const_iterator@$00@?$list@U?$pair@$$CBVCGUID@@PAVCBaseObject@@@std@@V?$allocator@U?$pair@$$CBVCGUID@@PAVCBaseObject@@@std@@@2@@std@@QBE_NABV012@@Z ; std::list<std::pair<CGUID const ,CBaseObject *>,std::allocator<std::pair<CGUID const ,CBaseObject *> > >::_Const_iterator<1>::operator==
EXTRN	__invalid_parameter_noinfo:PROC
; Function compile flags: /Ogtpy
; File d:\program files\microsoft visual studio 8\vc\include\list
;	COMDAT ??8?$_Const_iterator@$00@?$list@U?$pair@$$CBVCGUID@@PAVCBaseObject@@@std@@V?$allocator@U?$pair@$$CBVCGUID@@PAVCBaseObject@@@std@@@2@@std@@QBE_NABV012@@Z
_TEXT	SEGMENT
__Right$ = 8						; size = 4
??8?$_Const_iterator@$00@?$list@U?$pair@$$CBVCGUID@@PAVCBaseObject@@@std@@V?$allocator@U?$pair@$$CBVCGUID@@PAVCBaseObject@@@std@@@2@@std@@QBE_NABV012@@Z PROC ; std::list<std::pair<CGUID const ,CBaseObject *>,std::allocator<std::pair<CGUID const ,CBaseObject *> > >::_Const_iterator<1>::operator==, COMDAT
; _this$ = ecx

; 282  : 			{	// test for iterator equality

  00000	56		 push	 esi
  00001	8b f1		 mov	 esi, ecx

; 283  : 
; 284  :  #if _HAS_ITERATOR_DEBUGGING
; 285  : 			_Compat(_Right);
; 286  :  #else
; 287  : 			_SCL_SECURE_TRAITS_VALIDATE(this->_Mycont != NULL && this->_Mycont == _Right._Mycont);

  00003	8b 06		 mov	 eax, DWORD PTR [esi]
  00005	85 c0		 test	 eax, eax
  00007	57		 push	 edi
  00008	8b 7c 24 0c	 mov	 edi, DWORD PTR __Right$[esp+4]
  0000c	74 04		 je	 SHORT $LN1@operator@5
  0000e	3b 07		 cmp	 eax, DWORD PTR [edi]
  00010	74 05		 je	 SHORT $LN2@operator@5
$LN1@operator@5:
  00012	e8 00 00 00 00	 call	 __invalid_parameter_noinfo
$LN2@operator@5:

; 288  :  #endif /* _HAS_ITERATOR_DEBUGGING */
; 289  : 
; 290  : 			return (_Ptr == _Right._Ptr);

  00017	8b 46 04	 mov	 eax, DWORD PTR [esi+4]
  0001a	33 c9		 xor	 ecx, ecx
  0001c	3b 47 04	 cmp	 eax, DWORD PTR [edi+4]
  0001f	5f		 pop	 edi
  00020	0f 94 c1	 sete	 cl
  00023	8a c1		 mov	 al, cl
  00025	5e		 pop	 esi

; 291  : 			}

  00026	c2 04 00	 ret	 4
??8?$_Const_iterator@$00@?$list@U?$pair@$$CBVCGUID@@PAVCBaseObject@@@std@@V?$allocator@U?$pair@$$CBVCGUID@@PAVCBaseObject@@@std@@@2@@std@@QBE_NABV012@@Z ENDP ; std::list<std::pair<CGUID const ,CBaseObject *>,std::allocator<std::pair<CGUID const ,CBaseObject *> > >::_Const_iterator<1>::operator==
_TEXT	ENDS
PUBLIC	??0?$pair@$$CBVCGUID@@PAVCBaseObject@@@std@@QAE@ABVCGUID@@ABQAVCBaseObject@@@Z ; std::pair<CGUID const ,CBaseObject *>::pair<CGUID const ,CBaseObject *>
; Function compile flags: /Ogtpy
; File d:\program files\microsoft visual studio 8\vc\include\utility
;	COMDAT ??0?$pair@$$CBVCGUID@@PAVCBaseObject@@@std@@QAE@ABVCGUID@@ABQAVCBaseObject@@@Z
_TEXT	SEGMENT
__Val1$ = 8						; size = 4
__Val2$ = 12						; size = 4
??0?$pair@$$CBVCGUID@@PAVCBaseObject@@@std@@QAE@ABVCGUID@@ABQAVCBaseObject@@@Z PROC ; std::pair<CGUID const ,CBaseObject *>::pair<CGUID const ,CBaseObject *>, COMDAT
; _this$ = ecx

; 37   : 		{	// construct from specified values

  00000	8b c1		 mov	 eax, ecx
  00002	8b 4c 24 04	 mov	 ecx, DWORD PTR __Val1$[esp-4]
  00006	f3 0f 7e 01	 movq	 xmm0, QWORD PTR [ecx]
  0000a	66 0f d6 00	 movq	 QWORD PTR [eax], xmm0
  0000e	f3 0f 7e 41 08	 movq	 xmm0, QWORD PTR [ecx+8]
  00013	8b 4c 24 08	 mov	 ecx, DWORD PTR __Val2$[esp-4]
  00017	66 0f d6 40 08	 movq	 QWORD PTR [eax+8], xmm0
  0001c	8b 11		 mov	 edx, DWORD PTR [ecx]
  0001e	89 50 10	 mov	 DWORD PTR [eax+16], edx

; 38   : 		}

  00021	c2 08 00	 ret	 8
??0?$pair@$$CBVCGUID@@PAVCBaseObject@@@std@@QAE@ABVCGUID@@ABQAVCBaseObject@@@Z ENDP ; std::pair<CGUID const ,CBaseObject *>::pair<CGUID const ,CBaseObject *>
_TEXT	ENDS
PUBLIC	__TI2?AVbad_alloc@std@@
PUBLIC	??$_Allocate@D@std@@YAPADIPAD@Z			; std::_Allocate<char>
PUBLIC	__CTA2?AVbad_alloc@std@@
PUBLIC	__CT??_R0?AVbad_alloc@std@@@8??0bad_alloc@std@@QAE@ABV01@@Z12
PUBLIC	??0bad_alloc@std@@QAE@ABV01@@Z			; std::bad_alloc::bad_alloc
PUBLIC	__CT??_R0?AVexception@std@@@8??0exception@std@@QAE@ABV01@@Z12
EXTRN	??2@YAPAXI@Z:PROC				; operator new
EXTRN	__CxxThrowException@8:PROC
EXTRN	??0exception@std@@QAE@ABV01@@Z:PROC		; std::exception::exception
;	COMDAT __CT??_R0?AVexception@std@@@8??0exception@std@@QAE@ABV01@@Z12
; File d:\program files\microsoft visual studio 8\vc\include\exception
xdata$x	SEGMENT
__CT??_R0?AVexception@std@@@8??0exception@std@@QAE@ABV01@@Z12 DD 00H
	DD	FLAT:??_R0?AVexception@std@@@8
	DD	00H
	DD	0ffffffffH
	ORG $+4
	DD	0cH
	DD	FLAT:??0exception@std@@QAE@ABV01@@Z
xdata$x	ENDS
;	COMDAT __CT??_R0?AVbad_alloc@std@@@8??0bad_alloc@std@@QAE@ABV01@@Z12
xdata$x	SEGMENT
__CT??_R0?AVbad_alloc@std@@@8??0bad_alloc@std@@QAE@ABV01@@Z12 DD 00H
	DD	FLAT:??_R0?AVbad_alloc@std@@@8
	DD	00H
	DD	0ffffffffH
	ORG $+4
	DD	0cH
	DD	FLAT:??0bad_alloc@std@@QAE@ABV01@@Z
xdata$x	ENDS
;	COMDAT __CTA2?AVbad_alloc@std@@
xdata$x	SEGMENT
__CTA2?AVbad_alloc@std@@ DD 02H
	DD	FLAT:__CT??_R0?AVbad_alloc@std@@@8??0bad_alloc@std@@QAE@ABV01@@Z12
	DD	FLAT:__CT??_R0?AVexception@std@@@8??0exception@std@@QAE@ABV01@@Z12
xdata$x	ENDS
;	COMDAT __TI2?AVbad_alloc@std@@
xdata$x	SEGMENT
__TI2?AVbad_alloc@std@@ DD 00H
	DD	FLAT:??1bad_alloc@std@@UAE@XZ
	DD	00H
	DD	FLAT:__CTA2?AVbad_alloc@std@@
; Function compile flags: /Ogtpy
; File d:\program files\microsoft visual studio 8\vc\include\xmemory
xdata$x	ENDS
;	COMDAT ??$_Allocate@D@std@@YAPADIPAD@Z
_TEXT	SEGMENT
$T295366 = -12						; size = 12
$T295371 = 8						; size = 4
__Count$ = 8						; size = 4
___formal$ = 12						; size = 4
??$_Allocate@D@std@@YAPADIPAD@Z PROC			; std::_Allocate<char>, COMDAT

; 38   : 	if (_Count <= 0)

  00000	8b 4c 24 04	 mov	 ecx, DWORD PTR __Count$[esp-4]
  00004	83 ec 0c	 sub	 esp, 12			; 0000000cH
  00007	85 c9		 test	 ecx, ecx
  00009	77 0f		 ja	 SHORT $LN3@Allocate

; 39   : 		_Count = 0;

  0000b	33 c9		 xor	 ecx, ecx
$LN1@Allocate:

; 42   : 
; 43   : 		// allocate storage for _Count elements of type _Ty
; 44   : 	return ((_Ty _FARQ *)::operator new(_Count * sizeof (_Ty)));

  0000d	51		 push	 ecx
  0000e	e8 00 00 00 00	 call	 ??2@YAPAXI@Z		; operator new
  00013	83 c4 04	 add	 esp, 4

; 45   : 	}

  00016	83 c4 0c	 add	 esp, 12			; 0000000cH
  00019	c3		 ret	 0
$LN3@Allocate:

; 40   : 	else if (((_SIZT)(-1) / _Count) < sizeof (_Ty))

  0001a	83 c8 ff	 or	 eax, -1
  0001d	33 d2		 xor	 edx, edx
  0001f	f7 f1		 div	 ecx
  00021	83 f8 01	 cmp	 eax, 1
  00024	73 e7		 jae	 SHORT $LN1@Allocate

; 41   : 		_THROW_NCEE(std::bad_alloc, NULL);

  00026	8d 44 24 10	 lea	 eax, DWORD PTR $T295371[esp+8]
  0002a	50		 push	 eax
  0002b	8d 4c 24 04	 lea	 ecx, DWORD PTR $T295366[esp+16]
  0002f	c7 44 24 14 00
	00 00 00	 mov	 DWORD PTR $T295371[esp+12], 0
  00037	e8 00 00 00 00	 call	 ??0exception@std@@QAE@ABQBD@Z ; std::exception::exception
  0003c	68 00 00 00 00	 push	 OFFSET __TI2?AVbad_alloc@std@@
  00041	8d 4c 24 04	 lea	 ecx, DWORD PTR $T295366[esp+16]
  00045	51		 push	 ecx
  00046	c7 44 24 08 00
	00 00 00	 mov	 DWORD PTR $T295366[esp+20], OFFSET ??_7bad_alloc@std@@6B@
  0004e	e8 00 00 00 00	 call	 __CxxThrowException@8
$LN9@Allocate:
$LN8@Allocate:
  00053	cc		 int	 3
??$_Allocate@D@std@@YAPADIPAD@Z ENDP			; std::_Allocate<char>
; Function compile flags: /Ogtpy
_TEXT	ENDS
;	COMDAT ??0bad_alloc@std@@QAE@ABV01@@Z
_TEXT	SEGMENT
___that$ = 8						; size = 4
??0bad_alloc@std@@QAE@ABV01@@Z PROC			; std::bad_alloc::bad_alloc, COMDAT
; _this$ = ecx
  00000	8b 44 24 04	 mov	 eax, DWORD PTR ___that$[esp-4]
  00004	56		 push	 esi
  00005	50		 push	 eax
  00006	8b f1		 mov	 esi, ecx
  00008	e8 00 00 00 00	 call	 ??0exception@std@@QAE@ABV01@@Z ; std::exception::exception
  0000d	c7 06 00 00 00
	00		 mov	 DWORD PTR [esi], OFFSET ??_7bad_alloc@std@@6B@
  00013	8b c6		 mov	 eax, esi
  00015	5e		 pop	 esi
  00016	c2 04 00	 ret	 4
??0bad_alloc@std@@QAE@ABV01@@Z ENDP			; std::bad_alloc::bad_alloc
_TEXT	ENDS
PUBLIC	?_Hashval@?$_Hash@V?$_Hmap_traits@VCGUID@@PAVCBaseObject@@Vhash_guid_compare@@V?$allocator@U?$pair@$$CBVCGUID@@PAVCBaseObject@@@std@@@std@@$0A@@stdext@@@stdext@@IBEIABVCGUID@@@Z ; stdext::_Hash<stdext::_Hmap_traits<CGUID,CBaseObject *,hash_guid_compare,std::allocator<std::pair<CGUID const ,CBaseObject *> >,0> >::_Hashval
; Function compile flags: /Ogtpy
; File d:\program files\microsoft visual studio 8\vc\include\xhash
;	COMDAT ?_Hashval@?$_Hash@V?$_Hmap_traits@VCGUID@@PAVCBaseObject@@Vhash_guid_compare@@V?$allocator@U?$pair@$$CBVCGUID@@PAVCBaseObject@@@std@@@std@@$0A@@stdext@@@stdext@@IBEIABVCGUID@@@Z
_TEXT	SEGMENT
__Keyval$ = 8						; size = 4
?_Hashval@?$_Hash@V?$_Hmap_traits@VCGUID@@PAVCBaseObject@@Vhash_guid_compare@@V?$allocator@U?$pair@$$CBVCGUID@@PAVCBaseObject@@@std@@@std@@$0A@@stdext@@@stdext@@IBEIABVCGUID@@@Z PROC ; stdext::_Hash<stdext::_Hmap_traits<CGUID,CBaseObject *,hash_guid_compare,std::allocator<std::pair<CGUID const ,CBaseObject *> >,0> >::_Hashval, COMDAT
; _this$ = ecx

; 683  : 		size_type _Num = this->comp(_Keyval) & _Mask;

  00000	8b 54 24 04	 mov	 edx, DWORD PTR __Keyval$[esp-4]
  00004	8b 42 0c	 mov	 eax, DWORD PTR [edx+12]
  00007	03 42 08	 add	 eax, DWORD PTR [edx+8]
  0000a	56		 push	 esi
  0000b	03 42 04	 add	 eax, DWORD PTR [edx+4]
  0000e	8b 71 20	 mov	 esi, DWORD PTR [ecx+32]
  00011	03 02		 add	 eax, DWORD PTR [edx]
  00013	23 c6		 and	 eax, esi

; 684  : 		if (_Maxidx <= _Num)

  00015	39 41 24	 cmp	 DWORD PTR [ecx+36], eax
  00018	77 09		 ja	 SHORT $LN1@Hashval

; 685  : 			_Num -= (_Mask >> 1) + 1;

  0001a	d1 ee		 shr	 esi, 1
  0001c	83 c9 ff	 or	 ecx, -1
  0001f	2b ce		 sub	 ecx, esi
  00021	03 c1		 add	 eax, ecx
$LN1@Hashval:
  00023	5e		 pop	 esi

; 686  : 		return (_Num);
; 687  : 		}

  00024	c2 04 00	 ret	 4
?_Hashval@?$_Hash@V?$_Hmap_traits@VCGUID@@PAVCBaseObject@@Vhash_guid_compare@@V?$allocator@U?$pair@$$CBVCGUID@@PAVCBaseObject@@@std@@@std@@$0A@@stdext@@@stdext@@IBEIABVCGUID@@@Z ENDP ; stdext::_Hash<stdext::_Hmap_traits<CGUID,CBaseObject *,hash_guid_compare,std::allocator<std::pair<CGUID const ,CBaseObject *> >,0> >::_Hashval
_TEXT	ENDS
PUBLIC	?_Kfn@?$_Hmap_traits@VCGUID@@PAVCBaseObject@@Vhash_guid_compare@@V?$allocator@U?$pair@$$CBVCGUID@@PAVCBaseObject@@@std@@@std@@$0A@@stdext@@SAABVCGUID@@ABU?$pair@$$CBVCGUID@@PAVCBaseObject@@@std@@@Z ; stdext::_Hmap_traits<CGUID,CBaseObject *,hash_guid_compare,std::allocator<std::pair<CGUID const ,CBaseObject *> >,0>::_Kfn
; Function compile flags: /Ogtpy
; File d:\program files\microsoft visual studio 8\vc\include\hash_map
;	COMDAT ?_Kfn@?$_Hmap_traits@VCGUID@@PAVCBaseObject@@Vhash_guid_compare@@V?$allocator@U?$pair@$$CBVCGUID@@PAVCBaseObject@@@std@@@std@@$0A@@stdext@@SAABVCGUID@@ABU?$pair@$$CBVCGUID@@PAVCBaseObject@@@std@@@Z
_TEXT	SEGMENT
__Val$ = 8						; size = 4
?_Kfn@?$_Hmap_traits@VCGUID@@PAVCBaseObject@@Vhash_guid_compare@@V?$allocator@U?$pair@$$CBVCGUID@@PAVCBaseObject@@@std@@@std@@$0A@@stdext@@SAABVCGUID@@ABU?$pair@$$CBVCGUID@@PAVCBaseObject@@@std@@@Z PROC ; stdext::_Hmap_traits<CGUID,CBaseObject *,hash_guid_compare,std::allocator<std::pair<CGUID const ,CBaseObject *> >,0>::_Kfn, COMDAT

; 77   : 		return (_Val.first);

  00000	8b 44 24 04	 mov	 eax, DWORD PTR __Val$[esp-4]

; 78   : 		}

  00004	c3		 ret	 0
?_Kfn@?$_Hmap_traits@VCGUID@@PAVCBaseObject@@Vhash_guid_compare@@V?$allocator@U?$pair@$$CBVCGUID@@PAVCBaseObject@@@std@@@std@@$0A@@stdext@@SAABVCGUID@@ABU?$pair@$$CBVCGUID@@PAVCBaseObject@@@std@@@Z ENDP ; stdext::_Hmap_traits<CGUID,CBaseObject *,hash_guid_compare,std::allocator<std::pair<CGUID const ,CBaseObject *> >,0>::_Kfn
_TEXT	ENDS
PUBLIC	?size@?$vector@U_List_position@?$_Hash@V?$_Hmap_traits@VCGUID@@PAVCBaseObject@@Vhash_guid_compare@@V?$allocator@U?$pair@$$CBVCGUID@@PAVCBaseObject@@@std@@@std@@$0A@@stdext@@@stdext@@V?$allocator@U_List_position@?$_Hash@V?$_Hmap_traits@VCGUID@@PAVCBaseObject@@Vhash_guid_compare@@V?$allocator@U?$pair@$$CBVCGUID@@PAVCBaseObject@@@std@@@std@@$0A@@stdext@@@stdext@@@std@@@std@@QBEIXZ ; std::vector<stdext::_Hash<stdext::_Hmap_traits<CGUID,CBaseObject *,hash_guid_compare,std::allocator<std::pair<CGUID const ,CBaseObject *> >,0> >::_List_position,std::allocator<stdext::_Hash<stdext::_Hmap_traits<CGUID,CBaseObject *,hash_guid_compare,std::allocator<std::pair<CGUID const ,CBaseObject *> >,0> >::_List_position> >::size
; Function compile flags: /Ogtpy
; File d:\program files\microsoft visual studio 8\vc\include\vector
;	COMDAT ?size@?$vector@U_List_position@?$_Hash@V?$_Hmap_traits@VCGUID@@PAVCBaseObject@@Vhash_guid_compare@@V?$allocator@U?$pair@$$CBVCGUID@@PAVCBaseObject@@@std@@@std@@$0A@@stdext@@@stdext@@V?$allocator@U_List_position@?$_Hash@V?$_Hmap_traits@VCGUID@@PAVCBaseObject@@Vhash_guid_compare@@V?$allocator@U?$pair@$$CBVCGUID@@PAVCBaseObject@@@std@@@std@@$0A@@stdext@@@stdext@@@std@@@std@@QBEIXZ
_TEXT	SEGMENT
?size@?$vector@U_List_position@?$_Hash@V?$_Hmap_traits@VCGUID@@PAVCBaseObject@@Vhash_guid_compare@@V?$allocator@U?$pair@$$CBVCGUID@@PAVCBaseObject@@@std@@@std@@$0A@@stdext@@@stdext@@V?$allocator@U_List_position@?$_Hash@V?$_Hmap_traits@VCGUID@@PAVCBaseObject@@Vhash_guid_compare@@V?$allocator@U?$pair@$$CBVCGUID@@PAVCBaseObject@@@std@@@std@@$0A@@stdext@@@stdext@@@std@@@std@@QBEIXZ PROC ; std::vector<stdext::_Hash<stdext::_Hmap_traits<CGUID,CBaseObject *,hash_guid_compare,std::allocator<std::pair<CGUID const ,CBaseObject *> >,0> >::_List_position,std::allocator<stdext::_Hash<stdext::_Hmap_traits<CGUID,CBaseObject *,hash_guid_compare,std::allocator<std::pair<CGUID const ,CBaseObject *> >,0> >::_List_position> >::size, COMDAT
; _this$ = ecx

; 703  : 		return (_Myfirst == 0 ? 0 : _Mylast - _Myfirst);

  00000	8b 51 04	 mov	 edx, DWORD PTR [ecx+4]
  00003	85 d2		 test	 edx, edx
  00005	75 03		 jne	 SHORT $LN3@size
  00007	33 c0		 xor	 eax, eax

; 704  : 		}

  00009	c3		 ret	 0
$LN3@size:

; 703  : 		return (_Myfirst == 0 ? 0 : _Mylast - _Myfirst);

  0000a	8b 41 08	 mov	 eax, DWORD PTR [ecx+8]
  0000d	2b c2		 sub	 eax, edx
  0000f	c1 f8 03	 sar	 eax, 3

; 704  : 		}

  00012	c3		 ret	 0
?size@?$vector@U_List_position@?$_Hash@V?$_Hmap_traits@VCGUID@@PAVCBaseObject@@Vhash_guid_compare@@V?$allocator@U?$pair@$$CBVCGUID@@PAVCBaseObject@@@std@@@std@@$0A@@stdext@@@stdext@@V?$allocator@U_List_position@?$_Hash@V?$_Hmap_traits@VCGUID@@PAVCBaseObject@@Vhash_guid_compare@@V?$allocator@U?$pair@$$CBVCGUID@@PAVCBaseObject@@@std@@@std@@$0A@@stdext@@@stdext@@@std@@@std@@QBEIXZ ENDP ; std::vector<stdext::_Hash<stdext::_Hmap_traits<CGUID,CBaseObject *,hash_guid_compare,std::allocator<std::pair<CGUID const ,CBaseObject *> >,0> >::_List_position,std::allocator<stdext::_Hash<stdext::_Hmap_traits<CGUID,CBaseObject *,hash_guid_compare,std::allocator<std::pair<CGUID const ,CBaseObject *> >,0> >::_List_position> >::size
_TEXT	ENDS
PUBLIC	??A?$vector@U_List_position@?$_Hash@V?$_Hmap_traits@VCGUID@@PAVCBaseObject@@Vhash_guid_compare@@V?$allocator@U?$pair@$$CBVCGUID@@PAVCBaseObject@@@std@@@std@@$0A@@stdext@@@stdext@@V?$allocator@U_List_position@?$_Hash@V?$_Hmap_traits@VCGUID@@PAVCBaseObject@@Vhash_guid_compare@@V?$allocator@U?$pair@$$CBVCGUID@@PAVCBaseObject@@@std@@@std@@$0A@@stdext@@@stdext@@@std@@@std@@QAEAAU_List_position@?$_Hash@V?$_Hmap_traits@VCGUID@@PAVCBaseObject@@Vhash_guid_compare@@V?$allocator@U?$pair@$$CBVCGUID@@PAVCBaseObject@@@std@@@std@@$0A@@stdext@@@stdext@@I@Z ; std::vector<stdext::_Hash<stdext::_Hmap_traits<CGUID,CBaseObject *,hash_guid_compare,std::allocator<std::pair<CGUID const ,CBaseObject *> >,0> >::_List_position,std::allocator<stdext::_Hash<stdext::_Hmap_traits<CGUID,CBaseObject *,hash_guid_compare,std::allocator<std::pair<CGUID const ,CBaseObject *> >,0> >::_List_position> >::operator[]
; Function compile flags: /Ogtpy
;	COMDAT ??A?$vector@U_List_position@?$_Hash@V?$_Hmap_traits@VCGUID@@PAVCBaseObject@@Vhash_guid_compare@@V?$allocator@U?$pair@$$CBVCGUID@@PAVCBaseObject@@@std@@@std@@$0A@@stdext@@@stdext@@V?$allocator@U_List_position@?$_Hash@V?$_Hmap_traits@VCGUID@@PAVCBaseObject@@Vhash_guid_compare@@V?$allocator@U?$pair@$$CBVCGUID@@PAVCBaseObject@@@std@@@std@@$0A@@stdext@@@stdext@@@std@@@std@@QAEAAU_List_position@?$_Hash@V?$_Hmap_traits@VCGUID@@PAVCBaseObject@@Vhash_guid_compare@@V?$allocator@U?$pair@$$CBVCGUID@@PAVCBaseObject@@@std@@@std@@$0A@@stdext@@@stdext@@I@Z
_TEXT	SEGMENT
__Pos$ = 8						; size = 4
??A?$vector@U_List_position@?$_Hash@V?$_Hmap_traits@VCGUID@@PAVCBaseObject@@Vhash_guid_compare@@V?$allocator@U?$pair@$$CBVCGUID@@PAVCBaseObject@@@std@@@std@@$0A@@stdext@@@stdext@@V?$allocator@U_List_position@?$_Hash@V?$_Hmap_traits@VCGUID@@PAVCBaseObject@@Vhash_guid_compare@@V?$allocator@U?$pair@$$CBVCGUID@@PAVCBaseObject@@@std@@@std@@$0A@@stdext@@@stdext@@@std@@@std@@QAEAAU_List_position@?$_Hash@V?$_Hmap_traits@VCGUID@@PAVCBaseObject@@Vhash_guid_compare@@V?$allocator@U?$pair@$$CBVCGUID@@PAVCBaseObject@@@std@@@std@@$0A@@stdext@@@stdext@@I@Z PROC ; std::vector<stdext::_Hash<stdext::_Hmap_traits<CGUID,CBaseObject *,hash_guid_compare,std::allocator<std::pair<CGUID const ,CBaseObject *> >,0> >::_List_position,std::allocator<stdext::_Hash<stdext::_Hmap_traits<CGUID,CBaseObject *,hash_guid_compare,std::allocator<std::pair<CGUID const ,CBaseObject *> >,0> >::_List_position> >::operator[], COMDAT
; _this$ = ecx

; 751  : 		{	// subscript mutable sequence

  00000	56		 push	 esi
  00001	8b f1		 mov	 esi, ecx

; 752  : 
; 753  :  #if _HAS_ITERATOR_DEBUGGING
; 754  : 		if (size() <= _Pos)
; 755  : 			{
; 756  : 			_DEBUG_ERROR("vector subscript out of range");
; 757  : 			_SCL_SECURE_OUT_OF_RANGE;
; 758  : 			}
; 759  :  #endif /* _HAS_ITERATOR_DEBUGGING */
; 760  : 		_SCL_SECURE_VALIDATE_RANGE(_Pos < size());

  00003	8b 4e 04	 mov	 ecx, DWORD PTR [esi+4]
  00006	85 c9		 test	 ecx, ecx
  00008	57		 push	 edi
  00009	8b 7c 24 0c	 mov	 edi, DWORD PTR __Pos$[esp+4]
  0000d	74 0c		 je	 SHORT $LN8@operator@6
  0000f	8b 46 08	 mov	 eax, DWORD PTR [esi+8]
  00012	2b c1		 sub	 eax, ecx
  00014	c1 f8 03	 sar	 eax, 3
  00017	3b f8		 cmp	 edi, eax
  00019	72 05		 jb	 SHORT $LN1@operator@6
$LN8@operator@6:
  0001b	e8 00 00 00 00	 call	 __invalid_parameter_noinfo
$LN1@operator@6:

; 761  : 
; 762  : 		return (*(_Myfirst + _Pos));

  00020	8b 46 04	 mov	 eax, DWORD PTR [esi+4]
  00023	8d 04 f8	 lea	 eax, DWORD PTR [eax+edi*8]
  00026	5f		 pop	 edi
  00027	5e		 pop	 esi

; 763  : 		}

  00028	c2 04 00	 ret	 4
??A?$vector@U_List_position@?$_Hash@V?$_Hmap_traits@VCGUID@@PAVCBaseObject@@Vhash_guid_compare@@V?$allocator@U?$pair@$$CBVCGUID@@PAVCBaseObject@@@std@@@std@@$0A@@stdext@@@stdext@@V?$allocator@U_List_position@?$_Hash@V?$_Hmap_traits@VCGUID@@PAVCBaseObject@@Vhash_guid_compare@@V?$allocator@U?$pair@$$CBVCGUID@@PAVCBaseObject@@@std@@@std@@$0A@@stdext@@@stdext@@@std@@@std@@QAEAAU_List_position@?$_Hash@V?$_Hmap_traits@VCGUID@@PAVCBaseObject@@Vhash_guid_compare@@V?$allocator@U?$pair@$$CBVCGUID@@PAVCBaseObject@@@std@@@std@@$0A@@stdext@@@stdext@@I@Z ENDP ; std::vector<stdext::_Hash<stdext::_Hmap_traits<CGUID,CBaseObject *,hash_guid_compare,std::allocator<std::pair<CGUID const ,CBaseObject *> >,0> >::_List_position,std::allocator<stdext::_Hash<stdext::_Hmap_traits<CGUID,CBaseObject *,hash_guid_compare,std::allocator<std::pair<CGUID const ,CBaseObject *> >,0> >::_List_position> >::operator[]
_TEXT	ENDS
PUBLIC	??9?$_Const_iterator@$00@?$list@U?$pair@$$CBVCGUID@@PAVCBaseObject@@@std@@V?$allocator@U?$pair@$$CBVCGUID@@PAVCBaseObject@@@std@@@2@@std@@QBE_NABV012@@Z ; std::list<std::pair<CGUID const ,CBaseObject *>,std::allocator<std::pair<CGUID const ,CBaseObject *> > >::_Const_iterator<1>::operator!=
; Function compile flags: /Ogtpy
; File d:\program files\microsoft visual studio 8\vc\include\list
;	COMDAT ??9?$_Const_iterator@$00@?$list@U?$pair@$$CBVCGUID@@PAVCBaseObject@@@std@@V?$allocator@U?$pair@$$CBVCGUID@@PAVCBaseObject@@@std@@@2@@std@@QBE_NABV012@@Z
_TEXT	SEGMENT
__Right$ = 8						; size = 4
??9?$_Const_iterator@$00@?$list@U?$pair@$$CBVCGUID@@PAVCBaseObject@@@std@@V?$allocator@U?$pair@$$CBVCGUID@@PAVCBaseObject@@@std@@@2@@std@@QBE_NABV012@@Z PROC ; std::list<std::pair<CGUID const ,CBaseObject *>,std::allocator<std::pair<CGUID const ,CBaseObject *> > >::_Const_iterator<1>::operator!=, COMDAT
; _this$ = ecx

; 294  : 			{	// test for iterator inequality

  00000	56		 push	 esi
  00001	8b f1		 mov	 esi, ecx

; 295  : 			return (!(*this == _Right));

  00003	8b 06		 mov	 eax, DWORD PTR [esi]
  00005	85 c0		 test	 eax, eax
  00007	57		 push	 edi
  00008	8b 7c 24 0c	 mov	 edi, DWORD PTR __Right$[esp+4]
  0000c	74 04		 je	 SHORT $LN3@operator@7
  0000e	3b 07		 cmp	 eax, DWORD PTR [edi]
  00010	74 05		 je	 SHORT $LN4@operator@7
$LN3@operator@7:
  00012	e8 00 00 00 00	 call	 __invalid_parameter_noinfo
$LN4@operator@7:
  00017	8b 46 04	 mov	 eax, DWORD PTR [esi+4]
  0001a	33 c9		 xor	 ecx, ecx
  0001c	3b 47 04	 cmp	 eax, DWORD PTR [edi+4]
  0001f	5f		 pop	 edi
  00020	0f 95 c1	 setne	 cl
  00023	8a c1		 mov	 al, cl
  00025	5e		 pop	 esi

; 296  : 			}

  00026	c2 04 00	 ret	 4
??9?$_Const_iterator@$00@?$list@U?$pair@$$CBVCGUID@@PAVCBaseObject@@@std@@V?$allocator@U?$pair@$$CBVCGUID@@PAVCBaseObject@@@std@@@2@@std@@QBE_NABV012@@Z ENDP ; std::list<std::pair<CGUID const ,CBaseObject *>,std::allocator<std::pair<CGUID const ,CBaseObject *> > >::_Const_iterator<1>::operator!=
_TEXT	ENDS
PUBLIC	??0?$pair@V?$_Iterator@$00@?$list@U?$pair@$$CBVCGUID@@PAVCBaseObject@@@std@@V?$allocator@U?$pair@$$CBVCGUID@@PAVCBaseObject@@@std@@@2@@std@@_N@std@@QAE@ABV?$_Iterator@$00@?$list@U?$pair@$$CBVCGUID@@PAVCBaseObject@@@std@@V?$allocator@U?$pair@$$CBVCGUID@@PAVCBaseObject@@@std@@@2@@1@AB_N@Z ; std::pair<std::list<std::pair<CGUID const ,CBaseObject *>,std::allocator<std::pair<CGUID const ,CBaseObject *> > >::_Iterator<1>,bool>::pair<std::list<std::pair<CGUID const ,CBaseObject *>,std::allocator<std::pair<CGUID const ,CBaseObject *> > >::_Iterator<1>,bool>
; Function compile flags: /Ogtpy
; File d:\program files\microsoft visual studio 8\vc\include\utility
;	COMDAT ??0?$pair@V?$_Iterator@$00@?$list@U?$pair@$$CBVCGUID@@PAVCBaseObject@@@std@@V?$allocator@U?$pair@$$CBVCGUID@@PAVCBaseObject@@@std@@@2@@std@@_N@std@@QAE@ABV?$_Iterator@$00@?$list@U?$pair@$$CBVCGUID@@PAVCBaseObject@@@std@@V?$allocator@U?$pair@$$CBVCGUID@@PAVCBaseObject@@@std@@@2@@1@AB_N@Z
_TEXT	SEGMENT
__Val1$ = 8						; size = 4
__Val2$ = 12						; size = 4
??0?$pair@V?$_Iterator@$00@?$list@U?$pair@$$CBVCGUID@@PAVCBaseObject@@@std@@V?$allocator@U?$pair@$$CBVCGUID@@PAVCBaseObject@@@std@@@2@@std@@_N@std@@QAE@ABV?$_Iterator@$00@?$list@U?$pair@$$CBVCGUID@@PAVCBaseObject@@@std@@V?$allocator@U?$pair@$$CBVCGUID@@PAVCBaseObject@@@std@@@2@@1@AB_N@Z PROC ; std::pair<std::list<std::pair<CGUID const ,CBaseObject *>,std::allocator<std::pair<CGUID const ,CBaseObject *> > >::_Iterator<1>,bool>::pair<std::list<std::pair<CGUID const ,CBaseObject *>,std::allocator<std::pair<CGUID const ,CBaseObject *> > >::_Iterator<1>,bool>, COMDAT
; _this$ = ecx

; 37   : 		{	// construct from specified values

  00000	8b c1		 mov	 eax, ecx
  00002	8b 4c 24 04	 mov	 ecx, DWORD PTR __Val1$[esp-4]
  00006	8b 11		 mov	 edx, DWORD PTR [ecx]
  00008	89 10		 mov	 DWORD PTR [eax], edx
  0000a	8b 49 04	 mov	 ecx, DWORD PTR [ecx+4]
  0000d	8b 54 24 08	 mov	 edx, DWORD PTR __Val2$[esp-4]
  00011	89 48 04	 mov	 DWORD PTR [eax+4], ecx
  00014	8a 0a		 mov	 cl, BYTE PTR [edx]
  00016	88 48 08	 mov	 BYTE PTR [eax+8], cl

; 38   : 		}

  00019	c2 08 00	 ret	 8
??0?$pair@V?$_Iterator@$00@?$list@U?$pair@$$CBVCGUID@@PAVCBaseObject@@@std@@V?$allocator@U?$pair@$$CBVCGUID@@PAVCBaseObject@@@std@@@2@@std@@_N@std@@QAE@ABV?$_Iterator@$00@?$list@U?$pair@$$CBVCGUID@@PAVCBaseObject@@@std@@V?$allocator@U?$pair@$$CBVCGUID@@PAVCBaseObject@@@std@@@2@@1@AB_N@Z ENDP ; std::pair<std::list<std::pair<CGUID const ,CBaseObject *>,std::allocator<std::pair<CGUID const ,CBaseObject *> > >::_Iterator<1>,bool>::pair<std::list<std::pair<CGUID const ,CBaseObject *>,std::allocator<std::pair<CGUID const ,CBaseObject *> > >::_Iterator<1>,bool>
_TEXT	ENDS
PUBLIC	??0?$pair@V?$_Iterator@$00@?$list@U?$pair@$$CBVCGUID@@PAVCBaseObject@@@std@@V?$allocator@U?$pair@$$CBVCGUID@@PAVCBaseObject@@@std@@@2@@std@@V123@@std@@QAE@ABV?$_Iterator@$00@?$list@U?$pair@$$CBVCGUID@@PAVCBaseObject@@@std@@V?$allocator@U?$pair@$$CBVCGUID@@PAVCBaseObject@@@std@@@2@@1@0@Z ; std::pair<std::list<std::pair<CGUID const ,CBaseObject *>,std::allocator<std::pair<CGUID const ,CBaseObject *> > >::_Iterator<1>,std::list<std::pair<CGUID const ,CBaseObject *>,std::allocator<std::pair<CGUID const ,CBaseObject *> > >::_Iterator<1> >::pair<std::list<std::pair<CGUID const ,CBaseObject *>,std::allocator<std::pair<CGUID const ,CBaseObject *> > >::_Iterator<1>,std::list<std::pair<CGUID const ,CBaseObject *>,std::allocator<std::pair<CGUID const ,CBaseObject *> > >::_Iterator<1> >
; Function compile flags: /Ogtpy
;	COMDAT ??0?$pair@V?$_Iterator@$00@?$list@U?$pair@$$CBVCGUID@@PAVCBaseObject@@@std@@V?$allocator@U?$pair@$$CBVCGUID@@PAVCBaseObject@@@std@@@2@@std@@V123@@std@@QAE@ABV?$_Iterator@$00@?$list@U?$pair@$$CBVCGUID@@PAVCBaseObject@@@std@@V?$allocator@U?$pair@$$CBVCGUID@@PAVCBaseObject@@@std@@@2@@1@0@Z
_TEXT	SEGMENT
__Val1$ = 8						; size = 4
__Val2$ = 12						; size = 4
??0?$pair@V?$_Iterator@$00@?$list@U?$pair@$$CBVCGUID@@PAVCBaseObject@@@std@@V?$allocator@U?$pair@$$CBVCGUID@@PAVCBaseObject@@@std@@@2@@std@@V123@@std@@QAE@ABV?$_Iterator@$00@?$list@U?$pair@$$CBVCGUID@@PAVCBaseObject@@@std@@V?$allocator@U?$pair@$$CBVCGUID@@PAVCBaseObject@@@std@@@2@@1@0@Z PROC ; std::pair<std::list<std::pair<CGUID const ,CBaseObject *>,std::allocator<std::pair<CGUID const ,CBaseObject *> > >::_Iterator<1>,std::list<std::pair<CGUID const ,CBaseObject *>,std::allocator<std::pair<CGUID const ,CBaseObject *> > >::_Iterator<1> >::pair<std::list<std::pair<CGUID const ,CBaseObject *>,std::allocator<std::pair<CGUID const ,CBaseObject *> > >::_Iterator<1>,std::list<std::pair<CGUID const ,CBaseObject *>,std::allocator<std::pair<CGUID const ,CBaseObject *> > >::_Iterator<1> >, COMDAT
; _this$ = ecx

; 37   : 		{	// construct from specified values

  00000	8b c1		 mov	 eax, ecx
  00002	8b 4c 24 04	 mov	 ecx, DWORD PTR __Val1$[esp-4]
  00006	8b 11		 mov	 edx, DWORD PTR [ecx]
  00008	89 10		 mov	 DWORD PTR [eax], edx
  0000a	8b 49 04	 mov	 ecx, DWORD PTR [ecx+4]
  0000d	89 48 04	 mov	 DWORD PTR [eax+4], ecx
  00010	8b 4c 24 08	 mov	 ecx, DWORD PTR __Val2$[esp-4]
  00014	8b 11		 mov	 edx, DWORD PTR [ecx]
  00016	89 50 08	 mov	 DWORD PTR [eax+8], edx
  00019	8b 49 04	 mov	 ecx, DWORD PTR [ecx+4]
  0001c	89 48 0c	 mov	 DWORD PTR [eax+12], ecx

; 38   : 		}

  0001f	c2 08 00	 ret	 8
??0?$pair@V?$_Iterator@$00@?$list@U?$pair@$$CBVCGUID@@PAVCBaseObject@@@std@@V?$allocator@U?$pair@$$CBVCGUID@@PAVCBaseObject@@@std@@@2@@std@@V123@@std@@QAE@ABV?$_Iterator@$00@?$list@U?$pair@$$CBVCGUID@@PAVCBaseObject@@@std@@V?$allocator@U?$pair@$$CBVCGUID@@PAVCBaseObject@@@std@@@2@@1@0@Z ENDP ; std::pair<std::list<std::pair<CGUID const ,CBaseObject *>,std::allocator<std::pair<CGUID const ,CBaseObject *> > >::_Iterator<1>,std::list<std::pair<CGUID const ,CBaseObject *>,std::allocator<std::pair<CGUID const ,CBaseObject *> > >::_Iterator<1> >::pair<std::list<std::pair<CGUID const ,CBaseObject *>,std::allocator<std::pair<CGUID const ,CBaseObject *> > >::_Iterator<1>,std::list<std::pair<CGUID const ,CBaseObject *>,std::allocator<std::pair<CGUID const ,CBaseObject *> > >::_Iterator<1> >
_TEXT	ENDS
PUBLIC	?_Nextnode@?$list@U?$pair@$$CBVCGUID@@PAVCBaseObject@@@std@@V?$allocator@U?$pair@$$CBVCGUID@@PAVCBaseObject@@@std@@@2@@std@@KAAAPAU_Node@?$_List_nod@U?$pair@$$CBVCGUID@@PAVCBaseObject@@@std@@V?$allocator@U?$pair@$$CBVCGUID@@PAVCBaseObject@@@std@@@2@@2@PAU342@@Z ; std::list<std::pair<CGUID const ,CBaseObject *>,std::allocator<std::pair<CGUID const ,CBaseObject *> > >::_Nextnode
; Function compile flags: /Ogtpy
; File d:\program files\microsoft visual studio 8\vc\include\list
;	COMDAT ?_Nextnode@?$list@U?$pair@$$CBVCGUID@@PAVCBaseObject@@@std@@V?$allocator@U?$pair@$$CBVCGUID@@PAVCBaseObject@@@std@@@2@@std@@KAAAPAU_Node@?$_List_nod@U?$pair@$$CBVCGUID@@PAVCBaseObject@@@std@@V?$allocator@U?$pair@$$CBVCGUID@@PAVCBaseObject@@@std@@@2@@2@PAU342@@Z
_TEXT	SEGMENT
__Pnode$ = 8						; size = 4
?_Nextnode@?$list@U?$pair@$$CBVCGUID@@PAVCBaseObject@@@std@@V?$allocator@U?$pair@$$CBVCGUID@@PAVCBaseObject@@@std@@@2@@std@@KAAAPAU_Node@?$_List_nod@U?$pair@$$CBVCGUID@@PAVCBaseObject@@@std@@V?$allocator@U?$pair@$$CBVCGUID@@PAVCBaseObject@@@std@@@2@@2@PAU342@@Z PROC ; std::list<std::pair<CGUID const ,CBaseObject *>,std::allocator<std::pair<CGUID const ,CBaseObject *> > >::_Nextnode, COMDAT

; 111  : 		return ((_Nodepref)(*_Pnode)._Next);

  00000	8b 44 24 04	 mov	 eax, DWORD PTR __Pnode$[esp-4]

; 112  : 		}

  00004	c3		 ret	 0
?_Nextnode@?$list@U?$pair@$$CBVCGUID@@PAVCBaseObject@@@std@@V?$allocator@U?$pair@$$CBVCGUID@@PAVCBaseObject@@@std@@@2@@std@@KAAAPAU_Node@?$_List_nod@U?$pair@$$CBVCGUID@@PAVCBaseObject@@@std@@V?$allocator@U?$pair@$$CBVCGUID@@PAVCBaseObject@@@std@@@2@@2@PAU342@@Z ENDP ; std::list<std::pair<CGUID const ,CBaseObject *>,std::allocator<std::pair<CGUID const ,CBaseObject *> > >::_Nextnode
_TEXT	ENDS
PUBLIC	?_Prevnode@?$list@U?$pair@$$CBVCGUID@@PAVCBaseObject@@@std@@V?$allocator@U?$pair@$$CBVCGUID@@PAVCBaseObject@@@std@@@2@@std@@KAAAPAU_Node@?$_List_nod@U?$pair@$$CBVCGUID@@PAVCBaseObject@@@std@@V?$allocator@U?$pair@$$CBVCGUID@@PAVCBaseObject@@@std@@@2@@2@PAU342@@Z ; std::list<std::pair<CGUID const ,CBaseObject *>,std::allocator<std::pair<CGUID const ,CBaseObject *> > >::_Prevnode
; Function compile flags: /Ogtpy
;	COMDAT ?_Prevnode@?$list@U?$pair@$$CBVCGUID@@PAVCBaseObject@@@std@@V?$allocator@U?$pair@$$CBVCGUID@@PAVCBaseObject@@@std@@@2@@std@@KAAAPAU_Node@?$_List_nod@U?$pair@$$CBVCGUID@@PAVCBaseObject@@@std@@V?$allocator@U?$pair@$$CBVCGUID@@PAVCBaseObject@@@std@@@2@@2@PAU342@@Z
_TEXT	SEGMENT
__Pnode$ = 8						; size = 4
?_Prevnode@?$list@U?$pair@$$CBVCGUID@@PAVCBaseObject@@@std@@V?$allocator@U?$pair@$$CBVCGUID@@PAVCBaseObject@@@std@@@2@@std@@KAAAPAU_Node@?$_List_nod@U?$pair@$$CBVCGUID@@PAVCBaseObject@@@std@@V?$allocator@U?$pair@$$CBVCGUID@@PAVCBaseObject@@@std@@@2@@2@PAU342@@Z PROC ; std::list<std::pair<CGUID const ,CBaseObject *>,std::allocator<std::pair<CGUID const ,CBaseObject *> > >::_Prevnode, COMDAT

; 116  : 		return ((_Nodepref)(*_Pnode)._Prev);

  00000	8b 44 24 04	 mov	 eax, DWORD PTR __Pnode$[esp-4]
  00004	83 c0 04	 add	 eax, 4

; 117  : 		}

  00007	c3		 ret	 0
?_Prevnode@?$list@U?$pair@$$CBVCGUID@@PAVCBaseObject@@@std@@V?$allocator@U?$pair@$$CBVCGUID@@PAVCBaseObject@@@std@@@2@@std@@KAAAPAU_Node@?$_List_nod@U?$pair@$$CBVCGUID@@PAVCBaseObject@@@std@@V?$allocator@U?$pair@$$CBVCGUID@@PAVCBaseObject@@@std@@@2@@2@PAU342@@Z ENDP ; std::list<std::pair<CGUID const ,CBaseObject *>,std::allocator<std::pair<CGUID const ,CBaseObject *> > >::_Prevnode
_TEXT	ENDS
PUBLIC	?_Myval@?$list@U?$pair@$$CBVCGUID@@PAVCBaseObject@@@std@@V?$allocator@U?$pair@$$CBVCGUID@@PAVCBaseObject@@@std@@@2@@std@@KAAAU?$pair@$$CBVCGUID@@PAVCBaseObject@@@2@PAU_Node@?$_List_nod@U?$pair@$$CBVCGUID@@PAVCBaseObject@@@std@@V?$allocator@U?$pair@$$CBVCGUID@@PAVCBaseObject@@@std@@@2@@2@@Z ; std::list<std::pair<CGUID const ,CBaseObject *>,std::allocator<std::pair<CGUID const ,CBaseObject *> > >::_Myval
; Function compile flags: /Ogtpy
;	COMDAT ?_Myval@?$list@U?$pair@$$CBVCGUID@@PAVCBaseObject@@@std@@V?$allocator@U?$pair@$$CBVCGUID@@PAVCBaseObject@@@std@@@2@@std@@KAAAU?$pair@$$CBVCGUID@@PAVCBaseObject@@@2@PAU_Node@?$_List_nod@U?$pair@$$CBVCGUID@@PAVCBaseObject@@@std@@V?$allocator@U?$pair@$$CBVCGUID@@PAVCBaseObject@@@std@@@2@@2@@Z
_TEXT	SEGMENT
__Pnode$ = 8						; size = 4
?_Myval@?$list@U?$pair@$$CBVCGUID@@PAVCBaseObject@@@std@@V?$allocator@U?$pair@$$CBVCGUID@@PAVCBaseObject@@@std@@@2@@std@@KAAAU?$pair@$$CBVCGUID@@PAVCBaseObject@@@2@PAU_Node@?$_List_nod@U?$pair@$$CBVCGUID@@PAVCBaseObject@@@std@@V?$allocator@U?$pair@$$CBVCGUID@@PAVCBaseObject@@@std@@@2@@2@@Z PROC ; std::list<std::pair<CGUID const ,CBaseObject *>,std::allocator<std::pair<CGUID const ,CBaseObject *> > >::_Myval, COMDAT

; 121  : 		return ((_Vref)(*_Pnode)._Myval);

  00000	8b 44 24 04	 mov	 eax, DWORD PTR __Pnode$[esp-4]
  00004	83 c0 08	 add	 eax, 8

; 122  : 		}

  00007	c3		 ret	 0
?_Myval@?$list@U?$pair@$$CBVCGUID@@PAVCBaseObject@@@std@@V?$allocator@U?$pair@$$CBVCGUID@@PAVCBaseObject@@@std@@@2@@std@@KAAAU?$pair@$$CBVCGUID@@PAVCBaseObject@@@2@PAU_Node@?$_List_nod@U?$pair@$$CBVCGUID@@PAVCBaseObject@@@std@@V?$allocator@U?$pair@$$CBVCGUID@@PAVCBaseObject@@@std@@@2@@2@@Z ENDP ; std::list<std::pair<CGUID const ,CBaseObject *>,std::allocator<std::pair<CGUID const ,CBaseObject *> > >::_Myval
_TEXT	ENDS
PUBLIC	?size@?$list@U?$pair@$$CBVCGUID@@PAVCBaseObject@@@std@@V?$allocator@U?$pair@$$CBVCGUID@@PAVCBaseObject@@@std@@@2@@std@@QBEIXZ ; std::list<std::pair<CGUID const ,CBaseObject *>,std::allocator<std::pair<CGUID const ,CBaseObject *> > >::size
; Function compile flags: /Ogtpy
;	COMDAT ?size@?$list@U?$pair@$$CBVCGUID@@PAVCBaseObject@@@std@@V?$allocator@U?$pair@$$CBVCGUID@@PAVCBaseObject@@@std@@@2@@std@@QBEIXZ
_TEXT	SEGMENT
?size@?$list@U?$pair@$$CBVCGUID@@PAVCBaseObject@@@std@@V?$allocator@U?$pair@$$CBVCGUID@@PAVCBaseObject@@@std@@@2@@std@@QBEIXZ PROC ; std::list<std::pair<CGUID const ,CBaseObject *>,std::allocator<std::pair<CGUID const ,CBaseObject *> > >::size, COMDAT
; _this$ = ecx

; 604  : 		return (_Mysize);

  00000	8b 41 08	 mov	 eax, DWORD PTR [ecx+8]

; 605  : 		}

  00003	c3		 ret	 0
?size@?$list@U?$pair@$$CBVCGUID@@PAVCBaseObject@@@std@@V?$allocator@U?$pair@$$CBVCGUID@@PAVCBaseObject@@@std@@@2@@std@@QBEIXZ ENDP ; std::list<std::pair<CGUID const ,CBaseObject *>,std::allocator<std::pair<CGUID const ,CBaseObject *> > >::size
_TEXT	ENDS
PUBLIC	??E?$_Const_iterator@$00@?$list@U?$pair@$$CBVCGUID@@PAVCBaseObject@@@std@@V?$allocator@U?$pair@$$CBVCGUID@@PAVCBaseObject@@@std@@@2@@std@@QAEAAV012@XZ ; std::list<std::pair<CGUID const ,CBaseObject *>,std::allocator<std::pair<CGUID const ,CBaseObject *> > >::_Const_iterator<1>::operator++
; Function compile flags: /Ogtpy
;	COMDAT ??E?$_Const_iterator@$00@?$list@U?$pair@$$CBVCGUID@@PAVCBaseObject@@@std@@V?$allocator@U?$pair@$$CBVCGUID@@PAVCBaseObject@@@std@@@2@@std@@QAEAAV012@XZ
_TEXT	SEGMENT
??E?$_Const_iterator@$00@?$list@U?$pair@$$CBVCGUID@@PAVCBaseObject@@@std@@V?$allocator@U?$pair@$$CBVCGUID@@PAVCBaseObject@@@std@@@2@@std@@QAEAAV012@XZ PROC ; std::list<std::pair<CGUID const ,CBaseObject *>,std::allocator<std::pair<CGUID const ,CBaseObject *> > >::_Const_iterator<1>::operator++, COMDAT
; _this$ = ecx

; 230  : 			{	// preincrement

  00000	56		 push	 esi
  00001	8b f1		 mov	 esi, ecx

; 231  : 
; 232  :  #if _HAS_ITERATOR_DEBUGGING
; 233  : 			if (this->_Mycont == 0
; 234  : 				|| _Ptr == ((_Myt *)this->_Mycont)->_Myhead)
; 235  : 				{
; 236  : 				_DEBUG_ERROR("list iterator not incrementable");
; 237  : 				_SCL_SECURE_TRAITS_OUT_OF_RANGE;
; 238  : 				}
; 239  :  #else
; 240  : 			_SCL_SECURE_TRAITS_VALIDATE(this->_Mycont != NULL);

  00003	83 3e 00	 cmp	 DWORD PTR [esi], 0
  00006	75 05		 jne	 SHORT $LN3@operator@8
  00008	e8 00 00 00 00	 call	 __invalid_parameter_noinfo
$LN3@operator@8:

; 241  : 			_SCL_SECURE_TRAITS_VALIDATE_RANGE(_Ptr != ((_Myt *)(this->_Mycont))->_Myhead);

  0000d	8b 06		 mov	 eax, DWORD PTR [esi]
  0000f	8b 4e 04	 mov	 ecx, DWORD PTR [esi+4]
  00012	3b 48 04	 cmp	 ecx, DWORD PTR [eax+4]
  00015	75 05		 jne	 SHORT $LN1@operator@8
  00017	e8 00 00 00 00	 call	 __invalid_parameter_noinfo
$LN1@operator@8:

; 242  :  #endif /* _HAS_ITERATOR_DEBUGGING */
; 243  : 
; 244  : 			_Ptr = _Nextnode(_Ptr);

  0001c	8b 56 04	 mov	 edx, DWORD PTR [esi+4]
  0001f	8b 02		 mov	 eax, DWORD PTR [edx]
  00021	89 46 04	 mov	 DWORD PTR [esi+4], eax

; 245  : 			return (*this);

  00024	8b c6		 mov	 eax, esi
  00026	5e		 pop	 esi

; 246  : 			}

  00027	c3		 ret	 0
??E?$_Const_iterator@$00@?$list@U?$pair@$$CBVCGUID@@PAVCBaseObject@@@std@@V?$allocator@U?$pair@$$CBVCGUID@@PAVCBaseObject@@@std@@@2@@std@@QAEAAV012@XZ ENDP ; std::list<std::pair<CGUID const ,CBaseObject *>,std::allocator<std::pair<CGUID const ,CBaseObject *> > >::_Const_iterator<1>::operator++
_TEXT	ENDS
PUBLIC	??F?$_Const_iterator@$00@?$list@U?$pair@$$CBVCGUID@@PAVCBaseObject@@@std@@V?$allocator@U?$pair@$$CBVCGUID@@PAVCBaseObject@@@std@@@2@@std@@QAEAAV012@XZ ; std::list<std::pair<CGUID const ,CBaseObject *>,std::allocator<std::pair<CGUID const ,CBaseObject *> > >::_Const_iterator<1>::operator--
; Function compile flags: /Ogtpy
;	COMDAT ??F?$_Const_iterator@$00@?$list@U?$pair@$$CBVCGUID@@PAVCBaseObject@@@std@@V?$allocator@U?$pair@$$CBVCGUID@@PAVCBaseObject@@@std@@@2@@std@@QAEAAV012@XZ
_TEXT	SEGMENT
??F?$_Const_iterator@$00@?$list@U?$pair@$$CBVCGUID@@PAVCBaseObject@@@std@@V?$allocator@U?$pair@$$CBVCGUID@@PAVCBaseObject@@@std@@@2@@std@@QAEAAV012@XZ PROC ; std::list<std::pair<CGUID const ,CBaseObject *>,std::allocator<std::pair<CGUID const ,CBaseObject *> > >::_Const_iterator<1>::operator--, COMDAT
; _this$ = ecx

; 256  : 			{	// predecrement

  00000	56		 push	 esi
  00001	8b f1		 mov	 esi, ecx

; 257  : 
; 258  :  #if _HAS_ITERATOR_DEBUGGING
; 259  : 			if (this->_Mycont == 0 || (_Ptr = _Prevnode(_Ptr))
; 260  : 				== ((_Myt *)this->_Mycont)->_Myhead)
; 261  : 				{
; 262  : 				_DEBUG_ERROR("list iterator not decrementable");
; 263  : 				_SCL_SECURE_TRAITS_OUT_OF_RANGE;
; 264  : 				}
; 265  :  #else /* _HAS_ITERATOR_DEBUGGING */
; 266  : 			_SCL_SECURE_TRAITS_VALIDATE(this->_Mycont != NULL);

  00003	83 3e 00	 cmp	 DWORD PTR [esi], 0
  00006	75 05		 jne	 SHORT $LN3@operator@9
  00008	e8 00 00 00 00	 call	 __invalid_parameter_noinfo
$LN3@operator@9:

; 267  : 			_Ptr = _Prevnode(_Ptr);

  0000d	8b 46 04	 mov	 eax, DWORD PTR [esi+4]
  00010	8b 40 04	 mov	 eax, DWORD PTR [eax+4]

; 268  : 			_SCL_SECURE_TRAITS_VALIDATE_RANGE(_Ptr != ((_Myt *)(this->_Mycont))->_Myhead);

  00013	8b 0e		 mov	 ecx, DWORD PTR [esi]
  00015	89 46 04	 mov	 DWORD PTR [esi+4], eax
  00018	3b 41 04	 cmp	 eax, DWORD PTR [ecx+4]
  0001b	75 05		 jne	 SHORT $LN9@operator@9
  0001d	e8 00 00 00 00	 call	 __invalid_parameter_noinfo
$LN9@operator@9:

; 269  :  #endif /* _HAS_ITERATOR_DEBUGGING */
; 270  : 
; 271  : 			return (*this);

  00022	8b c6		 mov	 eax, esi
  00024	5e		 pop	 esi

; 272  : 			}

  00025	c3		 ret	 0
??F?$_Const_iterator@$00@?$list@U?$pair@$$CBVCGUID@@PAVCBaseObject@@@std@@V?$allocator@U?$pair@$$CBVCGUID@@PAVCBaseObject@@@std@@@2@@std@@QAEAAV012@XZ ENDP ; std::list<std::pair<CGUID const ,CBaseObject *>,std::allocator<std::pair<CGUID const ,CBaseObject *> > >::_Const_iterator<1>::operator--
_TEXT	ENDS
PUBLIC	?_Mynode@?$_Const_iterator@$00@?$list@U?$pair@$$CBVCGUID@@PAVCBaseObject@@@std@@V?$allocator@U?$pair@$$CBVCGUID@@PAVCBaseObject@@@std@@@2@@std@@QBEPAU_Node@?$_List_nod@U?$pair@$$CBVCGUID@@PAVCBaseObject@@@std@@V?$allocator@U?$pair@$$CBVCGUID@@PAVCBaseObject@@@std@@@2@@3@XZ ; std::list<std::pair<CGUID const ,CBaseObject *>,std::allocator<std::pair<CGUID const ,CBaseObject *> > >::_Const_iterator<1>::_Mynode
; Function compile flags: /Ogtpy
;	COMDAT ?_Mynode@?$_Const_iterator@$00@?$list@U?$pair@$$CBVCGUID@@PAVCBaseObject@@@std@@V?$allocator@U?$pair@$$CBVCGUID@@PAVCBaseObject@@@std@@@2@@std@@QBEPAU_Node@?$_List_nod@U?$pair@$$CBVCGUID@@PAVCBaseObject@@@std@@V?$allocator@U?$pair@$$CBVCGUID@@PAVCBaseObject@@@std@@@2@@3@XZ
_TEXT	SEGMENT
?_Mynode@?$_Const_iterator@$00@?$list@U?$pair@$$CBVCGUID@@PAVCBaseObject@@@std@@V?$allocator@U?$pair@$$CBVCGUID@@PAVCBaseObject@@@std@@@2@@std@@QBEPAU_Node@?$_List_nod@U?$pair@$$CBVCGUID@@PAVCBaseObject@@@std@@V?$allocator@U?$pair@$$CBVCGUID@@PAVCBaseObject@@@std@@@2@@3@XZ PROC ; std::list<std::pair<CGUID const ,CBaseObject *>,std::allocator<std::pair<CGUID const ,CBaseObject *> > >::_Const_iterator<1>::_Mynode, COMDAT
; _this$ = ecx

; 300  : 			return (_Ptr);

  00000	8b 41 04	 mov	 eax, DWORD PTR [ecx+4]

; 301  : 			}

  00003	c3		 ret	 0
?_Mynode@?$_Const_iterator@$00@?$list@U?$pair@$$CBVCGUID@@PAVCBaseObject@@@std@@V?$allocator@U?$pair@$$CBVCGUID@@PAVCBaseObject@@@std@@@2@@std@@QBEPAU_Node@?$_List_nod@U?$pair@$$CBVCGUID@@PAVCBaseObject@@@std@@V?$allocator@U?$pair@$$CBVCGUID@@PAVCBaseObject@@@std@@@2@@3@XZ ENDP ; std::list<std::pair<CGUID const ,CBaseObject *>,std::allocator<std::pair<CGUID const ,CBaseObject *> > >::_Const_iterator<1>::_Mynode
_TEXT	ENDS
PUBLIC	?_Mynode@?$_Const_iterator@$0A@@?$list@U?$pair@$$CBVCGUID@@PAVCBaseObject@@@std@@V?$allocator@U?$pair@$$CBVCGUID@@PAVCBaseObject@@@std@@@2@@std@@QBEPAU_Node@?$_List_nod@U?$pair@$$CBVCGUID@@PAVCBaseObject@@@std@@V?$allocator@U?$pair@$$CBVCGUID@@PAVCBaseObject@@@std@@@2@@3@XZ ; std::list<std::pair<CGUID const ,CBaseObject *>,std::allocator<std::pair<CGUID const ,CBaseObject *> > >::_Const_iterator<0>::_Mynode
; Function compile flags: /Ogtpy
;	COMDAT ?_Mynode@?$_Const_iterator@$0A@@?$list@U?$pair@$$CBVCGUID@@PAVCBaseObject@@@std@@V?$allocator@U?$pair@$$CBVCGUID@@PAVCBaseObject@@@std@@@2@@std@@QBEPAU_Node@?$_List_nod@U?$pair@$$CBVCGUID@@PAVCBaseObject@@@std@@V?$allocator@U?$pair@$$CBVCGUID@@PAVCBaseObject@@@std@@@2@@3@XZ
_TEXT	SEGMENT
?_Mynode@?$_Const_iterator@$0A@@?$list@U?$pair@$$CBVCGUID@@PAVCBaseObject@@@std@@V?$allocator@U?$pair@$$CBVCGUID@@PAVCBaseObject@@@std@@@2@@std@@QBEPAU_Node@?$_List_nod@U?$pair@$$CBVCGUID@@PAVCBaseObject@@@std@@V?$allocator@U?$pair@$$CBVCGUID@@PAVCBaseObject@@@std@@@2@@3@XZ PROC ; std::list<std::pair<CGUID const ,CBaseObject *>,std::allocator<std::pair<CGUID const ,CBaseObject *> > >::_Const_iterator<0>::_Mynode, COMDAT
; _this$ = ecx

; 300  : 			return (_Ptr);

  00000	8b 41 04	 mov	 eax, DWORD PTR [ecx+4]

; 301  : 			}

  00003	c3		 ret	 0
?_Mynode@?$_Const_iterator@$0A@@?$list@U?$pair@$$CBVCGUID@@PAVCBaseObject@@@std@@V?$allocator@U?$pair@$$CBVCGUID@@PAVCBaseObject@@@std@@@2@@std@@QBEPAU_Node@?$_List_nod@U?$pair@$$CBVCGUID@@PAVCBaseObject@@@std@@V?$allocator@U?$pair@$$CBVCGUID@@PAVCBaseObject@@@std@@@2@@3@XZ ENDP ; std::list<std::pair<CGUID const ,CBaseObject *>,std::allocator<std::pair<CGUID const ,CBaseObject *> > >::_Const_iterator<0>::_Mynode
_TEXT	ENDS
PUBLIC	??0?$_Bidit@U?$pair@$$CBVCGUID@@PAVCBaseObject@@@std@@HPBU12@ABU12@@std@@QAE@XZ ; std::_Bidit<std::pair<CGUID const ,CBaseObject *>,int,std::pair<CGUID const ,CBaseObject *> const *,std::pair<CGUID const ,CBaseObject *> const &>::_Bidit<std::pair<CGUID const ,CBaseObject *>,int,std::pair<CGUID const ,CBaseObject *> const *,std::pair<CGUID const ,CBaseObject *> const &>
; Function compile flags: /Ogtpy
;	COMDAT ??0?$_Bidit@U?$pair@$$CBVCGUID@@PAVCBaseObject@@@std@@HPBU12@ABU12@@std@@QAE@XZ
_TEXT	SEGMENT
??0?$_Bidit@U?$pair@$$CBVCGUID@@PAVCBaseObject@@@std@@HPBU12@ABU12@@std@@QAE@XZ PROC ; std::_Bidit<std::pair<CGUID const ,CBaseObject *>,int,std::pair<CGUID const ,CBaseObject *> const *,std::pair<CGUID const ,CBaseObject *> const &>::_Bidit<std::pair<CGUID const ,CBaseObject *>,int,std::pair<CGUID const ,CBaseObject *> const *,std::pair<CGUID const ,CBaseObject *> const &>, COMDAT
; _this$ = ecx
  00000	8b c1		 mov	 eax, ecx
  00002	c7 00 00 00 00
	00		 mov	 DWORD PTR [eax], 0
  00008	c3		 ret	 0
??0?$_Bidit@U?$pair@$$CBVCGUID@@PAVCBaseObject@@@std@@HPBU12@ABU12@@std@@QAE@XZ ENDP ; std::_Bidit<std::pair<CGUID const ,CBaseObject *>,int,std::pair<CGUID const ,CBaseObject *> const *,std::pair<CGUID const ,CBaseObject *> const &>::_Bidit<std::pair<CGUID const ,CBaseObject *>,int,std::pair<CGUID const ,CBaseObject *> const *,std::pair<CGUID const ,CBaseObject *> const &>
_TEXT	ENDS
PUBLIC	?deallocate@?$allocator@U_Node@?$_List_nod@U?$pair@$$CBVCGUID@@PAVCBaseObject@@@std@@V?$allocator@U?$pair@$$CBVCGUID@@PAVCBaseObject@@@std@@@2@@std@@@std@@QAEXPAU_Node@?$_List_nod@U?$pair@$$CBVCGUID@@PAVCBaseObject@@@std@@V?$allocator@U?$pair@$$CBVCGUID@@PAVCBaseObject@@@std@@@2@@2@I@Z ; std::allocator<std::_List_nod<std::pair<CGUID const ,CBaseObject *>,std::allocator<std::pair<CGUID const ,CBaseObject *> > >::_Node>::deallocate
; Function compile flags: /Ogtpy
; File d:\program files\microsoft visual studio 8\vc\include\xmemory
;	COMDAT ?deallocate@?$allocator@U_Node@?$_List_nod@U?$pair@$$CBVCGUID@@PAVCBaseObject@@@std@@V?$allocator@U?$pair@$$CBVCGUID@@PAVCBaseObject@@@std@@@2@@std@@@std@@QAEXPAU_Node@?$_List_nod@U?$pair@$$CBVCGUID@@PAVCBaseObject@@@std@@V?$allocator@U?$pair@$$CBVCGUID@@PAVCBaseObject@@@std@@@2@@2@I@Z
_TEXT	SEGMENT
__Ptr$ = 8						; size = 4
___formal$ = 12						; size = 4
?deallocate@?$allocator@U_Node@?$_List_nod@U?$pair@$$CBVCGUID@@PAVCBaseObject@@@std@@V?$allocator@U?$pair@$$CBVCGUID@@PAVCBaseObject@@@std@@@2@@std@@@std@@QAEXPAU_Node@?$_List_nod@U?$pair@$$CBVCGUID@@PAVCBaseObject@@@std@@V?$allocator@U?$pair@$$CBVCGUID@@PAVCBaseObject@@@std@@@2@@2@I@Z PROC ; std::allocator<std::_List_nod<std::pair<CGUID const ,CBaseObject *>,std::allocator<std::pair<CGUID const ,CBaseObject *> > >::_Node>::deallocate, COMDAT
; _this$ = ecx

; 141  : 		::operator delete(_Ptr);

  00000	8b 44 24 04	 mov	 eax, DWORD PTR __Ptr$[esp-4]
  00004	50		 push	 eax
  00005	e8 00 00 00 00	 call	 ??3@YAXPAX@Z		; operator delete
  0000a	59		 pop	 ecx

; 142  : 		}

  0000b	c2 08 00	 ret	 8
?deallocate@?$allocator@U_Node@?$_List_nod@U?$pair@$$CBVCGUID@@PAVCBaseObject@@@std@@V?$allocator@U?$pair@$$CBVCGUID@@PAVCBaseObject@@@std@@@2@@std@@@std@@QAEXPAU_Node@?$_List_nod@U?$pair@$$CBVCGUID@@PAVCBaseObject@@@std@@V?$allocator@U?$pair@$$CBVCGUID@@PAVCBaseObject@@@std@@@2@@2@I@Z ENDP ; std::allocator<std::_List_nod<std::pair<CGUID const ,CBaseObject *>,std::allocator<std::pair<CGUID const ,CBaseObject *> > >::_Node>::deallocate
_TEXT	ENDS
PUBLIC	?capacity@?$vector@U_List_position@?$_Hash@V?$_Hmap_traits@VCGUID@@PAVCBaseObject@@Vhash_guid_compare@@V?$allocator@U?$pair@$$CBVCGUID@@PAVCBaseObject@@@std@@@std@@$0A@@stdext@@@stdext@@V?$allocator@U_List_position@?$_Hash@V?$_Hmap_traits@VCGUID@@PAVCBaseObject@@Vhash_guid_compare@@V?$allocator@U?$pair@$$CBVCGUID@@PAVCBaseObject@@@std@@@std@@$0A@@stdext@@@stdext@@@std@@@std@@QBEIXZ ; std::vector<stdext::_Hash<stdext::_Hmap_traits<CGUID,CBaseObject *,hash_guid_compare,std::allocator<std::pair<CGUID const ,CBaseObject *> >,0> >::_List_position,std::allocator<stdext::_Hash<stdext::_Hmap_traits<CGUID,CBaseObject *,hash_guid_compare,std::allocator<std::pair<CGUID const ,CBaseObject *> >,0> >::_List_position> >::capacity
; Function compile flags: /Ogtpy
; File d:\program files\microsoft visual studio 8\vc\include\vector
;	COMDAT ?capacity@?$vector@U_List_position@?$_Hash@V?$_Hmap_traits@VCGUID@@PAVCBaseObject@@Vhash_guid_compare@@V?$allocator@U?$pair@$$CBVCGUID@@PAVCBaseObject@@@std@@@std@@$0A@@stdext@@@stdext@@V?$allocator@U_List_position@?$_Hash@V?$_Hmap_traits@VCGUID@@PAVCBaseObject@@Vhash_guid_compare@@V?$allocator@U?$pair@$$CBVCGUID@@PAVCBaseObject@@@std@@@std@@$0A@@stdext@@@stdext@@@std@@@std@@QBEIXZ
_TEXT	SEGMENT
?capacity@?$vector@U_List_position@?$_Hash@V?$_Hmap_traits@VCGUID@@PAVCBaseObject@@Vhash_guid_compare@@V?$allocator@U?$pair@$$CBVCGUID@@PAVCBaseObject@@@std@@@std@@$0A@@stdext@@@stdext@@V?$allocator@U_List_position@?$_Hash@V?$_Hmap_traits@VCGUID@@PAVCBaseObject@@Vhash_guid_compare@@V?$allocator@U?$pair@$$CBVCGUID@@PAVCBaseObject@@@std@@@std@@$0A@@stdext@@@stdext@@@std@@@std@@QBEIXZ PROC ; std::vector<stdext::_Hash<stdext::_Hmap_traits<CGUID,CBaseObject *,hash_guid_compare,std::allocator<std::pair<CGUID const ,CBaseObject *> >,0> >::_List_position,std::allocator<stdext::_Hash<stdext::_Hmap_traits<CGUID,CBaseObject *,hash_guid_compare,std::allocator<std::pair<CGUID const ,CBaseObject *> >,0> >::_List_position> >::capacity, COMDAT
; _this$ = ecx

; 622  : 		return (_Myfirst == 0 ? 0 : _Myend - _Myfirst);

  00000	8b 51 04	 mov	 edx, DWORD PTR [ecx+4]
  00003	85 d2		 test	 edx, edx
  00005	75 03		 jne	 SHORT $LN3@capacity
  00007	33 c0		 xor	 eax, eax

; 623  : 		}

  00009	c3		 ret	 0
$LN3@capacity:

; 622  : 		return (_Myfirst == 0 ? 0 : _Myend - _Myfirst);

  0000a	8b 41 0c	 mov	 eax, DWORD PTR [ecx+12]
  0000d	2b c2		 sub	 eax, edx
  0000f	c1 f8 03	 sar	 eax, 3

; 623  : 		}

  00012	c3		 ret	 0
?capacity@?$vector@U_List_position@?$_Hash@V?$_Hmap_traits@VCGUID@@PAVCBaseObject@@Vhash_guid_compare@@V?$allocator@U?$pair@$$CBVCGUID@@PAVCBaseObject@@@std@@@std@@$0A@@stdext@@@stdext@@V?$allocator@U_List_position@?$_Hash@V?$_Hmap_traits@VCGUID@@PAVCBaseObject@@Vhash_guid_compare@@V?$allocator@U?$pair@$$CBVCGUID@@PAVCBaseObject@@@std@@@std@@$0A@@stdext@@@stdext@@@std@@@std@@QBEIXZ ENDP ; std::vector<stdext::_Hash<stdext::_Hmap_traits<CGUID,CBaseObject *,hash_guid_compare,std::allocator<std::pair<CGUID const ,CBaseObject *> >,0> >::_List_position,std::allocator<stdext::_Hash<stdext::_Hmap_traits<CGUID,CBaseObject *,hash_guid_compare,std::allocator<std::pair<CGUID const ,CBaseObject *> >,0> >::_List_position> >::capacity
_TEXT	ENDS
PUBLIC	?deallocate@?$allocator@U_List_position@?$_Hash@V?$_Hmap_traits@VCGUID@@PAVCBaseObject@@Vhash_guid_compare@@V?$allocator@U?$pair@$$CBVCGUID@@PAVCBaseObject@@@std@@@std@@$0A@@stdext@@@stdext@@@std@@QAEXPAU_List_position@?$_Hash@V?$_Hmap_traits@VCGUID@@PAVCBaseObject@@Vhash_guid_compare@@V?$allocator@U?$pair@$$CBVCGUID@@PAVCBaseObject@@@std@@@std@@$0A@@stdext@@@stdext@@I@Z ; std::allocator<stdext::_Hash<stdext::_Hmap_traits<CGUID,CBaseObject *,hash_guid_compare,std::allocator<std::pair<CGUID const ,CBaseObject *> >,0> >::_List_position>::deallocate
; Function compile flags: /Ogtpy
; File d:\program files\microsoft visual studio 8\vc\include\xmemory
;	COMDAT ?deallocate@?$allocator@U_List_position@?$_Hash@V?$_Hmap_traits@VCGUID@@PAVCBaseObject@@Vhash_guid_compare@@V?$allocator@U?$pair@$$CBVCGUID@@PAVCBaseObject@@@std@@@std@@$0A@@stdext@@@stdext@@@std@@QAEXPAU_List_position@?$_Hash@V?$_Hmap_traits@VCGUID@@PAVCBaseObject@@Vhash_guid_compare@@V?$allocator@U?$pair@$$CBVCGUID@@PAVCBaseObject@@@std@@@std@@$0A@@stdext@@@stdext@@I@Z
_TEXT	SEGMENT
__Ptr$ = 8						; size = 4
___formal$ = 12						; size = 4
?deallocate@?$allocator@U_List_position@?$_Hash@V?$_Hmap_traits@VCGUID@@PAVCBaseObject@@Vhash_guid_compare@@V?$allocator@U?$pair@$$CBVCGUID@@PAVCBaseObject@@@std@@@std@@$0A@@stdext@@@stdext@@@std@@QAEXPAU_List_position@?$_Hash@V?$_Hmap_traits@VCGUID@@PAVCBaseObject@@Vhash_guid_compare@@V?$allocator@U?$pair@$$CBVCGUID@@PAVCBaseObject@@@std@@@std@@$0A@@stdext@@@stdext@@I@Z PROC ; std::allocator<stdext::_Hash<stdext::_Hmap_traits<CGUID,CBaseObject *,hash_guid_compare,std::allocator<std::pair<CGUID const ,CBaseObject *> >,0> >::_List_position>::deallocate, COMDAT
; _this$ = ecx

; 141  : 		::operator delete(_Ptr);

  00000	8b 44 24 04	 mov	 eax, DWORD PTR __Ptr$[esp-4]
  00004	50		 push	 eax
  00005	e8 00 00 00 00	 call	 ??3@YAXPAX@Z		; operator delete
  0000a	59		 pop	 ecx

; 142  : 		}

  0000b	c2 08 00	 ret	 8
?deallocate@?$allocator@U_List_position@?$_Hash@V?$_Hmap_traits@VCGUID@@PAVCBaseObject@@Vhash_guid_compare@@V?$allocator@U?$pair@$$CBVCGUID@@PAVCBaseObject@@@std@@@std@@$0A@@stdext@@@stdext@@@std@@QAEXPAU_List_position@?$_Hash@V?$_Hmap_traits@VCGUID@@PAVCBaseObject@@Vhash_guid_compare@@V?$allocator@U?$pair@$$CBVCGUID@@PAVCBaseObject@@@std@@@std@@$0A@@stdext@@@stdext@@I@Z ENDP ; std::allocator<stdext::_Hash<stdext::_Hmap_traits<CGUID,CBaseObject *,hash_guid_compare,std::allocator<std::pair<CGUID const ,CBaseObject *> >,0> >::_List_position>::deallocate
_TEXT	ENDS
PUBLIC	??0?$_Const_iterator@$00@?$list@U?$pair@$$CBVCGUID@@PAVCBaseObject@@@std@@V?$allocator@U?$pair@$$CBVCGUID@@PAVCBaseObject@@@std@@@2@@std@@QAE@PAU_Node@?$_List_nod@U?$pair@$$CBVCGUID@@PAVCBaseObject@@@std@@V?$allocator@U?$pair@$$CBVCGUID@@PAVCBaseObject@@@std@@@2@@2@PBV12@@Z ; std::list<std::pair<CGUID const ,CBaseObject *>,std::allocator<std::pair<CGUID const ,CBaseObject *> > >::_Const_iterator<1>::_Const_iterator<1>
; Function compile flags: /Ogtpy
; File d:\program files\microsoft visual studio 8\vc\include\list
;	COMDAT ??0?$_Const_iterator@$00@?$list@U?$pair@$$CBVCGUID@@PAVCBaseObject@@@std@@V?$allocator@U?$pair@$$CBVCGUID@@PAVCBaseObject@@@std@@@2@@std@@QAE@PAU_Node@?$_List_nod@U?$pair@$$CBVCGUID@@PAVCBaseObject@@@std@@V?$allocator@U?$pair@$$CBVCGUID@@PAVCBaseObject@@@std@@@2@@2@PBV12@@Z
_TEXT	SEGMENT
__Pnode$ = 8						; size = 4
__Plist$ = 12						; size = 4
??0?$_Const_iterator@$00@?$list@U?$pair@$$CBVCGUID@@PAVCBaseObject@@@std@@V?$allocator@U?$pair@$$CBVCGUID@@PAVCBaseObject@@@std@@@2@@std@@QAE@PAU_Node@?$_List_nod@U?$pair@$$CBVCGUID@@PAVCBaseObject@@@std@@V?$allocator@U?$pair@$$CBVCGUID@@PAVCBaseObject@@@std@@@2@@2@PBV12@@Z PROC ; std::list<std::pair<CGUID const ,CBaseObject *>,std::allocator<std::pair<CGUID const ,CBaseObject *> > >::_Const_iterator<1>::_Const_iterator<1>, COMDAT
; _this$ = ecx

; 172  : 			{	// construct with node pointer _Pnode

  00000	8b 44 24 04	 mov	 eax, DWORD PTR __Pnode$[esp-4]
  00004	56		 push	 esi
  00005	57		 push	 edi

; 173  : 			_SCL_SECURE_TRAITS_VALIDATE(_Plist != NULL);

  00006	8b 7c 24 10	 mov	 edi, DWORD PTR __Plist$[esp+4]
  0000a	85 ff		 test	 edi, edi
  0000c	8b f1		 mov	 esi, ecx
  0000e	c7 06 00 00 00
	00		 mov	 DWORD PTR [esi], 0
  00014	89 46 04	 mov	 DWORD PTR [esi+4], eax
  00017	75 05		 jne	 SHORT $LN9@Const_iter
  00019	e8 00 00 00 00	 call	 __invalid_parameter_noinfo
$LN9@Const_iter:

; 174  : 			this->_Mycont = _Plist;

  0001e	89 3e		 mov	 DWORD PTR [esi], edi
  00020	5f		 pop	 edi

; 175  : 			}

  00021	8b c6		 mov	 eax, esi
  00023	5e		 pop	 esi
  00024	c2 08 00	 ret	 8
??0?$_Const_iterator@$00@?$list@U?$pair@$$CBVCGUID@@PAVCBaseObject@@@std@@V?$allocator@U?$pair@$$CBVCGUID@@PAVCBaseObject@@@std@@@2@@std@@QAE@PAU_Node@?$_List_nod@U?$pair@$$CBVCGUID@@PAVCBaseObject@@@std@@V?$allocator@U?$pair@$$CBVCGUID@@PAVCBaseObject@@@std@@@2@@2@PBV12@@Z ENDP ; std::list<std::pair<CGUID const ,CBaseObject *>,std::allocator<std::pair<CGUID const ,CBaseObject *> > >::_Const_iterator<1>::_Const_iterator<1>
_TEXT	ENDS
PUBLIC	??0?$_Const_iterator@$0A@@?$list@U?$pair@$$CBVCGUID@@PAVCBaseObject@@@std@@V?$allocator@U?$pair@$$CBVCGUID@@PAVCBaseObject@@@std@@@2@@std@@QAE@PAU_Node@?$_List_nod@U?$pair@$$CBVCGUID@@PAVCBaseObject@@@std@@V?$allocator@U?$pair@$$CBVCGUID@@PAVCBaseObject@@@std@@@2@@2@PBV12@@Z ; std::list<std::pair<CGUID const ,CBaseObject *>,std::allocator<std::pair<CGUID const ,CBaseObject *> > >::_Const_iterator<0>::_Const_iterator<0>
; Function compile flags: /Ogtpy
;	COMDAT ??0?$_Const_iterator@$0A@@?$list@U?$pair@$$CBVCGUID@@PAVCBaseObject@@@std@@V?$allocator@U?$pair@$$CBVCGUID@@PAVCBaseObject@@@std@@@2@@std@@QAE@PAU_Node@?$_List_nod@U?$pair@$$CBVCGUID@@PAVCBaseObject@@@std@@V?$allocator@U?$pair@$$CBVCGUID@@PAVCBaseObject@@@std@@@2@@2@PBV12@@Z
_TEXT	SEGMENT
__Pnode$ = 8						; size = 4
__Plist$ = 12						; size = 4
??0?$_Const_iterator@$0A@@?$list@U?$pair@$$CBVCGUID@@PAVCBaseObject@@@std@@V?$allocator@U?$pair@$$CBVCGUID@@PAVCBaseObject@@@std@@@2@@std@@QAE@PAU_Node@?$_List_nod@U?$pair@$$CBVCGUID@@PAVCBaseObject@@@std@@V?$allocator@U?$pair@$$CBVCGUID@@PAVCBaseObject@@@std@@@2@@2@PBV12@@Z PROC ; std::list<std::pair<CGUID const ,CBaseObject *>,std::allocator<std::pair<CGUID const ,CBaseObject *> > >::_Const_iterator<0>::_Const_iterator<0>, COMDAT
; _this$ = ecx

; 173  : 			_SCL_SECURE_TRAITS_VALIDATE(_Plist != NULL);
; 174  : 			this->_Mycont = _Plist;

  00000	8b 54 24 08	 mov	 edx, DWORD PTR __Plist$[esp-4]
  00004	8b c1		 mov	 eax, ecx
  00006	8b 4c 24 04	 mov	 ecx, DWORD PTR __Pnode$[esp-4]
  0000a	89 48 04	 mov	 DWORD PTR [eax+4], ecx
  0000d	89 10		 mov	 DWORD PTR [eax], edx

; 175  : 			}

  0000f	c2 08 00	 ret	 8
??0?$_Const_iterator@$0A@@?$list@U?$pair@$$CBVCGUID@@PAVCBaseObject@@@std@@V?$allocator@U?$pair@$$CBVCGUID@@PAVCBaseObject@@@std@@@2@@std@@QAE@PAU_Node@?$_List_nod@U?$pair@$$CBVCGUID@@PAVCBaseObject@@@std@@V?$allocator@U?$pair@$$CBVCGUID@@PAVCBaseObject@@@std@@@2@@2@PBV12@@Z ENDP ; std::list<std::pair<CGUID const ,CBaseObject *>,std::allocator<std::pair<CGUID const ,CBaseObject *> > >::_Const_iterator<0>::_Const_iterator<0>
_TEXT	ENDS
PUBLIC	?max_size@?$allocator@U?$pair@$$CBVCGUID@@PAVCBaseObject@@@std@@@std@@QBEIXZ ; std::allocator<std::pair<CGUID const ,CBaseObject *> >::max_size
; Function compile flags: /Ogtpy
; File d:\program files\microsoft visual studio 8\vc\include\xmemory
;	COMDAT ?max_size@?$allocator@U?$pair@$$CBVCGUID@@PAVCBaseObject@@@std@@@std@@QBEIXZ
_TEXT	SEGMENT
?max_size@?$allocator@U?$pair@$$CBVCGUID@@PAVCBaseObject@@@std@@@std@@QBEIXZ PROC ; std::allocator<std::pair<CGUID const ,CBaseObject *> >::max_size, COMDAT
; _this$ = ecx

; 166  : 		_SIZT _Count = (_SIZT)(-1) / sizeof (_Ty);
; 167  : 		return (0 < _Count ? _Count : 1);

  00000	b8 cc cc cc 0c	 mov	 eax, 214748364		; 0cccccccH

; 168  : 		}

  00005	c3		 ret	 0
?max_size@?$allocator@U?$pair@$$CBVCGUID@@PAVCBaseObject@@@std@@@std@@QBEIXZ ENDP ; std::allocator<std::pair<CGUID const ,CBaseObject *> >::max_size
_TEXT	ENDS
PUBLIC	?max_size@?$allocator@U_List_position@?$_Hash@V?$_Hmap_traits@VCGUID@@PAVCBaseObject@@Vhash_guid_compare@@V?$allocator@U?$pair@$$CBVCGUID@@PAVCBaseObject@@@std@@@std@@$0A@@stdext@@@stdext@@@std@@QBEIXZ ; std::allocator<stdext::_Hash<stdext::_Hmap_traits<CGUID,CBaseObject *,hash_guid_compare,std::allocator<std::pair<CGUID const ,CBaseObject *> >,0> >::_List_position>::max_size
; Function compile flags: /Ogtpy
;	COMDAT ?max_size@?$allocator@U_List_position@?$_Hash@V?$_Hmap_traits@VCGUID@@PAVCBaseObject@@Vhash_guid_compare@@V?$allocator@U?$pair@$$CBVCGUID@@PAVCBaseObject@@@std@@@std@@$0A@@stdext@@@stdext@@@std@@QBEIXZ
_TEXT	SEGMENT
?max_size@?$allocator@U_List_position@?$_Hash@V?$_Hmap_traits@VCGUID@@PAVCBaseObject@@Vhash_guid_compare@@V?$allocator@U?$pair@$$CBVCGUID@@PAVCBaseObject@@@std@@@std@@$0A@@stdext@@@stdext@@@std@@QBEIXZ PROC ; std::allocator<stdext::_Hash<stdext::_Hmap_traits<CGUID,CBaseObject *,hash_guid_compare,std::allocator<std::pair<CGUID const ,CBaseObject *> >,0> >::_List_position>::max_size, COMDAT
; _this$ = ecx

; 166  : 		_SIZT _Count = (_SIZT)(-1) / sizeof (_Ty);
; 167  : 		return (0 < _Count ? _Count : 1);

  00000	b8 ff ff ff 1f	 mov	 eax, 536870911		; 1fffffffH

; 168  : 		}

  00005	c3		 ret	 0
?max_size@?$allocator@U_List_position@?$_Hash@V?$_Hmap_traits@VCGUID@@PAVCBaseObject@@Vhash_guid_compare@@V?$allocator@U?$pair@$$CBVCGUID@@PAVCBaseObject@@@std@@@std@@$0A@@stdext@@@stdext@@@std@@QBEIXZ ENDP ; std::allocator<stdext::_Hash<stdext::_Hmap_traits<CGUID,CBaseObject *,hash_guid_compare,std::allocator<std::pair<CGUID const ,CBaseObject *> >,0> >::_List_position>::max_size
_TEXT	ENDS
PUBLIC	??Y?$_Vector_const_iterator@U_List_position@?$_Hash@V?$_Hmap_traits@VCGUID@@PAVCBaseObject@@Vhash_guid_compare@@V?$allocator@U?$pair@$$CBVCGUID@@PAVCBaseObject@@@std@@@std@@$0A@@stdext@@@stdext@@V?$allocator@U_List_position@?$_Hash@V?$_Hmap_traits@VCGUID@@PAVCBaseObject@@Vhash_guid_compare@@V?$allocator@U?$pair@$$CBVCGUID@@PAVCBaseObject@@@std@@@std@@$0A@@stdext@@@stdext@@@std@@@std@@QAEAAV01@H@Z ; std::_Vector_const_iterator<stdext::_Hash<stdext::_Hmap_traits<CGUID,CBaseObject *,hash_guid_compare,std::allocator<std::pair<CGUID const ,CBaseObject *> >,0> >::_List_position,std::allocator<stdext::_Hash<stdext::_Hmap_traits<CGUID,CBaseObject *,hash_guid_compare,std::allocator<std::pair<CGUID const ,CBaseObject *> >,0> >::_List_position> >::operator+=
; Function compile flags: /Ogtpy
; File d:\program files\microsoft visual studio 8\vc\include\vector
;	COMDAT ??Y?$_Vector_const_iterator@U_List_position@?$_Hash@V?$_Hmap_traits@VCGUID@@PAVCBaseObject@@Vhash_guid_compare@@V?$allocator@U?$pair@$$CBVCGUID@@PAVCBaseObject@@@std@@@std@@$0A@@stdext@@@stdext@@V?$allocator@U_List_position@?$_Hash@V?$_Hmap_traits@VCGUID@@PAVCBaseObject@@Vhash_guid_compare@@V?$allocator@U?$pair@$$CBVCGUID@@PAVCBaseObject@@@std@@@std@@$0A@@stdext@@@stdext@@@std@@@std@@QAEAAV01@H@Z
_TEXT	SEGMENT
__Off$ = 8						; size = 4
??Y?$_Vector_const_iterator@U_List_position@?$_Hash@V?$_Hmap_traits@VCGUID@@PAVCBaseObject@@Vhash_guid_compare@@V?$allocator@U?$pair@$$CBVCGUID@@PAVCBaseObject@@@std@@@std@@$0A@@stdext@@@stdext@@V?$allocator@U_List_position@?$_Hash@V?$_Hmap_traits@VCGUID@@PAVCBaseObject@@Vhash_guid_compare@@V?$allocator@U?$pair@$$CBVCGUID@@PAVCBaseObject@@@std@@@std@@$0A@@stdext@@@stdext@@@std@@@std@@QAEAAV01@H@Z PROC ; std::_Vector_const_iterator<stdext::_Hash<stdext::_Hmap_traits<CGUID,CBaseObject *,hash_guid_compare,std::allocator<std::pair<CGUID const ,CBaseObject *> >,0> >::_List_position,std::allocator<stdext::_Hash<stdext::_Hmap_traits<CGUID,CBaseObject *,hash_guid_compare,std::allocator<std::pair<CGUID const ,CBaseObject *> >,0> >::_List_position> >::operator+=, COMDAT
; _this$ = ecx

; 146  : 		{	// increment by integer

  00000	56		 push	 esi
  00001	8b f1		 mov	 esi, ecx

; 147  : 		_SCL_SECURE_VALIDATE(this->_Mycont != NULL);

  00003	83 3e 00	 cmp	 DWORD PTR [esi], 0
  00006	57		 push	 edi
  00007	75 05		 jne	 SHORT $LN3@operator@10
  00009	e8 00 00 00 00	 call	 __invalid_parameter_noinfo
$LN3@operator@10:

; 148  : 		_SCL_SECURE_VALIDATE_RANGE(

  0000e	8b 7c 24 0c	 mov	 edi, DWORD PTR __Off$[esp+4]
  00012	8b 46 04	 mov	 eax, DWORD PTR [esi+4]
  00015	8b 0e		 mov	 ecx, DWORD PTR [esi]
  00017	03 ff		 add	 edi, edi
  00019	03 ff		 add	 edi, edi
  0001b	03 ff		 add	 edi, edi
  0001d	03 c7		 add	 eax, edi
  0001f	3b 41 08	 cmp	 eax, DWORD PTR [ecx+8]
  00022	77 05		 ja	 SHORT $LN1@operator@10
  00024	3b 41 04	 cmp	 eax, DWORD PTR [ecx+4]
  00027	73 05		 jae	 SHORT $LN6@operator@10
$LN1@operator@10:

; 149  : 			_Myptr + _Off <= ((_Myvec *)(this->_Mycont))->_Mylast &&
; 150  : 			_Myptr + _Off >= ((_Myvec *)(this->_Mycont))->_Myfirst);

  00029	e8 00 00 00 00	 call	 __invalid_parameter_noinfo
$LN6@operator@10:

; 151  : 		_Myptr += _Off;

  0002e	01 7e 04	 add	 DWORD PTR [esi+4], edi
  00031	5f		 pop	 edi

; 152  : 		return (*this);

  00032	8b c6		 mov	 eax, esi
  00034	5e		 pop	 esi

; 153  : 		}

  00035	c2 04 00	 ret	 4
??Y?$_Vector_const_iterator@U_List_position@?$_Hash@V?$_Hmap_traits@VCGUID@@PAVCBaseObject@@Vhash_guid_compare@@V?$allocator@U?$pair@$$CBVCGUID@@PAVCBaseObject@@@std@@@std@@$0A@@stdext@@@stdext@@V?$allocator@U_List_position@?$_Hash@V?$_Hmap_traits@VCGUID@@PAVCBaseObject@@Vhash_guid_compare@@V?$allocator@U?$pair@$$CBVCGUID@@PAVCBaseObject@@@std@@@std@@$0A@@stdext@@@stdext@@@std@@@std@@QAEAAV01@H@Z ENDP ; std::_Vector_const_iterator<stdext::_Hash<stdext::_Hmap_traits<CGUID,CBaseObject *,hash_guid_compare,std::allocator<std::pair<CGUID const ,CBaseObject *> >,0> >::_List_position,std::allocator<stdext::_Hash<stdext::_Hmap_traits<CGUID,CBaseObject *,hash_guid_compare,std::allocator<std::pair<CGUID const ,CBaseObject *> >,0> >::_List_position> >::operator+=
_TEXT	ENDS
PUBLIC	??8?$_Vector_const_iterator@U_List_position@?$_Hash@V?$_Hmap_traits@VCGUID@@PAVCBaseObject@@Vhash_guid_compare@@V?$allocator@U?$pair@$$CBVCGUID@@PAVCBaseObject@@@std@@@std@@$0A@@stdext@@@stdext@@V?$allocator@U_List_position@?$_Hash@V?$_Hmap_traits@VCGUID@@PAVCBaseObject@@Vhash_guid_compare@@V?$allocator@U?$pair@$$CBVCGUID@@PAVCBaseObject@@@std@@@std@@$0A@@stdext@@@stdext@@@std@@@std@@QBE_NABV01@@Z ; std::_Vector_const_iterator<stdext::_Hash<stdext::_Hmap_traits<CGUID,CBaseObject *,hash_guid_compare,std::allocator<std::pair<CGUID const ,CBaseObject *> >,0> >::_List_position,std::allocator<stdext::_Hash<stdext::_Hmap_traits<CGUID,CBaseObject *,hash_guid_compare,std::allocator<std::pair<CGUID const ,CBaseObject *> >,0> >::_List_position> >::operator==
; Function compile flags: /Ogtpy
;	COMDAT ??8?$_Vector_const_iterator@U_List_position@?$_Hash@V?$_Hmap_traits@VCGUID@@PAVCBaseObject@@Vhash_guid_compare@@V?$allocator@U?$pair@$$CBVCGUID@@PAVCBaseObject@@@std@@@std@@$0A@@stdext@@@stdext@@V?$allocator@U_List_position@?$_Hash@V?$_Hmap_traits@VCGUID@@PAVCBaseObject@@Vhash_guid_compare@@V?$allocator@U?$pair@$$CBVCGUID@@PAVCBaseObject@@@std@@@std@@$0A@@stdext@@@stdext@@@std@@@std@@QBE_NABV01@@Z
_TEXT	SEGMENT
__Right$ = 8						; size = 4
??8?$_Vector_const_iterator@U_List_position@?$_Hash@V?$_Hmap_traits@VCGUID@@PAVCBaseObject@@Vhash_guid_compare@@V?$allocator@U?$pair@$$CBVCGUID@@PAVCBaseObject@@@std@@@std@@$0A@@stdext@@@stdext@@V?$allocator@U_List_position@?$_Hash@V?$_Hmap_traits@VCGUID@@PAVCBaseObject@@Vhash_guid_compare@@V?$allocator@U?$pair@$$CBVCGUID@@PAVCBaseObject@@@std@@@std@@$0A@@stdext@@@stdext@@@std@@@std@@QBE_NABV01@@Z PROC ; std::_Vector_const_iterator<stdext::_Hash<stdext::_Hmap_traits<CGUID,CBaseObject *,hash_guid_compare,std::allocator<std::pair<CGUID const ,CBaseObject *> >,0> >::_List_position,std::allocator<stdext::_Hash<stdext::_Hmap_traits<CGUID,CBaseObject *,hash_guid_compare,std::allocator<std::pair<CGUID const ,CBaseObject *> >,0> >::_List_position> >::operator==, COMDAT
; _this$ = ecx

; 190  : 		{	// test for iterator equality

  00000	56		 push	 esi
  00001	8b f1		 mov	 esi, ecx

; 191  : 
; 192  :  #if _HAS_ITERATOR_DEBUGGING
; 193  : 		_Compat(_Right);
; 194  :  #else
; 195  : 		_SCL_SECURE_VALIDATE(this->_Mycont != NULL && this->_Mycont == _Right._Mycont);

  00003	8b 06		 mov	 eax, DWORD PTR [esi]
  00005	85 c0		 test	 eax, eax
  00007	57		 push	 edi
  00008	8b 7c 24 0c	 mov	 edi, DWORD PTR __Right$[esp+4]
  0000c	74 04		 je	 SHORT $LN1@operator@11
  0000e	3b 07		 cmp	 eax, DWORD PTR [edi]
  00010	74 05		 je	 SHORT $LN2@operator@11
$LN1@operator@11:
  00012	e8 00 00 00 00	 call	 __invalid_parameter_noinfo
$LN2@operator@11:

; 196  :  #endif /* _HAS_ITERATOR_DEBUGGING */
; 197  : 
; 198  : 		return (_Myptr == _Right._Myptr);

  00017	8b 46 04	 mov	 eax, DWORD PTR [esi+4]
  0001a	33 c9		 xor	 ecx, ecx
  0001c	3b 47 04	 cmp	 eax, DWORD PTR [edi+4]
  0001f	5f		 pop	 edi
  00020	0f 94 c1	 sete	 cl
  00023	8a c1		 mov	 al, cl
  00025	5e		 pop	 esi

; 199  : 		}

  00026	c2 04 00	 ret	 4
??8?$_Vector_const_iterator@U_List_position@?$_Hash@V?$_Hmap_traits@VCGUID@@PAVCBaseObject@@Vhash_guid_compare@@V?$allocator@U?$pair@$$CBVCGUID@@PAVCBaseObject@@@std@@@std@@$0A@@stdext@@@stdext@@V?$allocator@U_List_position@?$_Hash@V?$_Hmap_traits@VCGUID@@PAVCBaseObject@@Vhash_guid_compare@@V?$allocator@U?$pair@$$CBVCGUID@@PAVCBaseObject@@@std@@@std@@$0A@@stdext@@@stdext@@@std@@@std@@QBE_NABV01@@Z ENDP ; std::_Vector_const_iterator<stdext::_Hash<stdext::_Hmap_traits<CGUID,CBaseObject *,hash_guid_compare,std::allocator<std::pair<CGUID const ,CBaseObject *> >,0> >::_List_position,std::allocator<stdext::_Hash<stdext::_Hmap_traits<CGUID,CBaseObject *,hash_guid_compare,std::allocator<std::pair<CGUID const ,CBaseObject *> >,0> >::_List_position> >::operator==
_TEXT	ENDS
PUBLIC	??0?$_Ranit@U_List_position@?$_Hash@V?$_Hmap_traits@VCGUID@@PAVCBaseObject@@Vhash_guid_compare@@V?$allocator@U?$pair@$$CBVCGUID@@PAVCBaseObject@@@std@@@std@@$0A@@stdext@@@stdext@@HPBU123@ABU123@@std@@QAE@XZ ; std::_Ranit<stdext::_Hash<stdext::_Hmap_traits<CGUID,CBaseObject *,hash_guid_compare,std::allocator<std::pair<CGUID const ,CBaseObject *> >,0> >::_List_position,int,stdext::_Hash<stdext::_Hmap_traits<CGUID,CBaseObject *,hash_guid_compare,std::allocator<std::pair<CGUID const ,CBaseObject *> >,0> >::_List_position const *,stdext::_Hash<stdext::_Hmap_traits<CGUID,CBaseObject *,hash_guid_compare,std::allocator<std::pair<CGUID const ,CBaseObject *> >,0> >::_List_position const &>::_Ranit<stdext::_Hash<stdext::_Hmap_traits<CGUID,CBaseObject *,hash_guid_compare,std::allocator<std::pair<CGUID const ,CBaseObject *> >,0> >::_List_position,int,stdext::_Hash<stdext::_Hmap_traits<CGUID,CBaseObject *,hash_guid_compare,std::allocator<std::pair<CGUID const ,CBaseObject *> >,0> >::_List_position const *,stdext::_Hash<stdext::_Hmap_traits<CGUID,CBaseObject *,hash_guid_compare,std::allocator<std::pair<CGUID const ,CBaseObject *> >,0> >::_List_position const &>
; Function compile flags: /Ogtpy
;	COMDAT ??0?$_Ranit@U_List_position@?$_Hash@V?$_Hmap_traits@VCGUID@@PAVCBaseObject@@Vhash_guid_compare@@V?$allocator@U?$pair@$$CBVCGUID@@PAVCBaseObject@@@std@@@std@@$0A@@stdext@@@stdext@@HPBU123@ABU123@@std@@QAE@XZ
_TEXT	SEGMENT
??0?$_Ranit@U_List_position@?$_Hash@V?$_Hmap_traits@VCGUID@@PAVCBaseObject@@Vhash_guid_compare@@V?$allocator@U?$pair@$$CBVCGUID@@PAVCBaseObject@@@std@@@std@@$0A@@stdext@@@stdext@@HPBU123@ABU123@@std@@QAE@XZ PROC ; std::_Ranit<stdext::_Hash<stdext::_Hmap_traits<CGUID,CBaseObject *,hash_guid_compare,std::allocator<std::pair<CGUID const ,CBaseObject *> >,0> >::_List_position,int,stdext::_Hash<stdext::_Hmap_traits<CGUID,CBaseObject *,hash_guid_compare,std::allocator<std::pair<CGUID const ,CBaseObject *> >,0> >::_List_position const *,stdext::_Hash<stdext::_Hmap_traits<CGUID,CBaseObject *,hash_guid_compare,std::allocator<std::pair<CGUID const ,CBaseObject *> >,0> >::_List_position const &>::_Ranit<stdext::_Hash<stdext::_Hmap_traits<CGUID,CBaseObject *,hash_guid_compare,std::allocator<std::pair<CGUID const ,CBaseObject *> >,0> >::_List_position,int,stdext::_Hash<stdext::_Hmap_traits<CGUID,CBaseObject *,hash_guid_compare,std::allocator<std::pair<CGUID const ,CBaseObject *> >,0> >::_List_position const *,stdext::_Hash<stdext::_Hmap_traits<CGUID,CBaseObject *,hash_guid_compare,std::allocator<std::pair<CGUID const ,CBaseObject *> >,0> >::_List_position const &>, COMDAT
; _this$ = ecx
  00000	8b c1		 mov	 eax, ecx
  00002	c7 00 00 00 00
	00		 mov	 DWORD PTR [eax], 0
  00008	c3		 ret	 0
??0?$_Ranit@U_List_position@?$_Hash@V?$_Hmap_traits@VCGUID@@PAVCBaseObject@@Vhash_guid_compare@@V?$allocator@U?$pair@$$CBVCGUID@@PAVCBaseObject@@@std@@@std@@$0A@@stdext@@@stdext@@HPBU123@ABU123@@std@@QAE@XZ ENDP ; std::_Ranit<stdext::_Hash<stdext::_Hmap_traits<CGUID,CBaseObject *,hash_guid_compare,std::allocator<std::pair<CGUID const ,CBaseObject *> >,0> >::_List_position,int,stdext::_Hash<stdext::_Hmap_traits<CGUID,CBaseObject *,hash_guid_compare,std::allocator<std::pair<CGUID const ,CBaseObject *> >,0> >::_List_position const *,stdext::_Hash<stdext::_Hmap_traits<CGUID,CBaseObject *,hash_guid_compare,std::allocator<std::pair<CGUID const ,CBaseObject *> >,0> >::_List_position const &>::_Ranit<stdext::_Hash<stdext::_Hmap_traits<CGUID,CBaseObject *,hash_guid_compare,std::allocator<std::pair<CGUID const ,CBaseObject *> >,0> >::_List_position,int,stdext::_Hash<stdext::_Hmap_traits<CGUID,CBaseObject *,hash_guid_compare,std::allocator<std::pair<CGUID const ,CBaseObject *> >,0> >::_List_position const *,stdext::_Hash<stdext::_Hmap_traits<CGUID,CBaseObject *,hash_guid_compare,std::allocator<std::pair<CGUID const ,CBaseObject *> >,0> >::_List_position const &>
_TEXT	ENDS
PUBLIC	??$_Char_traits_cat@U?$char_traits@D@std@@@std@@YA?AU_Secure_char_traits_tag@0@XZ ; std::_Char_traits_cat<std::char_traits<char> >
; Function compile flags: /Ogtpy
; File d:\program files\microsoft visual studio 8\vc\include\iosfwd
;	COMDAT ??$_Char_traits_cat@U?$char_traits@D@std@@@std@@YA?AU_Secure_char_traits_tag@0@XZ
_TEXT	SEGMENT
__Secure$ = -1						; size = 1
??$_Char_traits_cat@U?$char_traits@D@std@@@std@@YA?AU_Secure_char_traits_tag@0@XZ PROC ; std::_Char_traits_cat<std::char_traits<char> >, COMDAT

; 568  : 	{

  00000	51		 push	 ecx

; 569  : 		typename _Char_traits_category<_Traits>::_Secure_char_traits _Secure;
; 570  : 		return (_Secure);

  00001	8a 44 24 03	 mov	 al, BYTE PTR __Secure$[esp+4]

; 571  : 	}

  00005	59		 pop	 ecx
  00006	c3		 ret	 0
??$_Char_traits_cat@U?$char_traits@D@std@@@std@@YA?AU_Secure_char_traits_tag@0@XZ ENDP ; std::_Char_traits_cat<std::char_traits<char> >
_TEXT	ENDS
PUBLIC	??$copy_s@U?$char_traits@D@std@@@_Traits_helper@std@@YAPADPADIPBDIU_Secure_char_traits_tag@1@@Z ; std::_Traits_helper::copy_s<std::char_traits<char> >
; Function compile flags: /Ogtpy
;	COMDAT ??$copy_s@U?$char_traits@D@std@@@_Traits_helper@std@@YAPADPADIPBDIU_Secure_char_traits_tag@1@@Z
_TEXT	SEGMENT
__First1$ = 8						; size = 4
__Size$ = 12						; size = 4
__First2$ = 16						; size = 4
__Count$ = 20						; size = 4
___formal$ = 24						; size = 1
??$copy_s@U?$char_traits@D@std@@@_Traits_helper@std@@YAPADPADIPBDIU_Secure_char_traits_tag@1@@Z PROC ; std::_Traits_helper::copy_s<std::char_traits<char> >, COMDAT

; 590  : 		return _Traits::_Copy_s(_First1, _Size, _First2, _Count);

  00000	8b 44 24 10	 mov	 eax, DWORD PTR __Count$[esp-4]
  00004	8b 4c 24 0c	 mov	 ecx, DWORD PTR __First2$[esp-4]
  00008	8b 54 24 08	 mov	 edx, DWORD PTR __Size$[esp-4]
  0000c	56		 push	 esi
  0000d	8b 74 24 08	 mov	 esi, DWORD PTR __First1$[esp]
  00011	50		 push	 eax
  00012	51		 push	 ecx
  00013	52		 push	 edx
  00014	56		 push	 esi
  00015	e8 00 00 00 00	 call	 _memcpy_s
  0001a	83 c4 10	 add	 esp, 16			; 00000010H
  0001d	8b c6		 mov	 eax, esi
  0001f	5e		 pop	 esi

; 591  : 	}

  00020	c3		 ret	 0
??$copy_s@U?$char_traits@D@std@@@_Traits_helper@std@@YAPADPADIPBDIU_Secure_char_traits_tag@1@@Z ENDP ; std::_Traits_helper::copy_s<std::char_traits<char> >
_TEXT	ENDS
PUBLIC	??$move_s@U?$char_traits@D@std@@@_Traits_helper@std@@YAPADPADIPBDIU_Secure_char_traits_tag@1@@Z ; std::_Traits_helper::move_s<std::char_traits<char> >
; Function compile flags: /Ogtpy
;	COMDAT ??$move_s@U?$char_traits@D@std@@@_Traits_helper@std@@YAPADPADIPBDIU_Secure_char_traits_tag@1@@Z
_TEXT	SEGMENT
__First1$ = 8						; size = 4
__Size$ = 12						; size = 4
__First2$ = 16						; size = 4
__Count$ = 20						; size = 4
___formal$ = 24						; size = 1
??$move_s@U?$char_traits@D@std@@@_Traits_helper@std@@YAPADPADIPBDIU_Secure_char_traits_tag@1@@Z PROC ; std::_Traits_helper::move_s<std::char_traits<char> >, COMDAT

; 617  : 		return _Traits::_Move_s(_First1, _Size, _First2, _Count);

  00000	8b 44 24 10	 mov	 eax, DWORD PTR __Count$[esp-4]
  00004	8b 4c 24 0c	 mov	 ecx, DWORD PTR __First2$[esp-4]
  00008	8b 54 24 08	 mov	 edx, DWORD PTR __Size$[esp-4]
  0000c	56		 push	 esi
  0000d	8b 74 24 08	 mov	 esi, DWORD PTR __First1$[esp]
  00011	50		 push	 eax
  00012	51		 push	 ecx
  00013	52		 push	 edx
  00014	56		 push	 esi
  00015	e8 00 00 00 00	 call	 _memmove_s
  0001a	83 c4 10	 add	 esp, 16			; 00000010H
  0001d	8b c6		 mov	 eax, esi
  0001f	5e		 pop	 esi

; 618  : 	}

  00020	c3		 ret	 0
??$move_s@U?$char_traits@D@std@@@_Traits_helper@std@@YAPADPADIPBDIU_Secure_char_traits_tag@1@@Z ENDP ; std::_Traits_helper::move_s<std::char_traits<char> >
_TEXT	ENDS
PUBLIC	??$?8U?$pair@$$CBVCGUID@@PAVCBaseObject@@@std@@U01@@std@@YA_NABV?$allocator@U?$pair@$$CBVCGUID@@PAVCBaseObject@@@std@@@0@0@Z ; std::operator==<std::pair<CGUID const ,CBaseObject *>,std::pair<CGUID const ,CBaseObject *> >
; Function compile flags: /Ogtpy
; File d:\program files\microsoft visual studio 8\vc\include\xmemory
;	COMDAT ??$?8U?$pair@$$CBVCGUID@@PAVCBaseObject@@@std@@U01@@std@@YA_NABV?$allocator@U?$pair@$$CBVCGUID@@PAVCBaseObject@@@std@@@0@0@Z
_TEXT	SEGMENT
___formal$ = 8						; size = 4
___formal$ = 12						; size = 4
??$?8U?$pair@$$CBVCGUID@@PAVCBaseObject@@@std@@U01@@std@@YA_NABV?$allocator@U?$pair@$$CBVCGUID@@PAVCBaseObject@@@std@@@0@0@Z PROC ; std::operator==<std::pair<CGUID const ,CBaseObject *>,std::pair<CGUID const ,CBaseObject *> >, COMDAT

; 176  : 	return (true);

  00000	b0 01		 mov	 al, 1

; 177  : 	}

  00002	c3		 ret	 0
??$?8U?$pair@$$CBVCGUID@@PAVCBaseObject@@@std@@U01@@std@@YA_NABV?$allocator@U?$pair@$$CBVCGUID@@PAVCBaseObject@@@std@@@0@0@Z ENDP ; std::operator==<std::pair<CGUID const ,CBaseObject *>,std::pair<CGUID const ,CBaseObject *> >
_TEXT	ENDS
PUBLIC	??$_Allocate@U_List_position@?$_Hash@V?$_Hmap_traits@VCGUID@@PAVCBaseObject@@Vhash_guid_compare@@V?$allocator@U?$pair@$$CBVCGUID@@PAVCBaseObject@@@std@@@std@@$0A@@stdext@@@stdext@@@std@@YAPAU_List_position@?$_Hash@V?$_Hmap_traits@VCGUID@@PAVCBaseObject@@Vhash_guid_compare@@V?$allocator@U?$pair@$$CBVCGUID@@PAVCBaseObject@@@std@@@std@@$0A@@stdext@@@stdext@@IPAU123@@Z ; std::_Allocate<stdext::_Hash<stdext::_Hmap_traits<CGUID,CBaseObject *,hash_guid_compare,std::allocator<std::pair<CGUID const ,CBaseObject *> >,0> >::_List_position>
; Function compile flags: /Ogtpy
;	COMDAT ??$_Allocate@U_List_position@?$_Hash@V?$_Hmap_traits@VCGUID@@PAVCBaseObject@@Vhash_guid_compare@@V?$allocator@U?$pair@$$CBVCGUID@@PAVCBaseObject@@@std@@@std@@$0A@@stdext@@@stdext@@@std@@YAPAU_List_position@?$_Hash@V?$_Hmap_traits@VCGUID@@PAVCBaseObject@@Vhash_guid_compare@@V?$allocator@U?$pair@$$CBVCGUID@@PAVCBaseObject@@@std@@@std@@$0A@@stdext@@@stdext@@IPAU123@@Z
_TEXT	SEGMENT
$T295535 = -12						; size = 12
$T295539 = 8						; size = 4
__Count$ = 8						; size = 4
___formal$ = 12						; size = 4
??$_Allocate@U_List_position@?$_Hash@V?$_Hmap_traits@VCGUID@@PAVCBaseObject@@Vhash_guid_compare@@V?$allocator@U?$pair@$$CBVCGUID@@PAVCBaseObject@@@std@@@std@@$0A@@stdext@@@stdext@@@std@@YAPAU_List_position@?$_Hash@V?$_Hmap_traits@VCGUID@@PAVCBaseObject@@Vhash_guid_compare@@V?$allocator@U?$pair@$$CBVCGUID@@PAVCBaseObject@@@std@@@std@@$0A@@stdext@@@stdext@@IPAU123@@Z PROC ; std::_Allocate<stdext::_Hash<stdext::_Hmap_traits<CGUID,CBaseObject *,hash_guid_compare,std::allocator<std::pair<CGUID const ,CBaseObject *> >,0> >::_List_position>, COMDAT

; 38   : 	if (_Count <= 0)

  00000	8b 4c 24 04	 mov	 ecx, DWORD PTR __Count$[esp-4]
  00004	83 ec 0c	 sub	 esp, 12			; 0000000cH
  00007	85 c9		 test	 ecx, ecx
  00009	77 16		 ja	 SHORT $LN3@Allocate@2

; 39   : 		_Count = 0;

  0000b	33 c9		 xor	 ecx, ecx
$LN1@Allocate@2:

; 42   : 
; 43   : 		// allocate storage for _Count elements of type _Ty
; 44   : 	return ((_Ty _FARQ *)::operator new(_Count * sizeof (_Ty)));

  0000d	8d 14 cd 00 00
	00 00		 lea	 edx, DWORD PTR [ecx*8]
  00014	52		 push	 edx
  00015	e8 00 00 00 00	 call	 ??2@YAPAXI@Z		; operator new
  0001a	83 c4 04	 add	 esp, 4

; 45   : 	}

  0001d	83 c4 0c	 add	 esp, 12			; 0000000cH
  00020	c3		 ret	 0
$LN3@Allocate@2:

; 40   : 	else if (((_SIZT)(-1) / _Count) < sizeof (_Ty))

  00021	83 c8 ff	 or	 eax, -1
  00024	33 d2		 xor	 edx, edx
  00026	f7 f1		 div	 ecx
  00028	83 f8 08	 cmp	 eax, 8
  0002b	73 e0		 jae	 SHORT $LN1@Allocate@2

; 41   : 		_THROW_NCEE(std::bad_alloc, NULL);

  0002d	8d 44 24 10	 lea	 eax, DWORD PTR $T295539[esp+8]
  00031	50		 push	 eax
  00032	8d 4c 24 04	 lea	 ecx, DWORD PTR $T295535[esp+16]
  00036	c7 44 24 14 00
	00 00 00	 mov	 DWORD PTR $T295539[esp+12], 0
  0003e	e8 00 00 00 00	 call	 ??0exception@std@@QAE@ABQBD@Z ; std::exception::exception
  00043	68 00 00 00 00	 push	 OFFSET __TI2?AVbad_alloc@std@@
  00048	8d 4c 24 04	 lea	 ecx, DWORD PTR $T295535[esp+16]
  0004c	51		 push	 ecx
  0004d	c7 44 24 08 00
	00 00 00	 mov	 DWORD PTR $T295535[esp+20], OFFSET ??_7bad_alloc@std@@6B@
  00055	e8 00 00 00 00	 call	 __CxxThrowException@8
$LN9@Allocate@2:
$LN8@Allocate@2:
  0005a	cc		 int	 3
??$_Allocate@U_List_position@?$_Hash@V?$_Hmap_traits@VCGUID@@PAVCBaseObject@@Vhash_guid_compare@@V?$allocator@U?$pair@$$CBVCGUID@@PAVCBaseObject@@@std@@@std@@$0A@@stdext@@@stdext@@@std@@YAPAU_List_position@?$_Hash@V?$_Hmap_traits@VCGUID@@PAVCBaseObject@@Vhash_guid_compare@@V?$allocator@U?$pair@$$CBVCGUID@@PAVCBaseObject@@@std@@@std@@$0A@@stdext@@@stdext@@IPAU123@@Z ENDP ; std::_Allocate<stdext::_Hash<stdext::_Hmap_traits<CGUID,CBaseObject *,hash_guid_compare,std::allocator<std::pair<CGUID const ,CBaseObject *> >,0> >::_List_position>
_TEXT	ENDS
PUBLIC	??$_Construct@U?$pair@$$CBVCGUID@@PAVCBaseObject@@@std@@U12@@std@@YAXPAU?$pair@$$CBVCGUID@@PAVCBaseObject@@@0@ABU10@@Z ; std::_Construct<std::pair<CGUID const ,CBaseObject *>,std::pair<CGUID const ,CBaseObject *> >
; Function compile flags: /Ogtpy
;	COMDAT ??$_Construct@U?$pair@$$CBVCGUID@@PAVCBaseObject@@@std@@U12@@std@@YAXPAU?$pair@$$CBVCGUID@@PAVCBaseObject@@@0@ABU10@@Z
_TEXT	SEGMENT
__Ptr$ = 8						; size = 4
__Val$ = 12						; size = 4
??$_Construct@U?$pair@$$CBVCGUID@@PAVCBaseObject@@@std@@U12@@std@@YAXPAU?$pair@$$CBVCGUID@@PAVCBaseObject@@@0@ABU10@@Z PROC ; std::_Construct<std::pair<CGUID const ,CBaseObject *>,std::pair<CGUID const ,CBaseObject *> >, COMDAT

; 52   : 	void _FARQ *_Vptr = _Ptr;
; 53   : 	::new (_Vptr) _T1(_Val);

  00000	8b 44 24 04	 mov	 eax, DWORD PTR __Ptr$[esp-4]
  00004	85 c0		 test	 eax, eax
  00006	74 1c		 je	 SHORT $LN3@Construct
  00008	8b 4c 24 08	 mov	 ecx, DWORD PTR __Val$[esp-4]
  0000c	f3 0f 7e 01	 movq	 xmm0, QWORD PTR [ecx]
  00010	66 0f d6 00	 movq	 QWORD PTR [eax], xmm0
  00014	f3 0f 7e 41 08	 movq	 xmm0, QWORD PTR [ecx+8]
  00019	66 0f d6 40 08	 movq	 QWORD PTR [eax+8], xmm0
  0001e	8b 49 10	 mov	 ecx, DWORD PTR [ecx+16]
  00021	89 48 10	 mov	 DWORD PTR [eax+16], ecx
$LN3@Construct:

; 54   : 	}

  00024	c3		 ret	 0
??$_Construct@U?$pair@$$CBVCGUID@@PAVCBaseObject@@@std@@U12@@std@@YAXPAU?$pair@$$CBVCGUID@@PAVCBaseObject@@@0@ABU10@@Z ENDP ; std::_Construct<std::pair<CGUID const ,CBaseObject *>,std::pair<CGUID const ,CBaseObject *> >
_TEXT	ENDS
PUBLIC	??$_Allocate@U_Node@?$_List_nod@U?$pair@$$CBVCGUID@@PAVCBaseObject@@@std@@V?$allocator@U?$pair@$$CBVCGUID@@PAVCBaseObject@@@std@@@2@@std@@@std@@YAPAU_Node@?$_List_nod@U?$pair@$$CBVCGUID@@PAVCBaseObject@@@std@@V?$allocator@U?$pair@$$CBVCGUID@@PAVCBaseObject@@@std@@@2@@0@IPAU120@@Z ; std::_Allocate<std::_List_nod<std::pair<CGUID const ,CBaseObject *>,std::allocator<std::pair<CGUID const ,CBaseObject *> > >::_Node>
; Function compile flags: /Ogtpy
;	COMDAT ??$_Allocate@U_Node@?$_List_nod@U?$pair@$$CBVCGUID@@PAVCBaseObject@@@std@@V?$allocator@U?$pair@$$CBVCGUID@@PAVCBaseObject@@@std@@@2@@std@@@std@@YAPAU_Node@?$_List_nod@U?$pair@$$CBVCGUID@@PAVCBaseObject@@@std@@V?$allocator@U?$pair@$$CBVCGUID@@PAVCBaseObject@@@std@@@2@@0@IPAU120@@Z
_TEXT	SEGMENT
$T295554 = -12						; size = 12
$T295558 = 8						; size = 4
__Count$ = 8						; size = 4
___formal$ = 12						; size = 4
??$_Allocate@U_Node@?$_List_nod@U?$pair@$$CBVCGUID@@PAVCBaseObject@@@std@@V?$allocator@U?$pair@$$CBVCGUID@@PAVCBaseObject@@@std@@@2@@std@@@std@@YAPAU_Node@?$_List_nod@U?$pair@$$CBVCGUID@@PAVCBaseObject@@@std@@V?$allocator@U?$pair@$$CBVCGUID@@PAVCBaseObject@@@std@@@2@@0@IPAU120@@Z PROC ; std::_Allocate<std::_List_nod<std::pair<CGUID const ,CBaseObject *>,std::allocator<std::pair<CGUID const ,CBaseObject *> > >::_Node>, COMDAT

; 38   : 	if (_Count <= 0)

  00000	8b 4c 24 04	 mov	 ecx, DWORD PTR __Count$[esp-4]
  00004	83 ec 0c	 sub	 esp, 12			; 0000000cH
  00007	85 c9		 test	 ecx, ecx
  00009	77 1c		 ja	 SHORT $LN3@Allocate@3

; 39   : 		_Count = 0;

  0000b	33 c9		 xor	 ecx, ecx
$LN1@Allocate@3:

; 42   : 
; 43   : 		// allocate storage for _Count elements of type _Ty
; 44   : 	return ((_Ty _FARQ *)::operator new(_Count * sizeof (_Ty)));

  0000d	8d 14 cd 00 00
	00 00		 lea	 edx, DWORD PTR [ecx*8]
  00014	2b d1		 sub	 edx, ecx
  00016	03 d2		 add	 edx, edx
  00018	03 d2		 add	 edx, edx
  0001a	52		 push	 edx
  0001b	e8 00 00 00 00	 call	 ??2@YAPAXI@Z		; operator new
  00020	83 c4 04	 add	 esp, 4

; 45   : 	}

  00023	83 c4 0c	 add	 esp, 12			; 0000000cH
  00026	c3		 ret	 0
$LN3@Allocate@3:

; 40   : 	else if (((_SIZT)(-1) / _Count) < sizeof (_Ty))

  00027	83 c8 ff	 or	 eax, -1
  0002a	33 d2		 xor	 edx, edx
  0002c	f7 f1		 div	 ecx
  0002e	83 f8 1c	 cmp	 eax, 28			; 0000001cH
  00031	73 da		 jae	 SHORT $LN1@Allocate@3

; 41   : 		_THROW_NCEE(std::bad_alloc, NULL);

  00033	8d 44 24 10	 lea	 eax, DWORD PTR $T295558[esp+8]
  00037	50		 push	 eax
  00038	8d 4c 24 04	 lea	 ecx, DWORD PTR $T295554[esp+16]
  0003c	c7 44 24 14 00
	00 00 00	 mov	 DWORD PTR $T295558[esp+12], 0
  00044	e8 00 00 00 00	 call	 ??0exception@std@@QAE@ABQBD@Z ; std::exception::exception
  00049	68 00 00 00 00	 push	 OFFSET __TI2?AVbad_alloc@std@@
  0004e	8d 4c 24 04	 lea	 ecx, DWORD PTR $T295554[esp+16]
  00052	51		 push	 ecx
  00053	c7 44 24 08 00
	00 00 00	 mov	 DWORD PTR $T295554[esp+20], OFFSET ??_7bad_alloc@std@@6B@
  0005b	e8 00 00 00 00	 call	 __CxxThrowException@8
$LN9@Allocate@3:
$LN8@Allocate@3:
  00060	cc		 int	 3
??$_Allocate@U_Node@?$_List_nod@U?$pair@$$CBVCGUID@@PAVCBaseObject@@@std@@V?$allocator@U?$pair@$$CBVCGUID@@PAVCBaseObject@@@std@@@2@@std@@@std@@YAPAU_Node@?$_List_nod@U?$pair@$$CBVCGUID@@PAVCBaseObject@@@std@@V?$allocator@U?$pair@$$CBVCGUID@@PAVCBaseObject@@@std@@@2@@0@IPAU120@@Z ENDP ; std::_Allocate<std::_List_nod<std::pair<CGUID const ,CBaseObject *>,std::allocator<std::pair<CGUID const ,CBaseObject *> > >::_Node>
_TEXT	ENDS
PUBLIC	??$_Construct@PAU_Node@?$_List_nod@U?$pair@$$CBVCGUID@@PAVCBaseObject@@@std@@V?$allocator@U?$pair@$$CBVCGUID@@PAVCBaseObject@@@std@@@2@@std@@PAU123@@std@@YAXPAPAU_Node@?$_List_nod@U?$pair@$$CBVCGUID@@PAVCBaseObject@@@std@@V?$allocator@U?$pair@$$CBVCGUID@@PAVCBaseObject@@@std@@@2@@0@ABQAU120@@Z ; std::_Construct<std::_List_nod<std::pair<CGUID const ,CBaseObject *>,std::allocator<std::pair<CGUID const ,CBaseObject *> > >::_Node *,std::_List_nod<std::pair<CGUID const ,CBaseObject *>,std::allocator<std::pair<CGUID const ,CBaseObject *> > >::_Node *>
; Function compile flags: /Ogtpy
;	COMDAT ??$_Construct@PAU_Node@?$_List_nod@U?$pair@$$CBVCGUID@@PAVCBaseObject@@@std@@V?$allocator@U?$pair@$$CBVCGUID@@PAVCBaseObject@@@std@@@2@@std@@PAU123@@std@@YAXPAPAU_Node@?$_List_nod@U?$pair@$$CBVCGUID@@PAVCBaseObject@@@std@@V?$allocator@U?$pair@$$CBVCGUID@@PAVCBaseObject@@@std@@@2@@0@ABQAU120@@Z
_TEXT	SEGMENT
__Ptr$ = 8						; size = 4
__Val$ = 12						; size = 4
??$_Construct@PAU_Node@?$_List_nod@U?$pair@$$CBVCGUID@@PAVCBaseObject@@@std@@V?$allocator@U?$pair@$$CBVCGUID@@PAVCBaseObject@@@std@@@2@@std@@PAU123@@std@@YAXPAPAU_Node@?$_List_nod@U?$pair@$$CBVCGUID@@PAVCBaseObject@@@std@@V?$allocator@U?$pair@$$CBVCGUID@@PAVCBaseObject@@@std@@@2@@0@ABQAU120@@Z PROC ; std::_Construct<std::_List_nod<std::pair<CGUID const ,CBaseObject *>,std::allocator<std::pair<CGUID const ,CBaseObject *> > >::_Node *,std::_List_nod<std::pair<CGUID const ,CBaseObject *>,std::allocator<std::pair<CGUID const ,CBaseObject *> > >::_Node *>, COMDAT

; 52   : 	void _FARQ *_Vptr = _Ptr;
; 53   : 	::new (_Vptr) _T1(_Val);

  00000	8b 44 24 04	 mov	 eax, DWORD PTR __Ptr$[esp-4]
  00004	85 c0		 test	 eax, eax
  00006	74 08		 je	 SHORT $LN3@Construct@2
  00008	8b 4c 24 08	 mov	 ecx, DWORD PTR __Val$[esp-4]
  0000c	8b 11		 mov	 edx, DWORD PTR [ecx]
  0000e	89 10		 mov	 DWORD PTR [eax], edx
$LN3@Construct@2:

; 54   : 	}

  00010	c3		 ret	 0
??$_Construct@PAU_Node@?$_List_nod@U?$pair@$$CBVCGUID@@PAVCBaseObject@@@std@@V?$allocator@U?$pair@$$CBVCGUID@@PAVCBaseObject@@@std@@@2@@std@@PAU123@@std@@YAXPAPAU_Node@?$_List_nod@U?$pair@$$CBVCGUID@@PAVCBaseObject@@@std@@V?$allocator@U?$pair@$$CBVCGUID@@PAVCBaseObject@@@std@@@2@@0@ABQAU120@@Z ENDP ; std::_Construct<std::_List_nod<std::pair<CGUID const ,CBaseObject *>,std::allocator<std::pair<CGUID const ,CBaseObject *> > >::_Node *,std::_List_nod<std::pair<CGUID const ,CBaseObject *>,std::allocator<std::pair<CGUID const ,CBaseObject *> > >::_Node *>
_TEXT	ENDS
PUBLIC	??$_Destroy@PAU_Node@?$_List_nod@U?$pair@$$CBVCGUID@@PAVCBaseObject@@@std@@V?$allocator@U?$pair@$$CBVCGUID@@PAVCBaseObject@@@std@@@2@@std@@@std@@YAXPAPAU_Node@?$_List_nod@U?$pair@$$CBVCGUID@@PAVCBaseObject@@@std@@V?$allocator@U?$pair@$$CBVCGUID@@PAVCBaseObject@@@std@@@2@@0@@Z ; std::_Destroy<std::_List_nod<std::pair<CGUID const ,CBaseObject *>,std::allocator<std::pair<CGUID const ,CBaseObject *> > >::_Node *>
; Function compile flags: /Ogtpy
;	COMDAT ??$_Destroy@PAU_Node@?$_List_nod@U?$pair@$$CBVCGUID@@PAVCBaseObject@@@std@@V?$allocator@U?$pair@$$CBVCGUID@@PAVCBaseObject@@@std@@@2@@std@@@std@@YAXPAPAU_Node@?$_List_nod@U?$pair@$$CBVCGUID@@PAVCBaseObject@@@std@@V?$allocator@U?$pair@$$CBVCGUID@@PAVCBaseObject@@@std@@@2@@0@@Z
_TEXT	SEGMENT
__Ptr$ = 8						; size = 4
??$_Destroy@PAU_Node@?$_List_nod@U?$pair@$$CBVCGUID@@PAVCBaseObject@@@std@@V?$allocator@U?$pair@$$CBVCGUID@@PAVCBaseObject@@@std@@@2@@std@@@std@@YAXPAPAU_Node@?$_List_nod@U?$pair@$$CBVCGUID@@PAVCBaseObject@@@std@@V?$allocator@U?$pair@$$CBVCGUID@@PAVCBaseObject@@@std@@@2@@0@@Z PROC ; std::_Destroy<std::_List_nod<std::pair<CGUID const ,CBaseObject *>,std::allocator<std::pair<CGUID const ,CBaseObject *> > >::_Node *>, COMDAT

; 60   : 	_DESTRUCTOR(_Ty, _Ptr);
; 61   : 	}

  00000	c3		 ret	 0
??$_Destroy@PAU_Node@?$_List_nod@U?$pair@$$CBVCGUID@@PAVCBaseObject@@@std@@V?$allocator@U?$pair@$$CBVCGUID@@PAVCBaseObject@@@std@@@2@@std@@@std@@YAXPAPAU_Node@?$_List_nod@U?$pair@$$CBVCGUID@@PAVCBaseObject@@@std@@V?$allocator@U?$pair@$$CBVCGUID@@PAVCBaseObject@@@std@@@2@@0@@Z ENDP ; std::_Destroy<std::_List_nod<std::pair<CGUID const ,CBaseObject *>,std::allocator<std::pair<CGUID const ,CBaseObject *> > >::_Node *>
_TEXT	ENDS
PUBLIC	??1_Node@?$_List_nod@U?$pair@$$CBVCGUID@@PAVCBaseObject@@@std@@V?$allocator@U?$pair@$$CBVCGUID@@PAVCBaseObject@@@std@@@2@@std@@QAE@XZ ; std::_List_nod<std::pair<CGUID const ,CBaseObject *>,std::allocator<std::pair<CGUID const ,CBaseObject *> > >::_Node::~_Node
; Function compile flags: /Ogtpy
;	COMDAT ??1_Node@?$_List_nod@U?$pair@$$CBVCGUID@@PAVCBaseObject@@@std@@V?$allocator@U?$pair@$$CBVCGUID@@PAVCBaseObject@@@std@@@2@@std@@QAE@XZ
_TEXT	SEGMENT
??1_Node@?$_List_nod@U?$pair@$$CBVCGUID@@PAVCBaseObject@@@std@@V?$allocator@U?$pair@$$CBVCGUID@@PAVCBaseObject@@@std@@@2@@std@@QAE@XZ PROC ; std::_List_nod<std::pair<CGUID const ,CBaseObject *>,std::allocator<std::pair<CGUID const ,CBaseObject *> > >::_Node::~_Node, COMDAT
; _this$ = ecx
  00000	c3		 ret	 0
??1_Node@?$_List_nod@U?$pair@$$CBVCGUID@@PAVCBaseObject@@@std@@V?$allocator@U?$pair@$$CBVCGUID@@PAVCBaseObject@@@std@@@2@@std@@QAE@XZ ENDP ; std::_List_nod<std::pair<CGUID const ,CBaseObject *>,std::allocator<std::pair<CGUID const ,CBaseObject *> > >::_Node::~_Node
_TEXT	ENDS
PUBLIC	??0?$CObjectFactory@VCGoods@@VLockOfWinWhileSleep@XM_Tools@@@XM_Tools@@QAE@AAV?$CMemManage@VLockOfWinWhileSleep@XM_Tools@@@1@@Z ; XM_Tools::CObjectFactory<CGoods,XM_Tools::LockOfWinWhileSleep>::CObjectFactory<CGoods,XM_Tools::LockOfWinWhileSleep>
EXTRN	?GetNewRTID@CObjInfoManage@XM_Tools@@QAEKXZ:PROC ; XM_Tools::CObjInfoManage::GetNewRTID
EXTRN	?GetObjInfoManage@XM_Tools@@YAAAVCObjInfoManage@1@XZ:PROC ; XM_Tools::GetObjInfoManage
; Function compile flags: /Ogtpy
; File d:\project_p6\trunk\public\memmanage\cpp\objectfactory.tcc
;	COMDAT ??0?$CObjectFactory@VCGoods@@VLockOfWinWhileSleep@XM_Tools@@@XM_Tools@@QAE@AAV?$CMemManage@VLockOfWinWhileSleep@XM_Tools@@@1@@Z
_TEXT	SEGMENT
_MemManage$ = 8						; size = 4
??0?$CObjectFactory@VCGoods@@VLockOfWinWhileSleep@XM_Tools@@@XM_Tools@@QAE@AAV?$CMemManage@VLockOfWinWhileSleep@XM_Tools@@@1@@Z PROC ; XM_Tools::CObjectFactory<CGoods,XM_Tools::LockOfWinWhileSleep>::CObjectFactory<CGoods,XM_Tools::LockOfWinWhileSleep>, COMDAT
; _this$ = ecx

; 23   : 	{

  00000	8b 44 24 04	 mov	 eax, DWORD PTR _MemManage$[esp-4]
  00004	56		 push	 esi
  00005	8b f1		 mov	 esi, ecx
  00007	89 06		 mov	 DWORD PTR [esi], eax

; 24   : 		//! ID
; 25   : 		m_uObjRTID = GetObjInfoManage().GetNewRTID();

  00009	e8 00 00 00 00	 call	 ?GetObjInfoManage@XM_Tools@@YAAAVCObjInfoManage@1@XZ ; XM_Tools::GetObjInfoManage
  0000e	8b c8		 mov	 ecx, eax
  00010	e8 00 00 00 00	 call	 ?GetNewRTID@CObjInfoManage@XM_Tools@@QAEKXZ ; XM_Tools::CObjInfoManage::GetNewRTID
  00015	89 46 04	 mov	 DWORD PTR [esi+4], eax

; 26   : 		//! 
; 27   : #ifdef LOG_ALLOC_FREE_INFO
; 28   : 		MM_ASSERY(500 > strlen(pClassName));
; 29   : 		char szTempInfo[2048] = {0};
; 30   : 		sprintf(szTempInfo, "%s(%dbyte)", pClassName, sizeof(_TObject) + sizeof(long) * 2);
; 31   : 		bool bRegResult = GetObjInfoManage().RegisterObj(szTempInfo, m_uObjRTID);
; 32   : #endif
; 33   : 		MM_ASSERY(bRegResult);
; 34   : 	}

  00018	8b c6		 mov	 eax, esi
  0001a	5e		 pop	 esi
  0001b	c2 04 00	 ret	 4
??0?$CObjectFactory@VCGoods@@VLockOfWinWhileSleep@XM_Tools@@@XM_Tools@@QAE@AAV?$CMemManage@VLockOfWinWhileSleep@XM_Tools@@@1@@Z ENDP ; XM_Tools::CObjectFactory<CGoods,XM_Tools::LockOfWinWhileSleep>::CObjectFactory<CGoods,XM_Tools::LockOfWinWhileSleep>
_TEXT	ENDS
PUBLIC	??1?$CObjectFactory@VCGoods@@VLockOfWinWhileSleep@XM_Tools@@@XM_Tools@@QAE@XZ ; XM_Tools::CObjectFactory<CGoods,XM_Tools::LockOfWinWhileSleep>::~CObjectFactory<CGoods,XM_Tools::LockOfWinWhileSleep>
; Function compile flags: /Ogtpy
;	COMDAT ??1?$CObjectFactory@VCGoods@@VLockOfWinWhileSleep@XM_Tools@@@XM_Tools@@QAE@XZ
_TEXT	SEGMENT
??1?$CObjectFactory@VCGoods@@VLockOfWinWhileSleep@XM_Tools@@@XM_Tools@@QAE@XZ PROC ; XM_Tools::CObjectFactory<CGoods,XM_Tools::LockOfWinWhileSleep>::~CObjectFactory<CGoods,XM_Tools::LockOfWinWhileSleep>, COMDAT
; _this$ = ecx

; 39   : 
; 40   : 	}

  00000	c3		 ret	 0
??1?$CObjectFactory@VCGoods@@VLockOfWinWhileSleep@XM_Tools@@@XM_Tools@@QAE@XZ ENDP ; XM_Tools::CObjectFactory<CGoods,XM_Tools::LockOfWinWhileSleep>::~CObjectFactory<CGoods,XM_Tools::LockOfWinWhileSleep>
_TEXT	ENDS
PUBLIC	??0?$CObjectFactory@VCCollection@@VLockOfWinWhileSleep@XM_Tools@@@XM_Tools@@QAE@AAV?$CMemManage@VLockOfWinWhileSleep@XM_Tools@@@1@@Z ; XM_Tools::CObjectFactory<CCollection,XM_Tools::LockOfWinWhileSleep>::CObjectFactory<CCollection,XM_Tools::LockOfWinWhileSleep>
; Function compile flags: /Ogtpy
;	COMDAT ??0?$CObjectFactory@VCCollection@@VLockOfWinWhileSleep@XM_Tools@@@XM_Tools@@QAE@AAV?$CMemManage@VLockOfWinWhileSleep@XM_Tools@@@1@@Z
_TEXT	SEGMENT
_MemManage$ = 8						; size = 4
??0?$CObjectFactory@VCCollection@@VLockOfWinWhileSleep@XM_Tools@@@XM_Tools@@QAE@AAV?$CMemManage@VLockOfWinWhileSleep@XM_Tools@@@1@@Z PROC ; XM_Tools::CObjectFactory<CCollection,XM_Tools::LockOfWinWhileSleep>::CObjectFactory<CCollection,XM_Tools::LockOfWinWhileSleep>, COMDAT
; _this$ = ecx

; 23   : 	{

  00000	8b 44 24 04	 mov	 eax, DWORD PTR _MemManage$[esp-4]
  00004	56		 push	 esi
  00005	8b f1		 mov	 esi, ecx
  00007	89 06		 mov	 DWORD PTR [esi], eax

; 24   : 		//! ID
; 25   : 		m_uObjRTID = GetObjInfoManage().GetNewRTID();

  00009	e8 00 00 00 00	 call	 ?GetObjInfoManage@XM_Tools@@YAAAVCObjInfoManage@1@XZ ; XM_Tools::GetObjInfoManage
  0000e	8b c8		 mov	 ecx, eax
  00010	e8 00 00 00 00	 call	 ?GetNewRTID@CObjInfoManage@XM_Tools@@QAEKXZ ; XM_Tools::CObjInfoManage::GetNewRTID
  00015	89 46 04	 mov	 DWORD PTR [esi+4], eax

; 26   : 		//! 
; 27   : #ifdef LOG_ALLOC_FREE_INFO
; 28   : 		MM_ASSERY(500 > strlen(pClassName));
; 29   : 		char szTempInfo[2048] = {0};
; 30   : 		sprintf(szTempInfo, "%s(%dbyte)", pClassName, sizeof(_TObject) + sizeof(long) * 2);
; 31   : 		bool bRegResult = GetObjInfoManage().RegisterObj(szTempInfo, m_uObjRTID);
; 32   : #endif
; 33   : 		MM_ASSERY(bRegResult);
; 34   : 	}

  00018	8b c6		 mov	 eax, esi
  0001a	5e		 pop	 esi
  0001b	c2 04 00	 ret	 4
??0?$CObjectFactory@VCCollection@@VLockOfWinWhileSleep@XM_Tools@@@XM_Tools@@QAE@AAV?$CMemManage@VLockOfWinWhileSleep@XM_Tools@@@1@@Z ENDP ; XM_Tools::CObjectFactory<CCollection,XM_Tools::LockOfWinWhileSleep>::CObjectFactory<CCollection,XM_Tools::LockOfWinWhileSleep>
_TEXT	ENDS
PUBLIC	??1?$CObjectFactory@VCCollection@@VLockOfWinWhileSleep@XM_Tools@@@XM_Tools@@QAE@XZ ; XM_Tools::CObjectFactory<CCollection,XM_Tools::LockOfWinWhileSleep>::~CObjectFactory<CCollection,XM_Tools::LockOfWinWhileSleep>
; Function compile flags: /Ogtpy
;	COMDAT ??1?$CObjectFactory@VCCollection@@VLockOfWinWhileSleep@XM_Tools@@@XM_Tools@@QAE@XZ
_TEXT	SEGMENT
??1?$CObjectFactory@VCCollection@@VLockOfWinWhileSleep@XM_Tools@@@XM_Tools@@QAE@XZ PROC ; XM_Tools::CObjectFactory<CCollection,XM_Tools::LockOfWinWhileSleep>::~CObjectFactory<CCollection,XM_Tools::LockOfWinWhileSleep>, COMDAT
; _this$ = ecx

; 39   : 
; 40   : 	}

  00000	c3		 ret	 0
??1?$CObjectFactory@VCCollection@@VLockOfWinWhileSleep@XM_Tools@@@XM_Tools@@QAE@XZ ENDP ; XM_Tools::CObjectFactory<CCollection,XM_Tools::LockOfWinWhileSleep>::~CObjectFactory<CCollection,XM_Tools::LockOfWinWhileSleep>
_TEXT	ENDS
PUBLIC	??0?$CObjectFactory@VCMonster@@VLockOfWinWhileSleep@XM_Tools@@@XM_Tools@@QAE@AAV?$CMemManage@VLockOfWinWhileSleep@XM_Tools@@@1@@Z ; XM_Tools::CObjectFactory<CMonster,XM_Tools::LockOfWinWhileSleep>::CObjectFactory<CMonster,XM_Tools::LockOfWinWhileSleep>
; Function compile flags: /Ogtpy
;	COMDAT ??0?$CObjectFactory@VCMonster@@VLockOfWinWhileSleep@XM_Tools@@@XM_Tools@@QAE@AAV?$CMemManage@VLockOfWinWhileSleep@XM_Tools@@@1@@Z
_TEXT	SEGMENT
_MemManage$ = 8						; size = 4
??0?$CObjectFactory@VCMonster@@VLockOfWinWhileSleep@XM_Tools@@@XM_Tools@@QAE@AAV?$CMemManage@VLockOfWinWhileSleep@XM_Tools@@@1@@Z PROC ; XM_Tools::CObjectFactory<CMonster,XM_Tools::LockOfWinWhileSleep>::CObjectFactory<CMonster,XM_Tools::LockOfWinWhileSleep>, COMDAT
; _this$ = ecx

; 23   : 	{

  00000	8b 44 24 04	 mov	 eax, DWORD PTR _MemManage$[esp-4]
  00004	56		 push	 esi
  00005	8b f1		 mov	 esi, ecx
  00007	89 06		 mov	 DWORD PTR [esi], eax

; 24   : 		//! ID
; 25   : 		m_uObjRTID = GetObjInfoManage().GetNewRTID();

  00009	e8 00 00 00 00	 call	 ?GetObjInfoManage@XM_Tools@@YAAAVCObjInfoManage@1@XZ ; XM_Tools::GetObjInfoManage
  0000e	8b c8		 mov	 ecx, eax
  00010	e8 00 00 00 00	 call	 ?GetNewRTID@CObjInfoManage@XM_Tools@@QAEKXZ ; XM_Tools::CObjInfoManage::GetNewRTID
  00015	89 46 04	 mov	 DWORD PTR [esi+4], eax

; 26   : 		//! 
; 27   : #ifdef LOG_ALLOC_FREE_INFO
; 28   : 		MM_ASSERY(500 > strlen(pClassName));
; 29   : 		char szTempInfo[2048] = {0};
; 30   : 		sprintf(szTempInfo, "%s(%dbyte)", pClassName, sizeof(_TObject) + sizeof(long) * 2);
; 31   : 		bool bRegResult = GetObjInfoManage().RegisterObj(szTempInfo, m_uObjRTID);
; 32   : #endif
; 33   : 		MM_ASSERY(bRegResult);
; 34   : 	}

  00018	8b c6		 mov	 eax, esi
  0001a	5e		 pop	 esi
  0001b	c2 04 00	 ret	 4
??0?$CObjectFactory@VCMonster@@VLockOfWinWhileSleep@XM_Tools@@@XM_Tools@@QAE@AAV?$CMemManage@VLockOfWinWhileSleep@XM_Tools@@@1@@Z ENDP ; XM_Tools::CObjectFactory<CMonster,XM_Tools::LockOfWinWhileSleep>::CObjectFactory<CMonster,XM_Tools::LockOfWinWhileSleep>
_TEXT	ENDS
PUBLIC	??1?$CObjectFactory@VCMonster@@VLockOfWinWhileSleep@XM_Tools@@@XM_Tools@@QAE@XZ ; XM_Tools::CObjectFactory<CMonster,XM_Tools::LockOfWinWhileSleep>::~CObjectFactory<CMonster,XM_Tools::LockOfWinWhileSleep>
; Function compile flags: /Ogtpy
;	COMDAT ??1?$CObjectFactory@VCMonster@@VLockOfWinWhileSleep@XM_Tools@@@XM_Tools@@QAE@XZ
_TEXT	SEGMENT
??1?$CObjectFactory@VCMonster@@VLockOfWinWhileSleep@XM_Tools@@@XM_Tools@@QAE@XZ PROC ; XM_Tools::CObjectFactory<CMonster,XM_Tools::LockOfWinWhileSleep>::~CObjectFactory<CMonster,XM_Tools::LockOfWinWhileSleep>, COMDAT
; _this$ = ecx

; 39   : 
; 40   : 	}

  00000	c3		 ret	 0
??1?$CObjectFactory@VCMonster@@VLockOfWinWhileSleep@XM_Tools@@@XM_Tools@@QAE@XZ ENDP ; XM_Tools::CObjectFactory<CMonster,XM_Tools::LockOfWinWhileSleep>::~CObjectFactory<CMonster,XM_Tools::LockOfWinWhileSleep>
_TEXT	ENDS
PUBLIC	??0?$CObjectFactory@VCPlayer@@VLockOfWinWhileSleep@XM_Tools@@@XM_Tools@@QAE@AAV?$CMemManage@VLockOfWinWhileSleep@XM_Tools@@@1@@Z ; XM_Tools::CObjectFactory<CPlayer,XM_Tools::LockOfWinWhileSleep>::CObjectFactory<CPlayer,XM_Tools::LockOfWinWhileSleep>
; Function compile flags: /Ogtpy
;	COMDAT ??0?$CObjectFactory@VCPlayer@@VLockOfWinWhileSleep@XM_Tools@@@XM_Tools@@QAE@AAV?$CMemManage@VLockOfWinWhileSleep@XM_Tools@@@1@@Z
_TEXT	SEGMENT
_MemManage$ = 8						; size = 4
??0?$CObjectFactory@VCPlayer@@VLockOfWinWhileSleep@XM_Tools@@@XM_Tools@@QAE@AAV?$CMemManage@VLockOfWinWhileSleep@XM_Tools@@@1@@Z PROC ; XM_Tools::CObjectFactory<CPlayer,XM_Tools::LockOfWinWhileSleep>::CObjectFactory<CPlayer,XM_Tools::LockOfWinWhileSleep>, COMDAT
; _this$ = ecx

; 23   : 	{

  00000	8b 44 24 04	 mov	 eax, DWORD PTR _MemManage$[esp-4]
  00004	56		 push	 esi
  00005	8b f1		 mov	 esi, ecx
  00007	89 06		 mov	 DWORD PTR [esi], eax

; 24   : 		//! ID
; 25   : 		m_uObjRTID = GetObjInfoManage().GetNewRTID();

  00009	e8 00 00 00 00	 call	 ?GetObjInfoManage@XM_Tools@@YAAAVCObjInfoManage@1@XZ ; XM_Tools::GetObjInfoManage
  0000e	8b c8		 mov	 ecx, eax
  00010	e8 00 00 00 00	 call	 ?GetNewRTID@CObjInfoManage@XM_Tools@@QAEKXZ ; XM_Tools::CObjInfoManage::GetNewRTID
  00015	89 46 04	 mov	 DWORD PTR [esi+4], eax

; 26   : 		//! 
; 27   : #ifdef LOG_ALLOC_FREE_INFO
; 28   : 		MM_ASSERY(500 > strlen(pClassName));
; 29   : 		char szTempInfo[2048] = {0};
; 30   : 		sprintf(szTempInfo, "%s(%dbyte)", pClassName, sizeof(_TObject) + sizeof(long) * 2);
; 31   : 		bool bRegResult = GetObjInfoManage().RegisterObj(szTempInfo, m_uObjRTID);
; 32   : #endif
; 33   : 		MM_ASSERY(bRegResult);
; 34   : 	}

  00018	8b c6		 mov	 eax, esi
  0001a	5e		 pop	 esi
  0001b	c2 04 00	 ret	 4
??0?$CObjectFactory@VCPlayer@@VLockOfWinWhileSleep@XM_Tools@@@XM_Tools@@QAE@AAV?$CMemManage@VLockOfWinWhileSleep@XM_Tools@@@1@@Z ENDP ; XM_Tools::CObjectFactory<CPlayer,XM_Tools::LockOfWinWhileSleep>::CObjectFactory<CPlayer,XM_Tools::LockOfWinWhileSleep>
_TEXT	ENDS
PUBLIC	??1?$CObjectFactory@VCPlayer@@VLockOfWinWhileSleep@XM_Tools@@@XM_Tools@@QAE@XZ ; XM_Tools::CObjectFactory<CPlayer,XM_Tools::LockOfWinWhileSleep>::~CObjectFactory<CPlayer,XM_Tools::LockOfWinWhileSleep>
; Function compile flags: /Ogtpy
;	COMDAT ??1?$CObjectFactory@VCPlayer@@VLockOfWinWhileSleep@XM_Tools@@@XM_Tools@@QAE@XZ
_TEXT	SEGMENT
??1?$CObjectFactory@VCPlayer@@VLockOfWinWhileSleep@XM_Tools@@@XM_Tools@@QAE@XZ PROC ; XM_Tools::CObjectFactory<CPlayer,XM_Tools::LockOfWinWhileSleep>::~CObjectFactory<CPlayer,XM_Tools::LockOfWinWhileSleep>, COMDAT
; _this$ = ecx

; 39   : 
; 40   : 	}

  00000	c3		 ret	 0
??1?$CObjectFactory@VCPlayer@@VLockOfWinWhileSleep@XM_Tools@@@XM_Tools@@QAE@XZ ENDP ; XM_Tools::CObjectFactory<CPlayer,XM_Tools::LockOfWinWhileSleep>::~CObjectFactory<CPlayer,XM_Tools::LockOfWinWhileSleep>
_TEXT	ENDS
PUBLIC	??0?$CObjectFactory@VCRegion@@VLockOfWinWhileSleep@XM_Tools@@@XM_Tools@@QAE@AAV?$CMemManage@VLockOfWinWhileSleep@XM_Tools@@@1@@Z ; XM_Tools::CObjectFactory<CRegion,XM_Tools::LockOfWinWhileSleep>::CObjectFactory<CRegion,XM_Tools::LockOfWinWhileSleep>
; Function compile flags: /Ogtpy
;	COMDAT ??0?$CObjectFactory@VCRegion@@VLockOfWinWhileSleep@XM_Tools@@@XM_Tools@@QAE@AAV?$CMemManage@VLockOfWinWhileSleep@XM_Tools@@@1@@Z
_TEXT	SEGMENT
_MemManage$ = 8						; size = 4
??0?$CObjectFactory@VCRegion@@VLockOfWinWhileSleep@XM_Tools@@@XM_Tools@@QAE@AAV?$CMemManage@VLockOfWinWhileSleep@XM_Tools@@@1@@Z PROC ; XM_Tools::CObjectFactory<CRegion,XM_Tools::LockOfWinWhileSleep>::CObjectFactory<CRegion,XM_Tools::LockOfWinWhileSleep>, COMDAT
; _this$ = ecx

; 23   : 	{

  00000	8b 44 24 04	 mov	 eax, DWORD PTR _MemManage$[esp-4]
  00004	56		 push	 esi
  00005	8b f1		 mov	 esi, ecx
  00007	89 06		 mov	 DWORD PTR [esi], eax

; 24   : 		//! ID
; 25   : 		m_uObjRTID = GetObjInfoManage().GetNewRTID();

  00009	e8 00 00 00 00	 call	 ?GetObjInfoManage@XM_Tools@@YAAAVCObjInfoManage@1@XZ ; XM_Tools::GetObjInfoManage
  0000e	8b c8		 mov	 ecx, eax
  00010	e8 00 00 00 00	 call	 ?GetNewRTID@CObjInfoManage@XM_Tools@@QAEKXZ ; XM_Tools::CObjInfoManage::GetNewRTID
  00015	89 46 04	 mov	 DWORD PTR [esi+4], eax

; 26   : 		//! 
; 27   : #ifdef LOG_ALLOC_FREE_INFO
; 28   : 		MM_ASSERY(500 > strlen(pClassName));
; 29   : 		char szTempInfo[2048] = {0};
; 30   : 		sprintf(szTempInfo, "%s(%dbyte)", pClassName, sizeof(_TObject) + sizeof(long) * 2);
; 31   : 		bool bRegResult = GetObjInfoManage().RegisterObj(szTempInfo, m_uObjRTID);
; 32   : #endif
; 33   : 		MM_ASSERY(bRegResult);
; 34   : 	}

  00018	8b c6		 mov	 eax, esi
  0001a	5e		 pop	 esi
  0001b	c2 04 00	 ret	 4
??0?$CObjectFactory@VCRegion@@VLockOfWinWhileSleep@XM_Tools@@@XM_Tools@@QAE@AAV?$CMemManage@VLockOfWinWhileSleep@XM_Tools@@@1@@Z ENDP ; XM_Tools::CObjectFactory<CRegion,XM_Tools::LockOfWinWhileSleep>::CObjectFactory<CRegion,XM_Tools::LockOfWinWhileSleep>
_TEXT	ENDS
PUBLIC	??1?$CObjectFactory@VCRegion@@VLockOfWinWhileSleep@XM_Tools@@@XM_Tools@@QAE@XZ ; XM_Tools::CObjectFactory<CRegion,XM_Tools::LockOfWinWhileSleep>::~CObjectFactory<CRegion,XM_Tools::LockOfWinWhileSleep>
; Function compile flags: /Ogtpy
;	COMDAT ??1?$CObjectFactory@VCRegion@@VLockOfWinWhileSleep@XM_Tools@@@XM_Tools@@QAE@XZ
_TEXT	SEGMENT
??1?$CObjectFactory@VCRegion@@VLockOfWinWhileSleep@XM_Tools@@@XM_Tools@@QAE@XZ PROC ; XM_Tools::CObjectFactory<CRegion,XM_Tools::LockOfWinWhileSleep>::~CObjectFactory<CRegion,XM_Tools::LockOfWinWhileSleep>, COMDAT
; _this$ = ecx

; 39   : 
; 40   : 	}

  00000	c3		 ret	 0
??1?$CObjectFactory@VCRegion@@VLockOfWinWhileSleep@XM_Tools@@@XM_Tools@@QAE@XZ ENDP ; XM_Tools::CObjectFactory<CRegion,XM_Tools::LockOfWinWhileSleep>::~CObjectFactory<CRegion,XM_Tools::LockOfWinWhileSleep>
_TEXT	ENDS
PUBLIC	??0?$CObjectFactory@VCBuild@@VLockOfWinWhileSleep@XM_Tools@@@XM_Tools@@QAE@AAV?$CMemManage@VLockOfWinWhileSleep@XM_Tools@@@1@@Z ; XM_Tools::CObjectFactory<CBuild,XM_Tools::LockOfWinWhileSleep>::CObjectFactory<CBuild,XM_Tools::LockOfWinWhileSleep>
; Function compile flags: /Ogtpy
;	COMDAT ??0?$CObjectFactory@VCBuild@@VLockOfWinWhileSleep@XM_Tools@@@XM_Tools@@QAE@AAV?$CMemManage@VLockOfWinWhileSleep@XM_Tools@@@1@@Z
_TEXT	SEGMENT
_MemManage$ = 8						; size = 4
??0?$CObjectFactory@VCBuild@@VLockOfWinWhileSleep@XM_Tools@@@XM_Tools@@QAE@AAV?$CMemManage@VLockOfWinWhileSleep@XM_Tools@@@1@@Z PROC ; XM_Tools::CObjectFactory<CBuild,XM_Tools::LockOfWinWhileSleep>::CObjectFactory<CBuild,XM_Tools::LockOfWinWhileSleep>, COMDAT
; _this$ = ecx

; 23   : 	{

  00000	8b 44 24 04	 mov	 eax, DWORD PTR _MemManage$[esp-4]
  00004	56		 push	 esi
  00005	8b f1		 mov	 esi, ecx
  00007	89 06		 mov	 DWORD PTR [esi], eax

; 24   : 		//! ID
; 25   : 		m_uObjRTID = GetObjInfoManage().GetNewRTID();

  00009	e8 00 00 00 00	 call	 ?GetObjInfoManage@XM_Tools@@YAAAVCObjInfoManage@1@XZ ; XM_Tools::GetObjInfoManage
  0000e	8b c8		 mov	 ecx, eax
  00010	e8 00 00 00 00	 call	 ?GetNewRTID@CObjInfoManage@XM_Tools@@QAEKXZ ; XM_Tools::CObjInfoManage::GetNewRTID
  00015	89 46 04	 mov	 DWORD PTR [esi+4], eax

; 26   : 		//! 
; 27   : #ifdef LOG_ALLOC_FREE_INFO
; 28   : 		MM_ASSERY(500 > strlen(pClassName));
; 29   : 		char szTempInfo[2048] = {0};
; 30   : 		sprintf(szTempInfo, "%s(%dbyte)", pClassName, sizeof(_TObject) + sizeof(long) * 2);
; 31   : 		bool bRegResult = GetObjInfoManage().RegisterObj(szTempInfo, m_uObjRTID);
; 32   : #endif
; 33   : 		MM_ASSERY(bRegResult);
; 34   : 	}

  00018	8b c6		 mov	 eax, esi
  0001a	5e		 pop	 esi
  0001b	c2 04 00	 ret	 4
??0?$CObjectFactory@VCBuild@@VLockOfWinWhileSleep@XM_Tools@@@XM_Tools@@QAE@AAV?$CMemManage@VLockOfWinWhileSleep@XM_Tools@@@1@@Z ENDP ; XM_Tools::CObjectFactory<CBuild,XM_Tools::LockOfWinWhileSleep>::CObjectFactory<CBuild,XM_Tools::LockOfWinWhileSleep>
_TEXT	ENDS
PUBLIC	??1?$CObjectFactory@VCBuild@@VLockOfWinWhileSleep@XM_Tools@@@XM_Tools@@QAE@XZ ; XM_Tools::CObjectFactory<CBuild,XM_Tools::LockOfWinWhileSleep>::~CObjectFactory<CBuild,XM_Tools::LockOfWinWhileSleep>
; Function compile flags: /Ogtpy
;	COMDAT ??1?$CObjectFactory@VCBuild@@VLockOfWinWhileSleep@XM_Tools@@@XM_Tools@@QAE@XZ
_TEXT	SEGMENT
??1?$CObjectFactory@VCBuild@@VLockOfWinWhileSleep@XM_Tools@@@XM_Tools@@QAE@XZ PROC ; XM_Tools::CObjectFactory<CBuild,XM_Tools::LockOfWinWhileSleep>::~CObjectFactory<CBuild,XM_Tools::LockOfWinWhileSleep>, COMDAT
; _this$ = ecx

; 39   : 
; 40   : 	}

  00000	c3		 ret	 0
??1?$CObjectFactory@VCBuild@@VLockOfWinWhileSleep@XM_Tools@@@XM_Tools@@QAE@XZ ENDP ; XM_Tools::CObjectFactory<CBuild,XM_Tools::LockOfWinWhileSleep>::~CObjectFactory<CBuild,XM_Tools::LockOfWinWhileSleep>
_TEXT	ENDS
PUBLIC	??0?$CObjectFactory@VCGate@@VLockOfWinWhileSleep@XM_Tools@@@XM_Tools@@QAE@AAV?$CMemManage@VLockOfWinWhileSleep@XM_Tools@@@1@@Z ; XM_Tools::CObjectFactory<CGate,XM_Tools::LockOfWinWhileSleep>::CObjectFactory<CGate,XM_Tools::LockOfWinWhileSleep>
; Function compile flags: /Ogtpy
;	COMDAT ??0?$CObjectFactory@VCGate@@VLockOfWinWhileSleep@XM_Tools@@@XM_Tools@@QAE@AAV?$CMemManage@VLockOfWinWhileSleep@XM_Tools@@@1@@Z
_TEXT	SEGMENT
_MemManage$ = 8						; size = 4
??0?$CObjectFactory@VCGate@@VLockOfWinWhileSleep@XM_Tools@@@XM_Tools@@QAE@AAV?$CMemManage@VLockOfWinWhileSleep@XM_Tools@@@1@@Z PROC ; XM_Tools::CObjectFactory<CGate,XM_Tools::LockOfWinWhileSleep>::CObjectFactory<CGate,XM_Tools::LockOfWinWhileSleep>, COMDAT
; _this$ = ecx

; 23   : 	{

  00000	8b 44 24 04	 mov	 eax, DWORD PTR _MemManage$[esp-4]
  00004	56		 push	 esi
  00005	8b f1		 mov	 esi, ecx
  00007	89 06		 mov	 DWORD PTR [esi], eax

; 24   : 		//! ID
; 25   : 		m_uObjRTID = GetObjInfoManage().GetNewRTID();

  00009	e8 00 00 00 00	 call	 ?GetObjInfoManage@XM_Tools@@YAAAVCObjInfoManage@1@XZ ; XM_Tools::GetObjInfoManage
  0000e	8b c8		 mov	 ecx, eax
  00010	e8 00 00 00 00	 call	 ?GetNewRTID@CObjInfoManage@XM_Tools@@QAEKXZ ; XM_Tools::CObjInfoManage::GetNewRTID
  00015	89 46 04	 mov	 DWORD PTR [esi+4], eax

; 26   : 		//! 
; 27   : #ifdef LOG_ALLOC_FREE_INFO
; 28   : 		MM_ASSERY(500 > strlen(pClassName));
; 29   : 		char szTempInfo[2048] = {0};
; 30   : 		sprintf(szTempInfo, "%s(%dbyte)", pClassName, sizeof(_TObject) + sizeof(long) * 2);
; 31   : 		bool bRegResult = GetObjInfoManage().RegisterObj(szTempInfo, m_uObjRTID);
; 32   : #endif
; 33   : 		MM_ASSERY(bRegResult);
; 34   : 	}

  00018	8b c6		 mov	 eax, esi
  0001a	5e		 pop	 esi
  0001b	c2 04 00	 ret	 4
??0?$CObjectFactory@VCGate@@VLockOfWinWhileSleep@XM_Tools@@@XM_Tools@@QAE@AAV?$CMemManage@VLockOfWinWhileSleep@XM_Tools@@@1@@Z ENDP ; XM_Tools::CObjectFactory<CGate,XM_Tools::LockOfWinWhileSleep>::CObjectFactory<CGate,XM_Tools::LockOfWinWhileSleep>
_TEXT	ENDS
PUBLIC	??1?$CObjectFactory@VCGate@@VLockOfWinWhileSleep@XM_Tools@@@XM_Tools@@QAE@XZ ; XM_Tools::CObjectFactory<CGate,XM_Tools::LockOfWinWhileSleep>::~CObjectFactory<CGate,XM_Tools::LockOfWinWhileSleep>
; Function compile flags: /Ogtpy
;	COMDAT ??1?$CObjectFactory@VCGate@@VLockOfWinWhileSleep@XM_Tools@@@XM_Tools@@QAE@XZ
_TEXT	SEGMENT
??1?$CObjectFactory@VCGate@@VLockOfWinWhileSleep@XM_Tools@@@XM_Tools@@QAE@XZ PROC ; XM_Tools::CObjectFactory<CGate,XM_Tools::LockOfWinWhileSleep>::~CObjectFactory<CGate,XM_Tools::LockOfWinWhileSleep>, COMDAT
; _this$ = ecx

; 39   : 
; 40   : 	}

  00000	c3		 ret	 0
??1?$CObjectFactory@VCGate@@VLockOfWinWhileSleep@XM_Tools@@@XM_Tools@@QAE@XZ ENDP ; XM_Tools::CObjectFactory<CGate,XM_Tools::LockOfWinWhileSleep>::~CObjectFactory<CGate,XM_Tools::LockOfWinWhileSleep>
_TEXT	ENDS
PUBLIC	??0?$CObjectFactory@VCServerRegion@@VLockOfWinWhileSleep@XM_Tools@@@XM_Tools@@QAE@AAV?$CMemManage@VLockOfWinWhileSleep@XM_Tools@@@1@@Z ; XM_Tools::CObjectFactory<CServerRegion,XM_Tools::LockOfWinWhileSleep>::CObjectFactory<CServerRegion,XM_Tools::LockOfWinWhileSleep>
; Function compile flags: /Ogtpy
;	COMDAT ??0?$CObjectFactory@VCServerRegion@@VLockOfWinWhileSleep@XM_Tools@@@XM_Tools@@QAE@AAV?$CMemManage@VLockOfWinWhileSleep@XM_Tools@@@1@@Z
_TEXT	SEGMENT
_MemManage$ = 8						; size = 4
??0?$CObjectFactory@VCServerRegion@@VLockOfWinWhileSleep@XM_Tools@@@XM_Tools@@QAE@AAV?$CMemManage@VLockOfWinWhileSleep@XM_Tools@@@1@@Z PROC ; XM_Tools::CObjectFactory<CServerRegion,XM_Tools::LockOfWinWhileSleep>::CObjectFactory<CServerRegion,XM_Tools::LockOfWinWhileSleep>, COMDAT
; _this$ = ecx

; 23   : 	{

  00000	8b 44 24 04	 mov	 eax, DWORD PTR _MemManage$[esp-4]
  00004	56		 push	 esi
  00005	8b f1		 mov	 esi, ecx
  00007	89 06		 mov	 DWORD PTR [esi], eax

; 24   : 		//! ID
; 25   : 		m_uObjRTID = GetObjInfoManage().GetNewRTID();

  00009	e8 00 00 00 00	 call	 ?GetObjInfoManage@XM_Tools@@YAAAVCObjInfoManage@1@XZ ; XM_Tools::GetObjInfoManage
  0000e	8b c8		 mov	 ecx, eax
  00010	e8 00 00 00 00	 call	 ?GetNewRTID@CObjInfoManage@XM_Tools@@QAEKXZ ; XM_Tools::CObjInfoManage::GetNewRTID
  00015	89 46 04	 mov	 DWORD PTR [esi+4], eax

; 26   : 		//! 
; 27   : #ifdef LOG_ALLOC_FREE_INFO
; 28   : 		MM_ASSERY(500 > strlen(pClassName));
; 29   : 		char szTempInfo[2048] = {0};
; 30   : 		sprintf(szTempInfo, "%s(%dbyte)", pClassName, sizeof(_TObject) + sizeof(long) * 2);
; 31   : 		bool bRegResult = GetObjInfoManage().RegisterObj(szTempInfo, m_uObjRTID);
; 32   : #endif
; 33   : 		MM_ASSERY(bRegResult);
; 34   : 	}

  00018	8b c6		 mov	 eax, esi
  0001a	5e		 pop	 esi
  0001b	c2 04 00	 ret	 4
??0?$CObjectFactory@VCServerRegion@@VLockOfWinWhileSleep@XM_Tools@@@XM_Tools@@QAE@AAV?$CMemManage@VLockOfWinWhileSleep@XM_Tools@@@1@@Z ENDP ; XM_Tools::CObjectFactory<CServerRegion,XM_Tools::LockOfWinWhileSleep>::CObjectFactory<CServerRegion,XM_Tools::LockOfWinWhileSleep>
_TEXT	ENDS
PUBLIC	??1?$CObjectFactory@VCServerRegion@@VLockOfWinWhileSleep@XM_Tools@@@XM_Tools@@QAE@XZ ; XM_Tools::CObjectFactory<CServerRegion,XM_Tools::LockOfWinWhileSleep>::~CObjectFactory<CServerRegion,XM_Tools::LockOfWinWhileSleep>
; Function compile flags: /Ogtpy
;	COMDAT ??1?$CObjectFactory@VCServerRegion@@VLockOfWinWhileSleep@XM_Tools@@@XM_Tools@@QAE@XZ
_TEXT	SEGMENT
??1?$CObjectFactory@VCServerRegion@@VLockOfWinWhileSleep@XM_Tools@@@XM_Tools@@QAE@XZ PROC ; XM_Tools::CObjectFactory<CServerRegion,XM_Tools::LockOfWinWhileSleep>::~CObjectFactory<CServerRegion,XM_Tools::LockOfWinWhileSleep>, COMDAT
; _this$ = ecx

; 39   : 
; 40   : 	}

  00000	c3		 ret	 0
??1?$CObjectFactory@VCServerRegion@@VLockOfWinWhileSleep@XM_Tools@@@XM_Tools@@QAE@XZ ENDP ; XM_Tools::CObjectFactory<CServerRegion,XM_Tools::LockOfWinWhileSleep>::~CObjectFactory<CServerRegion,XM_Tools::LockOfWinWhileSleep>
_TEXT	ENDS
PUBLIC	??$_Iter_cat@V?$_Iterator@$00@?$list@U?$pair@$$CBVCGUID@@PAVCBaseObject@@@std@@V?$allocator@U?$pair@$$CBVCGUID@@PAVCBaseObject@@@std@@@2@@std@@@std@@YA?AUbidirectional_iterator_tag@0@ABV?$_Iterator@$00@?$list@U?$pair@$$CBVCGUID@@PAVCBaseObject@@@std@@V?$allocator@U?$pair@$$CBVCGUID@@PAVCBaseObject@@@std@@@2@@0@@Z ; std::_Iter_cat<std::list<std::pair<CGUID const ,CBaseObject *>,std::allocator<std::pair<CGUID const ,CBaseObject *> > >::_Iterator<1> >
; Function compile flags: /Ogtpy
; File d:\program files\microsoft visual studio 8\vc\include\xutility
;	COMDAT ??$_Iter_cat@V?$_Iterator@$00@?$list@U?$pair@$$CBVCGUID@@PAVCBaseObject@@@std@@V?$allocator@U?$pair@$$CBVCGUID@@PAVCBaseObject@@@std@@@2@@std@@@std@@YA?AUbidirectional_iterator_tag@0@ABV?$_Iterator@$00@?$list@U?$pair@$$CBVCGUID@@PAVCBaseObject@@@std@@V?$allocator@U?$pair@$$CBVCGUID@@PAVCBaseObject@@@std@@@2@@0@@Z
_TEXT	SEGMENT
___$ReturnUdt$ = 8					; size = 4
___formal$ = 12						; size = 4
??$_Iter_cat@V?$_Iterator@$00@?$list@U?$pair@$$CBVCGUID@@PAVCBaseObject@@@std@@V?$allocator@U?$pair@$$CBVCGUID@@PAVCBaseObject@@@std@@@2@@std@@@std@@YA?AUbidirectional_iterator_tag@0@ABV?$_Iterator@$00@?$list@U?$pair@$$CBVCGUID@@PAVCBaseObject@@@std@@V?$allocator@U?$pair@$$CBVCGUID@@PAVCBaseObject@@@std@@@2@@0@@Z PROC ; std::_Iter_cat<std::list<std::pair<CGUID const ,CBaseObject *>,std::allocator<std::pair<CGUID const ,CBaseObject *> > >::_Iterator<1> >, COMDAT

; 799  : 	typename iterator_traits<_Iter>::iterator_category _Cat;
; 800  : 	return (_Cat);

  00000	8b 44 24 04	 mov	 eax, DWORD PTR ___$ReturnUdt$[esp-4]

; 801  : 	}

  00004	c3		 ret	 0
??$_Iter_cat@V?$_Iterator@$00@?$list@U?$pair@$$CBVCGUID@@PAVCBaseObject@@@std@@V?$allocator@U?$pair@$$CBVCGUID@@PAVCBaseObject@@@std@@@2@@std@@@std@@YA?AUbidirectional_iterator_tag@0@ABV?$_Iterator@$00@?$list@U?$pair@$$CBVCGUID@@PAVCBaseObject@@@std@@V?$allocator@U?$pair@$$CBVCGUID@@PAVCBaseObject@@@std@@@2@@0@@Z ENDP ; std::_Iter_cat<std::list<std::pair<CGUID const ,CBaseObject *>,std::allocator<std::pair<CGUID const ,CBaseObject *> > >::_Iterator<1> >
_TEXT	ENDS
PUBLIC	??$_Iter_random@PAU_List_position@?$_Hash@V?$_Hmap_traits@VCGUID@@PAVCBaseObject@@Vhash_guid_compare@@V?$allocator@U?$pair@$$CBVCGUID@@PAVCBaseObject@@@std@@@std@@$0A@@stdext@@@stdext@@PAU123@@std@@YA?AUrandom_access_iterator_tag@0@ABQAU_List_position@?$_Hash@V?$_Hmap_traits@VCGUID@@PAVCBaseObject@@Vhash_guid_compare@@V?$allocator@U?$pair@$$CBVCGUID@@PAVCBaseObject@@@std@@@std@@$0A@@stdext@@@stdext@@0@Z ; std::_Iter_random<stdext::_Hash<stdext::_Hmap_traits<CGUID,CBaseObject *,hash_guid_compare,std::allocator<std::pair<CGUID const ,CBaseObject *> >,0> >::_List_position *,stdext::_Hash<stdext::_Hmap_traits<CGUID,CBaseObject *,hash_guid_compare,std::allocator<std::pair<CGUID const ,CBaseObject *> >,0> >::_List_position *>
; Function compile flags: /Ogtpy
;	COMDAT ??$_Iter_random@PAU_List_position@?$_Hash@V?$_Hmap_traits@VCGUID@@PAVCBaseObject@@Vhash_guid_compare@@V?$allocator@U?$pair@$$CBVCGUID@@PAVCBaseObject@@@std@@@std@@$0A@@stdext@@@stdext@@PAU123@@std@@YA?AUrandom_access_iterator_tag@0@ABQAU_List_position@?$_Hash@V?$_Hmap_traits@VCGUID@@PAVCBaseObject@@Vhash_guid_compare@@V?$allocator@U?$pair@$$CBVCGUID@@PAVCBaseObject@@@std@@@std@@$0A@@stdext@@@stdext@@0@Z
_TEXT	SEGMENT
___$ReturnUdt$ = 8					; size = 4
___formal$ = 12						; size = 4
___formal$ = 16						; size = 4
??$_Iter_random@PAU_List_position@?$_Hash@V?$_Hmap_traits@VCGUID@@PAVCBaseObject@@Vhash_guid_compare@@V?$allocator@U?$pair@$$CBVCGUID@@PAVCBaseObject@@@std@@@std@@$0A@@stdext@@@stdext@@PAU123@@std@@YA?AUrandom_access_iterator_tag@0@ABQAU_List_position@?$_Hash@V?$_Hmap_traits@VCGUID@@PAVCBaseObject@@Vhash_guid_compare@@V?$allocator@U?$pair@$$CBVCGUID@@PAVCBaseObject@@@std@@@std@@$0A@@stdext@@@stdext@@0@Z PROC ; std::_Iter_random<stdext::_Hash<stdext::_Hmap_traits<CGUID,CBaseObject *,hash_guid_compare,std::allocator<std::pair<CGUID const ,CBaseObject *> >,0> >::_List_position *,stdext::_Hash<stdext::_Hmap_traits<CGUID,CBaseObject *,hash_guid_compare,std::allocator<std::pair<CGUID const ,CBaseObject *> >,0> >::_List_position *>, COMDAT

; 840  : 	typename _Iter_random_helper<
; 841  : 		iterator_traits<_Iter1>::iterator_category, 
; 842  : 		iterator_traits<_Iter2>::iterator_category>::_Iter_random_cat _Cat;
; 843  : 	return (_Cat);

  00000	8b 44 24 04	 mov	 eax, DWORD PTR ___$ReturnUdt$[esp-4]

; 844  : 	}

  00004	c3		 ret	 0
??$_Iter_random@PAU_List_position@?$_Hash@V?$_Hmap_traits@VCGUID@@PAVCBaseObject@@Vhash_guid_compare@@V?$allocator@U?$pair@$$CBVCGUID@@PAVCBaseObject@@@std@@@std@@$0A@@stdext@@@stdext@@PAU123@@std@@YA?AUrandom_access_iterator_tag@0@ABQAU_List_position@?$_Hash@V?$_Hmap_traits@VCGUID@@PAVCBaseObject@@Vhash_guid_compare@@V?$allocator@U?$pair@$$CBVCGUID@@PAVCBaseObject@@@std@@@std@@$0A@@stdext@@@stdext@@0@Z ENDP ; std::_Iter_random<stdext::_Hash<stdext::_Hmap_traits<CGUID,CBaseObject *,hash_guid_compare,std::allocator<std::pair<CGUID const ,CBaseObject *> >,0> >::_List_position *,stdext::_Hash<stdext::_Hmap_traits<CGUID,CBaseObject *,hash_guid_compare,std::allocator<std::pair<CGUID const ,CBaseObject *> >,0> >::_List_position *>
_TEXT	ENDS
PUBLIC	??$_Ptr_cat@PAU_List_position@?$_Hash@V?$_Hmap_traits@VCGUID@@PAVCBaseObject@@Vhash_guid_compare@@V?$allocator@U?$pair@$$CBVCGUID@@PAVCBaseObject@@@std@@@std@@$0A@@stdext@@@stdext@@PAU123@@std@@YA?AU_Nonscalar_ptr_iterator_tag@0@AAPAU_List_position@?$_Hash@V?$_Hmap_traits@VCGUID@@PAVCBaseObject@@Vhash_guid_compare@@V?$allocator@U?$pair@$$CBVCGUID@@PAVCBaseObject@@@std@@@std@@$0A@@stdext@@@stdext@@0@Z ; std::_Ptr_cat<stdext::_Hash<stdext::_Hmap_traits<CGUID,CBaseObject *,hash_guid_compare,std::allocator<std::pair<CGUID const ,CBaseObject *> >,0> >::_List_position *,stdext::_Hash<stdext::_Hmap_traits<CGUID,CBaseObject *,hash_guid_compare,std::allocator<std::pair<CGUID const ,CBaseObject *> >,0> >::_List_position *>
; Function compile flags: /Ogtpy
;	COMDAT ??$_Ptr_cat@PAU_List_position@?$_Hash@V?$_Hmap_traits@VCGUID@@PAVCBaseObject@@Vhash_guid_compare@@V?$allocator@U?$pair@$$CBVCGUID@@PAVCBaseObject@@@std@@@std@@$0A@@stdext@@@stdext@@PAU123@@std@@YA?AU_Nonscalar_ptr_iterator_tag@0@AAPAU_List_position@?$_Hash@V?$_Hmap_traits@VCGUID@@PAVCBaseObject@@Vhash_guid_compare@@V?$allocator@U?$pair@$$CBVCGUID@@PAVCBaseObject@@@std@@@std@@$0A@@stdext@@@stdext@@0@Z
_TEXT	SEGMENT
__Cat$ = -1						; size = 1
___formal$ = 8						; size = 4
___formal$ = 12						; size = 4
??$_Ptr_cat@PAU_List_position@?$_Hash@V?$_Hmap_traits@VCGUID@@PAVCBaseObject@@Vhash_guid_compare@@V?$allocator@U?$pair@$$CBVCGUID@@PAVCBaseObject@@@std@@@std@@$0A@@stdext@@@stdext@@PAU123@@std@@YA?AU_Nonscalar_ptr_iterator_tag@0@AAPAU_List_position@?$_Hash@V?$_Hmap_traits@VCGUID@@PAVCBaseObject@@Vhash_guid_compare@@V?$allocator@U?$pair@$$CBVCGUID@@PAVCBaseObject@@@std@@@std@@$0A@@stdext@@@stdext@@0@Z PROC ; std::_Ptr_cat<stdext::_Hash<stdext::_Hmap_traits<CGUID,CBaseObject *,hash_guid_compare,std::allocator<std::pair<CGUID const ,CBaseObject *> >,0> >::_List_position *,stdext::_Hash<stdext::_Hmap_traits<CGUID,CBaseObject *,hash_guid_compare,std::allocator<std::pair<CGUID const ,CBaseObject *> >,0> >::_List_position *>, COMDAT

; 1329 : 	{

  00000	51		 push	 ecx

; 1330 : 	typename _Ptr_cat_helper<_T1, _T2>::_Ptr_cat _Cat;
; 1331 : 	return (_Cat);

  00001	8a 44 24 03	 mov	 al, BYTE PTR __Cat$[esp+4]

; 1332 : 	}

  00005	59		 pop	 ecx
  00006	c3		 ret	 0
??$_Ptr_cat@PAU_List_position@?$_Hash@V?$_Hmap_traits@VCGUID@@PAVCBaseObject@@Vhash_guid_compare@@V?$allocator@U?$pair@$$CBVCGUID@@PAVCBaseObject@@@std@@@std@@$0A@@stdext@@@stdext@@PAU123@@std@@YA?AU_Nonscalar_ptr_iterator_tag@0@AAPAU_List_position@?$_Hash@V?$_Hmap_traits@VCGUID@@PAVCBaseObject@@Vhash_guid_compare@@V?$allocator@U?$pair@$$CBVCGUID@@PAVCBaseObject@@@std@@@std@@$0A@@stdext@@@stdext@@0@Z ENDP ; std::_Ptr_cat<stdext::_Hash<stdext::_Hmap_traits<CGUID,CBaseObject *,hash_guid_compare,std::allocator<std::pair<CGUID const ,CBaseObject *> >,0> >::_List_position *,stdext::_Hash<stdext::_Hmap_traits<CGUID,CBaseObject *,hash_guid_compare,std::allocator<std::pair<CGUID const ,CBaseObject *> >,0> >::_List_position *>
_TEXT	ENDS
PUBLIC	??$_Fill@PAU_List_position@?$_Hash@V?$_Hmap_traits@VCGUID@@PAVCBaseObject@@Vhash_guid_compare@@V?$allocator@U?$pair@$$CBVCGUID@@PAVCBaseObject@@@std@@@std@@$0A@@stdext@@@stdext@@U123@@std@@YAXPAU_List_position@?$_Hash@V?$_Hmap_traits@VCGUID@@PAVCBaseObject@@Vhash_guid_compare@@V?$allocator@U?$pair@$$CBVCGUID@@PAVCBaseObject@@@std@@@std@@$0A@@stdext@@@stdext@@0ABU123@@Z ; std::_Fill<stdext::_Hash<stdext::_Hmap_traits<CGUID,CBaseObject *,hash_guid_compare,std::allocator<std::pair<CGUID const ,CBaseObject *> >,0> >::_List_position *,stdext::_Hash<stdext::_Hmap_traits<CGUID,CBaseObject *,hash_guid_compare,std::allocator<std::pair<CGUID const ,CBaseObject *> >,0> >::_List_position>
; Function compile flags: /Ogtpy
;	COMDAT ??$_Fill@PAU_List_position@?$_Hash@V?$_Hmap_traits@VCGUID@@PAVCBaseObject@@Vhash_guid_compare@@V?$allocator@U?$pair@$$CBVCGUID@@PAVCBaseObject@@@std@@@std@@$0A@@stdext@@@stdext@@U123@@std@@YAXPAU_List_position@?$_Hash@V?$_Hmap_traits@VCGUID@@PAVCBaseObject@@Vhash_guid_compare@@V?$allocator@U?$pair@$$CBVCGUID@@PAVCBaseObject@@@std@@@std@@$0A@@stdext@@@stdext@@0ABU123@@Z
_TEXT	SEGMENT
__First$ = 8						; size = 4
__Last$ = 12						; size = 4
__Val$ = 16						; size = 4
??$_Fill@PAU_List_position@?$_Hash@V?$_Hmap_traits@VCGUID@@PAVCBaseObject@@Vhash_guid_compare@@V?$allocator@U?$pair@$$CBVCGUID@@PAVCBaseObject@@@std@@@std@@$0A@@stdext@@@stdext@@U123@@std@@YAXPAU_List_position@?$_Hash@V?$_Hmap_traits@VCGUID@@PAVCBaseObject@@Vhash_guid_compare@@V?$allocator@U?$pair@$$CBVCGUID@@PAVCBaseObject@@@std@@@std@@$0A@@stdext@@@stdext@@0ABU123@@Z PROC ; std::_Fill<stdext::_Hash<stdext::_Hmap_traits<CGUID,CBaseObject *,hash_guid_compare,std::allocator<std::pair<CGUID const ,CBaseObject *> >,0> >::_List_position *,stdext::_Hash<stdext::_Hmap_traits<CGUID,CBaseObject *,hash_guid_compare,std::allocator<std::pair<CGUID const ,CBaseObject *> >,0> >::_List_position>, COMDAT

; 2947 : 	_DEBUG_RANGE(_First, _Last);
; 2948 : 	for (; _First != _Last; ++_First)

  00000	8b 44 24 04	 mov	 eax, DWORD PTR __First$[esp-4]
  00004	8b 54 24 08	 mov	 edx, DWORD PTR __Last$[esp-4]
  00008	3b c2		 cmp	 eax, edx
  0000a	74 17		 je	 SHORT $LN1@Fill
  0000c	8b 4c 24 0c	 mov	 ecx, DWORD PTR __Val$[esp-4]
  00010	56		 push	 esi
$LL3@Fill:

; 2949 : 		*_First = _Val;

  00011	8b 31		 mov	 esi, DWORD PTR [ecx]
  00013	89 30		 mov	 DWORD PTR [eax], esi
  00015	8b 71 04	 mov	 esi, DWORD PTR [ecx+4]
  00018	89 70 04	 mov	 DWORD PTR [eax+4], esi
  0001b	83 c0 08	 add	 eax, 8
  0001e	3b c2		 cmp	 eax, edx
  00020	75 ef		 jne	 SHORT $LL3@Fill
  00022	5e		 pop	 esi
$LN1@Fill:

; 2950 : 	}

  00023	c3		 ret	 0
??$_Fill@PAU_List_position@?$_Hash@V?$_Hmap_traits@VCGUID@@PAVCBaseObject@@Vhash_guid_compare@@V?$allocator@U?$pair@$$CBVCGUID@@PAVCBaseObject@@@std@@@std@@$0A@@stdext@@@stdext@@U123@@std@@YAXPAU_List_position@?$_Hash@V?$_Hmap_traits@VCGUID@@PAVCBaseObject@@Vhash_guid_compare@@V?$allocator@U?$pair@$$CBVCGUID@@PAVCBaseObject@@@std@@@std@@$0A@@stdext@@@stdext@@0ABU123@@Z ENDP ; std::_Fill<stdext::_Hash<stdext::_Hmap_traits<CGUID,CBaseObject *,hash_guid_compare,std::allocator<std::pair<CGUID const ,CBaseObject *> >,0> >::_List_position *,stdext::_Hash<stdext::_Hmap_traits<CGUID,CBaseObject *,hash_guid_compare,std::allocator<std::pair<CGUID const ,CBaseObject *> >,0> >::_List_position>
_TEXT	ENDS
PUBLIC	??$_Move_cat@PAU_List_position@?$_Hash@V?$_Hmap_traits@VCGUID@@PAVCBaseObject@@Vhash_guid_compare@@V?$allocator@U?$pair@$$CBVCGUID@@PAVCBaseObject@@@std@@@std@@$0A@@stdext@@@stdext@@@std@@YA?AU_Undefined_move_tag@0@ABQAU_List_position@?$_Hash@V?$_Hmap_traits@VCGUID@@PAVCBaseObject@@Vhash_guid_compare@@V?$allocator@U?$pair@$$CBVCGUID@@PAVCBaseObject@@@std@@@std@@$0A@@stdext@@@stdext@@@Z ; std::_Move_cat<stdext::_Hash<stdext::_Hmap_traits<CGUID,CBaseObject *,hash_guid_compare,std::allocator<std::pair<CGUID const ,CBaseObject *> >,0> >::_List_position *>
; Function compile flags: /Ogtpy
;	COMDAT ??$_Move_cat@PAU_List_position@?$_Hash@V?$_Hmap_traits@VCGUID@@PAVCBaseObject@@Vhash_guid_compare@@V?$allocator@U?$pair@$$CBVCGUID@@PAVCBaseObject@@@std@@@std@@$0A@@stdext@@@stdext@@@std@@YA?AU_Undefined_move_tag@0@ABQAU_List_position@?$_Hash@V?$_Hmap_traits@VCGUID@@PAVCBaseObject@@Vhash_guid_compare@@V?$allocator@U?$pair@$$CBVCGUID@@PAVCBaseObject@@@std@@@std@@$0A@@stdext@@@stdext@@@Z
_TEXT	SEGMENT
__Cat$ = -1						; size = 1
___formal$ = 8						; size = 4
??$_Move_cat@PAU_List_position@?$_Hash@V?$_Hmap_traits@VCGUID@@PAVCBaseObject@@Vhash_guid_compare@@V?$allocator@U?$pair@$$CBVCGUID@@PAVCBaseObject@@@std@@@std@@$0A@@stdext@@@stdext@@@std@@YA?AU_Undefined_move_tag@0@ABQAU_List_position@?$_Hash@V?$_Hmap_traits@VCGUID@@PAVCBaseObject@@Vhash_guid_compare@@V?$allocator@U?$pair@$$CBVCGUID@@PAVCBaseObject@@@std@@@std@@$0A@@stdext@@@stdext@@@Z PROC ; std::_Move_cat<stdext::_Hash<stdext::_Hmap_traits<CGUID,CBaseObject *,hash_guid_compare,std::allocator<std::pair<CGUID const ,CBaseObject *> >,0> >::_List_position *>, COMDAT

; 1046 : 	{

  00000	51		 push	 ecx

; 1047 : 		typename _Move_operation_category<typename iterator_traits<_Iter>::value_type>::_Move_cat _Cat;
; 1048 : 		return (_Cat);

  00001	8a 44 24 03	 mov	 al, BYTE PTR __Cat$[esp+4]

; 1049 : 	}

  00005	59		 pop	 ecx
  00006	c3		 ret	 0
??$_Move_cat@PAU_List_position@?$_Hash@V?$_Hmap_traits@VCGUID@@PAVCBaseObject@@Vhash_guid_compare@@V?$allocator@U?$pair@$$CBVCGUID@@PAVCBaseObject@@@std@@@std@@$0A@@stdext@@@stdext@@@std@@YA?AU_Undefined_move_tag@0@ABQAU_List_position@?$_Hash@V?$_Hmap_traits@VCGUID@@PAVCBaseObject@@Vhash_guid_compare@@V?$allocator@U?$pair@$$CBVCGUID@@PAVCBaseObject@@@std@@@std@@$0A@@stdext@@@stdext@@@Z ENDP ; std::_Move_cat<stdext::_Hash<stdext::_Hmap_traits<CGUID,CBaseObject *,hash_guid_compare,std::allocator<std::pair<CGUID const ,CBaseObject *> >,0> >::_List_position *>
_TEXT	ENDS
PUBLIC	??$_Checked_base@PAU_List_position@?$_Hash@V?$_Hmap_traits@VCGUID@@PAVCBaseObject@@Vhash_guid_compare@@V?$allocator@U?$pair@$$CBVCGUID@@PAVCBaseObject@@@std@@@std@@$0A@@stdext@@@stdext@@@std@@YAPAU_List_position@?$_Hash@V?$_Hmap_traits@VCGUID@@PAVCBaseObject@@Vhash_guid_compare@@V?$allocator@U?$pair@$$CBVCGUID@@PAVCBaseObject@@@std@@@std@@$0A@@stdext@@@stdext@@AAPAU123@U_Unchanged_checked_iterator_base_type_tag@0@@Z ; std::_Checked_base<stdext::_Hash<stdext::_Hmap_traits<CGUID,CBaseObject *,hash_guid_compare,std::allocator<std::pair<CGUID const ,CBaseObject *> >,0> >::_List_position *>
; Function compile flags: /Ogtpy
;	COMDAT ??$_Checked_base@PAU_List_position@?$_Hash@V?$_Hmap_traits@VCGUID@@PAVCBaseObject@@Vhash_guid_compare@@V?$allocator@U?$pair@$$CBVCGUID@@PAVCBaseObject@@@std@@@std@@$0A@@stdext@@@stdext@@@std@@YAPAU_List_position@?$_Hash@V?$_Hmap_traits@VCGUID@@PAVCBaseObject@@Vhash_guid_compare@@V?$allocator@U?$pair@$$CBVCGUID@@PAVCBaseObject@@@std@@@std@@$0A@@stdext@@@stdext@@AAPAU123@U_Unchanged_checked_iterator_base_type_tag@0@@Z
_TEXT	SEGMENT
__It$ = 8						; size = 4
___formal$ = 12						; size = 1
??$_Checked_base@PAU_List_position@?$_Hash@V?$_Hmap_traits@VCGUID@@PAVCBaseObject@@Vhash_guid_compare@@V?$allocator@U?$pair@$$CBVCGUID@@PAVCBaseObject@@@std@@@std@@$0A@@stdext@@@stdext@@@std@@YAPAU_List_position@?$_Hash@V?$_Hmap_traits@VCGUID@@PAVCBaseObject@@Vhash_guid_compare@@V?$allocator@U?$pair@$$CBVCGUID@@PAVCBaseObject@@@std@@@std@@$0A@@stdext@@@stdext@@AAPAU123@U_Unchanged_checked_iterator_base_type_tag@0@@Z PROC ; std::_Checked_base<stdext::_Hash<stdext::_Hmap_traits<CGUID,CBaseObject *,hash_guid_compare,std::allocator<std::pair<CGUID const ,CBaseObject *> >,0> >::_List_position *>, COMDAT

; 993  : 		return _It;

  00000	8b 44 24 04	 mov	 eax, DWORD PTR __It$[esp-4]
  00004	8b 00		 mov	 eax, DWORD PTR [eax]

; 994  : 	}

  00006	c3		 ret	 0
??$_Checked_base@PAU_List_position@?$_Hash@V?$_Hmap_traits@VCGUID@@PAVCBaseObject@@Vhash_guid_compare@@V?$allocator@U?$pair@$$CBVCGUID@@PAVCBaseObject@@@std@@@std@@$0A@@stdext@@@stdext@@@std@@YAPAU_List_position@?$_Hash@V?$_Hmap_traits@VCGUID@@PAVCBaseObject@@Vhash_guid_compare@@V?$allocator@U?$pair@$$CBVCGUID@@PAVCBaseObject@@@std@@@std@@$0A@@stdext@@@stdext@@AAPAU123@U_Unchanged_checked_iterator_base_type_tag@0@@Z ENDP ; std::_Checked_base<stdext::_Hash<stdext::_Hmap_traits<CGUID,CBaseObject *,hash_guid_compare,std::allocator<std::pair<CGUID const ,CBaseObject *> >,0> >::_List_position *>
_TEXT	ENDS
PUBLIC	??$_Copy_opt@PAU_List_position@?$_Hash@V?$_Hmap_traits@VCGUID@@PAVCBaseObject@@Vhash_guid_compare@@V?$allocator@U?$pair@$$CBVCGUID@@PAVCBaseObject@@@std@@@std@@$0A@@stdext@@@stdext@@PAU123@Uforward_iterator_tag@std@@@std@@YAPAU_List_position@?$_Hash@V?$_Hmap_traits@VCGUID@@PAVCBaseObject@@Vhash_guid_compare@@V?$allocator@U?$pair@$$CBVCGUID@@PAVCBaseObject@@@std@@@std@@$0A@@stdext@@@stdext@@PAU123@00Uforward_iterator_tag@0@U_Nonscalar_ptr_iterator_tag@0@U_Range_checked_iterator_tag@0@@Z ; std::_Copy_opt<stdext::_Hash<stdext::_Hmap_traits<CGUID,CBaseObject *,hash_guid_compare,std::allocator<std::pair<CGUID const ,CBaseObject *> >,0> >::_List_position *,stdext::_Hash<stdext::_Hmap_traits<CGUID,CBaseObject *,hash_guid_compare,std::allocator<std::pair<CGUID const ,CBaseObject *> >,0> >::_List_position *,std::forward_iterator_tag>
; Function compile flags: /Ogtpy
;	COMDAT ??$_Copy_opt@PAU_List_position@?$_Hash@V?$_Hmap_traits@VCGUID@@PAVCBaseObject@@Vhash_guid_compare@@V?$allocator@U?$pair@$$CBVCGUID@@PAVCBaseObject@@@std@@@std@@$0A@@stdext@@@stdext@@PAU123@Uforward_iterator_tag@std@@@std@@YAPAU_List_position@?$_Hash@V?$_Hmap_traits@VCGUID@@PAVCBaseObject@@Vhash_guid_compare@@V?$allocator@U?$pair@$$CBVCGUID@@PAVCBaseObject@@@std@@@std@@$0A@@stdext@@@stdext@@PAU123@00Uforward_iterator_tag@0@U_Nonscalar_ptr_iterator_tag@0@U_Range_checked_iterator_tag@0@@Z
_TEXT	SEGMENT
__First$ = 8						; size = 4
__Last$ = 12						; size = 4
__Dest$ = 16						; size = 4
___formal$ = 20						; size = 1
___formal$ = 24						; size = 1
___formal$ = 28						; size = 1
??$_Copy_opt@PAU_List_position@?$_Hash@V?$_Hmap_traits@VCGUID@@PAVCBaseObject@@Vhash_guid_compare@@V?$allocator@U?$pair@$$CBVCGUID@@PAVCBaseObject@@@std@@@std@@$0A@@stdext@@@stdext@@PAU123@Uforward_iterator_tag@std@@@std@@YAPAU_List_position@?$_Hash@V?$_Hmap_traits@VCGUID@@PAVCBaseObject@@Vhash_guid_compare@@V?$allocator@U?$pair@$$CBVCGUID@@PAVCBaseObject@@@std@@@std@@$0A@@stdext@@@stdext@@PAU123@00Uforward_iterator_tag@0@U_Nonscalar_ptr_iterator_tag@0@U_Range_checked_iterator_tag@0@@Z PROC ; std::_Copy_opt<stdext::_Hash<stdext::_Hmap_traits<CGUID,CBaseObject *,hash_guid_compare,std::allocator<std::pair<CGUID const ,CBaseObject *> >,0> >::_List_position *,stdext::_Hash<stdext::_Hmap_traits<CGUID,CBaseObject *,hash_guid_compare,std::allocator<std::pair<CGUID const ,CBaseObject *> >,0> >::_List_position *,std::forward_iterator_tag>, COMDAT

; 2264 : 	_DEBUG_RANGE(_First, _Last);
; 2265 : 	for (; _First != _Last; ++_Dest, ++_First)

  00000	8b 4c 24 04	 mov	 ecx, DWORD PTR __First$[esp-4]
  00004	8b 54 24 08	 mov	 edx, DWORD PTR __Last$[esp-4]
  00008	3b ca		 cmp	 ecx, edx
  0000a	8b 44 24 0c	 mov	 eax, DWORD PTR __Dest$[esp-4]
  0000e	74 16		 je	 SHORT $LN1@Copy_opt
  00010	56		 push	 esi
$LL3@Copy_opt:

; 2266 : 		*_Dest = *_First;

  00011	8b 31		 mov	 esi, DWORD PTR [ecx]
  00013	89 30		 mov	 DWORD PTR [eax], esi
  00015	8b 71 04	 mov	 esi, DWORD PTR [ecx+4]
  00018	89 70 04	 mov	 DWORD PTR [eax+4], esi
  0001b	83 c1 08	 add	 ecx, 8
  0001e	83 c0 08	 add	 eax, 8
  00021	3b ca		 cmp	 ecx, edx
  00023	75 ec		 jne	 SHORT $LL3@Copy_opt
  00025	5e		 pop	 esi
$LN1@Copy_opt:

; 2267 : 	return (_Dest);
; 2268 : 	}

  00026	c3		 ret	 0
??$_Copy_opt@PAU_List_position@?$_Hash@V?$_Hmap_traits@VCGUID@@PAVCBaseObject@@Vhash_guid_compare@@V?$allocator@U?$pair@$$CBVCGUID@@PAVCBaseObject@@@std@@@std@@$0A@@stdext@@@stdext@@PAU123@Uforward_iterator_tag@std@@@std@@YAPAU_List_position@?$_Hash@V?$_Hmap_traits@VCGUID@@PAVCBaseObject@@Vhash_guid_compare@@V?$allocator@U?$pair@$$CBVCGUID@@PAVCBaseObject@@@std@@@std@@$0A@@stdext@@@stdext@@PAU123@00Uforward_iterator_tag@0@U_Nonscalar_ptr_iterator_tag@0@U_Range_checked_iterator_tag@0@@Z ENDP ; std::_Copy_opt<stdext::_Hash<stdext::_Hmap_traits<CGUID,CBaseObject *,hash_guid_compare,std::allocator<std::pair<CGUID const ,CBaseObject *> >,0> >::_List_position *,stdext::_Hash<stdext::_Hmap_traits<CGUID,CBaseObject *,hash_guid_compare,std::allocator<std::pair<CGUID const ,CBaseObject *> >,0> >::_List_position *,std::forward_iterator_tag>
_TEXT	ENDS
PUBLIC	??$_Construct@U_List_position@?$_Hash@V?$_Hmap_traits@VCGUID@@PAVCBaseObject@@Vhash_guid_compare@@V?$allocator@U?$pair@$$CBVCGUID@@PAVCBaseObject@@@std@@@std@@$0A@@stdext@@@stdext@@U123@@std@@YAXPAU_List_position@?$_Hash@V?$_Hmap_traits@VCGUID@@PAVCBaseObject@@Vhash_guid_compare@@V?$allocator@U?$pair@$$CBVCGUID@@PAVCBaseObject@@@std@@@std@@$0A@@stdext@@@stdext@@ABU123@@Z ; std::_Construct<stdext::_Hash<stdext::_Hmap_traits<CGUID,CBaseObject *,hash_guid_compare,std::allocator<std::pair<CGUID const ,CBaseObject *> >,0> >::_List_position,stdext::_Hash<stdext::_Hmap_traits<CGUID,CBaseObject *,hash_guid_compare,std::allocator<std::pair<CGUID const ,CBaseObject *> >,0> >::_List_position>
; Function compile flags: /Ogtpy
; File d:\program files\microsoft visual studio 8\vc\include\xmemory
;	COMDAT ??$_Construct@U_List_position@?$_Hash@V?$_Hmap_traits@VCGUID@@PAVCBaseObject@@Vhash_guid_compare@@V?$allocator@U?$pair@$$CBVCGUID@@PAVCBaseObject@@@std@@@std@@$0A@@stdext@@@stdext@@U123@@std@@YAXPAU_List_position@?$_Hash@V?$_Hmap_traits@VCGUID@@PAVCBaseObject@@Vhash_guid_compare@@V?$allocator@U?$pair@$$CBVCGUID@@PAVCBaseObject@@@std@@@std@@$0A@@stdext@@@stdext@@ABU123@@Z
_TEXT	SEGMENT
__Ptr$ = 8						; size = 4
__Val$ = 12						; size = 4
??$_Construct@U_List_position@?$_Hash@V?$_Hmap_traits@VCGUID@@PAVCBaseObject@@Vhash_guid_compare@@V?$allocator@U?$pair@$$CBVCGUID@@PAVCBaseObject@@@std@@@std@@$0A@@stdext@@@stdext@@U123@@std@@YAXPAU_List_position@?$_Hash@V?$_Hmap_traits@VCGUID@@PAVCBaseObject@@Vhash_guid_compare@@V?$allocator@U?$pair@$$CBVCGUID@@PAVCBaseObject@@@std@@@std@@$0A@@stdext@@@stdext@@ABU123@@Z PROC ; std::_Construct<stdext::_Hash<stdext::_Hmap_traits<CGUID,CBaseObject *,hash_guid_compare,std::allocator<std::pair<CGUID const ,CBaseObject *> >,0> >::_List_position,stdext::_Hash<stdext::_Hmap_traits<CGUID,CBaseObject *,hash_guid_compare,std::allocator<std::pair<CGUID const ,CBaseObject *> >,0> >::_List_position>, COMDAT

; 52   : 	void _FARQ *_Vptr = _Ptr;
; 53   : 	::new (_Vptr) _T1(_Val);

  00000	8b 44 24 04	 mov	 eax, DWORD PTR __Ptr$[esp-4]
  00004	85 c0		 test	 eax, eax
  00006	74 0e		 je	 SHORT $LN3@Construct@3
  00008	8b 4c 24 08	 mov	 ecx, DWORD PTR __Val$[esp-4]
  0000c	8b 11		 mov	 edx, DWORD PTR [ecx]
  0000e	89 10		 mov	 DWORD PTR [eax], edx
  00010	8b 49 04	 mov	 ecx, DWORD PTR [ecx+4]
  00013	89 48 04	 mov	 DWORD PTR [eax+4], ecx
$LN3@Construct@3:

; 54   : 	}

  00016	c3		 ret	 0
??$_Construct@U_List_position@?$_Hash@V?$_Hmap_traits@VCGUID@@PAVCBaseObject@@Vhash_guid_compare@@V?$allocator@U?$pair@$$CBVCGUID@@PAVCBaseObject@@@std@@@std@@$0A@@stdext@@@stdext@@U123@@std@@YAXPAU_List_position@?$_Hash@V?$_Hmap_traits@VCGUID@@PAVCBaseObject@@Vhash_guid_compare@@V?$allocator@U?$pair@$$CBVCGUID@@PAVCBaseObject@@@std@@@std@@$0A@@stdext@@@stdext@@ABU123@@Z ENDP ; std::_Construct<stdext::_Hash<stdext::_Hmap_traits<CGUID,CBaseObject *,hash_guid_compare,std::allocator<std::pair<CGUID const ,CBaseObject *> >,0> >::_List_position,stdext::_Hash<stdext::_Hmap_traits<CGUID,CBaseObject *,hash_guid_compare,std::allocator<std::pair<CGUID const ,CBaseObject *> >,0> >::_List_position>
_TEXT	ENDS
PUBLIC	??$_Destroy@U_List_position@?$_Hash@V?$_Hmap_traits@VCGUID@@PAVCBaseObject@@Vhash_guid_compare@@V?$allocator@U?$pair@$$CBVCGUID@@PAVCBaseObject@@@std@@@std@@$0A@@stdext@@@stdext@@@std@@YAXPAU_List_position@?$_Hash@V?$_Hmap_traits@VCGUID@@PAVCBaseObject@@Vhash_guid_compare@@V?$allocator@U?$pair@$$CBVCGUID@@PAVCBaseObject@@@std@@@std@@$0A@@stdext@@@stdext@@@Z ; std::_Destroy<stdext::_Hash<stdext::_Hmap_traits<CGUID,CBaseObject *,hash_guid_compare,std::allocator<std::pair<CGUID const ,CBaseObject *> >,0> >::_List_position>
; Function compile flags: /Ogtpy
;	COMDAT ??$_Destroy@U_List_position@?$_Hash@V?$_Hmap_traits@VCGUID@@PAVCBaseObject@@Vhash_guid_compare@@V?$allocator@U?$pair@$$CBVCGUID@@PAVCBaseObject@@@std@@@std@@$0A@@stdext@@@stdext@@@std@@YAXPAU_List_position@?$_Hash@V?$_Hmap_traits@VCGUID@@PAVCBaseObject@@Vhash_guid_compare@@V?$allocator@U?$pair@$$CBVCGUID@@PAVCBaseObject@@@std@@@std@@$0A@@stdext@@@stdext@@@Z
_TEXT	SEGMENT
__Ptr$ = 8						; size = 4
??$_Destroy@U_List_position@?$_Hash@V?$_Hmap_traits@VCGUID@@PAVCBaseObject@@Vhash_guid_compare@@V?$allocator@U?$pair@$$CBVCGUID@@PAVCBaseObject@@@std@@@std@@$0A@@stdext@@@stdext@@@std@@YAXPAU_List_position@?$_Hash@V?$_Hmap_traits@VCGUID@@PAVCBaseObject@@Vhash_guid_compare@@V?$allocator@U?$pair@$$CBVCGUID@@PAVCBaseObject@@@std@@@std@@$0A@@stdext@@@stdext@@@Z PROC ; std::_Destroy<stdext::_Hash<stdext::_Hmap_traits<CGUID,CBaseObject *,hash_guid_compare,std::allocator<std::pair<CGUID const ,CBaseObject *> >,0> >::_List_position>, COMDAT

; 60   : 	_DESTRUCTOR(_Ty, _Ptr);
; 61   : 	}

  00000	c3		 ret	 0
??$_Destroy@U_List_position@?$_Hash@V?$_Hmap_traits@VCGUID@@PAVCBaseObject@@Vhash_guid_compare@@V?$allocator@U?$pair@$$CBVCGUID@@PAVCBaseObject@@@std@@@std@@$0A@@stdext@@@stdext@@@std@@YAXPAU_List_position@?$_Hash@V?$_Hmap_traits@VCGUID@@PAVCBaseObject@@Vhash_guid_compare@@V?$allocator@U?$pair@$$CBVCGUID@@PAVCBaseObject@@@std@@@std@@$0A@@stdext@@@stdext@@@Z ENDP ; std::_Destroy<stdext::_Hash<stdext::_Hmap_traits<CGUID,CBaseObject *,hash_guid_compare,std::allocator<std::pair<CGUID const ,CBaseObject *> >,0> >::_List_position>
_TEXT	ENDS
PUBLIC	?GetInfo@?$CListNode@E@XM_Tools@@QAEAAEXZ	; XM_Tools::CListNode<unsigned char>::GetInfo
; Function compile flags: /Ogtpy
; File d:\project_p6\trunk\public\memmanage\include\memlist.h
;	COMDAT ?GetInfo@?$CListNode@E@XM_Tools@@QAEAAEXZ
_TEXT	SEGMENT
?GetInfo@?$CListNode@E@XM_Tools@@QAEAAEXZ PROC		; XM_Tools::CListNode<unsigned char>::GetInfo, COMDAT
; _this$ = ecx

; 37   : 		inline _TNodeInfo& 		GetInfo(void)				{return m_pInfo;}

  00000	8b c1		 mov	 eax, ecx
  00002	c3		 ret	 0
?GetInfo@?$CListNode@E@XM_Tools@@QAEAAEXZ ENDP		; XM_Tools::CListNode<unsigned char>::GetInfo
_TEXT	ENDS
PUBLIC	?SetInfo@?$CListNode@E@XM_Tools@@QAEXAAE@Z	; XM_Tools::CListNode<unsigned char>::SetInfo
; Function compile flags: /Ogtpy
;	COMDAT ?SetInfo@?$CListNode@E@XM_Tools@@QAEXAAE@Z
_TEXT	SEGMENT
_Info$ = 8						; size = 4
?SetInfo@?$CListNode@E@XM_Tools@@QAEXAAE@Z PROC		; XM_Tools::CListNode<unsigned char>::SetInfo, COMDAT
; _this$ = ecx

; 38   : 		inline void 			SetInfo(_TNodeInfo &Info)	{m_pInfo = Info;}

  00000	8b 44 24 04	 mov	 eax, DWORD PTR _Info$[esp-4]
  00004	8a 10		 mov	 dl, BYTE PTR [eax]
  00006	88 11		 mov	 BYTE PTR [ecx], dl
  00008	c2 04 00	 ret	 4
?SetInfo@?$CListNode@E@XM_Tools@@QAEXAAE@Z ENDP		; XM_Tools::CListNode<unsigned char>::SetInfo
_TEXT	ENDS
PUBLIC	?GetReBuf@?$CListNode@E@XM_Tools@@QAEPAXXZ	; XM_Tools::CListNode<unsigned char>::GetReBuf
; Function compile flags: /Ogtpy
;	COMDAT ?GetReBuf@?$CListNode@E@XM_Tools@@QAEPAXXZ
_TEXT	SEGMENT
?GetReBuf@?$CListNode@E@XM_Tools@@QAEPAXXZ PROC		; XM_Tools::CListNode<unsigned char>::GetReBuf, COMDAT
; _this$ = ecx

; 41   : 		inline void*			GetReBuf(void)				{return &m_pNext;}

  00000	8d 41 04	 lea	 eax, DWORD PTR [ecx+4]
  00003	c3		 ret	 0
?GetReBuf@?$CListNode@E@XM_Tools@@QAEPAXXZ ENDP		; XM_Tools::CListNode<unsigned char>::GetReBuf
_TEXT	ENDS
PUBLIC	??0tagHeapMemInfo@?$CHeapPool@VLockOfWinWhileSleep@XM_Tools@@@XM_Tools@@QAE@K@Z ; XM_Tools::CHeapPool<XM_Tools::LockOfWinWhileSleep>::tagHeapMemInfo::tagHeapMemInfo
; Function compile flags: /Ogtpy
; File d:\project_p6\trunk\public\memmanage\include\heappool.h
;	COMDAT ??0tagHeapMemInfo@?$CHeapPool@VLockOfWinWhileSleep@XM_Tools@@@XM_Tools@@QAE@K@Z
_TEXT	SEGMENT
_uInSize$ = 8						; size = 4
??0tagHeapMemInfo@?$CHeapPool@VLockOfWinWhileSleep@XM_Tools@@@XM_Tools@@QAE@K@Z PROC ; XM_Tools::CHeapPool<XM_Tools::LockOfWinWhileSleep>::tagHeapMemInfo::tagHeapMemInfo, COMDAT
; _this$ = ecx

; 44   : 			tagHeapMemInfo(unsigned long uInSize):uSize(uInSize){}

  00000	8b c1		 mov	 eax, ecx
  00002	8b 4c 24 04	 mov	 ecx, DWORD PTR _uInSize$[esp-4]
  00006	89 08		 mov	 DWORD PTR [eax], ecx
  00008	c2 04 00	 ret	 4
??0tagHeapMemInfo@?$CHeapPool@VLockOfWinWhileSleep@XM_Tools@@@XM_Tools@@QAE@K@Z ENDP ; XM_Tools::CHeapPool<XM_Tools::LockOfWinWhileSleep>::tagHeapMemInfo::tagHeapMemInfo
_TEXT	ENDS
PUBLIC	?GetInfo@?$CListBNode@UtagHeapMemInfo@?$CHeapPool@VLockOfWinWhileSleep@XM_Tools@@@XM_Tools@@@XM_Tools@@QAEAAUtagHeapMemInfo@?$CHeapPool@VLockOfWinWhileSleep@XM_Tools@@@2@XZ ; XM_Tools::CListBNode<XM_Tools::CHeapPool<XM_Tools::LockOfWinWhileSleep>::tagHeapMemInfo>::GetInfo
; Function compile flags: /Ogtpy
; File d:\project_p6\trunk\public\memmanage\include\memlist.h
;	COMDAT ?GetInfo@?$CListBNode@UtagHeapMemInfo@?$CHeapPool@VLockOfWinWhileSleep@XM_Tools@@@XM_Tools@@@XM_Tools@@QAEAAUtagHeapMemInfo@?$CHeapPool@VLockOfWinWhileSleep@XM_Tools@@@2@XZ
_TEXT	SEGMENT
?GetInfo@?$CListBNode@UtagHeapMemInfo@?$CHeapPool@VLockOfWinWhileSleep@XM_Tools@@@XM_Tools@@@XM_Tools@@QAEAAUtagHeapMemInfo@?$CHeapPool@VLockOfWinWhileSleep@XM_Tools@@@2@XZ PROC ; XM_Tools::CListBNode<XM_Tools::CHeapPool<XM_Tools::LockOfWinWhileSleep>::tagHeapMemInfo>::GetInfo, COMDAT
; _this$ = ecx

; 123  : 		inline _TNodeInfo& 		GetInfo(void)				{return m_pInfo;}

  00000	8b c1		 mov	 eax, ecx
  00002	c3		 ret	 0
?GetInfo@?$CListBNode@UtagHeapMemInfo@?$CHeapPool@VLockOfWinWhileSleep@XM_Tools@@@XM_Tools@@@XM_Tools@@QAEAAUtagHeapMemInfo@?$CHeapPool@VLockOfWinWhileSleep@XM_Tools@@@2@XZ ENDP ; XM_Tools::CListBNode<XM_Tools::CHeapPool<XM_Tools::LockOfWinWhileSleep>::tagHeapMemInfo>::GetInfo
_TEXT	ENDS
PUBLIC	??0?$CBlockPool@VLockOfWinWhileSleep@XM_Tools@@V?$CHeapPool@VLockOfWinWhileSleep@XM_Tools@@@2@@XM_Tools@@QAE@AAV?$CHeapPool@VLockOfWinWhileSleep@XM_Tools@@@1@@Z ; XM_Tools::CBlockPool<XM_Tools::LockOfWinWhileSleep,XM_Tools::CHeapPool<XM_Tools::LockOfWinWhileSleep> >::CBlockPool<XM_Tools::LockOfWinWhileSleep,XM_Tools::CHeapPool<XM_Tools::LockOfWinWhileSleep> >
; Function compile flags: /Ogtpy
; File d:\project_p6\trunk\public\memmanage\cpp\blockpool.tcc
;	COMDAT ??0?$CBlockPool@VLockOfWinWhileSleep@XM_Tools@@V?$CHeapPool@VLockOfWinWhileSleep@XM_Tools@@@2@@XM_Tools@@QAE@AAV?$CHeapPool@VLockOfWinWhileSleep@XM_Tools@@@1@@Z
_TEXT	SEGMENT
_Allocator$ = 8						; size = 4
??0?$CBlockPool@VLockOfWinWhileSleep@XM_Tools@@V?$CHeapPool@VLockOfWinWhileSleep@XM_Tools@@@2@@XM_Tools@@QAE@AAV?$CHeapPool@VLockOfWinWhileSleep@XM_Tools@@@1@@Z PROC ; XM_Tools::CBlockPool<XM_Tools::LockOfWinWhileSleep,XM_Tools::CHeapPool<XM_Tools::LockOfWinWhileSleep> >::CBlockPool<XM_Tools::LockOfWinWhileSleep,XM_Tools::CHeapPool<XM_Tools::LockOfWinWhileSleep> >, COMDAT
; _this$ = ecx

; 34   : 	{

  00000	8b c1		 mov	 eax, ecx
  00002	8b 4c 24 04	 mov	 ecx, DWORD PTR _Allocator$[esp-4]
  00006	89 08		 mov	 DWORD PTR [eax], ecx
  00008	33 c9		 xor	 ecx, ecx
  0000a	83 ca ff	 or	 edx, -1
  0000d	89 48 04	 mov	 DWORD PTR [eax+4], ecx
  00010	89 48 08	 mov	 DWORD PTR [eax+8], ecx
  00013	89 48 0c	 mov	 DWORD PTR [eax+12], ecx
  00016	89 50 10	 mov	 DWORD PTR [eax+16], edx
  00019	89 50 14	 mov	 DWORD PTR [eax+20], edx
  0001c	89 48 38	 mov	 DWORD PTR [eax+56], ecx
  0001f	89 48 3c	 mov	 DWORD PTR [eax+60], ecx
  00022	89 48 58	 mov	 DWORD PTR [eax+88], ecx
  00025	89 48 5c	 mov	 DWORD PTR [eax+92], ecx

; 35   : 
; 36   : 	}

  00028	c2 04 00	 ret	 4
??0?$CBlockPool@VLockOfWinWhileSleep@XM_Tools@@V?$CHeapPool@VLockOfWinWhileSleep@XM_Tools@@@2@@XM_Tools@@QAE@AAV?$CHeapPool@VLockOfWinWhileSleep@XM_Tools@@@1@@Z ENDP ; XM_Tools::CBlockPool<XM_Tools::LockOfWinWhileSleep,XM_Tools::CHeapPool<XM_Tools::LockOfWinWhileSleep> >::CBlockPool<XM_Tools::LockOfWinWhileSleep,XM_Tools::CHeapPool<XM_Tools::LockOfWinWhileSleep> >
_TEXT	ENDS
PUBLIC	?GetListIndex@?$CTilePool@VLockOfWinWhileSleep@XM_Tools@@V?$CHeapPool@VLockOfWinWhileSleep@XM_Tools@@@2@@XM_Tools@@AAEKK@Z ; XM_Tools::CTilePool<XM_Tools::LockOfWinWhileSleep,XM_Tools::CHeapPool<XM_Tools::LockOfWinWhileSleep> >::GetListIndex
; Function compile flags: /Ogtpy
; File d:\project_p6\trunk\public\memmanage\cpp\tilepool.tcc
;	COMDAT ?GetListIndex@?$CTilePool@VLockOfWinWhileSleep@XM_Tools@@V?$CHeapPool@VLockOfWinWhileSleep@XM_Tools@@@2@@XM_Tools@@AAEKK@Z
_TEXT	SEGMENT
_uSize$ = 8						; size = 4
?GetListIndex@?$CTilePool@VLockOfWinWhileSleep@XM_Tools@@V?$CHeapPool@VLockOfWinWhileSleep@XM_Tools@@@2@@XM_Tools@@AAEKK@Z PROC ; XM_Tools::CTilePool<XM_Tools::LockOfWinWhileSleep,XM_Tools::CHeapPool<XM_Tools::LockOfWinWhileSleep> >::GetListIndex, COMDAT
; _this$ = ecx

; 175  : 		if(TILE_MAX_SIZE < uSize || 0 == uSize)

  00000	8b 44 24 04	 mov	 eax, DWORD PTR _uSize$[esp-4]
  00004	3d 00 01 00 00	 cmp	 eax, 256		; 00000100H
  00009	77 18		 ja	 SHORT $LN1@GetListInd
  0000b	85 c0		 test	 eax, eax
  0000d	74 14		 je	 SHORT $LN1@GetListInd

; 177  : 		return uSize / MIN_GRANULARITY - ((0 == uSize % MIN_GRANULARITY) ? 1 : 0);

  0000f	8b c8		 mov	 ecx, eax
  00011	83 e1 07	 and	 ecx, 7
  00014	f6 d9		 neg	 cl
  00016	1b c9		 sbb	 ecx, ecx
  00018	83 c1 01	 add	 ecx, 1
  0001b	c1 e8 03	 shr	 eax, 3
  0001e	2b c1		 sub	 eax, ecx

; 178  : 	}

  00020	c2 04 00	 ret	 4
$LN1@GetListInd:

; 176  : 			return 0xFFFFFFFF;

  00023	83 c8 ff	 or	 eax, -1

; 178  : 	}

  00026	c2 04 00	 ret	 4
?GetListIndex@?$CTilePool@VLockOfWinWhileSleep@XM_Tools@@V?$CHeapPool@VLockOfWinWhileSleep@XM_Tools@@@2@@XM_Tools@@AAEKK@Z ENDP ; XM_Tools::CTilePool<XM_Tools::LockOfWinWhileSleep,XM_Tools::CHeapPool<XM_Tools::LockOfWinWhileSleep> >::GetListIndex
_TEXT	ENDS
PUBLIC	?GetDefaultAddCount@?$CTilePool@VLockOfWinWhileSleep@XM_Tools@@V?$CHeapPool@VLockOfWinWhileSleep@XM_Tools@@@2@@XM_Tools@@AAEKK@Z ; XM_Tools::CTilePool<XM_Tools::LockOfWinWhileSleep,XM_Tools::CHeapPool<XM_Tools::LockOfWinWhileSleep> >::GetDefaultAddCount
; Function compile flags: /Ogtpy
;	COMDAT ?GetDefaultAddCount@?$CTilePool@VLockOfWinWhileSleep@XM_Tools@@V?$CHeapPool@VLockOfWinWhileSleep@XM_Tools@@@2@@XM_Tools@@AAEKK@Z
_TEXT	SEGMENT
_uIndex$ = 8						; size = 4
?GetDefaultAddCount@?$CTilePool@VLockOfWinWhileSleep@XM_Tools@@V?$CHeapPool@VLockOfWinWhileSleep@XM_Tools@@@2@@XM_Tools@@AAEKK@Z PROC ; XM_Tools::CTilePool<XM_Tools::LockOfWinWhileSleep,XM_Tools::CHeapPool<XM_Tools::LockOfWinWhileSleep> >::GetDefaultAddCount, COMDAT
; _this$ = ecx

; 186  : 		MM_ASSERY(TILE_POOL_NUM > uIndex);
; 187  : 		return m_uDefaultAddSize / (MIN_GRANULARITY * (uIndex + 1));

  00000	8b 44 24 04	 mov	 eax, DWORD PTR _uIndex$[esp-4]
  00004	56		 push	 esi
  00005	8d 34 c5 08 00
	00 00		 lea	 esi, DWORD PTR [eax*8+8]
  0000c	8b 41 04	 mov	 eax, DWORD PTR [ecx+4]
  0000f	33 d2		 xor	 edx, edx
  00011	f7 f6		 div	 esi
  00013	5e		 pop	 esi

; 188  : 	}

  00014	c2 04 00	 ret	 4
?GetDefaultAddCount@?$CTilePool@VLockOfWinWhileSleep@XM_Tools@@V?$CHeapPool@VLockOfWinWhileSleep@XM_Tools@@@2@@XM_Tools@@AAEKK@Z ENDP ; XM_Tools::CTilePool<XM_Tools::LockOfWinWhileSleep,XM_Tools::CHeapPool<XM_Tools::LockOfWinWhileSleep> >::GetDefaultAddCount
_TEXT	ENDS
PUBLIC	?GetNodeNum@?$CMemList@EVLockOfWinWhileSleep@XM_Tools@@@XM_Tools@@QBEKXZ ; XM_Tools::CMemList<unsigned char,XM_Tools::LockOfWinWhileSleep>::GetNodeNum
; Function compile flags: /Ogtpy
; File d:\project_p6\trunk\public\memmanage\cpp\memlist.tcc
;	COMDAT ?GetNodeNum@?$CMemList@EVLockOfWinWhileSleep@XM_Tools@@@XM_Tools@@QBEKXZ
_TEXT	SEGMENT
?GetNodeNum@?$CMemList@EVLockOfWinWhileSleep@XM_Tools@@@XM_Tools@@QBEKXZ PROC ; XM_Tools::CMemList<unsigned char,XM_Tools::LockOfWinWhileSleep>::GetNodeNum, COMDAT
; _this$ = ecx

; 67   : 		return m_uNum;

  00000	8b 41 44	 mov	 eax, DWORD PTR [ecx+68]

; 68   : 	}

  00003	c3		 ret	 0
?GetNodeNum@?$CMemList@EVLockOfWinWhileSleep@XM_Tools@@@XM_Tools@@QBEKXZ ENDP ; XM_Tools::CMemList<unsigned char,XM_Tools::LockOfWinWhileSleep>::GetNodeNum
_TEXT	ENDS
PUBLIC	?GetNodeNum@?$CMemSerialBList@UtagHeapMemInfo@?$CHeapPool@VLockOfWinWhileSleep@XM_Tools@@@XM_Tools@@VLockOfWinWhileSleep@3@VHeapMemInfoLikeCompare@23@@XM_Tools@@QBEKXZ ; XM_Tools::CMemSerialBList<XM_Tools::CHeapPool<XM_Tools::LockOfWinWhileSleep>::tagHeapMemInfo,XM_Tools::LockOfWinWhileSleep,XM_Tools::CHeapPool<XM_Tools::LockOfWinWhileSleep>::HeapMemInfoLikeCompare>::GetNodeNum
; Function compile flags: /Ogtpy
;	COMDAT ?GetNodeNum@?$CMemSerialBList@UtagHeapMemInfo@?$CHeapPool@VLockOfWinWhileSleep@XM_Tools@@@XM_Tools@@VLockOfWinWhileSleep@3@VHeapMemInfoLikeCompare@23@@XM_Tools@@QBEKXZ
_TEXT	SEGMENT
?GetNodeNum@?$CMemSerialBList@UtagHeapMemInfo@?$CHeapPool@VLockOfWinWhileSleep@XM_Tools@@@XM_Tools@@VLockOfWinWhileSleep@3@VHeapMemInfoLikeCompare@23@@XM_Tools@@QBEKXZ PROC ; XM_Tools::CMemSerialBList<XM_Tools::CHeapPool<XM_Tools::LockOfWinWhileSleep>::tagHeapMemInfo,XM_Tools::LockOfWinWhileSleep,XM_Tools::CHeapPool<XM_Tools::LockOfWinWhileSleep>::HeapMemInfoLikeCompare>::GetNodeNum, COMDAT
; _this$ = ecx

; 284  : 		return m_uNum;

  00000	8b 41 48	 mov	 eax, DWORD PTR [ecx+72]

; 285  : 	}

  00003	c3		 ret	 0
?GetNodeNum@?$CMemSerialBList@UtagHeapMemInfo@?$CHeapPool@VLockOfWinWhileSleep@XM_Tools@@@XM_Tools@@VLockOfWinWhileSleep@3@VHeapMemInfoLikeCompare@23@@XM_Tools@@QBEKXZ ENDP ; XM_Tools::CMemSerialBList<XM_Tools::CHeapPool<XM_Tools::LockOfWinWhileSleep>::tagHeapMemInfo,XM_Tools::LockOfWinWhileSleep,XM_Tools::CHeapPool<XM_Tools::LockOfWinWhileSleep>::HeapMemInfoLikeCompare>::GetNodeNum
_TEXT	ENDS
PUBLIC	??$_Copy_backward_opt@PAU_List_position@?$_Hash@V?$_Hmap_traits@VCGUID@@PAVCBaseObject@@Vhash_guid_compare@@V?$allocator@U?$pair@$$CBVCGUID@@PAVCBaseObject@@@std@@@std@@$0A@@stdext@@@stdext@@PAU123@Uforward_iterator_tag@std@@@std@@YAPAU_List_position@?$_Hash@V?$_Hmap_traits@VCGUID@@PAVCBaseObject@@Vhash_guid_compare@@V?$allocator@U?$pair@$$CBVCGUID@@PAVCBaseObject@@@std@@@std@@$0A@@stdext@@@stdext@@PAU123@00Uforward_iterator_tag@0@U_Nonscalar_ptr_iterator_tag@0@U_Range_checked_iterator_tag@0@@Z ; std::_Copy_backward_opt<stdext::_Hash<stdext::_Hmap_traits<CGUID,CBaseObject *,hash_guid_compare,std::allocator<std::pair<CGUID const ,CBaseObject *> >,0> >::_List_position *,stdext::_Hash<stdext::_Hmap_traits<CGUID,CBaseObject *,hash_guid_compare,std::allocator<std::pair<CGUID const ,CBaseObject *> >,0> >::_List_position *,std::forward_iterator_tag>
; Function compile flags: /Ogtpy
; File d:\program files\microsoft visual studio 8\vc\include\xutility
;	COMDAT ??$_Copy_backward_opt@PAU_List_position@?$_Hash@V?$_Hmap_traits@VCGUID@@PAVCBaseObject@@Vhash_guid_compare@@V?$allocator@U?$pair@$$CBVCGUID@@PAVCBaseObject@@@std@@@std@@$0A@@stdext@@@stdext@@PAU123@Uforward_iterator_tag@std@@@std@@YAPAU_List_position@?$_Hash@V?$_Hmap_traits@VCGUID@@PAVCBaseObject@@Vhash_guid_compare@@V?$allocator@U?$pair@$$CBVCGUID@@PAVCBaseObject@@@std@@@std@@$0A@@stdext@@@stdext@@PAU123@00Uforward_iterator_tag@0@U_Nonscalar_ptr_iterator_tag@0@U_Range_checked_iterator_tag@0@@Z
_TEXT	SEGMENT
__First$ = 8						; size = 4
__Last$ = 12						; size = 4
__Dest$ = 16						; size = 4
___formal$ = 20						; size = 1
___formal$ = 24						; size = 1
___formal$ = 28						; size = 1
??$_Copy_backward_opt@PAU_List_position@?$_Hash@V?$_Hmap_traits@VCGUID@@PAVCBaseObject@@Vhash_guid_compare@@V?$allocator@U?$pair@$$CBVCGUID@@PAVCBaseObject@@@std@@@std@@$0A@@stdext@@@stdext@@PAU123@Uforward_iterator_tag@std@@@std@@YAPAU_List_position@?$_Hash@V?$_Hmap_traits@VCGUID@@PAVCBaseObject@@Vhash_guid_compare@@V?$allocator@U?$pair@$$CBVCGUID@@PAVCBaseObject@@@std@@@std@@$0A@@stdext@@@stdext@@PAU123@00Uforward_iterator_tag@0@U_Nonscalar_ptr_iterator_tag@0@U_Range_checked_iterator_tag@0@@Z PROC ; std::_Copy_backward_opt<stdext::_Hash<stdext::_Hmap_traits<CGUID,CBaseObject *,hash_guid_compare,std::allocator<std::pair<CGUID const ,CBaseObject *> >,0> >::_List_position *,stdext::_Hash<stdext::_Hmap_traits<CGUID,CBaseObject *,hash_guid_compare,std::allocator<std::pair<CGUID const ,CBaseObject *> >,0> >::_List_position *,std::forward_iterator_tag>, COMDAT

; 2468 : 	_DEBUG_RANGE(_First, _Last);
; 2469 : 	while (_First != _Last)

  00000	8b 54 24 04	 mov	 edx, DWORD PTR __First$[esp-4]
  00004	8b 4c 24 08	 mov	 ecx, DWORD PTR __Last$[esp-4]
  00008	3b d1		 cmp	 edx, ecx
  0000a	8b 44 24 0c	 mov	 eax, DWORD PTR __Dest$[esp-4]
  0000e	74 17		 je	 SHORT $LN1@Copy_backw
  00010	56		 push	 esi
$LL2@Copy_backw:

; 2470 : 		*--_Dest = *--_Last;

  00011	8b 71 f8	 mov	 esi, DWORD PTR [ecx-8]
  00014	83 e9 08	 sub	 ecx, 8
  00017	83 e8 08	 sub	 eax, 8
  0001a	3b ca		 cmp	 ecx, edx
  0001c	89 30		 mov	 DWORD PTR [eax], esi
  0001e	8b 71 04	 mov	 esi, DWORD PTR [ecx+4]
  00021	89 70 04	 mov	 DWORD PTR [eax+4], esi
  00024	75 eb		 jne	 SHORT $LL2@Copy_backw
  00026	5e		 pop	 esi
$LN1@Copy_backw:

; 2471 : 	return (_Dest);
; 2472 : 	}

  00027	c3		 ret	 0
??$_Copy_backward_opt@PAU_List_position@?$_Hash@V?$_Hmap_traits@VCGUID@@PAVCBaseObject@@Vhash_guid_compare@@V?$allocator@U?$pair@$$CBVCGUID@@PAVCBaseObject@@@std@@@std@@$0A@@stdext@@@stdext@@PAU123@Uforward_iterator_tag@std@@@std@@YAPAU_List_position@?$_Hash@V?$_Hmap_traits@VCGUID@@PAVCBaseObject@@Vhash_guid_compare@@V?$allocator@U?$pair@$$CBVCGUID@@PAVCBaseObject@@@std@@@std@@$0A@@stdext@@@stdext@@PAU123@00Uforward_iterator_tag@0@U_Nonscalar_ptr_iterator_tag@0@U_Range_checked_iterator_tag@0@@Z ENDP ; std::_Copy_backward_opt<stdext::_Hash<stdext::_Hmap_traits<CGUID,CBaseObject *,hash_guid_compare,std::allocator<std::pair<CGUID const ,CBaseObject *> >,0> >::_List_position *,stdext::_Hash<stdext::_Hmap_traits<CGUID,CBaseObject *,hash_guid_compare,std::allocator<std::pair<CGUID const ,CBaseObject *> >,0> >::_List_position *,std::forward_iterator_tag>
_TEXT	ENDS
PUBLIC	?GetNext@?$CListNode@E@XM_Tools@@QAEPAV12@XZ	; XM_Tools::CListNode<unsigned char>::GetNext
; Function compile flags: /Ogtpy
; File d:\project_p6\trunk\public\memmanage\include\memlist.h
;	COMDAT ?GetNext@?$CListNode@E@XM_Tools@@QAEPAV12@XZ
_TEXT	SEGMENT
?GetNext@?$CListNode@E@XM_Tools@@QAEPAV12@XZ PROC	; XM_Tools::CListNode<unsigned char>::GetNext, COMDAT
; _this$ = ecx

; 35   : 		inline CListNode*		GetNext(void)				{return m_pNext;}

  00000	8b 41 04	 mov	 eax, DWORD PTR [ecx+4]
  00003	c3		 ret	 0
?GetNext@?$CListNode@E@XM_Tools@@QAEPAV12@XZ ENDP	; XM_Tools::CListNode<unsigned char>::GetNext
_TEXT	ENDS
PUBLIC	?SetNext@?$CListNode@E@XM_Tools@@QAEXPAV12@@Z	; XM_Tools::CListNode<unsigned char>::SetNext
; Function compile flags: /Ogtpy
;	COMDAT ?SetNext@?$CListNode@E@XM_Tools@@QAEXPAV12@@Z
_TEXT	SEGMENT
_pNext$ = 8						; size = 4
?SetNext@?$CListNode@E@XM_Tools@@QAEXPAV12@@Z PROC	; XM_Tools::CListNode<unsigned char>::SetNext, COMDAT
; _this$ = ecx

; 36   : 		inline void				SetNext(CListNode *pNext)	{m_pNext = pNext;}

  00000	8b 44 24 04	 mov	 eax, DWORD PTR _pNext$[esp-4]
  00004	89 41 04	 mov	 DWORD PTR [ecx+4], eax
  00007	c2 04 00	 ret	 4
?SetNext@?$CListNode@E@XM_Tools@@QAEXPAV12@@Z ENDP	; XM_Tools::CListNode<unsigned char>::SetNext
_TEXT	ENDS
PUBLIC	??MtagHeapMemInfo@?$CHeapPool@VLockOfWinWhileSleep@XM_Tools@@@XM_Tools@@QBE_NABU012@@Z ; XM_Tools::CHeapPool<XM_Tools::LockOfWinWhileSleep>::tagHeapMemInfo::operator<
; Function compile flags: /Ogtpy
; File d:\project_p6\trunk\public\memmanage\include\heappool.h
;	COMDAT ??MtagHeapMemInfo@?$CHeapPool@VLockOfWinWhileSleep@XM_Tools@@@XM_Tools@@QBE_NABU012@@Z
_TEXT	SEGMENT
_Info$ = 8						; size = 4
??MtagHeapMemInfo@?$CHeapPool@VLockOfWinWhileSleep@XM_Tools@@@XM_Tools@@QBE_NABU012@@Z PROC ; XM_Tools::CHeapPool<XM_Tools::LockOfWinWhileSleep>::tagHeapMemInfo::operator<, COMDAT
; _this$ = ecx

; 47   : 				return this->uSize < Info.uSize;

  00000	8b 01		 mov	 eax, DWORD PTR [ecx]
  00002	8b 4c 24 04	 mov	 ecx, DWORD PTR _Info$[esp-4]
  00006	3b 01		 cmp	 eax, DWORD PTR [ecx]
  00008	1b c0		 sbb	 eax, eax
  0000a	f7 d8		 neg	 eax

; 48   : 			}

  0000c	c2 04 00	 ret	 4
??MtagHeapMemInfo@?$CHeapPool@VLockOfWinWhileSleep@XM_Tools@@@XM_Tools@@QBE_NABU012@@Z ENDP ; XM_Tools::CHeapPool<XM_Tools::LockOfWinWhileSleep>::tagHeapMemInfo::operator<
_TEXT	ENDS
PUBLIC	?GetPrev@?$CListBNode@UtagHeapMemInfo@?$CHeapPool@VLockOfWinWhileSleep@XM_Tools@@@XM_Tools@@@XM_Tools@@QAEPAV12@XZ ; XM_Tools::CListBNode<XM_Tools::CHeapPool<XM_Tools::LockOfWinWhileSleep>::tagHeapMemInfo>::GetPrev
; Function compile flags: /Ogtpy
; File d:\project_p6\trunk\public\memmanage\include\memlist.h
;	COMDAT ?GetPrev@?$CListBNode@UtagHeapMemInfo@?$CHeapPool@VLockOfWinWhileSleep@XM_Tools@@@XM_Tools@@@XM_Tools@@QAEPAV12@XZ
_TEXT	SEGMENT
?GetPrev@?$CListBNode@UtagHeapMemInfo@?$CHeapPool@VLockOfWinWhileSleep@XM_Tools@@@XM_Tools@@@XM_Tools@@QAEPAV12@XZ PROC ; XM_Tools::CListBNode<XM_Tools::CHeapPool<XM_Tools::LockOfWinWhileSleep>::tagHeapMemInfo>::GetPrev, COMDAT
; _this$ = ecx

; 119  : 		inline CListBNode*		GetPrev(void)				{return m_pPrev;}

  00000	8b 41 04	 mov	 eax, DWORD PTR [ecx+4]
  00003	c3		 ret	 0
?GetPrev@?$CListBNode@UtagHeapMemInfo@?$CHeapPool@VLockOfWinWhileSleep@XM_Tools@@@XM_Tools@@@XM_Tools@@QAEPAV12@XZ ENDP ; XM_Tools::CListBNode<XM_Tools::CHeapPool<XM_Tools::LockOfWinWhileSleep>::tagHeapMemInfo>::GetPrev
_TEXT	ENDS
PUBLIC	?SetPrev@?$CListBNode@UtagHeapMemInfo@?$CHeapPool@VLockOfWinWhileSleep@XM_Tools@@@XM_Tools@@@XM_Tools@@QAEXPAV12@@Z ; XM_Tools::CListBNode<XM_Tools::CHeapPool<XM_Tools::LockOfWinWhileSleep>::tagHeapMemInfo>::SetPrev
; Function compile flags: /Ogtpy
;	COMDAT ?SetPrev@?$CListBNode@UtagHeapMemInfo@?$CHeapPool@VLockOfWinWhileSleep@XM_Tools@@@XM_Tools@@@XM_Tools@@QAEXPAV12@@Z
_TEXT	SEGMENT
_pPrev$ = 8						; size = 4
?SetPrev@?$CListBNode@UtagHeapMemInfo@?$CHeapPool@VLockOfWinWhileSleep@XM_Tools@@@XM_Tools@@@XM_Tools@@QAEXPAV12@@Z PROC ; XM_Tools::CListBNode<XM_Tools::CHeapPool<XM_Tools::LockOfWinWhileSleep>::tagHeapMemInfo>::SetPrev, COMDAT
; _this$ = ecx

; 120  : 		inline void				SetPrev(CListBNode *pPrev)	{m_pPrev = pPrev;}

  00000	8b 44 24 04	 mov	 eax, DWORD PTR _pPrev$[esp-4]
  00004	89 41 04	 mov	 DWORD PTR [ecx+4], eax
  00007	c2 04 00	 ret	 4
?SetPrev@?$CListBNode@UtagHeapMemInfo@?$CHeapPool@VLockOfWinWhileSleep@XM_Tools@@@XM_Tools@@@XM_Tools@@QAEXPAV12@@Z ENDP ; XM_Tools::CListBNode<XM_Tools::CHeapPool<XM_Tools::LockOfWinWhileSleep>::tagHeapMemInfo>::SetPrev
_TEXT	ENDS
PUBLIC	?GetNext@?$CListBNode@UtagHeapMemInfo@?$CHeapPool@VLockOfWinWhileSleep@XM_Tools@@@XM_Tools@@@XM_Tools@@QAEPAV12@XZ ; XM_Tools::CListBNode<XM_Tools::CHeapPool<XM_Tools::LockOfWinWhileSleep>::tagHeapMemInfo>::GetNext
; Function compile flags: /Ogtpy
;	COMDAT ?GetNext@?$CListBNode@UtagHeapMemInfo@?$CHeapPool@VLockOfWinWhileSleep@XM_Tools@@@XM_Tools@@@XM_Tools@@QAEPAV12@XZ
_TEXT	SEGMENT
?GetNext@?$CListBNode@UtagHeapMemInfo@?$CHeapPool@VLockOfWinWhileSleep@XM_Tools@@@XM_Tools@@@XM_Tools@@QAEPAV12@XZ PROC ; XM_Tools::CListBNode<XM_Tools::CHeapPool<XM_Tools::LockOfWinWhileSleep>::tagHeapMemInfo>::GetNext, COMDAT
; _this$ = ecx

; 121  : 		inline CListBNode*		GetNext(void)				{return m_pNext;}

  00000	8b 41 08	 mov	 eax, DWORD PTR [ecx+8]
  00003	c3		 ret	 0
?GetNext@?$CListBNode@UtagHeapMemInfo@?$CHeapPool@VLockOfWinWhileSleep@XM_Tools@@@XM_Tools@@@XM_Tools@@QAEPAV12@XZ ENDP ; XM_Tools::CListBNode<XM_Tools::CHeapPool<XM_Tools::LockOfWinWhileSleep>::tagHeapMemInfo>::GetNext
_TEXT	ENDS
PUBLIC	?SetNext@?$CListBNode@UtagHeapMemInfo@?$CHeapPool@VLockOfWinWhileSleep@XM_Tools@@@XM_Tools@@@XM_Tools@@QAEXPAV12@@Z ; XM_Tools::CListBNode<XM_Tools::CHeapPool<XM_Tools::LockOfWinWhileSleep>::tagHeapMemInfo>::SetNext
; Function compile flags: /Ogtpy
;	COMDAT ?SetNext@?$CListBNode@UtagHeapMemInfo@?$CHeapPool@VLockOfWinWhileSleep@XM_Tools@@@XM_Tools@@@XM_Tools@@QAEXPAV12@@Z
_TEXT	SEGMENT
_pNext$ = 8						; size = 4
?SetNext@?$CListBNode@UtagHeapMemInfo@?$CHeapPool@VLockOfWinWhileSleep@XM_Tools@@@XM_Tools@@@XM_Tools@@QAEXPAV12@@Z PROC ; XM_Tools::CListBNode<XM_Tools::CHeapPool<XM_Tools::LockOfWinWhileSleep>::tagHeapMemInfo>::SetNext, COMDAT
; _this$ = ecx

; 122  : 		inline void				SetNext(CListBNode *pNext)	{m_pNext = pNext;}

  00000	8b 44 24 04	 mov	 eax, DWORD PTR _pNext$[esp-4]
  00004	89 41 08	 mov	 DWORD PTR [ecx+8], eax
  00007	c2 04 00	 ret	 4
?SetNext@?$CListBNode@UtagHeapMemInfo@?$CHeapPool@VLockOfWinWhileSleep@XM_Tools@@@XM_Tools@@@XM_Tools@@QAEXPAV12@@Z ENDP ; XM_Tools::CListBNode<XM_Tools::CHeapPool<XM_Tools::LockOfWinWhileSleep>::tagHeapMemInfo>::SetNext
_TEXT	ENDS
PUBLIC	??RHeapMemInfoLikeCompare@?$CHeapPool@VLockOfWinWhileSleep@XM_Tools@@@XM_Tools@@QBE_NABUtagHeapMemInfo@12@0@Z ; XM_Tools::CHeapPool<XM_Tools::LockOfWinWhileSleep>::HeapMemInfoLikeCompare::operator()
; Function compile flags: /Ogtpy
; File d:\project_p6\trunk\public\memmanage\include\heappool.h
;	COMDAT ??RHeapMemInfoLikeCompare@?$CHeapPool@VLockOfWinWhileSleep@XM_Tools@@@XM_Tools@@QBE_NABUtagHeapMemInfo@12@0@Z
_TEXT	SEGMENT
_Info1$ = 8						; size = 4
_Info2$ = 12						; size = 4
??RHeapMemInfoLikeCompare@?$CHeapPool@VLockOfWinWhileSleep@XM_Tools@@@XM_Tools@@QBE_NABUtagHeapMemInfo@12@0@Z PROC ; XM_Tools::CHeapPool<XM_Tools::LockOfWinWhileSleep>::HeapMemInfoLikeCompare::operator(), COMDAT
; _this$ = ecx

; 55   : 				if(Info1.uSize >= Info2.uSize && HEAP_MIN_GRANULARITY >= (Info1.uSize - Info2.uSize))

  00000	8b 44 24 04	 mov	 eax, DWORD PTR _Info1$[esp-4]
  00004	8b 4c 24 08	 mov	 ecx, DWORD PTR _Info2$[esp-4]
  00008	8b 00		 mov	 eax, DWORD PTR [eax]
  0000a	8b 09		 mov	 ecx, DWORD PTR [ecx]
  0000c	3b c1		 cmp	 eax, ecx
  0000e	72 0e		 jb	 SHORT $LN1@operator@12
  00010	2b c1		 sub	 eax, ecx
  00012	3d 00 10 00 00	 cmp	 eax, 4096		; 00001000H
  00017	77 05		 ja	 SHORT $LN1@operator@12

; 56   : 					return true;

  00019	b0 01		 mov	 al, 1

; 58   : 			}

  0001b	c2 08 00	 ret	 8
$LN1@operator@12:

; 57   : 				return false;

  0001e	32 c0		 xor	 al, al

; 58   : 			}

  00020	c2 08 00	 ret	 8
??RHeapMemInfoLikeCompare@?$CHeapPool@VLockOfWinWhileSleep@XM_Tools@@@XM_Tools@@QBE_NABUtagHeapMemInfo@12@0@Z ENDP ; XM_Tools::CHeapPool<XM_Tools::LockOfWinWhileSleep>::HeapMemInfoLikeCompare::operator()
_TEXT	ENDS
PUBLIC	??0?$CMemSerialBList@UtagHeapMemInfo@?$CHeapPool@VLockOfWinWhileSleep@XM_Tools@@@XM_Tools@@VLockOfWinWhileSleep@3@VHeapMemInfoLikeCompare@23@@XM_Tools@@QAE@XZ ; XM_Tools::CMemSerialBList<XM_Tools::CHeapPool<XM_Tools::LockOfWinWhileSleep>::tagHeapMemInfo,XM_Tools::LockOfWinWhileSleep,XM_Tools::CHeapPool<XM_Tools::LockOfWinWhileSleep>::HeapMemInfoLikeCompare>::CMemSerialBList<XM_Tools::CHeapPool<XM_Tools::LockOfWinWhileSleep>::tagHeapMemInfo,XM_Tools::LockOfWinWhileSleep,XM_Tools::CHeapPool<XM_Tools::LockOfWinWhileSleep>::HeapMemInfoLikeCompare>
; Function compile flags: /Ogtpy
; File d:\project_p6\trunk\public\memmanage\cpp\memlist.tcc
;	COMDAT ??0?$CMemSerialBList@UtagHeapMemInfo@?$CHeapPool@VLockOfWinWhileSleep@XM_Tools@@@XM_Tools@@VLockOfWinWhileSleep@3@VHeapMemInfoLikeCompare@23@@XM_Tools@@QAE@XZ
_TEXT	SEGMENT
??0?$CMemSerialBList@UtagHeapMemInfo@?$CHeapPool@VLockOfWinWhileSleep@XM_Tools@@@XM_Tools@@VLockOfWinWhileSleep@3@VHeapMemInfoLikeCompare@23@@XM_Tools@@QAE@XZ PROC ; XM_Tools::CMemSerialBList<XM_Tools::CHeapPool<XM_Tools::LockOfWinWhileSleep>::tagHeapMemInfo,XM_Tools::LockOfWinWhileSleep,XM_Tools::CHeapPool<XM_Tools::LockOfWinWhileSleep>::HeapMemInfoLikeCompare>::CMemSerialBList<XM_Tools::CHeapPool<XM_Tools::LockOfWinWhileSleep>::tagHeapMemInfo,XM_Tools::LockOfWinWhileSleep,XM_Tools::CHeapPool<XM_Tools::LockOfWinWhileSleep>::HeapMemInfoLikeCompare>, COMDAT
; _this$ = ecx

; 87   : 	{

  00000	8b c1		 mov	 eax, ecx
  00002	33 c9		 xor	 ecx, ecx
  00004	89 48 04	 mov	 DWORD PTR [eax+4], ecx
  00007	89 48 28	 mov	 DWORD PTR [eax+40], ecx
  0000a	89 48 2c	 mov	 DWORD PTR [eax+44], ecx

; 88   : 		m_pHead = NULL;

  0000d	89 08		 mov	 DWORD PTR [eax], ecx

; 89   : 		m_uNum = 0;

  0000f	89 48 48	 mov	 DWORD PTR [eax+72], ecx

; 90   : 	}

  00012	c3		 ret	 0
??0?$CMemSerialBList@UtagHeapMemInfo@?$CHeapPool@VLockOfWinWhileSleep@XM_Tools@@@XM_Tools@@VLockOfWinWhileSleep@3@VHeapMemInfoLikeCompare@23@@XM_Tools@@QAE@XZ ENDP ; XM_Tools::CMemSerialBList<XM_Tools::CHeapPool<XM_Tools::LockOfWinWhileSleep>::tagHeapMemInfo,XM_Tools::LockOfWinWhileSleep,XM_Tools::CHeapPool<XM_Tools::LockOfWinWhileSleep>::HeapMemInfoLikeCompare>::CMemSerialBList<XM_Tools::CHeapPool<XM_Tools::LockOfWinWhileSleep>::tagHeapMemInfo,XM_Tools::LockOfWinWhileSleep,XM_Tools::CHeapPool<XM_Tools::LockOfWinWhileSleep>::HeapMemInfoLikeCompare>
_TEXT	ENDS
PUBLIC	??1?$CMemSerialBList@UtagHeapMemInfo@?$CHeapPool@VLockOfWinWhileSleep@XM_Tools@@@XM_Tools@@VLockOfWinWhileSleep@3@VHeapMemInfoLikeCompare@23@@XM_Tools@@QAE@XZ ; XM_Tools::CMemSerialBList<XM_Tools::CHeapPool<XM_Tools::LockOfWinWhileSleep>::tagHeapMemInfo,XM_Tools::LockOfWinWhileSleep,XM_Tools::CHeapPool<XM_Tools::LockOfWinWhileSleep>::HeapMemInfoLikeCompare>::~CMemSerialBList<XM_Tools::CHeapPool<XM_Tools::LockOfWinWhileSleep>::tagHeapMemInfo,XM_Tools::LockOfWinWhileSleep,XM_Tools::CHeapPool<XM_Tools::LockOfWinWhileSleep>::HeapMemInfoLikeCompare>
; Function compile flags: /Ogtpy
;	COMDAT ??1?$CMemSerialBList@UtagHeapMemInfo@?$CHeapPool@VLockOfWinWhileSleep@XM_Tools@@@XM_Tools@@VLockOfWinWhileSleep@3@VHeapMemInfoLikeCompare@23@@XM_Tools@@QAE@XZ
_TEXT	SEGMENT
??1?$CMemSerialBList@UtagHeapMemInfo@?$CHeapPool@VLockOfWinWhileSleep@XM_Tools@@@XM_Tools@@VLockOfWinWhileSleep@3@VHeapMemInfoLikeCompare@23@@XM_Tools@@QAE@XZ PROC ; XM_Tools::CMemSerialBList<XM_Tools::CHeapPool<XM_Tools::LockOfWinWhileSleep>::tagHeapMemInfo,XM_Tools::LockOfWinWhileSleep,XM_Tools::CHeapPool<XM_Tools::LockOfWinWhileSleep>::HeapMemInfoLikeCompare>::~CMemSerialBList<XM_Tools::CHeapPool<XM_Tools::LockOfWinWhileSleep>::tagHeapMemInfo,XM_Tools::LockOfWinWhileSleep,XM_Tools::CHeapPool<XM_Tools::LockOfWinWhileSleep>::HeapMemInfoLikeCompare>, COMDAT
; _this$ = ecx

; 95   : 
; 96   : 	}

  00000	c3		 ret	 0
??1?$CMemSerialBList@UtagHeapMemInfo@?$CHeapPool@VLockOfWinWhileSleep@XM_Tools@@@XM_Tools@@VLockOfWinWhileSleep@3@VHeapMemInfoLikeCompare@23@@XM_Tools@@QAE@XZ ENDP ; XM_Tools::CMemSerialBList<XM_Tools::CHeapPool<XM_Tools::LockOfWinWhileSleep>::tagHeapMemInfo,XM_Tools::LockOfWinWhileSleep,XM_Tools::CHeapPool<XM_Tools::LockOfWinWhileSleep>::HeapMemInfoLikeCompare>::~CMemSerialBList<XM_Tools::CHeapPool<XM_Tools::LockOfWinWhileSleep>::tagHeapMemInfo,XM_Tools::LockOfWinWhileSleep,XM_Tools::CHeapPool<XM_Tools::LockOfWinWhileSleep>::HeapMemInfoLikeCompare>
_TEXT	ENDS
PUBLIC	??0?$CMemList@XVLockOfWinWhileSleep@XM_Tools@@@XM_Tools@@QAE@XZ ; XM_Tools::CMemList<void,XM_Tools::LockOfWinWhileSleep>::CMemList<void,XM_Tools::LockOfWinWhileSleep>
; Function compile flags: /Ogtpy
;	COMDAT ??0?$CMemList@XVLockOfWinWhileSleep@XM_Tools@@@XM_Tools@@QAE@XZ
_TEXT	SEGMENT
??0?$CMemList@XVLockOfWinWhileSleep@XM_Tools@@@XM_Tools@@QAE@XZ PROC ; XM_Tools::CMemList<void,XM_Tools::LockOfWinWhileSleep>::CMemList<void,XM_Tools::LockOfWinWhileSleep>, COMDAT
; _this$ = ecx

; 21   : 	{

  00000	8b c1		 mov	 eax, ecx
  00002	33 c9		 xor	 ecx, ecx
  00004	89 08		 mov	 DWORD PTR [eax], ecx
  00006	89 48 24	 mov	 DWORD PTR [eax+36], ecx
  00009	89 48 28	 mov	 DWORD PTR [eax+40], ecx
  0000c	89 48 44	 mov	 DWORD PTR [eax+68], ecx

; 22   : 
; 23   : 	}

  0000f	c3		 ret	 0
??0?$CMemList@XVLockOfWinWhileSleep@XM_Tools@@@XM_Tools@@QAE@XZ ENDP ; XM_Tools::CMemList<void,XM_Tools::LockOfWinWhileSleep>::CMemList<void,XM_Tools::LockOfWinWhileSleep>
_TEXT	ENDS
PUBLIC	??1?$CMemList@XVLockOfWinWhileSleep@XM_Tools@@@XM_Tools@@QAE@XZ ; XM_Tools::CMemList<void,XM_Tools::LockOfWinWhileSleep>::~CMemList<void,XM_Tools::LockOfWinWhileSleep>
; Function compile flags: /Ogtpy
;	COMDAT ??1?$CMemList@XVLockOfWinWhileSleep@XM_Tools@@@XM_Tools@@QAE@XZ
_TEXT	SEGMENT
??1?$CMemList@XVLockOfWinWhileSleep@XM_Tools@@@XM_Tools@@QAE@XZ PROC ; XM_Tools::CMemList<void,XM_Tools::LockOfWinWhileSleep>::~CMemList<void,XM_Tools::LockOfWinWhileSleep>, COMDAT
; _this$ = ecx

; 28   : 		m_pHead = NULL;

  00000	c7 01 00 00 00
	00		 mov	 DWORD PTR [ecx], 0

; 29   : 		m_uNum = 0;

  00006	c7 41 44 00 00
	00 00		 mov	 DWORD PTR [ecx+68], 0

; 30   : 	}

  0000d	c3		 ret	 0
??1?$CMemList@XVLockOfWinWhileSleep@XM_Tools@@@XM_Tools@@QAE@XZ ENDP ; XM_Tools::CMemList<void,XM_Tools::LockOfWinWhileSleep>::~CMemList<void,XM_Tools::LockOfWinWhileSleep>
_TEXT	ENDS
PUBLIC	?PushNode@?$CMemList@XVLockOfWinWhileSleep@XM_Tools@@@XM_Tools@@QAEXPAV?$CListNode@X@2@@Z ; XM_Tools::CMemList<void,XM_Tools::LockOfWinWhileSleep>::PushNode
; Function compile flags: /Ogtpy
;	COMDAT ?PushNode@?$CMemList@XVLockOfWinWhileSleep@XM_Tools@@@XM_Tools@@QAEXPAV?$CListNode@X@2@@Z
_TEXT	SEGMENT
_pNode$ = 8						; size = 4
?PushNode@?$CMemList@XVLockOfWinWhileSleep@XM_Tools@@@XM_Tools@@QAEXPAV?$CListNode@X@2@@Z PROC ; XM_Tools::CMemList<void,XM_Tools::LockOfWinWhileSleep>::PushNode, COMDAT
; _this$ = ecx

; 35   : 	{

  00000	56		 push	 esi
  00001	8b f1		 mov	 esi, ecx

; 36   : 		m_Lock.Lock();

  00003	8d 4e 04	 lea	 ecx, DWORD PTR [esi+4]
  00006	e8 00 00 00 00	 call	 ?Lock@LockOfWinWhileSleep@XM_Tools@@QAEXXZ ; XM_Tools::LockOfWinWhileSleep::Lock

; 37   : 		{
; 38   : 			pNode->SetNext(m_pHead);

  0000b	8b 0e		 mov	 ecx, DWORD PTR [esi]
  0000d	8b 44 24 08	 mov	 eax, DWORD PTR _pNode$[esp]
  00011	89 08		 mov	 DWORD PTR [eax], ecx

; 39   : 			m_pHead = pNode;
; 40   : 			++m_uNum;

  00013	83 46 44 01	 add	 DWORD PTR [esi+68], 1

; 41   : 		}
; 42   : 		m_Lock.UnLock();

  00017	6a 01		 push	 1
  00019	89 06		 mov	 DWORD PTR [esi], eax
  0001b	6a 00		 push	 0
  0001d	83 c6 24	 add	 esi, 36			; 00000024H
  00020	56		 push	 esi
  00021	ff 15 00 00 00
	00		 call	 DWORD PTR __imp__InterlockedCompareExchange@12
  00027	5e		 pop	 esi

; 43   : 	}

  00028	c2 04 00	 ret	 4
?PushNode@?$CMemList@XVLockOfWinWhileSleep@XM_Tools@@@XM_Tools@@QAEXPAV?$CListNode@X@2@@Z ENDP ; XM_Tools::CMemList<void,XM_Tools::LockOfWinWhileSleep>::PushNode
_TEXT	ENDS
PUBLIC	??0?$CMemList@EVLockOfWinWhileSleep@XM_Tools@@@XM_Tools@@QAE@XZ ; XM_Tools::CMemList<unsigned char,XM_Tools::LockOfWinWhileSleep>::CMemList<unsigned char,XM_Tools::LockOfWinWhileSleep>
; Function compile flags: /Ogtpy
;	COMDAT ??0?$CMemList@EVLockOfWinWhileSleep@XM_Tools@@@XM_Tools@@QAE@XZ
_TEXT	SEGMENT
??0?$CMemList@EVLockOfWinWhileSleep@XM_Tools@@@XM_Tools@@QAE@XZ PROC ; XM_Tools::CMemList<unsigned char,XM_Tools::LockOfWinWhileSleep>::CMemList<unsigned char,XM_Tools::LockOfWinWhileSleep>, COMDAT
; _this$ = ecx

; 21   : 	{

  00000	8b c1		 mov	 eax, ecx
  00002	33 c9		 xor	 ecx, ecx
  00004	89 08		 mov	 DWORD PTR [eax], ecx
  00006	89 48 24	 mov	 DWORD PTR [eax+36], ecx
  00009	89 48 28	 mov	 DWORD PTR [eax+40], ecx
  0000c	89 48 44	 mov	 DWORD PTR [eax+68], ecx

; 22   : 
; 23   : 	}

  0000f	c3		 ret	 0
??0?$CMemList@EVLockOfWinWhileSleep@XM_Tools@@@XM_Tools@@QAE@XZ ENDP ; XM_Tools::CMemList<unsigned char,XM_Tools::LockOfWinWhileSleep>::CMemList<unsigned char,XM_Tools::LockOfWinWhileSleep>
_TEXT	ENDS
PUBLIC	??1?$CMemList@EVLockOfWinWhileSleep@XM_Tools@@@XM_Tools@@QAE@XZ ; XM_Tools::CMemList<unsigned char,XM_Tools::LockOfWinWhileSleep>::~CMemList<unsigned char,XM_Tools::LockOfWinWhileSleep>
; Function compile flags: /Ogtpy
;	COMDAT ??1?$CMemList@EVLockOfWinWhileSleep@XM_Tools@@@XM_Tools@@QAE@XZ
_TEXT	SEGMENT
??1?$CMemList@EVLockOfWinWhileSleep@XM_Tools@@@XM_Tools@@QAE@XZ PROC ; XM_Tools::CMemList<unsigned char,XM_Tools::LockOfWinWhileSleep>::~CMemList<unsigned char,XM_Tools::LockOfWinWhileSleep>, COMDAT
; _this$ = ecx

; 28   : 		m_pHead = NULL;

  00000	c7 01 00 00 00
	00		 mov	 DWORD PTR [ecx], 0

; 29   : 		m_uNum = 0;

  00006	c7 41 44 00 00
	00 00		 mov	 DWORD PTR [ecx+68], 0

; 30   : 	}

  0000d	c3		 ret	 0
??1?$CMemList@EVLockOfWinWhileSleep@XM_Tools@@@XM_Tools@@QAE@XZ ENDP ; XM_Tools::CMemList<unsigned char,XM_Tools::LockOfWinWhileSleep>::~CMemList<unsigned char,XM_Tools::LockOfWinWhileSleep>
_TEXT	ENDS
PUBLIC	?PopNode@?$CMemList@XVLockOfWinWhileSleep@XM_Tools@@@XM_Tools@@QAEPAV?$CListNode@X@2@XZ ; XM_Tools::CMemList<void,XM_Tools::LockOfWinWhileSleep>::PopNode
; Function compile flags: /Ogtpy
;	COMDAT ?PopNode@?$CMemList@XVLockOfWinWhileSleep@XM_Tools@@@XM_Tools@@QAEPAV?$CListNode@X@2@XZ
_TEXT	SEGMENT
?PopNode@?$CMemList@XVLockOfWinWhileSleep@XM_Tools@@@XM_Tools@@QAEPAV?$CListNode@X@2@XZ PROC ; XM_Tools::CMemList<void,XM_Tools::LockOfWinWhileSleep>::PopNode, COMDAT
; _this$ = ecx

; 48   : 	{

  00000	56		 push	 esi
  00001	8b f1		 mov	 esi, ecx
  00003	57		 push	 edi

; 49   : 		CListNode<_TNodeInfo>* pRe = NULL;
; 50   : 		m_Lock.Lock();

  00004	8d 4e 04	 lea	 ecx, DWORD PTR [esi+4]
  00007	e8 00 00 00 00	 call	 ?Lock@LockOfWinWhileSleep@XM_Tools@@QAEXXZ ; XM_Tools::LockOfWinWhileSleep::Lock

; 51   : 		{
; 52   : 			pRe = m_pHead;

  0000c	8b 3e		 mov	 edi, DWORD PTR [esi]

; 53   : 			if(NULL != m_pHead)

  0000e	85 ff		 test	 edi, edi
  00010	74 08		 je	 SHORT $LN1@PopNode

; 54   : 			{
; 55   : 				m_pHead = m_pHead->GetNext();

  00012	8b 07		 mov	 eax, DWORD PTR [edi]

; 56   : 				--m_uNum;

  00014	83 46 44 ff	 add	 DWORD PTR [esi+68], -1
  00018	89 06		 mov	 DWORD PTR [esi], eax
$LN1@PopNode:

; 57   : 			}
; 58   : 		}
; 59   : 		m_Lock.UnLock();

  0001a	6a 01		 push	 1
  0001c	6a 00		 push	 0
  0001e	83 c6 24	 add	 esi, 36			; 00000024H
  00021	56		 push	 esi
  00022	ff 15 00 00 00
	00		 call	 DWORD PTR __imp__InterlockedCompareExchange@12

; 60   : 		return pRe;

  00028	8b c7		 mov	 eax, edi
  0002a	5f		 pop	 edi
  0002b	5e		 pop	 esi

; 61   : 	}

  0002c	c3		 ret	 0
?PopNode@?$CMemList@XVLockOfWinWhileSleep@XM_Tools@@@XM_Tools@@QAEPAV?$CListNode@X@2@XZ ENDP ; XM_Tools::CMemList<void,XM_Tools::LockOfWinWhileSleep>::PopNode
_TEXT	ENDS
PUBLIC	?SetExID@CBaseObject@@QAEXABVCGUID@@@Z		; CBaseObject::SetExID
; Function compile flags: /Ogtpy
; File d:\project_p6\trunk\server\gameserver\app\baseobject.h
;	COMDAT ?SetExID@CBaseObject@@QAEXABVCGUID@@@Z
_TEXT	SEGMENT
_guid$ = 8						; size = 4
?SetExID@CBaseObject@@QAEXABVCGUID@@@Z PROC		; CBaseObject::SetExID, COMDAT
; _this$ = ecx

; 71   : 	void			SetExID(const CGUID& guid)			{m_guid = guid;						};

  00000	8d 41 08	 lea	 eax, DWORD PTR [ecx+8]
  00003	8b 4c 24 04	 mov	 ecx, DWORD PTR _guid$[esp-4]
  00007	3b c8		 cmp	 ecx, eax
  00009	74 12		 je	 SHORT $LN3@SetExID
  0000b	f3 0f 7e 01	 movq	 xmm0, QWORD PTR [ecx]
  0000f	66 0f d6 00	 movq	 QWORD PTR [eax], xmm0
  00013	f3 0f 7e 41 08	 movq	 xmm0, QWORD PTR [ecx+8]
  00018	66 0f d6 40 08	 movq	 QWORD PTR [eax+8], xmm0
$LN3@SetExID:
  0001d	c2 04 00	 ret	 4
?SetExID@CBaseObject@@QAEXABVCGUID@@@Z ENDP		; CBaseObject::SetExID
_TEXT	ENDS
PUBLIC	??0?$_String_val@DV?$allocator@D@std@@@std@@IAE@V?$allocator@D@1@@Z ; std::_String_val<char,std::allocator<char> >::_String_val<char,std::allocator<char> >
; Function compile flags: /Ogtpy
; File d:\program files\microsoft visual studio 8\vc\include\xstring
;	COMDAT ??0?$_String_val@DV?$allocator@D@std@@@std@@IAE@V?$allocator@D@1@@Z
_TEXT	SEGMENT
__Al$ = 8						; size = 1
??0?$_String_val@DV?$allocator@D@std@@@std@@IAE@V?$allocator@D@1@@Z PROC ; std::_String_val<char,std::allocator<char> >::_String_val<char,std::allocator<char> >, COMDAT
; _this$ = ecx

; 471  : 		{	// construct allocator from _Al

  00000	8b c1		 mov	 eax, ecx

; 472  : 		}

  00002	c2 04 00	 ret	 4
??0?$_String_val@DV?$allocator@D@std@@@std@@IAE@V?$allocator@D@1@@Z ENDP ; std::_String_val<char,std::allocator<char> >::_String_val<char,std::allocator<char> >
_TEXT	ENDS
PUBLIC	??0?$_String_val@DV?$allocator@D@std@@@std@@QAE@ABV01@@Z ; std::_String_val<char,std::allocator<char> >::_String_val<char,std::allocator<char> >
; Function compile flags: /Ogtpy
;	COMDAT ??0?$_String_val@DV?$allocator@D@std@@@std@@QAE@ABV01@@Z
_TEXT	SEGMENT
__Right$ = 8						; size = 4
??0?$_String_val@DV?$allocator@D@std@@@std@@QAE@ABV01@@Z PROC ; std::_String_val<char,std::allocator<char> >::_String_val<char,std::allocator<char> >, COMDAT
; _this$ = ecx

; 477  : 		{	// copy constructor

  00000	8b c1		 mov	 eax, ecx

; 478  : #if defined(_DEBUG)
; 479  : 		if (_Right._Myfirstiter == _IGNORE_MYITERLIST)
; 480  : 			{
; 481  : 			this->_Myfirstiter = _IGNORE_MYITERLIST;
; 482  : 			}
; 483  : #endif
; 484  : 		}

  00002	c2 04 00	 ret	 4
??0?$_String_val@DV?$allocator@D@std@@@std@@QAE@ABV01@@Z ENDP ; std::_String_val<char,std::allocator<char> >::_String_val<char,std::allocator<char> >
_TEXT	ENDS
PUBLIC	?allocate@?$allocator@D@std@@QAEPADI@Z		; std::allocator<char>::allocate
; Function compile flags: /Ogtpy
; File d:\program files\microsoft visual studio 8\vc\include\xmemory
;	COMDAT ?allocate@?$allocator@D@std@@QAEPADI@Z
_TEXT	SEGMENT
__Count$ = 8						; size = 4
?allocate@?$allocator@D@std@@QAEPADI@Z PROC		; std::allocator<char>::allocate, COMDAT
; _this$ = ecx

; 146  : 		return (_Allocate(_Count, (pointer)0));

  00000	8b 44 24 04	 mov	 eax, DWORD PTR __Count$[esp-4]
  00004	6a 00		 push	 0
  00006	50		 push	 eax
  00007	e8 00 00 00 00	 call	 ??$_Allocate@D@std@@YAPADIPAD@Z ; std::_Allocate<char>
  0000c	83 c4 08	 add	 esp, 8

; 147  : 		}

  0000f	c2 04 00	 ret	 4
?allocate@?$allocator@D@std@@QAEPADI@Z ENDP		; std::allocator<char>::allocate
_TEXT	ENDS
PUBLIC	?_Eos@?$basic_string@DU?$char_traits@D@std@@V?$allocator@D@2@@std@@IAEXI@Z ; std::basic_string<char,std::char_traits<char>,std::allocator<char> >::_Eos
; Function compile flags: /Ogtpy
; File d:\program files\microsoft visual studio 8\vc\include\xstring
;	COMDAT ?_Eos@?$basic_string@DU?$char_traits@D@std@@V?$allocator@D@2@@std@@IAEXI@Z
_TEXT	SEGMENT
__Newsize$ = 8						; size = 4
?_Eos@?$basic_string@DU?$char_traits@D@std@@V?$allocator@D@2@@std@@IAEXI@Z PROC ; std::basic_string<char,std::char_traits<char>,std::allocator<char> >::_Eos, COMDAT
; _this$ = ecx

; 2031 : 		_Traits::assign(_Myptr()[_Mysize = _Newsize], _Elem());

  00000	83 79 18 10	 cmp	 DWORD PTR [ecx+24], 16	; 00000010H
  00004	8b 44 24 04	 mov	 eax, DWORD PTR __Newsize$[esp-4]
  00008	89 41 14	 mov	 DWORD PTR [ecx+20], eax
  0000b	72 0a		 jb	 SHORT $LN5@Eos
  0000d	8b 49 04	 mov	 ecx, DWORD PTR [ecx+4]
  00010	c6 04 01 00	 mov	 BYTE PTR [ecx+eax], 0

; 2032 : 		}

  00014	c2 04 00	 ret	 4

; 2031 : 		_Traits::assign(_Myptr()[_Mysize = _Newsize], _Elem());

$LN5@Eos:
  00017	c6 44 01 04 00	 mov	 BYTE PTR [ecx+eax+4], 0

; 2032 : 		}

  0001c	c2 04 00	 ret	 4
?_Eos@?$basic_string@DU?$char_traits@D@std@@V?$allocator@D@2@@std@@IAEXI@Z ENDP ; std::basic_string<char,std::char_traits<char>,std::allocator<char> >::_Eos
_TEXT	ENDS
PUBLIC	?_Inside@?$basic_string@DU?$char_traits@D@std@@V?$allocator@D@2@@std@@IAE_NPBD@Z ; std::basic_string<char,std::char_traits<char>,std::allocator<char> >::_Inside
; Function compile flags: /Ogtpy
;	COMDAT ?_Inside@?$basic_string@DU?$char_traits@D@std@@V?$allocator@D@2@@std@@IAE_NPBD@Z
_TEXT	SEGMENT
__Ptr$ = 8						; size = 4
?_Inside@?$basic_string@DU?$char_traits@D@std@@V?$allocator@D@2@@std@@IAE_NPBD@Z PROC ; std::basic_string<char,std::char_traits<char>,std::allocator<char> >::_Inside, COMDAT
; _this$ = ecx

; 2050 : 		{	// test if _Ptr points inside string

  00000	56		 push	 esi

; 2051 : 		_DEBUG_POINTER(_Ptr);
; 2052 : 		if (_Ptr < _Myptr() || _Myptr() + _Mysize <= _Ptr)

  00001	8b 71 18	 mov	 esi, DWORD PTR [ecx+24]
  00004	83 fe 10	 cmp	 esi, 16			; 00000010H
  00007	57		 push	 edi
  00008	8d 41 04	 lea	 eax, DWORD PTR [ecx+4]
  0000b	72 04		 jb	 SHORT $LN8@Inside
  0000d	8b 10		 mov	 edx, DWORD PTR [eax]
  0000f	eb 02		 jmp	 SHORT $LN9@Inside
$LN8@Inside:
  00011	8b d0		 mov	 edx, eax
$LN9@Inside:
  00013	8b 7c 24 0c	 mov	 edi, DWORD PTR __Ptr$[esp+4]
  00017	3b fa		 cmp	 edi, edx
  00019	72 17		 jb	 SHORT $LN2@Inside
  0001b	83 fe 10	 cmp	 esi, 16			; 00000010H
  0001e	72 02		 jb	 SHORT $LN12@Inside
  00020	8b 00		 mov	 eax, DWORD PTR [eax]
$LN12@Inside:
  00022	8b 49 14	 mov	 ecx, DWORD PTR [ecx+20]
  00025	03 c8		 add	 ecx, eax
  00027	3b cf		 cmp	 ecx, edi
  00029	76 07		 jbe	 SHORT $LN2@Inside
  0002b	5f		 pop	 edi

; 2054 : 		else
; 2055 : 			return (true);

  0002c	b0 01		 mov	 al, 1
  0002e	5e		 pop	 esi

; 2056 : 		}

  0002f	c2 04 00	 ret	 4
$LN2@Inside:
  00032	5f		 pop	 edi

; 2053 : 			return (false);	// don't ask

  00033	32 c0		 xor	 al, al
  00035	5e		 pop	 esi

; 2056 : 		}

  00036	c2 04 00	 ret	 4
?_Inside@?$basic_string@DU?$char_traits@D@std@@V?$allocator@D@2@@std@@IAE_NPBD@Z ENDP ; std::basic_string<char,std::char_traits<char>,std::allocator<char> >::_Inside
_TEXT	ENDS
PUBLIC	?max_size@?$basic_string@DU?$char_traits@D@std@@V?$allocator@D@2@@std@@QBEIXZ ; std::basic_string<char,std::char_traits<char>,std::allocator<char> >::max_size
; Function compile flags: /Ogtpy
;	COMDAT ?max_size@?$basic_string@DU?$char_traits@D@std@@V?$allocator@D@2@@std@@QBEIXZ
_TEXT	SEGMENT
?max_size@?$basic_string@DU?$char_traits@D@std@@V?$allocator@D@2@@std@@QBEIXZ PROC ; std::basic_string<char,std::char_traits<char>,std::allocator<char> >::max_size, COMDAT
; _this$ = ecx

; 1642 : 		size_type _Num = _Mybase::_Alval.max_size();
; 1643 : 		return (_Num <= 1 ? 1 : _Num - 1);

  00000	b8 fe ff ff ff	 mov	 eax, -2			; fffffffeH

; 1644 : 		}

  00005	c3		 ret	 0
?max_size@?$basic_string@DU?$char_traits@D@std@@V?$allocator@D@2@@std@@QBEIXZ ENDP ; std::basic_string<char,std::char_traits<char>,std::allocator<char> >::max_size
_TEXT	ENDS
PUBLIC	??$copy_s@U?$char_traits@D@std@@@_Traits_helper@std@@YAPADPADIPBDI@Z ; std::_Traits_helper::copy_s<std::char_traits<char> >
; Function compile flags: /Ogtpy
; File d:\program files\microsoft visual studio 8\vc\include\iosfwd
;	COMDAT ??$copy_s@U?$char_traits@D@std@@@_Traits_helper@std@@YAPADPADIPBDI@Z
_TEXT	SEGMENT
__First1$ = 8						; size = 4
__Size$ = 12						; size = 4
__First2$ = 16						; size = 4
__Count$ = 20						; size = 4
??$copy_s@U?$char_traits@D@std@@@_Traits_helper@std@@YAPADPADIPBDI@Z PROC ; std::_Traits_helper::copy_s<std::char_traits<char> >, COMDAT

; 582  : 		return copy_s<_Traits>(_First1, _Size, _First2, _Count, _Char_traits_cat<_Traits>());

  00000	8b 44 24 10	 mov	 eax, DWORD PTR __Count$[esp-4]
  00004	8b 4c 24 0c	 mov	 ecx, DWORD PTR __First2$[esp-4]
  00008	8b 54 24 08	 mov	 edx, DWORD PTR __Size$[esp-4]
  0000c	56		 push	 esi
  0000d	8b 74 24 08	 mov	 esi, DWORD PTR __First1$[esp]
  00011	50		 push	 eax
  00012	51		 push	 ecx
  00013	52		 push	 edx
  00014	56		 push	 esi
  00015	e8 00 00 00 00	 call	 _memcpy_s
  0001a	83 c4 10	 add	 esp, 16			; 00000010H
  0001d	8b c6		 mov	 eax, esi
  0001f	5e		 pop	 esi

; 583  : 	}

  00020	c3		 ret	 0
??$copy_s@U?$char_traits@D@std@@@_Traits_helper@std@@YAPADPADIPBDI@Z ENDP ; std::_Traits_helper::copy_s<std::char_traits<char> >
_TEXT	ENDS
PUBLIC	??$move_s@U?$char_traits@D@std@@@_Traits_helper@std@@YAPADPADIPBDI@Z ; std::_Traits_helper::move_s<std::char_traits<char> >
; Function compile flags: /Ogtpy
;	COMDAT ??$move_s@U?$char_traits@D@std@@@_Traits_helper@std@@YAPADPADIPBDI@Z
_TEXT	SEGMENT
__First1$ = 8						; size = 4
__Size$ = 12						; size = 4
__First2$ = 16						; size = 4
__Count$ = 20						; size = 4
??$move_s@U?$char_traits@D@std@@@_Traits_helper@std@@YAPADPADIPBDI@Z PROC ; std::_Traits_helper::move_s<std::char_traits<char> >, COMDAT

; 609  : 		return move_s<_Traits>(_First1, _Size, _First2, _Count, _Char_traits_cat<_Traits>());

  00000	8b 44 24 10	 mov	 eax, DWORD PTR __Count$[esp-4]
  00004	8b 4c 24 0c	 mov	 ecx, DWORD PTR __First2$[esp-4]
  00008	8b 54 24 08	 mov	 edx, DWORD PTR __Size$[esp-4]
  0000c	56		 push	 esi
  0000d	8b 74 24 08	 mov	 esi, DWORD PTR __First1$[esp]
  00011	50		 push	 eax
  00012	51		 push	 ecx
  00013	52		 push	 edx
  00014	56		 push	 esi
  00015	e8 00 00 00 00	 call	 _memmove_s
  0001a	83 c4 10	 add	 esp, 16			; 00000010H
  0001d	8b c6		 mov	 eax, esi
  0001f	5e		 pop	 esi

; 610  : 	}

  00020	c3		 ret	 0
??$move_s@U?$char_traits@D@std@@@_Traits_helper@std@@YAPADPADIPBDI@Z ENDP ; std::_Traits_helper::move_s<std::char_traits<char> >
_TEXT	ENDS
PUBLIC	?size@?$_Hash@V?$_Hmap_traits@VCGUID@@PAVCBaseObject@@Vhash_guid_compare@@V?$allocator@U?$pair@$$CBVCGUID@@PAVCBaseObject@@@std@@@std@@$0A@@stdext@@@stdext@@QBEIXZ ; stdext::_Hash<stdext::_Hmap_traits<CGUID,CBaseObject *,hash_guid_compare,std::allocator<std::pair<CGUID const ,CBaseObject *> >,0> >::size
; Function compile flags: /Ogtpy
; File d:\program files\microsoft visual studio 8\vc\include\xhash
;	COMDAT ?size@?$_Hash@V?$_Hmap_traits@VCGUID@@PAVCBaseObject@@Vhash_guid_compare@@V?$allocator@U?$pair@$$CBVCGUID@@PAVCBaseObject@@@std@@@std@@$0A@@stdext@@@stdext@@QBEIXZ
_TEXT	SEGMENT
?size@?$_Hash@V?$_Hmap_traits@VCGUID@@PAVCBaseObject@@Vhash_guid_compare@@V?$allocator@U?$pair@$$CBVCGUID@@PAVCBaseObject@@@std@@@std@@$0A@@stdext@@@stdext@@QBEIXZ PROC ; stdext::_Hash<stdext::_Hmap_traits<CGUID,CBaseObject *,hash_guid_compare,std::allocator<std::pair<CGUID const ,CBaseObject *> >,0> >::size, COMDAT
; _this$ = ecx

; 345  : 		return (_List.size());

  00000	8b 41 0c	 mov	 eax, DWORD PTR [ecx+12]

; 346  : 		}

  00003	c3		 ret	 0
?size@?$_Hash@V?$_Hmap_traits@VCGUID@@PAVCBaseObject@@Vhash_guid_compare@@V?$allocator@U?$pair@$$CBVCGUID@@PAVCBaseObject@@@std@@@std@@$0A@@stdext@@@stdext@@QBEIXZ ENDP ; stdext::_Hash<stdext::_Hmap_traits<CGUID,CBaseObject *,hash_guid_compare,std::allocator<std::pair<CGUID const ,CBaseObject *> >,0> >::size
_TEXT	ENDS
PUBLIC	??E?$_Iterator@$00@?$list@U?$pair@$$CBVCGUID@@PAVCBaseObject@@@std@@V?$allocator@U?$pair@$$CBVCGUID@@PAVCBaseObject@@@std@@@2@@std@@QAEAAV012@XZ ; std::list<std::pair<CGUID const ,CBaseObject *>,std::allocator<std::pair<CGUID const ,CBaseObject *> > >::_Iterator<1>::operator++
; Function compile flags: /Ogtpy
; File d:\program files\microsoft visual studio 8\vc\include\list
;	COMDAT ??E?$_Iterator@$00@?$list@U?$pair@$$CBVCGUID@@PAVCBaseObject@@@std@@V?$allocator@U?$pair@$$CBVCGUID@@PAVCBaseObject@@@std@@@2@@std@@QAEAAV012@XZ
_TEXT	SEGMENT
??E?$_Iterator@$00@?$list@U?$pair@$$CBVCGUID@@PAVCBaseObject@@@std@@V?$allocator@U?$pair@$$CBVCGUID@@PAVCBaseObject@@@std@@@2@@std@@QAEAAV012@XZ PROC ; std::list<std::pair<CGUID const ,CBaseObject *>,std::allocator<std::pair<CGUID const ,CBaseObject *> > >::_Iterator<1>::operator++, COMDAT
; _this$ = ecx

; 397  : 			{	// preincrement

  00000	56		 push	 esi
  00001	8b f1		 mov	 esi, ecx

; 398  : 			++(*(_Mybase_iter *)this);

  00003	83 3e 00	 cmp	 DWORD PTR [esi], 0
  00006	75 05		 jne	 SHORT $LN5@operator@13
  00008	e8 00 00 00 00	 call	 __invalid_parameter_noinfo
$LN5@operator@13:
  0000d	8b 06		 mov	 eax, DWORD PTR [esi]
  0000f	8b 4e 04	 mov	 ecx, DWORD PTR [esi+4]
  00012	3b 48 04	 cmp	 ecx, DWORD PTR [eax+4]
  00015	75 05		 jne	 SHORT $LN3@operator@13
  00017	e8 00 00 00 00	 call	 __invalid_parameter_noinfo
$LN3@operator@13:
  0001c	8b 56 04	 mov	 edx, DWORD PTR [esi+4]
  0001f	8b 02		 mov	 eax, DWORD PTR [edx]
  00021	89 46 04	 mov	 DWORD PTR [esi+4], eax

; 399  : 			return (*this);

  00024	8b c6		 mov	 eax, esi
  00026	5e		 pop	 esi

; 400  : 			}

  00027	c3		 ret	 0
??E?$_Iterator@$00@?$list@U?$pair@$$CBVCGUID@@PAVCBaseObject@@@std@@V?$allocator@U?$pair@$$CBVCGUID@@PAVCBaseObject@@@std@@@2@@std@@QAEAAV012@XZ ENDP ; std::list<std::pair<CGUID const ,CBaseObject *>,std::allocator<std::pair<CGUID const ,CBaseObject *> > >::_Iterator<1>::operator++
_TEXT	ENDS
PUBLIC	??E?$_Iterator@$00@?$list@U?$pair@$$CBVCGUID@@PAVCBaseObject@@@std@@V?$allocator@U?$pair@$$CBVCGUID@@PAVCBaseObject@@@std@@@2@@std@@QAE?AV012@H@Z ; std::list<std::pair<CGUID const ,CBaseObject *>,std::allocator<std::pair<CGUID const ,CBaseObject *> > >::_Iterator<1>::operator++
; Function compile flags: /Ogtpy
;	COMDAT ??E?$_Iterator@$00@?$list@U?$pair@$$CBVCGUID@@PAVCBaseObject@@@std@@V?$allocator@U?$pair@$$CBVCGUID@@PAVCBaseObject@@@std@@@2@@std@@QAE?AV012@H@Z
_TEXT	SEGMENT
___$ReturnUdt$ = 8					; size = 4
___formal$ = 12						; size = 4
??E?$_Iterator@$00@?$list@U?$pair@$$CBVCGUID@@PAVCBaseObject@@@std@@V?$allocator@U?$pair@$$CBVCGUID@@PAVCBaseObject@@@std@@@2@@std@@QAE?AV012@H@Z PROC ; std::list<std::pair<CGUID const ,CBaseObject *>,std::allocator<std::pair<CGUID const ,CBaseObject *> > >::_Iterator<1>::operator++, COMDAT
; _this$ = ecx

; 403  : 			{	// postincrement

  00000	56		 push	 esi
  00001	8b f1		 mov	 esi, ecx

; 404  : 			_Myt_iter _Tmp = *this;

  00003	8b 06		 mov	 eax, DWORD PTR [esi]

; 405  : 			++*this;

  00005	85 c0		 test	 eax, eax
  00007	8b 4e 04	 mov	 ecx, DWORD PTR [esi+4]
  0000a	57		 push	 edi
  0000b	8b 7c 24 0c	 mov	 edi, DWORD PTR ___$ReturnUdt$[esp+4]
  0000f	89 07		 mov	 DWORD PTR [edi], eax
  00011	89 4f 04	 mov	 DWORD PTR [edi+4], ecx
  00014	75 05		 jne	 SHORT $LN7@operator@14
  00016	e8 00 00 00 00	 call	 __invalid_parameter_noinfo
$LN7@operator@14:
  0001b	8b 16		 mov	 edx, DWORD PTR [esi]
  0001d	8b 46 04	 mov	 eax, DWORD PTR [esi+4]
  00020	3b 42 04	 cmp	 eax, DWORD PTR [edx+4]
  00023	75 05		 jne	 SHORT $LN5@operator@14
  00025	e8 00 00 00 00	 call	 __invalid_parameter_noinfo
$LN5@operator@14:
  0002a	8b 4e 04	 mov	 ecx, DWORD PTR [esi+4]
  0002d	8b 11		 mov	 edx, DWORD PTR [ecx]

; 406  : 			return (_Tmp);

  0002f	8b c7		 mov	 eax, edi
  00031	5f		 pop	 edi
  00032	89 56 04	 mov	 DWORD PTR [esi+4], edx
  00035	5e		 pop	 esi

; 407  : 			}

  00036	c2 08 00	 ret	 8
??E?$_Iterator@$00@?$list@U?$pair@$$CBVCGUID@@PAVCBaseObject@@@std@@V?$allocator@U?$pair@$$CBVCGUID@@PAVCBaseObject@@@std@@@2@@std@@QAE?AV012@H@Z ENDP ; std::list<std::pair<CGUID const ,CBaseObject *>,std::allocator<std::pair<CGUID const ,CBaseObject *> > >::_Iterator<1>::operator++
_TEXT	ENDS
PUBLIC	??F?$_Iterator@$00@?$list@U?$pair@$$CBVCGUID@@PAVCBaseObject@@@std@@V?$allocator@U?$pair@$$CBVCGUID@@PAVCBaseObject@@@std@@@2@@std@@QAEAAV012@XZ ; std::list<std::pair<CGUID const ,CBaseObject *>,std::allocator<std::pair<CGUID const ,CBaseObject *> > >::_Iterator<1>::operator--
; Function compile flags: /Ogtpy
;	COMDAT ??F?$_Iterator@$00@?$list@U?$pair@$$CBVCGUID@@PAVCBaseObject@@@std@@V?$allocator@U?$pair@$$CBVCGUID@@PAVCBaseObject@@@std@@@2@@std@@QAEAAV012@XZ
_TEXT	SEGMENT
??F?$_Iterator@$00@?$list@U?$pair@$$CBVCGUID@@PAVCBaseObject@@@std@@V?$allocator@U?$pair@$$CBVCGUID@@PAVCBaseObject@@@std@@@2@@std@@QAEAAV012@XZ PROC ; std::list<std::pair<CGUID const ,CBaseObject *>,std::allocator<std::pair<CGUID const ,CBaseObject *> > >::_Iterator<1>::operator--, COMDAT
; _this$ = ecx

; 410  : 			{	// predecrement

  00000	56		 push	 esi
  00001	8b f1		 mov	 esi, ecx

; 411  : 			--(*(_Mybase_iter *)this);

  00003	83 3e 00	 cmp	 DWORD PTR [esi], 0
  00006	75 05		 jne	 SHORT $LN5@operator@15
  00008	e8 00 00 00 00	 call	 __invalid_parameter_noinfo
$LN5@operator@15:
  0000d	8b 46 04	 mov	 eax, DWORD PTR [esi+4]
  00010	8b 40 04	 mov	 eax, DWORD PTR [eax+4]
  00013	8b 0e		 mov	 ecx, DWORD PTR [esi]
  00015	89 46 04	 mov	 DWORD PTR [esi+4], eax
  00018	3b 41 04	 cmp	 eax, DWORD PTR [ecx+4]
  0001b	75 05		 jne	 SHORT $LN11@operator@15
  0001d	e8 00 00 00 00	 call	 __invalid_parameter_noinfo
$LN11@operator@15:

; 412  : 			return (*this);

  00022	8b c6		 mov	 eax, esi
  00024	5e		 pop	 esi

; 413  : 			}

  00025	c3		 ret	 0
??F?$_Iterator@$00@?$list@U?$pair@$$CBVCGUID@@PAVCBaseObject@@@std@@V?$allocator@U?$pair@$$CBVCGUID@@PAVCBaseObject@@@std@@@2@@std@@QAEAAV012@XZ ENDP ; std::list<std::pair<CGUID const ,CBaseObject *>,std::allocator<std::pair<CGUID const ,CBaseObject *> > >::_Iterator<1>::operator--
_TEXT	ENDS
PUBLIC	??D?$_Const_iterator@$00@?$list@U?$pair@$$CBVCGUID@@PAVCBaseObject@@@std@@V?$allocator@U?$pair@$$CBVCGUID@@PAVCBaseObject@@@std@@@2@@std@@QBEABU?$pair@$$CBVCGUID@@PAVCBaseObject@@@2@XZ ; std::list<std::pair<CGUID const ,CBaseObject *>,std::allocator<std::pair<CGUID const ,CBaseObject *> > >::_Const_iterator<1>::operator*
; Function compile flags: /Ogtpy
;	COMDAT ??D?$_Const_iterator@$00@?$list@U?$pair@$$CBVCGUID@@PAVCBaseObject@@@std@@V?$allocator@U?$pair@$$CBVCGUID@@PAVCBaseObject@@@std@@@2@@std@@QBEABU?$pair@$$CBVCGUID@@PAVCBaseObject@@@2@XZ
_TEXT	SEGMENT
??D?$_Const_iterator@$00@?$list@U?$pair@$$CBVCGUID@@PAVCBaseObject@@@std@@V?$allocator@U?$pair@$$CBVCGUID@@PAVCBaseObject@@@std@@@2@@std@@QBEABU?$pair@$$CBVCGUID@@PAVCBaseObject@@@2@XZ PROC ; std::list<std::pair<CGUID const ,CBaseObject *>,std::allocator<std::pair<CGUID const ,CBaseObject *> > >::_Const_iterator<1>::operator*, COMDAT
; _this$ = ecx

; 207  : 			{	// return designated value

  00000	56		 push	 esi
  00001	8b f1		 mov	 esi, ecx

; 208  : 
; 209  :  #if _HAS_ITERATOR_DEBUGGING
; 210  : 			if (this->_Mycont == 0
; 211  : 				|| _Ptr == ((_Myt *)this->_Mycont)->_Myhead)
; 212  : 				{
; 213  : 				_DEBUG_ERROR("list iterator not dereferencable");
; 214  : 				_SCL_SECURE_TRAITS_OUT_OF_RANGE;
; 215  : 				}
; 216  :  #else
; 217  : 			_SCL_SECURE_TRAITS_VALIDATE(this->_Mycont != NULL);

  00003	83 3e 00	 cmp	 DWORD PTR [esi], 0
  00006	75 05		 jne	 SHORT $LN3@operator@16
  00008	e8 00 00 00 00	 call	 __invalid_parameter_noinfo
$LN3@operator@16:

; 218  : 			_SCL_SECURE_TRAITS_VALIDATE_RANGE(_Ptr != ((_Myt *)(this->_Mycont))->_Myhead);

  0000d	8b 06		 mov	 eax, DWORD PTR [esi]
  0000f	8b 4e 04	 mov	 ecx, DWORD PTR [esi+4]
  00012	3b 48 04	 cmp	 ecx, DWORD PTR [eax+4]
  00015	75 05		 jne	 SHORT $LN1@operator@16
  00017	e8 00 00 00 00	 call	 __invalid_parameter_noinfo
$LN1@operator@16:

; 219  :  #endif /* _HAS_ITERATOR_DEBUGGING */
; 220  : 
; 221  : 			return (_Myval(_Ptr));

  0001c	8b 46 04	 mov	 eax, DWORD PTR [esi+4]
  0001f	83 c0 08	 add	 eax, 8
  00022	5e		 pop	 esi

; 222  : 			}

  00023	c3		 ret	 0
??D?$_Const_iterator@$00@?$list@U?$pair@$$CBVCGUID@@PAVCBaseObject@@@std@@V?$allocator@U?$pair@$$CBVCGUID@@PAVCBaseObject@@@std@@@2@@std@@QBEABU?$pair@$$CBVCGUID@@PAVCBaseObject@@@2@XZ ENDP ; std::list<std::pair<CGUID const ,CBaseObject *>,std::allocator<std::pair<CGUID const ,CBaseObject *> > >::_Const_iterator<1>::operator*
_TEXT	ENDS
PUBLIC	??8_List_position@?$_Hash@V?$_Hmap_traits@VCGUID@@PAVCBaseObject@@Vhash_guid_compare@@V?$allocator@U?$pair@$$CBVCGUID@@PAVCBaseObject@@@std@@@std@@$0A@@stdext@@@stdext@@QBE_NABV?$_Const_iterator@$00@?$list@U?$pair@$$CBVCGUID@@PAVCBaseObject@@@std@@V?$allocator@U?$pair@$$CBVCGUID@@PAVCBaseObject@@@std@@@2@@std@@@Z ; stdext::_Hash<stdext::_Hmap_traits<CGUID,CBaseObject *,hash_guid_compare,std::allocator<std::pair<CGUID const ,CBaseObject *> >,0> >::_List_position::operator==
; Function compile flags: /Ogtpy
; File d:\program files\microsoft visual studio 8\vc\include\xhash
;	COMDAT ??8_List_position@?$_Hash@V?$_Hmap_traits@VCGUID@@PAVCBaseObject@@Vhash_guid_compare@@V?$allocator@U?$pair@$$CBVCGUID@@PAVCBaseObject@@@std@@@std@@$0A@@stdext@@@stdext@@QBE_NABV?$_Const_iterator@$00@?$list@U?$pair@$$CBVCGUID@@PAVCBaseObject@@@std@@V?$allocator@U?$pair@$$CBVCGUID@@PAVCBaseObject@@@std@@@2@@std@@@Z
_TEXT	SEGMENT
__Right$ = 8						; size = 4
??8_List_position@?$_Hash@V?$_Hmap_traits@VCGUID@@PAVCBaseObject@@Vhash_guid_compare@@V?$allocator@U?$pair@$$CBVCGUID@@PAVCBaseObject@@@std@@@std@@$0A@@stdext@@@stdext@@QBE_NABV?$_Const_iterator@$00@?$list@U?$pair@$$CBVCGUID@@PAVCBaseObject@@@std@@V?$allocator@U?$pair@$$CBVCGUID@@PAVCBaseObject@@@std@@@2@@std@@@Z PROC ; stdext::_Hash<stdext::_Hmap_traits<CGUID,CBaseObject *,hash_guid_compare,std::allocator<std::pair<CGUID const ,CBaseObject *> >,0> >::_List_position::operator==, COMDAT
; _this$ = ecx

; 225  : 			return (_Mypos._Mynode() == _Right._Mynode());

  00000	8b 41 04	 mov	 eax, DWORD PTR [ecx+4]
  00003	8b 54 24 04	 mov	 edx, DWORD PTR __Right$[esp-4]
  00007	33 c9		 xor	 ecx, ecx
  00009	3b 42 04	 cmp	 eax, DWORD PTR [edx+4]
  0000c	0f 94 c1	 sete	 cl
  0000f	8a c1		 mov	 al, cl

; 226  : 			}

  00011	c2 04 00	 ret	 4
??8_List_position@?$_Hash@V?$_Hmap_traits@VCGUID@@PAVCBaseObject@@Vhash_guid_compare@@V?$allocator@U?$pair@$$CBVCGUID@@PAVCBaseObject@@@std@@@std@@$0A@@stdext@@@stdext@@QBE_NABV?$_Const_iterator@$00@?$list@U?$pair@$$CBVCGUID@@PAVCBaseObject@@@std@@V?$allocator@U?$pair@$$CBVCGUID@@PAVCBaseObject@@@std@@@2@@std@@@Z ENDP ; stdext::_Hash<stdext::_Hmap_traits<CGUID,CBaseObject *,hash_guid_compare,std::allocator<std::pair<CGUID const ,CBaseObject *> >,0> >::_List_position::operator==
_TEXT	ENDS
PUBLIC	??9_List_position@?$_Hash@V?$_Hmap_traits@VCGUID@@PAVCBaseObject@@Vhash_guid_compare@@V?$allocator@U?$pair@$$CBVCGUID@@PAVCBaseObject@@@std@@@std@@$0A@@stdext@@@stdext@@QBE_NABV?$_Const_iterator@$00@?$list@U?$pair@$$CBVCGUID@@PAVCBaseObject@@@std@@V?$allocator@U?$pair@$$CBVCGUID@@PAVCBaseObject@@@std@@@2@@std@@@Z ; stdext::_Hash<stdext::_Hmap_traits<CGUID,CBaseObject *,hash_guid_compare,std::allocator<std::pair<CGUID const ,CBaseObject *> >,0> >::_List_position::operator!=
; Function compile flags: /Ogtpy
;	COMDAT ??9_List_position@?$_Hash@V?$_Hmap_traits@VCGUID@@PAVCBaseObject@@Vhash_guid_compare@@V?$allocator@U?$pair@$$CBVCGUID@@PAVCBaseObject@@@std@@@std@@$0A@@stdext@@@stdext@@QBE_NABV?$_Const_iterator@$00@?$list@U?$pair@$$CBVCGUID@@PAVCBaseObject@@@std@@V?$allocator@U?$pair@$$CBVCGUID@@PAVCBaseObject@@@std@@@2@@std@@@Z
_TEXT	SEGMENT
__Right$ = 8						; size = 4
??9_List_position@?$_Hash@V?$_Hmap_traits@VCGUID@@PAVCBaseObject@@Vhash_guid_compare@@V?$allocator@U?$pair@$$CBVCGUID@@PAVCBaseObject@@@std@@@std@@$0A@@stdext@@@stdext@@QBE_NABV?$_Const_iterator@$00@?$list@U?$pair@$$CBVCGUID@@PAVCBaseObject@@@std@@V?$allocator@U?$pair@$$CBVCGUID@@PAVCBaseObject@@@std@@@2@@std@@@Z PROC ; stdext::_Hash<stdext::_Hmap_traits<CGUID,CBaseObject *,hash_guid_compare,std::allocator<std::pair<CGUID const ,CBaseObject *> >,0> >::_List_position::operator!=, COMDAT
; _this$ = ecx

; 230  : 			return (!(*this == _Right));

  00000	8b 41 04	 mov	 eax, DWORD PTR [ecx+4]
  00003	8b 54 24 04	 mov	 edx, DWORD PTR __Right$[esp-4]
  00007	33 c9		 xor	 ecx, ecx
  00009	3b 42 04	 cmp	 eax, DWORD PTR [edx+4]
  0000c	0f 95 c1	 setne	 cl
  0000f	8a c1		 mov	 al, cl

; 231  : 			}

  00011	c2 04 00	 ret	 4
??9_List_position@?$_Hash@V?$_Hmap_traits@VCGUID@@PAVCBaseObject@@Vhash_guid_compare@@V?$allocator@U?$pair@$$CBVCGUID@@PAVCBaseObject@@@std@@@std@@$0A@@stdext@@@stdext@@QBE_NABV?$_Const_iterator@$00@?$list@U?$pair@$$CBVCGUID@@PAVCBaseObject@@@std@@V?$allocator@U?$pair@$$CBVCGUID@@PAVCBaseObject@@@std@@@2@@std@@@Z ENDP ; stdext::_Hash<stdext::_Hmap_traits<CGUID,CBaseObject *,hash_guid_compare,std::allocator<std::pair<CGUID const ,CBaseObject *> >,0> >::_List_position::operator!=
_TEXT	ENDS
PUBLIC	??0?$_Iterator@$00@?$list@U?$pair@$$CBVCGUID@@PAVCBaseObject@@@std@@V?$allocator@U?$pair@$$CBVCGUID@@PAVCBaseObject@@@std@@@2@@std@@QAE@PAU_Node@?$_List_nod@U?$pair@$$CBVCGUID@@PAVCBaseObject@@@std@@V?$allocator@U?$pair@$$CBVCGUID@@PAVCBaseObject@@@std@@@2@@2@PBV12@@Z ; std::list<std::pair<CGUID const ,CBaseObject *>,std::allocator<std::pair<CGUID const ,CBaseObject *> > >::_Iterator<1>::_Iterator<1>
; Function compile flags: /Ogtpy
; File d:\program files\microsoft visual studio 8\vc\include\list
;	COMDAT ??0?$_Iterator@$00@?$list@U?$pair@$$CBVCGUID@@PAVCBaseObject@@@std@@V?$allocator@U?$pair@$$CBVCGUID@@PAVCBaseObject@@@std@@@2@@std@@QAE@PAU_Node@?$_List_nod@U?$pair@$$CBVCGUID@@PAVCBaseObject@@@std@@V?$allocator@U?$pair@$$CBVCGUID@@PAVCBaseObject@@@std@@@2@@2@PBV12@@Z
_TEXT	SEGMENT
__Pnode$ = 8						; size = 4
__Plist$ = 12						; size = 4
??0?$_Iterator@$00@?$list@U?$pair@$$CBVCGUID@@PAVCBaseObject@@@std@@V?$allocator@U?$pair@$$CBVCGUID@@PAVCBaseObject@@@std@@@2@@std@@QAE@PAU_Node@?$_List_nod@U?$pair@$$CBVCGUID@@PAVCBaseObject@@@std@@V?$allocator@U?$pair@$$CBVCGUID@@PAVCBaseObject@@@std@@@2@@2@PBV12@@Z PROC ; std::list<std::pair<CGUID const ,CBaseObject *>,std::allocator<std::pair<CGUID const ,CBaseObject *> > >::_Iterator<1>::_Iterator<1>, COMDAT
; _this$ = ecx

; 355  : 			{	// construct with node pointer _Pnode

  00000	8b 44 24 04	 mov	 eax, DWORD PTR __Pnode$[esp-4]
  00004	56		 push	 esi
  00005	57		 push	 edi
  00006	8b 7c 24 10	 mov	 edi, DWORD PTR __Plist$[esp+4]
  0000a	85 ff		 test	 edi, edi
  0000c	8b f1		 mov	 esi, ecx
  0000e	c7 06 00 00 00
	00		 mov	 DWORD PTR [esi], 0
  00014	89 46 04	 mov	 DWORD PTR [esi+4], eax
  00017	75 05		 jne	 SHORT $LN11@Iterator
  00019	e8 00 00 00 00	 call	 __invalid_parameter_noinfo
$LN11@Iterator:
  0001e	89 3e		 mov	 DWORD PTR [esi], edi
  00020	5f		 pop	 edi

; 356  : 			}

  00021	8b c6		 mov	 eax, esi
  00023	5e		 pop	 esi
  00024	c2 08 00	 ret	 8
??0?$_Iterator@$00@?$list@U?$pair@$$CBVCGUID@@PAVCBaseObject@@@std@@V?$allocator@U?$pair@$$CBVCGUID@@PAVCBaseObject@@@std@@@2@@std@@QAE@PAU_Node@?$_List_nod@U?$pair@$$CBVCGUID@@PAVCBaseObject@@@std@@V?$allocator@U?$pair@$$CBVCGUID@@PAVCBaseObject@@@std@@@2@@2@PBV12@@Z ENDP ; std::list<std::pair<CGUID const ,CBaseObject *>,std::allocator<std::pair<CGUID const ,CBaseObject *> > >::_Iterator<1>::_Iterator<1>
_TEXT	ENDS
PUBLIC	??0?$_Const_iterator@$00@?$list@U?$pair@$$CBVCGUID@@PAVCBaseObject@@@std@@V?$allocator@U?$pair@$$CBVCGUID@@PAVCBaseObject@@@std@@@2@@std@@QAE@XZ ; std::list<std::pair<CGUID const ,CBaseObject *>,std::allocator<std::pair<CGUID const ,CBaseObject *> > >::_Const_iterator<1>::_Const_iterator<1>
; Function compile flags: /Ogtpy
;	COMDAT ??0?$_Const_iterator@$00@?$list@U?$pair@$$CBVCGUID@@PAVCBaseObject@@@std@@V?$allocator@U?$pair@$$CBVCGUID@@PAVCBaseObject@@@std@@@2@@std@@QAE@XZ
_TEXT	SEGMENT
??0?$_Const_iterator@$00@?$list@U?$pair@$$CBVCGUID@@PAVCBaseObject@@@std@@V?$allocator@U?$pair@$$CBVCGUID@@PAVCBaseObject@@@std@@@2@@std@@QAE@XZ PROC ; std::list<std::pair<CGUID const ,CBaseObject *>,std::allocator<std::pair<CGUID const ,CBaseObject *> > >::_Const_iterator<1>::_Const_iterator<1>, COMDAT
; _this$ = ecx

; 159  : 			{	// construct with null node pointer

  00000	8b c1		 mov	 eax, ecx
  00002	c7 00 00 00 00
	00		 mov	 DWORD PTR [eax], 0
  00008	c7 40 04 00 00
	00 00		 mov	 DWORD PTR [eax+4], 0

; 160  : 			}

  0000f	c3		 ret	 0
??0?$_Const_iterator@$00@?$list@U?$pair@$$CBVCGUID@@PAVCBaseObject@@@std@@V?$allocator@U?$pair@$$CBVCGUID@@PAVCBaseObject@@@std@@@2@@std@@QAE@XZ ENDP ; std::list<std::pair<CGUID const ,CBaseObject *>,std::allocator<std::pair<CGUID const ,CBaseObject *> > >::_Const_iterator<1>::_Const_iterator<1>
_TEXT	ENDS
PUBLIC	?_Get_iter@_List_position@?$_Hash@V?$_Hmap_traits@VCGUID@@PAVCBaseObject@@Vhash_guid_compare@@V?$allocator@U?$pair@$$CBVCGUID@@PAVCBaseObject@@@std@@@std@@$0A@@stdext@@@stdext@@QBE?AV?$_Iterator@$00@?$list@U?$pair@$$CBVCGUID@@PAVCBaseObject@@@std@@V?$allocator@U?$pair@$$CBVCGUID@@PAVCBaseObject@@@std@@@2@@std@@ABV56@@Z ; stdext::_Hash<stdext::_Hmap_traits<CGUID,CBaseObject *,hash_guid_compare,std::allocator<std::pair<CGUID const ,CBaseObject *> >,0> >::_List_position::_Get_iter
; Function compile flags: /Ogtpy
; File d:\program files\microsoft visual studio 8\vc\include\xhash
;	COMDAT ?_Get_iter@_List_position@?$_Hash@V?$_Hmap_traits@VCGUID@@PAVCBaseObject@@Vhash_guid_compare@@V?$allocator@U?$pair@$$CBVCGUID@@PAVCBaseObject@@@std@@@std@@$0A@@stdext@@@stdext@@QBE?AV?$_Iterator@$00@?$list@U?$pair@$$CBVCGUID@@PAVCBaseObject@@@std@@V?$allocator@U?$pair@$$CBVCGUID@@PAVCBaseObject@@@std@@@2@@std@@ABV56@@Z
_TEXT	SEGMENT
___$ReturnUdt$ = 8					; size = 4
__List$ = 12						; size = 4
?_Get_iter@_List_position@?$_Hash@V?$_Hmap_traits@VCGUID@@PAVCBaseObject@@Vhash_guid_compare@@V?$allocator@U?$pair@$$CBVCGUID@@PAVCBaseObject@@@std@@@std@@$0A@@stdext@@@stdext@@QBE?AV?$_Iterator@$00@?$list@U?$pair@$$CBVCGUID@@PAVCBaseObject@@@std@@V?$allocator@U?$pair@$$CBVCGUID@@PAVCBaseObject@@@std@@@2@@std@@ABV56@@Z PROC ; stdext::_Hash<stdext::_Hmap_traits<CGUID,CBaseObject *,hash_guid_compare,std::allocator<std::pair<CGUID const ,CBaseObject *> >,0> >::_List_position::_Get_iter, COMDAT
; _this$ = ecx

; 209  : 			// reparent the iterator
; 210  : 			return _Myiterator(_Mypos._Mynode(), &_List);

  00000	8b 41 04	 mov	 eax, DWORD PTR [ecx+4]
  00003	56		 push	 esi
  00004	8b 74 24 08	 mov	 esi, DWORD PTR ___$ReturnUdt$[esp]
  00008	57		 push	 edi
  00009	8b 7c 24 10	 mov	 edi, DWORD PTR __List$[esp+4]
  0000d	85 ff		 test	 edi, edi
  0000f	c7 06 00 00 00
	00		 mov	 DWORD PTR [esi], 0
  00015	89 46 04	 mov	 DWORD PTR [esi+4], eax
  00018	75 05		 jne	 SHORT $LN15@Get_iter
  0001a	e8 00 00 00 00	 call	 __invalid_parameter_noinfo
$LN15@Get_iter:
  0001f	89 3e		 mov	 DWORD PTR [esi], edi
  00021	5f		 pop	 edi
  00022	8b c6		 mov	 eax, esi
  00024	5e		 pop	 esi

; 211  : 			}

  00025	c2 08 00	 ret	 8
?_Get_iter@_List_position@?$_Hash@V?$_Hmap_traits@VCGUID@@PAVCBaseObject@@Vhash_guid_compare@@V?$allocator@U?$pair@$$CBVCGUID@@PAVCBaseObject@@@std@@@std@@$0A@@stdext@@@stdext@@QBE?AV?$_Iterator@$00@?$list@U?$pair@$$CBVCGUID@@PAVCBaseObject@@@std@@V?$allocator@U?$pair@$$CBVCGUID@@PAVCBaseObject@@@std@@@2@@std@@ABV56@@Z ENDP ; stdext::_Hash<stdext::_Hmap_traits<CGUID,CBaseObject *,hash_guid_compare,std::allocator<std::pair<CGUID const ,CBaseObject *> >,0> >::_List_position::_Get_iter
_TEXT	ENDS
PUBLIC	??0?$_Iterator@$0A@@?$list@U?$pair@$$CBVCGUID@@PAVCBaseObject@@@std@@V?$allocator@U?$pair@$$CBVCGUID@@PAVCBaseObject@@@std@@@2@@std@@QAE@PAU_Node@?$_List_nod@U?$pair@$$CBVCGUID@@PAVCBaseObject@@@std@@V?$allocator@U?$pair@$$CBVCGUID@@PAVCBaseObject@@@std@@@2@@2@PBV12@@Z ; std::list<std::pair<CGUID const ,CBaseObject *>,std::allocator<std::pair<CGUID const ,CBaseObject *> > >::_Iterator<0>::_Iterator<0>
; Function compile flags: /Ogtpy
; File d:\program files\microsoft visual studio 8\vc\include\list
;	COMDAT ??0?$_Iterator@$0A@@?$list@U?$pair@$$CBVCGUID@@PAVCBaseObject@@@std@@V?$allocator@U?$pair@$$CBVCGUID@@PAVCBaseObject@@@std@@@2@@std@@QAE@PAU_Node@?$_List_nod@U?$pair@$$CBVCGUID@@PAVCBaseObject@@@std@@V?$allocator@U?$pair@$$CBVCGUID@@PAVCBaseObject@@@std@@@2@@2@PBV12@@Z
_TEXT	SEGMENT
__Pnode$ = 8						; size = 4
__Plist$ = 12						; size = 4
??0?$_Iterator@$0A@@?$list@U?$pair@$$CBVCGUID@@PAVCBaseObject@@@std@@V?$allocator@U?$pair@$$CBVCGUID@@PAVCBaseObject@@@std@@@2@@std@@QAE@PAU_Node@?$_List_nod@U?$pair@$$CBVCGUID@@PAVCBaseObject@@@std@@V?$allocator@U?$pair@$$CBVCGUID@@PAVCBaseObject@@@std@@@2@@2@PBV12@@Z PROC ; std::list<std::pair<CGUID const ,CBaseObject *>,std::allocator<std::pair<CGUID const ,CBaseObject *> > >::_Iterator<0>::_Iterator<0>, COMDAT
; _this$ = ecx

; 355  : 			{	// construct with node pointer _Pnode

  00000	8b 54 24 08	 mov	 edx, DWORD PTR __Plist$[esp-4]
  00004	8b c1		 mov	 eax, ecx
  00006	8b 4c 24 04	 mov	 ecx, DWORD PTR __Pnode$[esp-4]
  0000a	89 48 04	 mov	 DWORD PTR [eax+4], ecx
  0000d	89 10		 mov	 DWORD PTR [eax], edx

; 356  : 			}

  0000f	c2 08 00	 ret	 8
??0?$_Iterator@$0A@@?$list@U?$pair@$$CBVCGUID@@PAVCBaseObject@@@std@@V?$allocator@U?$pair@$$CBVCGUID@@PAVCBaseObject@@@std@@@2@@std@@QAE@PAU_Node@?$_List_nod@U?$pair@$$CBVCGUID@@PAVCBaseObject@@@std@@V?$allocator@U?$pair@$$CBVCGUID@@PAVCBaseObject@@@std@@@2@@2@PBV12@@Z ENDP ; std::list<std::pair<CGUID const ,CBaseObject *>,std::allocator<std::pair<CGUID const ,CBaseObject *> > >::_Iterator<0>::_Iterator<0>
_TEXT	ENDS
PUBLIC	?max_size@?$list@U?$pair@$$CBVCGUID@@PAVCBaseObject@@@std@@V?$allocator@U?$pair@$$CBVCGUID@@PAVCBaseObject@@@std@@@2@@std@@QBEIXZ ; std::list<std::pair<CGUID const ,CBaseObject *>,std::allocator<std::pair<CGUID const ,CBaseObject *> > >::max_size
; Function compile flags: /Ogtpy
;	COMDAT ?max_size@?$list@U?$pair@$$CBVCGUID@@PAVCBaseObject@@@std@@V?$allocator@U?$pair@$$CBVCGUID@@PAVCBaseObject@@@std@@@2@@std@@QBEIXZ
_TEXT	SEGMENT
?max_size@?$list@U?$pair@$$CBVCGUID@@PAVCBaseObject@@@std@@V?$allocator@U?$pair@$$CBVCGUID@@PAVCBaseObject@@@std@@@2@@std@@QBEIXZ PROC ; std::list<std::pair<CGUID const ,CBaseObject *>,std::allocator<std::pair<CGUID const ,CBaseObject *> > >::max_size, COMDAT
; _this$ = ecx

; 609  : 		return (this->_Alval.max_size());

  00000	b8 cc cc cc 0c	 mov	 eax, 214748364		; 0cccccccH

; 610  : 		}

  00005	c3		 ret	 0
?max_size@?$list@U?$pair@$$CBVCGUID@@PAVCBaseObject@@@std@@V?$allocator@U?$pair@$$CBVCGUID@@PAVCBaseObject@@@std@@@2@@std@@QBEIXZ ENDP ; std::list<std::pair<CGUID const ,CBaseObject *>,std::allocator<std::pair<CGUID const ,CBaseObject *> > >::max_size
_TEXT	ENDS
PUBLIC	?max_size@?$vector@U_List_position@?$_Hash@V?$_Hmap_traits@VCGUID@@PAVCBaseObject@@Vhash_guid_compare@@V?$allocator@U?$pair@$$CBVCGUID@@PAVCBaseObject@@@std@@@std@@$0A@@stdext@@@stdext@@V?$allocator@U_List_position@?$_Hash@V?$_Hmap_traits@VCGUID@@PAVCBaseObject@@Vhash_guid_compare@@V?$allocator@U?$pair@$$CBVCGUID@@PAVCBaseObject@@@std@@@std@@$0A@@stdext@@@stdext@@@std@@@std@@QBEIXZ ; std::vector<stdext::_Hash<stdext::_Hmap_traits<CGUID,CBaseObject *,hash_guid_compare,std::allocator<std::pair<CGUID const ,CBaseObject *> >,0> >::_List_position,std::allocator<stdext::_Hash<stdext::_Hmap_traits<CGUID,CBaseObject *,hash_guid_compare,std::allocator<std::pair<CGUID const ,CBaseObject *> >,0> >::_List_position> >::max_size
; Function compile flags: /Ogtpy
; File d:\program files\microsoft visual studio 8\vc\include\vector
;	COMDAT ?max_size@?$vector@U_List_position@?$_Hash@V?$_Hmap_traits@VCGUID@@PAVCBaseObject@@Vhash_guid_compare@@V?$allocator@U?$pair@$$CBVCGUID@@PAVCBaseObject@@@std@@@std@@$0A@@stdext@@@stdext@@V?$allocator@U_List_position@?$_Hash@V?$_Hmap_traits@VCGUID@@PAVCBaseObject@@Vhash_guid_compare@@V?$allocator@U?$pair@$$CBVCGUID@@PAVCBaseObject@@@std@@@std@@$0A@@stdext@@@stdext@@@std@@@std@@QBEIXZ
_TEXT	SEGMENT
?max_size@?$vector@U_List_position@?$_Hash@V?$_Hmap_traits@VCGUID@@PAVCBaseObject@@Vhash_guid_compare@@V?$allocator@U?$pair@$$CBVCGUID@@PAVCBaseObject@@@std@@@std@@$0A@@stdext@@@stdext@@V?$allocator@U_List_position@?$_Hash@V?$_Hmap_traits@VCGUID@@PAVCBaseObject@@Vhash_guid_compare@@V?$allocator@U?$pair@$$CBVCGUID@@PAVCBaseObject@@@std@@@std@@$0A@@stdext@@@stdext@@@std@@@std@@QBEIXZ PROC ; std::vector<stdext::_Hash<stdext::_Hmap_traits<CGUID,CBaseObject *,hash_guid_compare,std::allocator<std::pair<CGUID const ,CBaseObject *> >,0> >::_List_position,std::allocator<stdext::_Hash<stdext::_Hmap_traits<CGUID,CBaseObject *,hash_guid_compare,std::allocator<std::pair<CGUID const ,CBaseObject *> >,0> >::_List_position> >::max_size, COMDAT
; _this$ = ecx

; 708  : 		return (this->_Alval.max_size());

  00000	b8 ff ff ff 1f	 mov	 eax, 536870911		; 1fffffffH

; 709  : 		}

  00005	c3		 ret	 0
?max_size@?$vector@U_List_position@?$_Hash@V?$_Hmap_traits@VCGUID@@PAVCBaseObject@@Vhash_guid_compare@@V?$allocator@U?$pair@$$CBVCGUID@@PAVCBaseObject@@@std@@@std@@$0A@@stdext@@@stdext@@V?$allocator@U_List_position@?$_Hash@V?$_Hmap_traits@VCGUID@@PAVCBaseObject@@Vhash_guid_compare@@V?$allocator@U?$pair@$$CBVCGUID@@PAVCBaseObject@@@std@@@std@@$0A@@stdext@@@stdext@@@std@@@std@@QBEIXZ ENDP ; std::vector<stdext::_Hash<stdext::_Hmap_traits<CGUID,CBaseObject *,hash_guid_compare,std::allocator<std::pair<CGUID const ,CBaseObject *> >,0> >::_List_position,std::allocator<stdext::_Hash<stdext::_Hmap_traits<CGUID,CBaseObject *,hash_guid_compare,std::allocator<std::pair<CGUID const ,CBaseObject *> >,0> >::_List_position> >::max_size
_TEXT	ENDS
PUBLIC	?allocate@?$allocator@U_List_position@?$_Hash@V?$_Hmap_traits@VCGUID@@PAVCBaseObject@@Vhash_guid_compare@@V?$allocator@U?$pair@$$CBVCGUID@@PAVCBaseObject@@@std@@@std@@$0A@@stdext@@@stdext@@@std@@QAEPAU_List_position@?$_Hash@V?$_Hmap_traits@VCGUID@@PAVCBaseObject@@Vhash_guid_compare@@V?$allocator@U?$pair@$$CBVCGUID@@PAVCBaseObject@@@std@@@std@@$0A@@stdext@@@stdext@@I@Z ; std::allocator<stdext::_Hash<stdext::_Hmap_traits<CGUID,CBaseObject *,hash_guid_compare,std::allocator<std::pair<CGUID const ,CBaseObject *> >,0> >::_List_position>::allocate
; Function compile flags: /Ogtpy
; File d:\program files\microsoft visual studio 8\vc\include\xmemory
;	COMDAT ?allocate@?$allocator@U_List_position@?$_Hash@V?$_Hmap_traits@VCGUID@@PAVCBaseObject@@Vhash_guid_compare@@V?$allocator@U?$pair@$$CBVCGUID@@PAVCBaseObject@@@std@@@std@@$0A@@stdext@@@stdext@@@std@@QAEPAU_List_position@?$_Hash@V?$_Hmap_traits@VCGUID@@PAVCBaseObject@@Vhash_guid_compare@@V?$allocator@U?$pair@$$CBVCGUID@@PAVCBaseObject@@@std@@@std@@$0A@@stdext@@@stdext@@I@Z
_TEXT	SEGMENT
__Count$ = 8						; size = 4
