; Listing generated by Microsoft (R) Optimizing Compiler Version 14.00.50727.762 

	TITLE	D:\Project_P6\trunk\Server\GameServer\Server\stdafx.cpp
	.686P
	.XMM
	include listing.inc
	.model	flat

INCLUDELIB LIBCMT
INCLUDELIB OLDNAMES

PUBLIC	??_C@_0P@GHFPNOJB@bad?5allocation?$AA@		; `string'
PUBLIC	?collate@?$_Locbase@H@std@@2HB			; std::_Locbase<int>::collate
PUBLIC	?ctype@?$_Locbase@H@std@@2HB			; std::_Locbase<int>::ctype
PUBLIC	?monetary@?$_Locbase@H@std@@2HB			; std::_Locbase<int>::monetary
PUBLIC	?numeric@?$_Locbase@H@std@@2HB			; std::_Locbase<int>::numeric
PUBLIC	?time@?$_Locbase@H@std@@2HB			; std::_Locbase<int>::time
PUBLIC	?messages@?$_Locbase@H@std@@2HB			; std::_Locbase<int>::messages
PUBLIC	?all@?$_Locbase@H@std@@2HB			; std::_Locbase<int>::all
PUBLIC	?none@?$_Locbase@H@std@@2HB			; std::_Locbase<int>::none
PUBLIC	?table_size@?$ctype@D@std@@2IB			; std::ctype<char>::table_size
PUBLIC	?skipws@?$_Iosb@H@std@@2W4_Fmtflags@12@B	; std::_Iosb<int>::skipws
PUBLIC	?unitbuf@?$_Iosb@H@std@@2W4_Fmtflags@12@B	; std::_Iosb<int>::unitbuf
PUBLIC	?uppercase@?$_Iosb@H@std@@2W4_Fmtflags@12@B	; std::_Iosb<int>::uppercase
PUBLIC	?showbase@?$_Iosb@H@std@@2W4_Fmtflags@12@B	; std::_Iosb<int>::showbase
PUBLIC	?showpoint@?$_Iosb@H@std@@2W4_Fmtflags@12@B	; std::_Iosb<int>::showpoint
PUBLIC	?showpos@?$_Iosb@H@std@@2W4_Fmtflags@12@B	; std::_Iosb<int>::showpos
PUBLIC	?left@?$_Iosb@H@std@@2W4_Fmtflags@12@B		; std::_Iosb<int>::left
PUBLIC	?right@?$_Iosb@H@std@@2W4_Fmtflags@12@B		; std::_Iosb<int>::right
PUBLIC	?internal@?$_Iosb@H@std@@2W4_Fmtflags@12@B	; std::_Iosb<int>::internal
PUBLIC	?dec@?$_Iosb@H@std@@2W4_Fmtflags@12@B		; std::_Iosb<int>::dec
PUBLIC	?oct@?$_Iosb@H@std@@2W4_Fmtflags@12@B		; std::_Iosb<int>::oct
PUBLIC	?hex@?$_Iosb@H@std@@2W4_Fmtflags@12@B		; std::_Iosb<int>::hex
PUBLIC	?scientific@?$_Iosb@H@std@@2W4_Fmtflags@12@B	; std::_Iosb<int>::scientific
PUBLIC	?fixed@?$_Iosb@H@std@@2W4_Fmtflags@12@B		; std::_Iosb<int>::fixed
PUBLIC	?boolalpha@?$_Iosb@H@std@@2W4_Fmtflags@12@B	; std::_Iosb<int>::boolalpha
PUBLIC	?_Stdio@?$_Iosb@H@std@@2W4_Fmtflags@12@B	; std::_Iosb<int>::_Stdio
PUBLIC	?adjustfield@?$_Iosb@H@std@@2W4_Fmtflags@12@B	; std::_Iosb<int>::adjustfield
PUBLIC	?basefield@?$_Iosb@H@std@@2W4_Fmtflags@12@B	; std::_Iosb<int>::basefield
PUBLIC	?floatfield@?$_Iosb@H@std@@2W4_Fmtflags@12@B	; std::_Iosb<int>::floatfield
PUBLIC	?goodbit@?$_Iosb@H@std@@2W4_Iostate@12@B	; std::_Iosb<int>::goodbit
PUBLIC	?eofbit@?$_Iosb@H@std@@2W4_Iostate@12@B		; std::_Iosb<int>::eofbit
PUBLIC	?failbit@?$_Iosb@H@std@@2W4_Iostate@12@B	; std::_Iosb<int>::failbit
PUBLIC	?badbit@?$_Iosb@H@std@@2W4_Iostate@12@B		; std::_Iosb<int>::badbit
PUBLIC	?_Hardfail@?$_Iosb@H@std@@2W4_Iostate@12@B	; std::_Iosb<int>::_Hardfail
PUBLIC	?in@?$_Iosb@H@std@@2W4_Openmode@12@B		; std::_Iosb<int>::in
PUBLIC	?out@?$_Iosb@H@std@@2W4_Openmode@12@B		; std::_Iosb<int>::out
PUBLIC	?ate@?$_Iosb@H@std@@2W4_Openmode@12@B		; std::_Iosb<int>::ate
PUBLIC	?app@?$_Iosb@H@std@@2W4_Openmode@12@B		; std::_Iosb<int>::app
PUBLIC	?trunc@?$_Iosb@H@std@@2W4_Openmode@12@B		; std::_Iosb<int>::trunc
PUBLIC	?_Nocreate@?$_Iosb@H@std@@2W4_Openmode@12@B	; std::_Iosb<int>::_Nocreate
PUBLIC	?_Noreplace@?$_Iosb@H@std@@2W4_Openmode@12@B	; std::_Iosb<int>::_Noreplace
PUBLIC	?binary@?$_Iosb@H@std@@2W4_Openmode@12@B	; std::_Iosb<int>::binary
PUBLIC	?beg@?$_Iosb@H@std@@2W4_Seekdir@12@B		; std::_Iosb<int>::beg
PUBLIC	?cur@?$_Iosb@H@std@@2W4_Seekdir@12@B		; std::_Iosb<int>::cur
PUBLIC	?end@?$_Iosb@H@std@@2W4_Seekdir@12@B		; std::_Iosb<int>::end
PUBLIC	?_EEM_DS@?$deque@PAUtagFileAsynOper@CClientResource@@V?$allocator@PAUtagFileAsynOper@CClientResource@@@std@@@std@@2HB ; std::deque<CClientResource::tagFileAsynOper *,std::allocator<CClientResource::tagFileAsynOper *> >::_EEM_DS
PUBLIC	?_EEM_DS@?$deque@PAVCBaseMessage@@V?$allocator@PAVCBaseMessage@@@std@@@std@@2HB ; std::deque<CBaseMessage *,std::allocator<CBaseMessage *> >::_EEM_DS
PUBLIC	?_EEM_DS@?$deque@PAUtagSocketOper@@V?$allocator@PAUtagSocketOper@@@std@@@std@@2HB ; std::deque<tagSocketOper *,std::allocator<tagSocketOper *> >::_EEM_DS
;	COMDAT ?_EEM_DS@?$deque@PAUtagSocketOper@@V?$allocator@PAUtagSocketOper@@@std@@@std@@2HB
CONST	SEGMENT
?_EEM_DS@?$deque@PAUtagSocketOper@@V?$allocator@PAUtagSocketOper@@@std@@@std@@2HB DD 04H ; std::deque<tagSocketOper *,std::allocator<tagSocketOper *> >::_EEM_DS
CONST	ENDS
;	COMDAT ?_EEM_DS@?$deque@PAVCBaseMessage@@V?$allocator@PAVCBaseMessage@@@std@@@std@@2HB
CONST	SEGMENT
?_EEM_DS@?$deque@PAVCBaseMessage@@V?$allocator@PAVCBaseMessage@@@std@@@std@@2HB DD 04H ; std::deque<CBaseMessage *,std::allocator<CBaseMessage *> >::_EEM_DS
CONST	ENDS
;	COMDAT ?_EEM_DS@?$deque@PAUtagFileAsynOper@CClientResource@@V?$allocator@PAUtagFileAsynOper@CClientResource@@@std@@@std@@2HB
CONST	SEGMENT
?_EEM_DS@?$deque@PAUtagFileAsynOper@CClientResource@@V?$allocator@PAUtagFileAsynOper@CClientResource@@@std@@@std@@2HB DD 04H ; std::deque<CClientResource::tagFileAsynOper *,std::allocator<CClientResource::tagFileAsynOper *> >::_EEM_DS
CONST	ENDS
;	COMDAT ?end@?$_Iosb@H@std@@2W4_Seekdir@12@B
CONST	SEGMENT
?end@?$_Iosb@H@std@@2W4_Seekdir@12@B DD 02H		; std::_Iosb<int>::end
CONST	ENDS
;	COMDAT ?cur@?$_Iosb@H@std@@2W4_Seekdir@12@B
CONST	SEGMENT
?cur@?$_Iosb@H@std@@2W4_Seekdir@12@B DD 01H		; std::_Iosb<int>::cur
CONST	ENDS
;	COMDAT ?beg@?$_Iosb@H@std@@2W4_Seekdir@12@B
CONST	SEGMENT
?beg@?$_Iosb@H@std@@2W4_Seekdir@12@B DD 00H		; std::_Iosb<int>::beg
CONST	ENDS
;	COMDAT ?binary@?$_Iosb@H@std@@2W4_Openmode@12@B
CONST	SEGMENT
?binary@?$_Iosb@H@std@@2W4_Openmode@12@B DD 020H	; std::_Iosb<int>::binary
CONST	ENDS
;	COMDAT ?_Noreplace@?$_Iosb@H@std@@2W4_Openmode@12@B
CONST	SEGMENT
?_Noreplace@?$_Iosb@H@std@@2W4_Openmode@12@B DD 080H	; std::_Iosb<int>::_Noreplace
CONST	ENDS
;	COMDAT ?_Nocreate@?$_Iosb@H@std@@2W4_Openmode@12@B
CONST	SEGMENT
?_Nocreate@?$_Iosb@H@std@@2W4_Openmode@12@B DD 040H	; std::_Iosb<int>::_Nocreate
CONST	ENDS
;	COMDAT ?trunc@?$_Iosb@H@std@@2W4_Openmode@12@B
CONST	SEGMENT
?trunc@?$_Iosb@H@std@@2W4_Openmode@12@B DD 010H		; std::_Iosb<int>::trunc
CONST	ENDS
;	COMDAT ?app@?$_Iosb@H@std@@2W4_Openmode@12@B
CONST	SEGMENT
?app@?$_Iosb@H@std@@2W4_Openmode@12@B DD 08H		; std::_Iosb<int>::app
CONST	ENDS
;	COMDAT ?ate@?$_Iosb@H@std@@2W4_Openmode@12@B
CONST	SEGMENT
?ate@?$_Iosb@H@std@@2W4_Openmode@12@B DD 04H		; std::_Iosb<int>::ate
CONST	ENDS
;	COMDAT ?out@?$_Iosb@H@std@@2W4_Openmode@12@B
CONST	SEGMENT
?out@?$_Iosb@H@std@@2W4_Openmode@12@B DD 02H		; std::_Iosb<int>::out
CONST	ENDS
;	COMDAT ?in@?$_Iosb@H@std@@2W4_Openmode@12@B
CONST	SEGMENT
?in@?$_Iosb@H@std@@2W4_Openmode@12@B DD 01H		; std::_Iosb<int>::in
CONST	ENDS
;	COMDAT ?_Hardfail@?$_Iosb@H@std@@2W4_Iostate@12@B
CONST	SEGMENT
?_Hardfail@?$_Iosb@H@std@@2W4_Iostate@12@B DD 010H	; std::_Iosb<int>::_Hardfail
CONST	ENDS
;	COMDAT ?badbit@?$_Iosb@H@std@@2W4_Iostate@12@B
CONST	SEGMENT
?badbit@?$_Iosb@H@std@@2W4_Iostate@12@B DD 04H		; std::_Iosb<int>::badbit
CONST	ENDS
;	COMDAT ?failbit@?$_Iosb@H@std@@2W4_Iostate@12@B
CONST	SEGMENT
?failbit@?$_Iosb@H@std@@2W4_Iostate@12@B DD 02H		; std::_Iosb<int>::failbit
CONST	ENDS
;	COMDAT ?eofbit@?$_Iosb@H@std@@2W4_Iostate@12@B
CONST	SEGMENT
?eofbit@?$_Iosb@H@std@@2W4_Iostate@12@B DD 01H		; std::_Iosb<int>::eofbit
CONST	ENDS
;	COMDAT ?goodbit@?$_Iosb@H@std@@2W4_Iostate@12@B
CONST	SEGMENT
?goodbit@?$_Iosb@H@std@@2W4_Iostate@12@B DD 00H		; std::_Iosb<int>::goodbit
CONST	ENDS
;	COMDAT ?floatfield@?$_Iosb@H@std@@2W4_Fmtflags@12@B
CONST	SEGMENT
?floatfield@?$_Iosb@H@std@@2W4_Fmtflags@12@B DD 03000H	; std::_Iosb<int>::floatfield
CONST	ENDS
;	COMDAT ?basefield@?$_Iosb@H@std@@2W4_Fmtflags@12@B
CONST	SEGMENT
?basefield@?$_Iosb@H@std@@2W4_Fmtflags@12@B DD 0e00H	; std::_Iosb<int>::basefield
CONST	ENDS
;	COMDAT ?adjustfield@?$_Iosb@H@std@@2W4_Fmtflags@12@B
CONST	SEGMENT
?adjustfield@?$_Iosb@H@std@@2W4_Fmtflags@12@B DD 01c0H	; std::_Iosb<int>::adjustfield
CONST	ENDS
;	COMDAT ?_Stdio@?$_Iosb@H@std@@2W4_Fmtflags@12@B
CONST	SEGMENT
?_Stdio@?$_Iosb@H@std@@2W4_Fmtflags@12@B DD 08000H	; std::_Iosb<int>::_Stdio
CONST	ENDS
;	COMDAT ?boolalpha@?$_Iosb@H@std@@2W4_Fmtflags@12@B
CONST	SEGMENT
?boolalpha@?$_Iosb@H@std@@2W4_Fmtflags@12@B DD 04000H	; std::_Iosb<int>::boolalpha
CONST	ENDS
;	COMDAT ?fixed@?$_Iosb@H@std@@2W4_Fmtflags@12@B
CONST	SEGMENT
?fixed@?$_Iosb@H@std@@2W4_Fmtflags@12@B DD 02000H	; std::_Iosb<int>::fixed
CONST	ENDS
;	COMDAT ?scientific@?$_Iosb@H@std@@2W4_Fmtflags@12@B
CONST	SEGMENT
?scientific@?$_Iosb@H@std@@2W4_Fmtflags@12@B DD 01000H	; std::_Iosb<int>::scientific
CONST	ENDS
;	COMDAT ?hex@?$_Iosb@H@std@@2W4_Fmtflags@12@B
CONST	SEGMENT
?hex@?$_Iosb@H@std@@2W4_Fmtflags@12@B DD 0800H		; std::_Iosb<int>::hex
CONST	ENDS
;	COMDAT ?oct@?$_Iosb@H@std@@2W4_Fmtflags@12@B
CONST	SEGMENT
?oct@?$_Iosb@H@std@@2W4_Fmtflags@12@B DD 0400H		; std::_Iosb<int>::oct
CONST	ENDS
;	COMDAT ?dec@?$_Iosb@H@std@@2W4_Fmtflags@12@B
CONST	SEGMENT
?dec@?$_Iosb@H@std@@2W4_Fmtflags@12@B DD 0200H		; std::_Iosb<int>::dec
CONST	ENDS
;	COMDAT ?internal@?$_Iosb@H@std@@2W4_Fmtflags@12@B
CONST	SEGMENT
?internal@?$_Iosb@H@std@@2W4_Fmtflags@12@B DD 0100H	; std::_Iosb<int>::internal
CONST	ENDS
;	COMDAT ?right@?$_Iosb@H@std@@2W4_Fmtflags@12@B
CONST	SEGMENT
?right@?$_Iosb@H@std@@2W4_Fmtflags@12@B DD 080H		; std::_Iosb<int>::right
CONST	ENDS
;	COMDAT ?left@?$_Iosb@H@std@@2W4_Fmtflags@12@B
CONST	SEGMENT
?left@?$_Iosb@H@std@@2W4_Fmtflags@12@B DD 040H		; std::_Iosb<int>::left
CONST	ENDS
;	COMDAT ?showpos@?$_Iosb@H@std@@2W4_Fmtflags@12@B
CONST	SEGMENT
?showpos@?$_Iosb@H@std@@2W4_Fmtflags@12@B DD 020H	; std::_Iosb<int>::showpos
CONST	ENDS
;	COMDAT ?showpoint@?$_Iosb@H@std@@2W4_Fmtflags@12@B
CONST	SEGMENT
?showpoint@?$_Iosb@H@std@@2W4_Fmtflags@12@B DD 010H	; std::_Iosb<int>::showpoint
CONST	ENDS
;	COMDAT ?showbase@?$_Iosb@H@std@@2W4_Fmtflags@12@B
CONST	SEGMENT
?showbase@?$_Iosb@H@std@@2W4_Fmtflags@12@B DD 08H	; std::_Iosb<int>::showbase
CONST	ENDS
;	COMDAT ?uppercase@?$_Iosb@H@std@@2W4_Fmtflags@12@B
CONST	SEGMENT
?uppercase@?$_Iosb@H@std@@2W4_Fmtflags@12@B DD 04H	; std::_Iosb<int>::uppercase
CONST	ENDS
;	COMDAT ?unitbuf@?$_Iosb@H@std@@2W4_Fmtflags@12@B
CONST	SEGMENT
?unitbuf@?$_Iosb@H@std@@2W4_Fmtflags@12@B DD 02H	; std::_Iosb<int>::unitbuf
CONST	ENDS
;	COMDAT ?skipws@?$_Iosb@H@std@@2W4_Fmtflags@12@B
CONST	SEGMENT
?skipws@?$_Iosb@H@std@@2W4_Fmtflags@12@B DD 01H		; std::_Iosb<int>::skipws
CONST	ENDS
;	COMDAT ?table_size@?$ctype@D@std@@2IB
CONST	SEGMENT
?table_size@?$ctype@D@std@@2IB DD 0100H			; std::ctype<char>::table_size
CONST	ENDS
;	COMDAT ?none@?$_Locbase@H@std@@2HB
CONST	SEGMENT
?none@?$_Locbase@H@std@@2HB DD 00H			; std::_Locbase<int>::none
CONST	ENDS
;	COMDAT ?all@?$_Locbase@H@std@@2HB
CONST	SEGMENT
?all@?$_Locbase@H@std@@2HB DD 03fH			; std::_Locbase<int>::all
CONST	ENDS
;	COMDAT ?messages@?$_Locbase@H@std@@2HB
CONST	SEGMENT
?messages@?$_Locbase@H@std@@2HB DD 020H			; std::_Locbase<int>::messages
CONST	ENDS
;	COMDAT ?time@?$_Locbase@H@std@@2HB
CONST	SEGMENT
?time@?$_Locbase@H@std@@2HB DD 010H			; std::_Locbase<int>::time
CONST	ENDS
;	COMDAT ?numeric@?$_Locbase@H@std@@2HB
CONST	SEGMENT
?numeric@?$_Locbase@H@std@@2HB DD 08H			; std::_Locbase<int>::numeric
CONST	ENDS
;	COMDAT ?monetary@?$_Locbase@H@std@@2HB
CONST	SEGMENT
?monetary@?$_Locbase@H@std@@2HB DD 04H			; std::_Locbase<int>::monetary
CONST	ENDS
;	COMDAT ?ctype@?$_Locbase@H@std@@2HB
CONST	SEGMENT
?ctype@?$_Locbase@H@std@@2HB DD 02H			; std::_Locbase<int>::ctype
CONST	ENDS
;	COMDAT ?collate@?$_Locbase@H@std@@2HB
CONST	SEGMENT
?collate@?$_Locbase@H@std@@2HB DD 01H			; std::_Locbase<int>::collate
CONST	ENDS
_DATA	SEGMENT
__bad_alloc_Message DD FLAT:??_C@_0P@GHFPNOJB@bad?5allocation?$AA@
_s_XiangXingValus DD 03H
	DD	06H
	DD	09H
	DD	0cH
	DD	0fH
_DATA	ENDS
;	COMDAT ??_C@_0P@GHFPNOJB@bad?5allocation?$AA@
CONST	SEGMENT
??_C@_0P@GHFPNOJB@bad?5allocation?$AA@ DB 'bad allocation', 00H ; `string'
CONST	ENDS
PUBLIC	??$_Char_traits_cat@U?$char_traits@D@std@@@std@@YA?AU_Secure_char_traits_tag@0@XZ ; std::_Char_traits_cat<std::char_traits<char> >
; Function compile flags: /Ogtpy
; File d:\program files\microsoft visual studio 8\vc\include\iosfwd
;	COMDAT ??$_Char_traits_cat@U?$char_traits@D@std@@@std@@YA?AU_Secure_char_traits_tag@0@XZ
_TEXT	SEGMENT
__Secure$ = -1						; size = 1
??$_Char_traits_cat@U?$char_traits@D@std@@@std@@YA?AU_Secure_char_traits_tag@0@XZ PROC ; std::_Char_traits_cat<std::char_traits<char> >, COMDAT

; 568  : 	{

  00000	51		 push	 ecx

; 569  : 		typename _Char_traits_category<_Traits>::_Secure_char_traits _Secure;
; 570  : 		return (_Secure);

  00001	8a 44 24 03	 mov	 al, BYTE PTR __Secure$[esp+4]

; 571  : 	}

  00005	59		 pop	 ecx
  00006	c3		 ret	 0
??$_Char_traits_cat@U?$char_traits@D@std@@@std@@YA?AU_Secure_char_traits_tag@0@XZ ENDP ; std::_Char_traits_cat<std::char_traits<char> >
_TEXT	ENDS
PUBLIC	?assign@?$char_traits@D@std@@SAXAADABD@Z	; std::char_traits<char>::assign
; Function compile flags: /Ogtpy
;	COMDAT ?assign@?$char_traits@D@std@@SAXAADABD@Z
_TEXT	SEGMENT
__Left$ = 8						; size = 4
__Right$ = 12						; size = 4
?assign@?$char_traits@D@std@@SAXAADABD@Z PROC		; std::char_traits<char>::assign, COMDAT

; 418  : 		_Left = _Right;

  00000	8b 44 24 08	 mov	 eax, DWORD PTR __Right$[esp-4]
  00004	8a 08		 mov	 cl, BYTE PTR [eax]
  00006	8b 54 24 04	 mov	 edx, DWORD PTR __Left$[esp-4]
  0000a	88 0a		 mov	 BYTE PTR [edx], cl

; 419  : 		}

  0000c	c3		 ret	 0
?assign@?$char_traits@D@std@@SAXAADABD@Z ENDP		; std::char_traits<char>::assign
_TEXT	ENDS
PUBLIC	?length@?$char_traits@D@std@@SAIPBD@Z		; std::char_traits<char>::length
; Function compile flags: /Ogtpy
;	COMDAT ?length@?$char_traits@D@std@@SAIPBD@Z
_TEXT	SEGMENT
__First$ = 8						; size = 4
?length@?$char_traits@D@std@@SAIPBD@Z PROC		; std::char_traits<char>::length, COMDAT

; 441  : //		_DEBUG_POINTER(_First);
; 442  : 		return (::strlen(_First));

  00000	8b 44 24 04	 mov	 eax, DWORD PTR __First$[esp-4]
  00004	8d 50 01	 lea	 edx, DWORD PTR [eax+1]
$LL3@length:
  00007	8a 08		 mov	 cl, BYTE PTR [eax]
  00009	83 c0 01	 add	 eax, 1
  0000c	84 c9		 test	 cl, cl
  0000e	75 f7		 jne	 SHORT $LL3@length
  00010	2b c2		 sub	 eax, edx

; 443  : 		}

  00012	c3		 ret	 0
?length@?$char_traits@D@std@@SAIPBD@Z ENDP		; std::char_traits<char>::length
_TEXT	ENDS
PUBLIC	?_Copy_s@?$char_traits@D@std@@SAPADPADIPBDI@Z	; std::char_traits<char>::_Copy_s
EXTRN	_memcpy_s:PROC
; Function compile flags: /Ogtpy
;	COMDAT ?_Copy_s@?$char_traits@D@std@@SAPADPADIPBDI@Z
_TEXT	SEGMENT
__First1$ = 8						; size = 4
__Size_in_bytes$ = 12					; size = 4
__First2$ = 16						; size = 4
__Count$ = 20						; size = 4
?_Copy_s@?$char_traits@D@std@@SAPADPADIPBDI@Z PROC	; std::char_traits<char>::_Copy_s, COMDAT

; 456  : //		_DEBUG_POINTER(_First1);
; 457  : //		_DEBUG_POINTER(_First2);
; 458  : 		_CRT_SECURE_MEMCPY(_First1, _Size_in_bytes, _First2, _Count);

  00000	8b 44 24 10	 mov	 eax, DWORD PTR __Count$[esp-4]
  00004	8b 4c 24 0c	 mov	 ecx, DWORD PTR __First2$[esp-4]
  00008	8b 54 24 08	 mov	 edx, DWORD PTR __Size_in_bytes$[esp-4]
  0000c	56		 push	 esi
  0000d	8b 74 24 08	 mov	 esi, DWORD PTR __First1$[esp]
  00011	50		 push	 eax
  00012	51		 push	 ecx
  00013	52		 push	 edx
  00014	56		 push	 esi
  00015	e8 00 00 00 00	 call	 _memcpy_s
  0001a	83 c4 10	 add	 esp, 16			; 00000010H

; 459  : 		return _First1;

  0001d	8b c6		 mov	 eax, esi
  0001f	5e		 pop	 esi

; 460  : 		}

  00020	c3		 ret	 0
?_Copy_s@?$char_traits@D@std@@SAPADPADIPBDI@Z ENDP	; std::char_traits<char>::_Copy_s
_TEXT	ENDS
PUBLIC	?_Move_s@?$char_traits@D@std@@SAPADPADIPBDI@Z	; std::char_traits<char>::_Move_s
EXTRN	_memmove_s:PROC
; Function compile flags: /Ogtpy
;	COMDAT ?_Move_s@?$char_traits@D@std@@SAPADPADIPBDI@Z
_TEXT	SEGMENT
__First1$ = 8						; size = 4
__Size_in_bytes$ = 12					; size = 4
__First2$ = 16						; size = 4
__Count$ = 20						; size = 4
?_Move_s@?$char_traits@D@std@@SAPADPADIPBDI@Z PROC	; std::char_traits<char>::_Move_s, COMDAT

; 480  : //		_DEBUG_POINTER(_First1);
; 481  : //		_DEBUG_POINTER(_First2);
; 482  : 		_CRT_SECURE_MEMMOVE(_First1, _Size_in_bytes, _First2, _Count);

  00000	8b 44 24 10	 mov	 eax, DWORD PTR __Count$[esp-4]
  00004	8b 4c 24 0c	 mov	 ecx, DWORD PTR __First2$[esp-4]
  00008	8b 54 24 08	 mov	 edx, DWORD PTR __Size_in_bytes$[esp-4]
  0000c	56		 push	 esi
  0000d	8b 74 24 08	 mov	 esi, DWORD PTR __First1$[esp]
  00011	50		 push	 eax
  00012	51		 push	 ecx
  00013	52		 push	 edx
  00014	56		 push	 esi
  00015	e8 00 00 00 00	 call	 _memmove_s
  0001a	83 c4 10	 add	 esp, 16			; 00000010H

; 483  : 		return _First1;

  0001d	8b c6		 mov	 eax, esi
  0001f	5e		 pop	 esi

; 484  : 		}

  00020	c3		 ret	 0
?_Move_s@?$char_traits@D@std@@SAPADPADIPBDI@Z ENDP	; std::char_traits<char>::_Move_s
_TEXT	ENDS
PUBLIC	??0_Iterator_base@std@@QAE@XZ			; std::_Iterator_base::_Iterator_base
; Function compile flags: /Ogtpy
; File d:\program files\microsoft visual studio 8\vc\include\xutility
;	COMDAT ??0_Iterator_base@std@@QAE@XZ
_TEXT	SEGMENT
??0_Iterator_base@std@@QAE@XZ PROC			; std::_Iterator_base::_Iterator_base, COMDAT
; _this$ = ecx

; 441  : 		{

  00000	8b c1		 mov	 eax, ecx
  00002	c7 00 00 00 00
	00		 mov	 DWORD PTR [eax], 0

; 442  : 		}

  00008	c3		 ret	 0
??0_Iterator_base@std@@QAE@XZ ENDP			; std::_Iterator_base::_Iterator_base
_TEXT	ENDS
PUBLIC	??_7bad_alloc@std@@6B@				; std::bad_alloc::`vftable'
PUBLIC	??0bad_alloc@std@@QAE@PBD@Z			; std::bad_alloc::bad_alloc
PUBLIC	??_R4bad_alloc@std@@6B@				; std::bad_alloc::`RTTI Complete Object Locator'
PUBLIC	??_R0?AVbad_alloc@std@@@8			; std::bad_alloc `RTTI Type Descriptor'
PUBLIC	??_R3bad_alloc@std@@8				; std::bad_alloc::`RTTI Class Hierarchy Descriptor'
PUBLIC	??_R2bad_alloc@std@@8				; std::bad_alloc::`RTTI Base Class Array'
PUBLIC	??_R1A@?0A@EA@bad_alloc@std@@8			; std::bad_alloc::`RTTI Base Class Descriptor at (0,-1,0,64)'
PUBLIC	??_R1A@?0A@EA@exception@std@@8			; std::exception::`RTTI Base Class Descriptor at (0,-1,0,64)'
PUBLIC	??_R0?AVexception@std@@@8			; std::exception `RTTI Type Descriptor'
PUBLIC	??_R3exception@std@@8				; std::exception::`RTTI Class Hierarchy Descriptor'
PUBLIC	??_R2exception@std@@8				; std::exception::`RTTI Base Class Array'
EXTRN	??0exception@std@@QAE@ABQBD@Z:PROC		; std::exception::exception
EXTRN	??_7type_info@@6B@:QWORD			; type_info::`vftable'
EXTRN	??_Ebad_alloc@std@@UAEPAXI@Z:PROC		; std::bad_alloc::`vector deleting destructor'
EXTRN	?what@exception@std@@UBEPBDXZ:PROC		; std::exception::what
;	COMDAT ??_R2exception@std@@8
; File d:\program files\microsoft visual studio 8\vc\include\exception
rdata$r	SEGMENT
??_R2exception@std@@8 DD FLAT:??_R1A@?0A@EA@exception@std@@8 ; std::exception::`RTTI Base Class Array'
rdata$r	ENDS
;	COMDAT ??_R3exception@std@@8
rdata$r	SEGMENT
??_R3exception@std@@8 DD 00H				; std::exception::`RTTI Class Hierarchy Descriptor'
	DD	00H
	DD	01H
	DD	FLAT:??_R2exception@std@@8
rdata$r	ENDS
;	COMDAT ??_R0?AVexception@std@@@8
_DATA	SEGMENT
??_R0?AVexception@std@@@8 DD FLAT:??_7type_info@@6B@	; std::exception `RTTI Type Descriptor'
	DD	00H
	DB	'.?AVexception@std@@', 00H
_DATA	ENDS
;	COMDAT ??_R1A@?0A@EA@exception@std@@8
rdata$r	SEGMENT
??_R1A@?0A@EA@exception@std@@8 DD FLAT:??_R0?AVexception@std@@@8 ; std::exception::`RTTI Base Class Descriptor at (0,-1,0,64)'
	DD	00H
	DD	00H
	DD	0ffffffffH
	DD	00H
	DD	040H
	DD	FLAT:??_R3exception@std@@8
rdata$r	ENDS
;	COMDAT ??_R1A@?0A@EA@bad_alloc@std@@8
rdata$r	SEGMENT
??_R1A@?0A@EA@bad_alloc@std@@8 DD FLAT:??_R0?AVbad_alloc@std@@@8 ; std::bad_alloc::`RTTI Base Class Descriptor at (0,-1,0,64)'
	DD	01H
	DD	00H
	DD	0ffffffffH
	DD	00H
	DD	040H
	DD	FLAT:??_R3bad_alloc@std@@8
rdata$r	ENDS
;	COMDAT ??_R2bad_alloc@std@@8
rdata$r	SEGMENT
??_R2bad_alloc@std@@8 DD FLAT:??_R1A@?0A@EA@bad_alloc@std@@8 ; std::bad_alloc::`RTTI Base Class Array'
	DD	FLAT:??_R1A@?0A@EA@exception@std@@8
rdata$r	ENDS
;	COMDAT ??_R3bad_alloc@std@@8
rdata$r	SEGMENT
??_R3bad_alloc@std@@8 DD 00H				; std::bad_alloc::`RTTI Class Hierarchy Descriptor'
	DD	00H
	DD	02H
	DD	FLAT:??_R2bad_alloc@std@@8
rdata$r	ENDS
;	COMDAT ??_R0?AVbad_alloc@std@@@8
_DATA	SEGMENT
??_R0?AVbad_alloc@std@@@8 DD FLAT:??_7type_info@@6B@	; std::bad_alloc `RTTI Type Descriptor'
	DD	00H
	DB	'.?AVbad_alloc@std@@', 00H
_DATA	ENDS
;	COMDAT ??_R4bad_alloc@std@@6B@
rdata$r	SEGMENT
??_R4bad_alloc@std@@6B@ DD 00H				; std::bad_alloc::`RTTI Complete Object Locator'
	DD	00H
	DD	00H
	DD	FLAT:??_R0?AVbad_alloc@std@@@8
	DD	FLAT:??_R3bad_alloc@std@@8
rdata$r	ENDS
;	COMDAT ??_7bad_alloc@std@@6B@
CONST	SEGMENT
??_7bad_alloc@std@@6B@ DD FLAT:??_R4bad_alloc@std@@6B@	; std::bad_alloc::`vftable'
	DD	FLAT:??_Ebad_alloc@std@@UAEPAXI@Z
	DD	FLAT:?what@exception@std@@UBEPBDXZ
; Function compile flags: /Ogtpy
CONST	ENDS
;	COMDAT ??0bad_alloc@std@@QAE@PBD@Z
_TEXT	SEGMENT
__Message$ = 8						; size = 4
??0bad_alloc@std@@QAE@PBD@Z PROC			; std::bad_alloc::bad_alloc, COMDAT
; _this$ = ecx

; 371  : 		{	// construct from message string

  00000	56		 push	 esi
  00001	8d 44 24 08	 lea	 eax, DWORD PTR __Message$[esp]
  00005	50		 push	 eax
  00006	8b f1		 mov	 esi, ecx
  00008	e8 00 00 00 00	 call	 ??0exception@std@@QAE@ABQBD@Z ; std::exception::exception
  0000d	c7 06 00 00 00
	00		 mov	 DWORD PTR [esi], OFFSET ??_7bad_alloc@std@@6B@

; 372  : 		}

  00013	8b c6		 mov	 eax, esi
  00015	5e		 pop	 esi
  00016	c2 04 00	 ret	 4
??0bad_alloc@std@@QAE@PBD@Z ENDP			; std::bad_alloc::bad_alloc
_TEXT	ENDS
PUBLIC	??1bad_alloc@std@@UAE@XZ			; std::bad_alloc::~bad_alloc
EXTRN	??1exception@std@@UAE@XZ:PROC			; std::exception::~exception
; Function compile flags: /Ogtpy
;	COMDAT ??1bad_alloc@std@@UAE@XZ
_TEXT	SEGMENT
??1bad_alloc@std@@UAE@XZ PROC				; std::bad_alloc::~bad_alloc, COMDAT
; _this$ = ecx

; 380  : 		{	// destroy the object

  00000	c7 01 00 00 00
	00		 mov	 DWORD PTR [ecx], OFFSET ??_7bad_alloc@std@@6B@

; 381  : 		}

  00006	e9 00 00 00 00	 jmp	 ??1exception@std@@UAE@XZ ; std::exception::~exception
??1bad_alloc@std@@UAE@XZ ENDP				; std::bad_alloc::~bad_alloc
_TEXT	ENDS
EXTRN	??3@YAXPAX@Z:PROC				; operator delete
; Function compile flags: /Ogtpy
;	COMDAT ??_Gbad_alloc@std@@UAEPAXI@Z
_TEXT	SEGMENT
___flags$ = 8						; size = 4
??_Gbad_alloc@std@@UAEPAXI@Z PROC			; std::bad_alloc::`scalar deleting destructor', COMDAT
; _this$ = ecx
  00000	56		 push	 esi
  00001	8b f1		 mov	 esi, ecx
  00003	c7 06 00 00 00
	00		 mov	 DWORD PTR [esi], OFFSET ??_7bad_alloc@std@@6B@
  00009	e8 00 00 00 00	 call	 ??1exception@std@@UAE@XZ ; std::exception::~exception
  0000e	f6 44 24 08 01	 test	 BYTE PTR ___flags$[esp], 1
  00013	74 09		 je	 SHORT $LN6@scalar
  00015	56		 push	 esi
  00016	e8 00 00 00 00	 call	 ??3@YAXPAX@Z		; operator delete
  0001b	83 c4 04	 add	 esp, 4
$LN6@scalar:
  0001e	8b c6		 mov	 eax, esi
  00020	5e		 pop	 esi
  00021	c2 04 00	 ret	 4
??_Gbad_alloc@std@@UAEPAXI@Z ENDP			; std::bad_alloc::`scalar deleting destructor'
_TEXT	ENDS
PUBLIC	??2@YAPAXIPAX@Z					; operator new
; Function compile flags: /Ogtpy
; File d:\program files\microsoft visual studio 8\vc\include\new
;	COMDAT ??2@YAPAXIPAX@Z
_TEXT	SEGMENT
___formal$ = 8						; size = 4
__Where$ = 12						; size = 4
??2@YAPAXIPAX@Z PROC					; operator new, COMDAT

; 60   : 	return (_Where);

  00000	8b 44 24 08	 mov	 eax, DWORD PTR __Where$[esp-4]

; 61   : 	}

  00004	c3		 ret	 0
??2@YAPAXIPAX@Z ENDP					; operator new
_TEXT	ENDS
PUBLIC	??0id@locale@std@@QAE@I@Z			; std::locale::id::id
; Function compile flags: /Ogtpy
; File d:\program files\microsoft visual studio 8\vc\include\xlocale
;	COMDAT ??0id@locale@std@@QAE@I@Z
_TEXT	SEGMENT
__Val$ = 8						; size = 4
??0id@locale@std@@QAE@I@Z PROC				; std::locale::id::id, COMDAT
; _this$ = ecx

; 73   : 			{	// construct with specified stamp value

  00000	8b c1		 mov	 eax, ecx
  00002	8b 4c 24 04	 mov	 ecx, DWORD PTR __Val$[esp-4]
  00006	89 08		 mov	 DWORD PTR [eax], ecx

; 74   : 			}

  00008	c2 04 00	 ret	 4
??0id@locale@std@@QAE@I@Z ENDP				; std::locale::id::id
_TEXT	ENDS
PUBLIC	??1CGUID@@QAE@XZ				; CGUID::~CGUID
; Function compile flags: /Ogtpy
; File d:\project_p6\trunk\public\module\guid.h
;	COMDAT ??1CGUID@@QAE@XZ
_TEXT	SEGMENT
??1CGUID@@QAE@XZ PROC					; CGUID::~CGUID, COMDAT
; _this$ = ecx

; 45   : 	}

  00000	c3		 ret	 0
??1CGUID@@QAE@XZ ENDP					; CGUID::~CGUID
_TEXT	ENDS
PUBLIC	?size@?$basic_string@DU?$char_traits@D@std@@V?$allocator@D@2@@std@@QBEIXZ ; std::basic_string<char,std::char_traits<char>,std::allocator<char> >::size
; Function compile flags: /Ogtpy
; File d:\program files\microsoft visual studio 8\vc\include\xstring
;	COMDAT ?size@?$basic_string@DU?$char_traits@D@std@@V?$allocator@D@2@@std@@QBEIXZ
_TEXT	SEGMENT
?size@?$basic_string@DU?$char_traits@D@std@@V?$allocator@D@2@@std@@QBEIXZ PROC ; std::basic_string<char,std::char_traits<char>,std::allocator<char> >::size, COMDAT
; _this$ = ecx

; 1637 : 		return (_Mysize);

  00000	8b 41 14	 mov	 eax, DWORD PTR [ecx+20]

; 1638 : 		}

  00003	c3		 ret	 0
?size@?$basic_string@DU?$char_traits@D@std@@V?$allocator@D@2@@std@@QBEIXZ ENDP ; std::basic_string<char,std::char_traits<char>,std::allocator<char> >::size
_TEXT	ENDS
PUBLIC	?_Myptr@?$basic_string@DU?$char_traits@D@std@@V?$allocator@D@2@@std@@IBEPBDXZ ; std::basic_string<char,std::char_traits<char>,std::allocator<char> >::_Myptr
; Function compile flags: /Ogtpy
;	COMDAT ?_Myptr@?$basic_string@DU?$char_traits@D@std@@V?$allocator@D@2@@std@@IBEPBDXZ
_TEXT	SEGMENT
?_Myptr@?$basic_string@DU?$char_traits@D@std@@V?$allocator@D@2@@std@@IBEPBDXZ PROC ; std::basic_string<char,std::char_traits<char>,std::allocator<char> >::_Myptr, COMDAT
; _this$ = ecx

; 2093 : 		return (_BUF_SIZE <= _Myres ? _Bx._Ptr : _Bx._Buf);

  00000	83 79 18 10	 cmp	 DWORD PTR [ecx+24], 16	; 00000010H
  00004	72 04		 jb	 SHORT $LN3@Myptr
  00006	8b 41 04	 mov	 eax, DWORD PTR [ecx+4]

; 2094 : 		}

  00009	c3		 ret	 0
$LN3@Myptr:

; 2093 : 		return (_BUF_SIZE <= _Myres ? _Bx._Ptr : _Bx._Buf);

  0000a	8d 41 04	 lea	 eax, DWORD PTR [ecx+4]

; 2094 : 		}

  0000d	c3		 ret	 0
?_Myptr@?$basic_string@DU?$char_traits@D@std@@V?$allocator@D@2@@std@@IBEPBDXZ ENDP ; std::basic_string<char,std::char_traits<char>,std::allocator<char> >::_Myptr
_TEXT	ENDS
PUBLIC	??0?$allocator@D@std@@QAE@XZ			; std::allocator<char>::allocator<char>
; Function compile flags: /Ogtpy
; File d:\program files\microsoft visual studio 8\vc\include\xmemory
;	COMDAT ??0?$allocator@D@std@@QAE@XZ
_TEXT	SEGMENT
??0?$allocator@D@std@@QAE@XZ PROC			; std::allocator<char>::allocator<char>, COMDAT
; _this$ = ecx

; 120  : 	allocator() _THROW0()

  00000	8b c1		 mov	 eax, ecx

; 121  : 		{	// construct default allocator (do nothing)
; 122  : 		}

  00002	c3		 ret	 0
??0?$allocator@D@std@@QAE@XZ ENDP			; std::allocator<char>::allocator<char>
_TEXT	ENDS
PUBLIC	?deallocate@?$allocator@D@std@@QAEXPADI@Z	; std::allocator<char>::deallocate
; Function compile flags: /Ogtpy
;	COMDAT ?deallocate@?$allocator@D@std@@QAEXPADI@Z
_TEXT	SEGMENT
__Ptr$ = 8						; size = 4
___formal$ = 12						; size = 4
?deallocate@?$allocator@D@std@@QAEXPADI@Z PROC		; std::allocator<char>::deallocate, COMDAT
; _this$ = ecx

; 141  : 		::operator delete(_Ptr);

  00000	8b 44 24 04	 mov	 eax, DWORD PTR __Ptr$[esp-4]
  00004	50		 push	 eax
  00005	e8 00 00 00 00	 call	 ??3@YAXPAX@Z		; operator delete
  0000a	59		 pop	 ecx

; 142  : 		}

  0000b	c2 08 00	 ret	 8
?deallocate@?$allocator@D@std@@QAEXPADI@Z ENDP		; std::allocator<char>::deallocate
_TEXT	ENDS
PUBLIC	??0?$allocator@U?$pair@$$CBV?$basic_string@DU?$char_traits@D@std@@V?$allocator@D@2@@std@@V12@@std@@@std@@QAE@XZ ; std::allocator<std::pair<std::basic_string<char,std::char_traits<char>,std::allocator<char> > const ,std::basic_string<char,std::char_traits<char>,std::allocator<char> > > >::allocator<std::pair<std::basic_string<char,std::char_traits<char>,std::allocator<char> > const ,std::basic_string<char,std::char_traits<char>,std::allocator<char> > > >
; Function compile flags: /Ogtpy
;	COMDAT ??0?$allocator@U?$pair@$$CBV?$basic_string@DU?$char_traits@D@std@@V?$allocator@D@2@@std@@V12@@std@@@std@@QAE@XZ
_TEXT	SEGMENT
??0?$allocator@U?$pair@$$CBV?$basic_string@DU?$char_traits@D@std@@V?$allocator@D@2@@std@@V12@@std@@@std@@QAE@XZ PROC ; std::allocator<std::pair<std::basic_string<char,std::char_traits<char>,std::allocator<char> > const ,std::basic_string<char,std::char_traits<char>,std::allocator<char> > > >::allocator<std::pair<std::basic_string<char,std::char_traits<char>,std::allocator<char> > const ,std::basic_string<char,std::char_traits<char>,std::allocator<char> > > >, COMDAT
; _this$ = ecx

; 120  : 	allocator() _THROW0()

  00000	8b c1		 mov	 eax, ecx

; 121  : 		{	// construct default allocator (do nothing)
; 122  : 		}

  00002	c3		 ret	 0
??0?$allocator@U?$pair@$$CBV?$basic_string@DU?$char_traits@D@std@@V?$allocator@D@2@@std@@V12@@std@@@std@@QAE@XZ ENDP ; std::allocator<std::pair<std::basic_string<char,std::char_traits<char>,std::allocator<char> > const ,std::basic_string<char,std::char_traits<char>,std::allocator<char> > > >::allocator<std::pair<std::basic_string<char,std::char_traits<char>,std::allocator<char> > const ,std::basic_string<char,std::char_traits<char>,std::allocator<char> > > >
_TEXT	ENDS
PUBLIC	?_Myptr@?$basic_string@DU?$char_traits@D@std@@V?$allocator@D@2@@std@@IAEPADXZ ; std::basic_string<char,std::char_traits<char>,std::allocator<char> >::_Myptr
; Function compile flags: /Ogtpy
; File d:\program files\microsoft visual studio 8\vc\include\xstring
;	COMDAT ?_Myptr@?$basic_string@DU?$char_traits@D@std@@V?$allocator@D@2@@std@@IAEPADXZ
_TEXT	SEGMENT
?_Myptr@?$basic_string@DU?$char_traits@D@std@@V?$allocator@D@2@@std@@IAEPADXZ PROC ; std::basic_string<char,std::char_traits<char>,std::allocator<char> >::_Myptr, COMDAT
; _this$ = ecx

; 2088 : 		return (_BUF_SIZE <= _Myres ? _Bx._Ptr : _Bx._Buf);

  00000	83 79 18 10	 cmp	 DWORD PTR [ecx+24], 16	; 00000010H
  00004	72 04		 jb	 SHORT $LN3@Myptr@2
  00006	8b 41 04	 mov	 eax, DWORD PTR [ecx+4]

; 2089 : 		}

  00009	c3		 ret	 0
$LN3@Myptr@2:

; 2088 : 		return (_BUF_SIZE <= _Myres ? _Bx._Ptr : _Bx._Buf);

  0000a	8d 41 04	 lea	 eax, DWORD PTR [ecx+4]

; 2089 : 		}

  0000d	c3		 ret	 0
?_Myptr@?$basic_string@DU?$char_traits@D@std@@V?$allocator@D@2@@std@@IAEPADXZ ENDP ; std::basic_string<char,std::char_traits<char>,std::allocator<char> >::_Myptr
_TEXT	ENDS
PUBLIC	??0?$allocator@D@std@@QAE@ABV01@@Z		; std::allocator<char>::allocator<char>
; Function compile flags: /Ogtpy
; File d:\program files\microsoft visual studio 8\vc\include\xmemory
;	COMDAT ??0?$allocator@D@std@@QAE@ABV01@@Z
_TEXT	SEGMENT
___formal$ = 8						; size = 4
??0?$allocator@D@std@@QAE@ABV01@@Z PROC			; std::allocator<char>::allocator<char>, COMDAT
; _this$ = ecx

; 124  : 	allocator(const allocator<_Ty>&) _THROW0()

  00000	8b c1		 mov	 eax, ecx

; 125  : 		{	// construct by copying (do nothing)
; 126  : 		}

  00002	c2 04 00	 ret	 4
??0?$allocator@D@std@@QAE@ABV01@@Z ENDP			; std::allocator<char>::allocator<char>
_TEXT	ENDS
PUBLIC	?_Left@?$_Tree@V?$_Tmap_traits@V?$basic_string@DU?$char_traits@D@std@@V?$allocator@D@2@@std@@V12@U?$less@V?$basic_string@DU?$char_traits@D@std@@V?$allocator@D@2@@std@@@2@V?$allocator@U?$pair@$$CBV?$basic_string@DU?$char_traits@D@std@@V?$allocator@D@2@@std@@V12@@std@@@2@$0A@@std@@@std@@KAAAPAU_Node@?$_Tree_nod@V?$_Tmap_traits@V?$basic_string@DU?$char_traits@D@std@@V?$allocator@D@2@@std@@V12@U?$less@V?$basic_string@DU?$char_traits@D@std@@V?$allocator@D@2@@std@@@2@V?$allocator@U?$pair@$$CBV?$basic_string@DU?$char_traits@D@std@@V?$allocator@D@2@@std@@V12@@std@@@2@$0A@@std@@@2@PAU342@@Z ; std::_Tree<std::_Tmap_traits<std::basic_string<char,std::char_traits<char>,std::allocator<char> >,std::basic_string<char,std::char_traits<char>,std::allocator<char> >,std::less<std::basic_string<char,std::char_traits<char>,std::allocator<char> > >,std::allocator<std::pair<std::basic_string<char,std::char_traits<char>,std::allocator<char> > const ,std::basic_string<char,std::char_traits<char>,std::allocator<char> > > >,0> >::_Left
; Function compile flags: /Ogtpy
; File d:\program files\microsoft visual studio 8\vc\include\xtree
;	COMDAT ?_Left@?$_Tree@V?$_Tmap_traits@V?$basic_string@DU?$char_traits@D@std@@V?$allocator@D@2@@std@@V12@U?$less@V?$basic_string@DU?$char_traits@D@std@@V?$allocator@D@2@@std@@@2@V?$allocator@U?$pair@$$CBV?$basic_string@DU?$char_traits@D@std@@V?$allocator@D@2@@std@@V12@@std@@@2@$0A@@std@@@std@@KAAAPAU_Node@?$_Tree_nod@V?$_Tmap_traits@V?$basic_string@DU?$char_traits@D@std@@V?$allocator@D@2@@std@@V12@U?$less@V?$basic_string@DU?$char_traits@D@std@@V?$allocator@D@2@@std@@@2@V?$allocator@U?$pair@$$CBV?$basic_string@DU?$char_traits@D@std@@V?$allocator@D@2@@std@@V12@@std@@@2@$0A@@std@@@2@PAU342@@Z
_TEXT	SEGMENT
__Pnode$ = 8						; size = 4
?_Left@?$_Tree@V?$_Tmap_traits@V?$basic_string@DU?$char_traits@D@std@@V?$allocator@D@2@@std@@V12@U?$less@V?$basic_string@DU?$char_traits@D@std@@V?$allocator@D@2@@std@@@2@V?$allocator@U?$pair@$$CBV?$basic_string@DU?$char_traits@D@std@@V?$allocator@D@2@@std@@V12@@std@@@2@$0A@@std@@@std@@KAAAPAU_Node@?$_Tree_nod@V?$_Tmap_traits@V?$basic_string@DU?$char_traits@D@std@@V?$allocator@D@2@@std@@V12@U?$less@V?$basic_string@DU?$char_traits@D@std@@V?$allocator@D@2@@std@@@2@V?$allocator@U?$pair@$$CBV?$basic_string@DU?$char_traits@D@std@@V?$allocator@D@2@@std@@V12@@std@@@2@$0A@@std@@@2@PAU342@@Z PROC ; std::_Tree<std::_Tmap_traits<std::basic_string<char,std::char_traits<char>,std::allocator<char> >,std::basic_string<char,std::char_traits<char>,std::allocator<char> >,std::less<std::basic_string<char,std::char_traits<char>,std::allocator<char> > >,std::allocator<std::pair<std::basic_string<char,std::char_traits<char>,std::allocator<char> > const ,std::basic_string<char,std::char_traits<char>,std::allocator<char> > > >,0> >::_Left, COMDAT

; 156  : 		return ((_Nodepref)(*_Pnode)._Left);

  00000	8b 44 24 04	 mov	 eax, DWORD PTR __Pnode$[esp-4]

; 157  : 		}

  00004	c3		 ret	 0
?_Left@?$_Tree@V?$_Tmap_traits@V?$basic_string@DU?$char_traits@D@std@@V?$allocator@D@2@@std@@V12@U?$less@V?$basic_string@DU?$char_traits@D@std@@V?$allocator@D@2@@std@@@2@V?$allocator@U?$pair@$$CBV?$basic_string@DU?$char_traits@D@std@@V?$allocator@D@2@@std@@V12@@std@@@2@$0A@@std@@@std@@KAAAPAU_Node@?$_Tree_nod@V?$_Tmap_traits@V?$basic_string@DU?$char_traits@D@std@@V?$allocator@D@2@@std@@V12@U?$less@V?$basic_string@DU?$char_traits@D@std@@V?$allocator@D@2@@std@@@2@V?$allocator@U?$pair@$$CBV?$basic_string@DU?$char_traits@D@std@@V?$allocator@D@2@@std@@V12@@std@@@2@$0A@@std@@@2@PAU342@@Z ENDP ; std::_Tree<std::_Tmap_traits<std::basic_string<char,std::char_traits<char>,std::allocator<char> >,std::basic_string<char,std::char_traits<char>,std::allocator<char> >,std::less<std::basic_string<char,std::char_traits<char>,std::allocator<char> > >,std::allocator<std::pair<std::basic_string<char,std::char_traits<char>,std::allocator<char> > const ,std::basic_string<char,std::char_traits<char>,std::allocator<char> > > >,0> >::_Left
_TEXT	ENDS
PUBLIC	?_Parent@?$_Tree@V?$_Tmap_traits@V?$basic_string@DU?$char_traits@D@std@@V?$allocator@D@2@@std@@V12@U?$less@V?$basic_string@DU?$char_traits@D@std@@V?$allocator@D@2@@std@@@2@V?$allocator@U?$pair@$$CBV?$basic_string@DU?$char_traits@D@std@@V?$allocator@D@2@@std@@V12@@std@@@2@$0A@@std@@@std@@KAAAPAU_Node@?$_Tree_nod@V?$_Tmap_traits@V?$basic_string@DU?$char_traits@D@std@@V?$allocator@D@2@@std@@V12@U?$less@V?$basic_string@DU?$char_traits@D@std@@V?$allocator@D@2@@std@@@2@V?$allocator@U?$pair@$$CBV?$basic_string@DU?$char_traits@D@std@@V?$allocator@D@2@@std@@V12@@std@@@2@$0A@@std@@@2@PAU342@@Z ; std::_Tree<std::_Tmap_traits<std::basic_string<char,std::char_traits<char>,std::allocator<char> >,std::basic_string<char,std::char_traits<char>,std::allocator<char> >,std::less<std::basic_string<char,std::char_traits<char>,std::allocator<char> > >,std::allocator<std::pair<std::basic_string<char,std::char_traits<char>,std::allocator<char> > const ,std::basic_string<char,std::char_traits<char>,std::allocator<char> > > >,0> >::_Parent
; Function compile flags: /Ogtpy
;	COMDAT ?_Parent@?$_Tree@V?$_Tmap_traits@V?$basic_string@DU?$char_traits@D@std@@V?$allocator@D@2@@std@@V12@U?$less@V?$basic_string@DU?$char_traits@D@std@@V?$allocator@D@2@@std@@@2@V?$allocator@U?$pair@$$CBV?$basic_string@DU?$char_traits@D@std@@V?$allocator@D@2@@std@@V12@@std@@@2@$0A@@std@@@std@@KAAAPAU_Node@?$_Tree_nod@V?$_Tmap_traits@V?$basic_string@DU?$char_traits@D@std@@V?$allocator@D@2@@std@@V12@U?$less@V?$basic_string@DU?$char_traits@D@std@@V?$allocator@D@2@@std@@@2@V?$allocator@U?$pair@$$CBV?$basic_string@DU?$char_traits@D@std@@V?$allocator@D@2@@std@@V12@@std@@@2@$0A@@std@@@2@PAU342@@Z
_TEXT	SEGMENT
__Pnode$ = 8						; size = 4
?_Parent@?$_Tree@V?$_Tmap_traits@V?$basic_string@DU?$char_traits@D@std@@V?$allocator@D@2@@std@@V12@U?$less@V?$basic_string@DU?$char_traits@D@std@@V?$allocator@D@2@@std@@@2@V?$allocator@U?$pair@$$CBV?$basic_string@DU?$char_traits@D@std@@V?$allocator@D@2@@std@@V12@@std@@@2@$0A@@std@@@std@@KAAAPAU_Node@?$_Tree_nod@V?$_Tmap_traits@V?$basic_string@DU?$char_traits@D@std@@V?$allocator@D@2@@std@@V12@U?$less@V?$basic_string@DU?$char_traits@D@std@@V?$allocator@D@2@@std@@@2@V?$allocator@U?$pair@$$CBV?$basic_string@DU?$char_traits@D@std@@V?$allocator@D@2@@std@@V12@@std@@@2@$0A@@std@@@2@PAU342@@Z PROC ; std::_Tree<std::_Tmap_traits<std::basic_string<char,std::char_traits<char>,std::allocator<char> >,std::basic_string<char,std::char_traits<char>,std::allocator<char> >,std::less<std::basic_string<char,std::char_traits<char>,std::allocator<char> > >,std::allocator<std::pair<std::basic_string<char,std::char_traits<char>,std::allocator<char> > const ,std::basic_string<char,std::char_traits<char>,std::allocator<char> > > >,0> >::_Parent, COMDAT

; 161  : 		return ((_Nodepref)(*_Pnode)._Parent);

  00000	8b 44 24 04	 mov	 eax, DWORD PTR __Pnode$[esp-4]
  00004	83 c0 04	 add	 eax, 4

; 162  : 		}

  00007	c3		 ret	 0
?_Parent@?$_Tree@V?$_Tmap_traits@V?$basic_string@DU?$char_traits@D@std@@V?$allocator@D@2@@std@@V12@U?$less@V?$basic_string@DU?$char_traits@D@std@@V?$allocator@D@2@@std@@@2@V?$allocator@U?$pair@$$CBV?$basic_string@DU?$char_traits@D@std@@V?$allocator@D@2@@std@@V12@@std@@@2@$0A@@std@@@std@@KAAAPAU_Node@?$_Tree_nod@V?$_Tmap_traits@V?$basic_string@DU?$char_traits@D@std@@V?$allocator@D@2@@std@@V12@U?$less@V?$basic_string@DU?$char_traits@D@std@@V?$allocator@D@2@@std@@@2@V?$allocator@U?$pair@$$CBV?$basic_string@DU?$char_traits@D@std@@V?$allocator@D@2@@std@@V12@@std@@@2@$0A@@std@@@2@PAU342@@Z ENDP ; std::_Tree<std::_Tmap_traits<std::basic_string<char,std::char_traits<char>,std::allocator<char> >,std::basic_string<char,std::char_traits<char>,std::allocator<char> >,std::less<std::basic_string<char,std::char_traits<char>,std::allocator<char> > >,std::allocator<std::pair<std::basic_string<char,std::char_traits<char>,std::allocator<char> > const ,std::basic_string<char,std::char_traits<char>,std::allocator<char> > > >,0> >::_Parent
_TEXT	ENDS
PUBLIC	?_Right@?$_Tree@V?$_Tmap_traits@V?$basic_string@DU?$char_traits@D@std@@V?$allocator@D@2@@std@@V12@U?$less@V?$basic_string@DU?$char_traits@D@std@@V?$allocator@D@2@@std@@@2@V?$allocator@U?$pair@$$CBV?$basic_string@DU?$char_traits@D@std@@V?$allocator@D@2@@std@@V12@@std@@@2@$0A@@std@@@std@@KAAAPAU_Node@?$_Tree_nod@V?$_Tmap_traits@V?$basic_string@DU?$char_traits@D@std@@V?$allocator@D@2@@std@@V12@U?$less@V?$basic_string@DU?$char_traits@D@std@@V?$allocator@D@2@@std@@@2@V?$allocator@U?$pair@$$CBV?$basic_string@DU?$char_traits@D@std@@V?$allocator@D@2@@std@@V12@@std@@@2@$0A@@std@@@2@PAU342@@Z ; std::_Tree<std::_Tmap_traits<std::basic_string<char,std::char_traits<char>,std::allocator<char> >,std::basic_string<char,std::char_traits<char>,std::allocator<char> >,std::less<std::basic_string<char,std::char_traits<char>,std::allocator<char> > >,std::allocator<std::pair<std::basic_string<char,std::char_traits<char>,std::allocator<char> > const ,std::basic_string<char,std::char_traits<char>,std::allocator<char> > > >,0> >::_Right
; Function compile flags: /Ogtpy
;	COMDAT ?_Right@?$_Tree@V?$_Tmap_traits@V?$basic_string@DU?$char_traits@D@std@@V?$allocator@D@2@@std@@V12@U?$less@V?$basic_string@DU?$char_traits@D@std@@V?$allocator@D@2@@std@@@2@V?$allocator@U?$pair@$$CBV?$basic_string@DU?$char_traits@D@std@@V?$allocator@D@2@@std@@V12@@std@@@2@$0A@@std@@@std@@KAAAPAU_Node@?$_Tree_nod@V?$_Tmap_traits@V?$basic_string@DU?$char_traits@D@std@@V?$allocator@D@2@@std@@V12@U?$less@V?$basic_string@DU?$char_traits@D@std@@V?$allocator@D@2@@std@@@2@V?$allocator@U?$pair@$$CBV?$basic_string@DU?$char_traits@D@std@@V?$allocator@D@2@@std@@V12@@std@@@2@$0A@@std@@@2@PAU342@@Z
_TEXT	SEGMENT
__Pnode$ = 8						; size = 4
?_Right@?$_Tree@V?$_Tmap_traits@V?$basic_string@DU?$char_traits@D@std@@V?$allocator@D@2@@std@@V12@U?$less@V?$basic_string@DU?$char_traits@D@std@@V?$allocator@D@2@@std@@@2@V?$allocator@U?$pair@$$CBV?$basic_string@DU?$char_traits@D@std@@V?$allocator@D@2@@std@@V12@@std@@@2@$0A@@std@@@std@@KAAAPAU_Node@?$_Tree_nod@V?$_Tmap_traits@V?$basic_string@DU?$char_traits@D@std@@V?$allocator@D@2@@std@@V12@U?$less@V?$basic_string@DU?$char_traits@D@std@@V?$allocator@D@2@@std@@@2@V?$allocator@U?$pair@$$CBV?$basic_string@DU?$char_traits@D@std@@V?$allocator@D@2@@std@@V12@@std@@@2@$0A@@std@@@2@PAU342@@Z PROC ; std::_Tree<std::_Tmap_traits<std::basic_string<char,std::char_traits<char>,std::allocator<char> >,std::basic_string<char,std::char_traits<char>,std::allocator<char> >,std::less<std::basic_string<char,std::char_traits<char>,std::allocator<char> > >,std::allocator<std::pair<std::basic_string<char,std::char_traits<char>,std::allocator<char> > const ,std::basic_string<char,std::char_traits<char>,std::allocator<char> > > >,0> >::_Right, COMDAT

; 166  : 		return ((_Nodepref)(*_Pnode)._Right);

  00000	8b 44 24 04	 mov	 eax, DWORD PTR __Pnode$[esp-4]
  00004	83 c0 08	 add	 eax, 8

; 167  : 		}

  00007	c3		 ret	 0
?_Right@?$_Tree@V?$_Tmap_traits@V?$basic_string@DU?$char_traits@D@std@@V?$allocator@D@2@@std@@V12@U?$less@V?$basic_string@DU?$char_traits@D@std@@V?$allocator@D@2@@std@@@2@V?$allocator@U?$pair@$$CBV?$basic_string@DU?$char_traits@D@std@@V?$allocator@D@2@@std@@V12@@std@@@2@$0A@@std@@@std@@KAAAPAU_Node@?$_Tree_nod@V?$_Tmap_traits@V?$basic_string@DU?$char_traits@D@std@@V?$allocator@D@2@@std@@V12@U?$less@V?$basic_string@DU?$char_traits@D@std@@V?$allocator@D@2@@std@@@2@V?$allocator@U?$pair@$$CBV?$basic_string@DU?$char_traits@D@std@@V?$allocator@D@2@@std@@V12@@std@@@2@$0A@@std@@@2@PAU342@@Z ENDP ; std::_Tree<std::_Tmap_traits<std::basic_string<char,std::char_traits<char>,std::allocator<char> >,std::basic_string<char,std::char_traits<char>,std::allocator<char> >,std::less<std::basic_string<char,std::char_traits<char>,std::allocator<char> > >,std::allocator<std::pair<std::basic_string<char,std::char_traits<char>,std::allocator<char> > const ,std::basic_string<char,std::char_traits<char>,std::allocator<char> > > >,0> >::_Right
_TEXT	ENDS
PUBLIC	??0?$allocator@U?$pair@$$CBV?$basic_string@DU?$char_traits@D@std@@V?$allocator@D@2@@std@@V12@@std@@@std@@QAE@ABV01@@Z ; std::allocator<std::pair<std::basic_string<char,std::char_traits<char>,std::allocator<char> > const ,std::basic_string<char,std::char_traits<char>,std::allocator<char> > > >::allocator<std::pair<std::basic_string<char,std::char_traits<char>,std::allocator<char> > const ,std::basic_string<char,std::char_traits<char>,std::allocator<char> > > >
; Function compile flags: /Ogtpy
; File d:\program files\microsoft visual studio 8\vc\include\xmemory
;	COMDAT ??0?$allocator@U?$pair@$$CBV?$basic_string@DU?$char_traits@D@std@@V?$allocator@D@2@@std@@V12@@std@@@std@@QAE@ABV01@@Z
_TEXT	SEGMENT
___formal$ = 8						; size = 4
??0?$allocator@U?$pair@$$CBV?$basic_string@DU?$char_traits@D@std@@V?$allocator@D@2@@std@@V12@@std@@@std@@QAE@ABV01@@Z PROC ; std::allocator<std::pair<std::basic_string<char,std::char_traits<char>,std::allocator<char> > const ,std::basic_string<char,std::char_traits<char>,std::allocator<char> > > >::allocator<std::pair<std::basic_string<char,std::char_traits<char>,std::allocator<char> > const ,std::basic_string<char,std::char_traits<char>,std::allocator<char> > > >, COMDAT
; _this$ = ecx

; 124  : 	allocator(const allocator<_Ty>&) _THROW0()

  00000	8b c1		 mov	 eax, ecx

; 125  : 		{	// construct by copying (do nothing)
; 126  : 		}

  00002	c2 04 00	 ret	 4
??0?$allocator@U?$pair@$$CBV?$basic_string@DU?$char_traits@D@std@@V?$allocator@D@2@@std@@V12@@std@@@std@@QAE@ABV01@@Z ENDP ; std::allocator<std::pair<std::basic_string<char,std::char_traits<char>,std::allocator<char> > const ,std::basic_string<char,std::char_traits<char>,std::allocator<char> > > >::allocator<std::pair<std::basic_string<char,std::char_traits<char>,std::allocator<char> > const ,std::basic_string<char,std::char_traits<char>,std::allocator<char> > > >
_TEXT	ENDS
PUBLIC	?deallocate@?$allocator@U_Node@?$_Tree_nod@V?$_Tmap_traits@V?$basic_string@DU?$char_traits@D@std@@V?$allocator@D@2@@std@@V12@U?$less@V?$basic_string@DU?$char_traits@D@std@@V?$allocator@D@2@@std@@@2@V?$allocator@U?$pair@$$CBV?$basic_string@DU?$char_traits@D@std@@V?$allocator@D@2@@std@@V12@@std@@@2@$0A@@std@@@std@@@std@@QAEXPAU_Node@?$_Tree_nod@V?$_Tmap_traits@V?$basic_string@DU?$char_traits@D@std@@V?$allocator@D@2@@std@@V12@U?$less@V?$basic_string@DU?$char_traits@D@std@@V?$allocator@D@2@@std@@@2@V?$allocator@U?$pair@$$CBV?$basic_string@DU?$char_traits@D@std@@V?$allocator@D@2@@std@@V12@@std@@@2@$0A@@std@@@2@I@Z ; std::allocator<std::_Tree_nod<std::_Tmap_traits<std::basic_string<char,std::char_traits<char>,std::allocator<char> >,std::basic_string<char,std::char_traits<char>,std::allocator<char> >,std::less<std::basic_string<char,std::char_traits<char>,std::allocator<char> > >,std::allocator<std::pair<std::basic_string<char,std::char_traits<char>,std::allocator<char> > const ,std::basic_string<char,std::char_traits<char>,std::allocator<char> > > >,0> >::_Node>::deallocate
; Function compile flags: /Ogtpy
;	COMDAT ?deallocate@?$allocator@U_Node@?$_Tree_nod@V?$_Tmap_traits@V?$basic_string@DU?$char_traits@D@std@@V?$allocator@D@2@@std@@V12@U?$less@V?$basic_string@DU?$char_traits@D@std@@V?$allocator@D@2@@std@@@2@V?$allocator@U?$pair@$$CBV?$basic_string@DU?$char_traits@D@std@@V?$allocator@D@2@@std@@V12@@std@@@2@$0A@@std@@@std@@@std@@QAEXPAU_Node@?$_Tree_nod@V?$_Tmap_traits@V?$basic_string@DU?$char_traits@D@std@@V?$allocator@D@2@@std@@V12@U?$less@V?$basic_string@DU?$char_traits@D@std@@V?$allocator@D@2@@std@@@2@V?$allocator@U?$pair@$$CBV?$basic_string@DU?$char_traits@D@std@@V?$allocator@D@2@@std@@V12@@std@@@2@$0A@@std@@@2@I@Z
_TEXT	SEGMENT
__Ptr$ = 8						; size = 4
___formal$ = 12						; size = 4
?deallocate@?$allocator@U_Node@?$_Tree_nod@V?$_Tmap_traits@V?$basic_string@DU?$char_traits@D@std@@V?$allocator@D@2@@std@@V12@U?$less@V?$basic_string@DU?$char_traits@D@std@@V?$allocator@D@2@@std@@@2@V?$allocator@U?$pair@$$CBV?$basic_string@DU?$char_traits@D@std@@V?$allocator@D@2@@std@@V12@@std@@@2@$0A@@std@@@std@@@std@@QAEXPAU_Node@?$_Tree_nod@V?$_Tmap_traits@V?$basic_string@DU?$char_traits@D@std@@V?$allocator@D@2@@std@@V12@U?$less@V?$basic_string@DU?$char_traits@D@std@@V?$allocator@D@2@@std@@@2@V?$allocator@U?$pair@$$CBV?$basic_string@DU?$char_traits@D@std@@V?$allocator@D@2@@std@@V12@@std@@@2@$0A@@std@@@2@I@Z PROC ; std::allocator<std::_Tree_nod<std::_Tmap_traits<std::basic_string<char,std::char_traits<char>,std::allocator<char> >,std::basic_string<char,std::char_traits<char>,std::allocator<char> >,std::less<std::basic_string<char,std::char_traits<char>,std::allocator<char> > >,std::allocator<std::pair<std::basic_string<char,std::char_traits<char>,std::allocator<char> > const ,std::basic_string<char,std::char_traits<char>,std::allocator<char> > > >,0> >::_Node>::deallocate, COMDAT
; _this$ = ecx

; 141  : 		::operator delete(_Ptr);

  00000	8b 44 24 04	 mov	 eax, DWORD PTR __Ptr$[esp-4]
  00004	50		 push	 eax
  00005	e8 00 00 00 00	 call	 ??3@YAXPAX@Z		; operator delete
  0000a	59		 pop	 ecx

; 142  : 		}

  0000b	c2 08 00	 ret	 8
?deallocate@?$allocator@U_Node@?$_Tree_nod@V?$_Tmap_traits@V?$basic_string@DU?$char_traits@D@std@@V?$allocator@D@2@@std@@V12@U?$less@V?$basic_string@DU?$char_traits@D@std@@V?$allocator@D@2@@std@@@2@V?$allocator@U?$pair@$$CBV?$basic_string@DU?$char_traits@D@std@@V?$allocator@D@2@@std@@V12@@std@@@2@$0A@@std@@@std@@@std@@QAEXPAU_Node@?$_Tree_nod@V?$_Tmap_traits@V?$basic_string@DU?$char_traits@D@std@@V?$allocator@D@2@@std@@V12@U?$less@V?$basic_string@DU?$char_traits@D@std@@V?$allocator@D@2@@std@@@2@V?$allocator@U?$pair@$$CBV?$basic_string@DU?$char_traits@D@std@@V?$allocator@D@2@@std@@V12@@std@@@2@$0A@@std@@@2@I@Z ENDP ; std::allocator<std::_Tree_nod<std::_Tmap_traits<std::basic_string<char,std::char_traits<char>,std::allocator<char> >,std::basic_string<char,std::char_traits<char>,std::allocator<char> >,std::less<std::basic_string<char,std::char_traits<char>,std::allocator<char> > >,std::allocator<std::pair<std::basic_string<char,std::char_traits<char>,std::allocator<char> > const ,std::basic_string<char,std::char_traits<char>,std::allocator<char> > > >,0> >::_Node>::deallocate
_TEXT	ENDS
PUBLIC	?_Isnil@?$_Tree@V?$_Tmap_traits@V?$basic_string@DU?$char_traits@D@std@@V?$allocator@D@2@@std@@V12@U?$less@V?$basic_string@DU?$char_traits@D@std@@V?$allocator@D@2@@std@@@2@V?$allocator@U?$pair@$$CBV?$basic_string@DU?$char_traits@D@std@@V?$allocator@D@2@@std@@V12@@std@@@2@$0A@@std@@@std@@KAAADPAU_Node@?$_Tree_nod@V?$_Tmap_traits@V?$basic_string@DU?$char_traits@D@std@@V?$allocator@D@2@@std@@V12@U?$less@V?$basic_string@DU?$char_traits@D@std@@V?$allocator@D@2@@std@@@2@V?$allocator@U?$pair@$$CBV?$basic_string@DU?$char_traits@D@std@@V?$allocator@D@2@@std@@V12@@std@@@2@$0A@@std@@@2@@Z ; std::_Tree<std::_Tmap_traits<std::basic_string<char,std::char_traits<char>,std::allocator<char> >,std::basic_string<char,std::char_traits<char>,std::allocator<char> >,std::less<std::basic_string<char,std::char_traits<char>,std::allocator<char> > >,std::allocator<std::pair<std::basic_string<char,std::char_traits<char>,std::allocator<char> > const ,std::basic_string<char,std::char_traits<char>,std::allocator<char> > > >,0> >::_Isnil
; Function compile flags: /Ogtpy
; File d:\program files\microsoft visual studio 8\vc\include\xtree
;	COMDAT ?_Isnil@?$_Tree@V?$_Tmap_traits@V?$basic_string@DU?$char_traits@D@std@@V?$allocator@D@2@@std@@V12@U?$less@V?$basic_string@DU?$char_traits@D@std@@V?$allocator@D@2@@std@@@2@V?$allocator@U?$pair@$$CBV?$basic_string@DU?$char_traits@D@std@@V?$allocator@D@2@@std@@V12@@std@@@2@$0A@@std@@@std@@KAAADPAU_Node@?$_Tree_nod@V?$_Tmap_traits@V?$basic_string@DU?$char_traits@D@std@@V?$allocator@D@2@@std@@V12@U?$less@V?$basic_string@DU?$char_traits@D@std@@V?$allocator@D@2@@std@@@2@V?$allocator@U?$pair@$$CBV?$basic_string@DU?$char_traits@D@std@@V?$allocator@D@2@@std@@V12@@std@@@2@$0A@@std@@@2@@Z
_TEXT	SEGMENT
__Pnode$ = 8						; size = 4
?_Isnil@?$_Tree@V?$_Tmap_traits@V?$basic_string@DU?$char_traits@D@std@@V?$allocator@D@2@@std@@V12@U?$less@V?$basic_string@DU?$char_traits@D@std@@V?$allocator@D@2@@std@@@2@V?$allocator@U?$pair@$$CBV?$basic_string@DU?$char_traits@D@std@@V?$allocator@D@2@@std@@V12@@std@@@2@$0A@@std@@@std@@KAAADPAU_Node@?$_Tree_nod@V?$_Tmap_traits@V?$basic_string@DU?$char_traits@D@std@@V?$allocator@D@2@@std@@V12@U?$less@V?$basic_string@DU?$char_traits@D@std@@V?$allocator@D@2@@std@@@2@V?$allocator@U?$pair@$$CBV?$basic_string@DU?$char_traits@D@std@@V?$allocator@D@2@@std@@V12@@std@@@2@$0A@@std@@@2@@Z PROC ; std::_Tree<std::_Tmap_traits<std::basic_string<char,std::char_traits<char>,std::allocator<char> >,std::basic_string<char,std::char_traits<char>,std::allocator<char> >,std::less<std::basic_string<char,std::char_traits<char>,std::allocator<char> > >,std::allocator<std::pair<std::basic_string<char,std::char_traits<char>,std::allocator<char> > const ,std::basic_string<char,std::char_traits<char>,std::allocator<char> > > >,0> >::_Isnil, COMDAT

; 146  : 		return ((_Charref)(*_Pnode)._Isnil);

  00000	8b 44 24 04	 mov	 eax, DWORD PTR __Pnode$[esp-4]
  00004	83 c0 45	 add	 eax, 69			; 00000045H

; 147  : 		}

  00007	c3		 ret	 0
?_Isnil@?$_Tree@V?$_Tmap_traits@V?$basic_string@DU?$char_traits@D@std@@V?$allocator@D@2@@std@@V12@U?$less@V?$basic_string@DU?$char_traits@D@std@@V?$allocator@D@2@@std@@@2@V?$allocator@U?$pair@$$CBV?$basic_string@DU?$char_traits@D@std@@V?$allocator@D@2@@std@@V12@@std@@@2@$0A@@std@@@std@@KAAADPAU_Node@?$_Tree_nod@V?$_Tmap_traits@V?$basic_string@DU?$char_traits@D@std@@V?$allocator@D@2@@std@@V12@U?$less@V?$basic_string@DU?$char_traits@D@std@@V?$allocator@D@2@@std@@@2@V?$allocator@U?$pair@$$CBV?$basic_string@DU?$char_traits@D@std@@V?$allocator@D@2@@std@@V12@@std@@@2@$0A@@std@@@2@@Z ENDP ; std::_Tree<std::_Tmap_traits<std::basic_string<char,std::char_traits<char>,std::allocator<char> >,std::basic_string<char,std::char_traits<char>,std::allocator<char> >,std::less<std::basic_string<char,std::char_traits<char>,std::allocator<char> > >,std::allocator<std::pair<std::basic_string<char,std::char_traits<char>,std::allocator<char> > const ,std::basic_string<char,std::char_traits<char>,std::allocator<char> > > >,0> >::_Isnil
_TEXT	ENDS
PUBLIC	?_Lmost@?$_Tree@V?$_Tmap_traits@V?$basic_string@DU?$char_traits@D@std@@V?$allocator@D@2@@std@@V12@U?$less@V?$basic_string@DU?$char_traits@D@std@@V?$allocator@D@2@@std@@@2@V?$allocator@U?$pair@$$CBV?$basic_string@DU?$char_traits@D@std@@V?$allocator@D@2@@std@@V12@@std@@@2@$0A@@std@@@std@@IBEAAPAU_Node@?$_Tree_nod@V?$_Tmap_traits@V?$basic_string@DU?$char_traits@D@std@@V?$allocator@D@2@@std@@V12@U?$less@V?$basic_string@DU?$char_traits@D@std@@V?$allocator@D@2@@std@@@2@V?$allocator@U?$pair@$$CBV?$basic_string@DU?$char_traits@D@std@@V?$allocator@D@2@@std@@V12@@std@@@2@$0A@@std@@@2@XZ ; std::_Tree<std::_Tmap_traits<std::basic_string<char,std::char_traits<char>,std::allocator<char> >,std::basic_string<char,std::char_traits<char>,std::allocator<char> >,std::less<std::basic_string<char,std::char_traits<char>,std::allocator<char> > >,std::allocator<std::pair<std::basic_string<char,std::char_traits<char>,std::allocator<char> > const ,std::basic_string<char,std::char_traits<char>,std::allocator<char> > > >,0> >::_Lmost
; Function compile flags: /Ogtpy
;	COMDAT ?_Lmost@?$_Tree@V?$_Tmap_traits@V?$basic_string@DU?$char_traits@D@std@@V?$allocator@D@2@@std@@V12@U?$less@V?$basic_string@DU?$char_traits@D@std@@V?$allocator@D@2@@std@@@2@V?$allocator@U?$pair@$$CBV?$basic_string@DU?$char_traits@D@std@@V?$allocator@D@2@@std@@V12@@std@@@2@$0A@@std@@@std@@IBEAAPAU_Node@?$_Tree_nod@V?$_Tmap_traits@V?$basic_string@DU?$char_traits@D@std@@V?$allocator@D@2@@std@@V12@U?$less@V?$basic_string@DU?$char_traits@D@std@@V?$allocator@D@2@@std@@@2@V?$allocator@U?$pair@$$CBV?$basic_string@DU?$char_traits@D@std@@V?$allocator@D@2@@std@@V12@@std@@@2@$0A@@std@@@2@XZ
_TEXT	SEGMENT
?_Lmost@?$_Tree@V?$_Tmap_traits@V?$basic_string@DU?$char_traits@D@std@@V?$allocator@D@2@@std@@V12@U?$less@V?$basic_string@DU?$char_traits@D@std@@V?$allocator@D@2@@std@@@2@V?$allocator@U?$pair@$$CBV?$basic_string@DU?$char_traits@D@std@@V?$allocator@D@2@@std@@V12@@std@@@2@$0A@@std@@@std@@IBEAAPAU_Node@?$_Tree_nod@V?$_Tmap_traits@V?$basic_string@DU?$char_traits@D@std@@V?$allocator@D@2@@std@@V12@U?$less@V?$basic_string@DU?$char_traits@D@std@@V?$allocator@D@2@@std@@@2@V?$allocator@U?$pair@$$CBV?$basic_string@DU?$char_traits@D@std@@V?$allocator@D@2@@std@@V12@@std@@@2@$0A@@std@@@2@XZ PROC ; std::_Tree<std::_Tmap_traits<std::basic_string<char,std::char_traits<char>,std::allocator<char> >,std::basic_string<char,std::char_traits<char>,std::allocator<char> >,std::less<std::basic_string<char,std::char_traits<char>,std::allocator<char> > >,std::allocator<std::pair<std::basic_string<char,std::char_traits<char>,std::allocator<char> > const ,std::basic_string<char,std::char_traits<char>,std::allocator<char> > > >,0> >::_Lmost, COMDAT
; _this$ = ecx

; 1187 : 		return (_Left(_Myhead));

  00000	8b 41 04	 mov	 eax, DWORD PTR [ecx+4]

; 1188 : 		}

  00003	c3		 ret	 0
?_Lmost@?$_Tree@V?$_Tmap_traits@V?$basic_string@DU?$char_traits@D@std@@V?$allocator@D@2@@std@@V12@U?$less@V?$basic_string@DU?$char_traits@D@std@@V?$allocator@D@2@@std@@@2@V?$allocator@U?$pair@$$CBV?$basic_string@DU?$char_traits@D@std@@V?$allocator@D@2@@std@@V12@@std@@@2@$0A@@std@@@std@@IBEAAPAU_Node@?$_Tree_nod@V?$_Tmap_traits@V?$basic_string@DU?$char_traits@D@std@@V?$allocator@D@2@@std@@V12@U?$less@V?$basic_string@DU?$char_traits@D@std@@V?$allocator@D@2@@std@@@2@V?$allocator@U?$pair@$$CBV?$basic_string@DU?$char_traits@D@std@@V?$allocator@D@2@@std@@V12@@std@@@2@$0A@@std@@@2@XZ ENDP ; std::_Tree<std::_Tmap_traits<std::basic_string<char,std::char_traits<char>,std::allocator<char> >,std::basic_string<char,std::char_traits<char>,std::allocator<char> >,std::less<std::basic_string<char,std::char_traits<char>,std::allocator<char> > >,std::allocator<std::pair<std::basic_string<char,std::char_traits<char>,std::allocator<char> > const ,std::basic_string<char,std::char_traits<char>,std::allocator<char> > > >,0> >::_Lmost
_TEXT	ENDS
PUBLIC	?_Rmost@?$_Tree@V?$_Tmap_traits@V?$basic_string@DU?$char_traits@D@std@@V?$allocator@D@2@@std@@V12@U?$less@V?$basic_string@DU?$char_traits@D@std@@V?$allocator@D@2@@std@@@2@V?$allocator@U?$pair@$$CBV?$basic_string@DU?$char_traits@D@std@@V?$allocator@D@2@@std@@V12@@std@@@2@$0A@@std@@@std@@IBEAAPAU_Node@?$_Tree_nod@V?$_Tmap_traits@V?$basic_string@DU?$char_traits@D@std@@V?$allocator@D@2@@std@@V12@U?$less@V?$basic_string@DU?$char_traits@D@std@@V?$allocator@D@2@@std@@@2@V?$allocator@U?$pair@$$CBV?$basic_string@DU?$char_traits@D@std@@V?$allocator@D@2@@std@@V12@@std@@@2@$0A@@std@@@2@XZ ; std::_Tree<std::_Tmap_traits<std::basic_string<char,std::char_traits<char>,std::allocator<char> >,std::basic_string<char,std::char_traits<char>,std::allocator<char> >,std::less<std::basic_string<char,std::char_traits<char>,std::allocator<char> > >,std::allocator<std::pair<std::basic_string<char,std::char_traits<char>,std::allocator<char> > const ,std::basic_string<char,std::char_traits<char>,std::allocator<char> > > >,0> >::_Rmost
; Function compile flags: /Ogtpy
;	COMDAT ?_Rmost@?$_Tree@V?$_Tmap_traits@V?$basic_string@DU?$char_traits@D@std@@V?$allocator@D@2@@std@@V12@U?$less@V?$basic_string@DU?$char_traits@D@std@@V?$allocator@D@2@@std@@@2@V?$allocator@U?$pair@$$CBV?$basic_string@DU?$char_traits@D@std@@V?$allocator@D@2@@std@@V12@@std@@@2@$0A@@std@@@std@@IBEAAPAU_Node@?$_Tree_nod@V?$_Tmap_traits@V?$basic_string@DU?$char_traits@D@std@@V?$allocator@D@2@@std@@V12@U?$less@V?$basic_string@DU?$char_traits@D@std@@V?$allocator@D@2@@std@@@2@V?$allocator@U?$pair@$$CBV?$basic_string@DU?$char_traits@D@std@@V?$allocator@D@2@@std@@V12@@std@@@2@$0A@@std@@@2@XZ
_TEXT	SEGMENT
?_Rmost@?$_Tree@V?$_Tmap_traits@V?$basic_string@DU?$char_traits@D@std@@V?$allocator@D@2@@std@@V12@U?$less@V?$basic_string@DU?$char_traits@D@std@@V?$allocator@D@2@@std@@@2@V?$allocator@U?$pair@$$CBV?$basic_string@DU?$char_traits@D@std@@V?$allocator@D@2@@std@@V12@@std@@@2@$0A@@std@@@std@@IBEAAPAU_Node@?$_Tree_nod@V?$_Tmap_traits@V?$basic_string@DU?$char_traits@D@std@@V?$allocator@D@2@@std@@V12@U?$less@V?$basic_string@DU?$char_traits@D@std@@V?$allocator@D@2@@std@@@2@V?$allocator@U?$pair@$$CBV?$basic_string@DU?$char_traits@D@std@@V?$allocator@D@2@@std@@V12@@std@@@2@$0A@@std@@@2@XZ PROC ; std::_Tree<std::_Tmap_traits<std::basic_string<char,std::char_traits<char>,std::allocator<char> >,std::basic_string<char,std::char_traits<char>,std::allocator<char> >,std::less<std::basic_string<char,std::char_traits<char>,std::allocator<char> > >,std::allocator<std::pair<std::basic_string<char,std::char_traits<char>,std::allocator<char> > const ,std::basic_string<char,std::char_traits<char>,std::allocator<char> > > >,0> >::_Rmost, COMDAT
; _this$ = ecx

; 1226 : 		return (_Right(_Myhead));

  00000	8b 41 04	 mov	 eax, DWORD PTR [ecx+4]
  00003	83 c0 08	 add	 eax, 8

; 1227 : 		}

  00006	c3		 ret	 0
?_Rmost@?$_Tree@V?$_Tmap_traits@V?$basic_string@DU?$char_traits@D@std@@V?$allocator@D@2@@std@@V12@U?$less@V?$basic_string@DU?$char_traits@D@std@@V?$allocator@D@2@@std@@@2@V?$allocator@U?$pair@$$CBV?$basic_string@DU?$char_traits@D@std@@V?$allocator@D@2@@std@@V12@@std@@@2@$0A@@std@@@std@@IBEAAPAU_Node@?$_Tree_nod@V?$_Tmap_traits@V?$basic_string@DU?$char_traits@D@std@@V?$allocator@D@2@@std@@V12@U?$less@V?$basic_string@DU?$char_traits@D@std@@V?$allocator@D@2@@std@@@2@V?$allocator@U?$pair@$$CBV?$basic_string@DU?$char_traits@D@std@@V?$allocator@D@2@@std@@V12@@std@@@2@$0A@@std@@@2@XZ ENDP ; std::_Tree<std::_Tmap_traits<std::basic_string<char,std::char_traits<char>,std::allocator<char> >,std::basic_string<char,std::char_traits<char>,std::allocator<char> >,std::less<std::basic_string<char,std::char_traits<char>,std::allocator<char> > >,std::allocator<std::pair<std::basic_string<char,std::char_traits<char>,std::allocator<char> > const ,std::basic_string<char,std::char_traits<char>,std::allocator<char> > > >,0> >::_Rmost
_TEXT	ENDS
PUBLIC	?_Root@?$_Tree@V?$_Tmap_traits@V?$basic_string@DU?$char_traits@D@std@@V?$allocator@D@2@@std@@V12@U?$less@V?$basic_string@DU?$char_traits@D@std@@V?$allocator@D@2@@std@@@2@V?$allocator@U?$pair@$$CBV?$basic_string@DU?$char_traits@D@std@@V?$allocator@D@2@@std@@V12@@std@@@2@$0A@@std@@@std@@IBEAAPAU_Node@?$_Tree_nod@V?$_Tmap_traits@V?$basic_string@DU?$char_traits@D@std@@V?$allocator@D@2@@std@@V12@U?$less@V?$basic_string@DU?$char_traits@D@std@@V?$allocator@D@2@@std@@@2@V?$allocator@U?$pair@$$CBV?$basic_string@DU?$char_traits@D@std@@V?$allocator@D@2@@std@@V12@@std@@@2@$0A@@std@@@2@XZ ; std::_Tree<std::_Tmap_traits<std::basic_string<char,std::char_traits<char>,std::allocator<char> >,std::basic_string<char,std::char_traits<char>,std::allocator<char> >,std::less<std::basic_string<char,std::char_traits<char>,std::allocator<char> > >,std::allocator<std::pair<std::basic_string<char,std::char_traits<char>,std::allocator<char> > const ,std::basic_string<char,std::char_traits<char>,std::allocator<char> > > >,0> >::_Root
; Function compile flags: /Ogtpy
;	COMDAT ?_Root@?$_Tree@V?$_Tmap_traits@V?$basic_string@DU?$char_traits@D@std@@V?$allocator@D@2@@std@@V12@U?$less@V?$basic_string@DU?$char_traits@D@std@@V?$allocator@D@2@@std@@@2@V?$allocator@U?$pair@$$CBV?$basic_string@DU?$char_traits@D@std@@V?$allocator@D@2@@std@@V12@@std@@@2@$0A@@std@@@std@@IBEAAPAU_Node@?$_Tree_nod@V?$_Tmap_traits@V?$basic_string@DU?$char_traits@D@std@@V?$allocator@D@2@@std@@V12@U?$less@V?$basic_string@DU?$char_traits@D@std@@V?$allocator@D@2@@std@@@2@V?$allocator@U?$pair@$$CBV?$basic_string@DU?$char_traits@D@std@@V?$allocator@D@2@@std@@V12@@std@@@2@$0A@@std@@@2@XZ
_TEXT	SEGMENT
?_Root@?$_Tree@V?$_Tmap_traits@V?$basic_string@DU?$char_traits@D@std@@V?$allocator@D@2@@std@@V12@U?$less@V?$basic_string@DU?$char_traits@D@std@@V?$allocator@D@2@@std@@@2@V?$allocator@U?$pair@$$CBV?$basic_string@DU?$char_traits@D@std@@V?$allocator@D@2@@std@@V12@@std@@@2@$0A@@std@@@std@@IBEAAPAU_Node@?$_Tree_nod@V?$_Tmap_traits@V?$basic_string@DU?$char_traits@D@std@@V?$allocator@D@2@@std@@V12@U?$less@V?$basic_string@DU?$char_traits@D@std@@V?$allocator@D@2@@std@@@2@V?$allocator@U?$pair@$$CBV?$basic_string@DU?$char_traits@D@std@@V?$allocator@D@2@@std@@V12@@std@@@2@$0A@@std@@@2@XZ PROC ; std::_Tree<std::_Tmap_traits<std::basic_string<char,std::char_traits<char>,std::allocator<char> >,std::basic_string<char,std::char_traits<char>,std::allocator<char> >,std::less<std::basic_string<char,std::char_traits<char>,std::allocator<char> > >,std::allocator<std::pair<std::basic_string<char,std::char_traits<char>,std::allocator<char> > const ,std::basic_string<char,std::char_traits<char>,std::allocator<char> > > >,0> >::_Root, COMDAT
; _this$ = ecx

; 1231 : 		return (_Parent(_Myhead));

  00000	8b 41 04	 mov	 eax, DWORD PTR [ecx+4]
  00003	83 c0 04	 add	 eax, 4

; 1232 : 		}

  00006	c3		 ret	 0
?_Root@?$_Tree@V?$_Tmap_traits@V?$basic_string@DU?$char_traits@D@std@@V?$allocator@D@2@@std@@V12@U?$less@V?$basic_string@DU?$char_traits@D@std@@V?$allocator@D@2@@std@@@2@V?$allocator@U?$pair@$$CBV?$basic_string@DU?$char_traits@D@std@@V?$allocator@D@2@@std@@V12@@std@@@2@$0A@@std@@@std@@IBEAAPAU_Node@?$_Tree_nod@V?$_Tmap_traits@V?$basic_string@DU?$char_traits@D@std@@V?$allocator@D@2@@std@@V12@U?$less@V?$basic_string@DU?$char_traits@D@std@@V?$allocator@D@2@@std@@@2@V?$allocator@U?$pair@$$CBV?$basic_string@DU?$char_traits@D@std@@V?$allocator@D@2@@std@@V12@@std@@@2@$0A@@std@@@2@XZ ENDP ; std::_Tree<std::_Tmap_traits<std::basic_string<char,std::char_traits<char>,std::allocator<char> >,std::basic_string<char,std::char_traits<char>,std::allocator<char> >,std::less<std::basic_string<char,std::char_traits<char>,std::allocator<char> > >,std::allocator<std::pair<std::basic_string<char,std::char_traits<char>,std::allocator<char> > const ,std::basic_string<char,std::char_traits<char>,std::allocator<char> > > >,0> >::_Root
_TEXT	ENDS
PUBLIC	??8const_iterator@?$_Tree@V?$_Tmap_traits@V?$basic_string@DU?$char_traits@D@std@@V?$allocator@D@2@@std@@V12@U?$less@V?$basic_string@DU?$char_traits@D@std@@V?$allocator@D@2@@std@@@2@V?$allocator@U?$pair@$$CBV?$basic_string@DU?$char_traits@D@std@@V?$allocator@D@2@@std@@V12@@std@@@2@$0A@@std@@@std@@QBE_NABV012@@Z ; std::_Tree<std::_Tmap_traits<std::basic_string<char,std::char_traits<char>,std::allocator<char> >,std::basic_string<char,std::char_traits<char>,std::allocator<char> >,std::less<std::basic_string<char,std::char_traits<char>,std::allocator<char> > >,std::allocator<std::pair<std::basic_string<char,std::char_traits<char>,std::allocator<char> > const ,std::basic_string<char,std::char_traits<char>,std::allocator<char> > > >,0> >::const_iterator::operator==
EXTRN	__invalid_parameter_noinfo:PROC
; Function compile flags: /Ogtpy
;	COMDAT ??8const_iterator@?$_Tree@V?$_Tmap_traits@V?$basic_string@DU?$char_traits@D@std@@V?$allocator@D@2@@std@@V12@U?$less@V?$basic_string@DU?$char_traits@D@std@@V?$allocator@D@2@@std@@@2@V?$allocator@U?$pair@$$CBV?$basic_string@DU?$char_traits@D@std@@V?$allocator@D@2@@std@@V12@@std@@@2@$0A@@std@@@std@@QBE_NABV012@@Z
_TEXT	SEGMENT
__Right$ = 8						; size = 4
??8const_iterator@?$_Tree@V?$_Tmap_traits@V?$basic_string@DU?$char_traits@D@std@@V?$allocator@D@2@@std@@V12@U?$less@V?$basic_string@DU?$char_traits@D@std@@V?$allocator@D@2@@std@@@2@V?$allocator@U?$pair@$$CBV?$basic_string@DU?$char_traits@D@std@@V?$allocator@D@2@@std@@V12@@std@@@2@$0A@@std@@@std@@QBE_NABV012@@Z PROC ; std::_Tree<std::_Tmap_traits<std::basic_string<char,std::char_traits<char>,std::allocator<char> >,std::basic_string<char,std::char_traits<char>,std::allocator<char> >,std::less<std::basic_string<char,std::char_traits<char>,std::allocator<char> > >,std::allocator<std::pair<std::basic_string<char,std::char_traits<char>,std::allocator<char> > const ,std::basic_string<char,std::char_traits<char>,std::allocator<char> > > >,0> >::const_iterator::operator==, COMDAT
; _this$ = ecx

; 288  : 			{	// test for iterator equality

  00000	56		 push	 esi
  00001	8b f1		 mov	 esi, ecx

; 289  : 
; 290  :  #if _HAS_ITERATOR_DEBUGGING
; 291  : 			if (this->_Mycont == 0 || this->_Mycont != _Right._Mycont)
; 292  : 				{
; 293  : 				_DEBUG_ERROR("map/set iterators incompatible");
; 294  : 				_SCL_SECURE_INVALID_ARGUMENT;
; 295  : 				}
; 296  :  #else
; 297  : 			_SCL_SECURE_VALIDATE(this->_Mycont != NULL && this->_Mycont == _Right._Mycont);

  00003	8b 06		 mov	 eax, DWORD PTR [esi]
  00005	85 c0		 test	 eax, eax
  00007	57		 push	 edi
  00008	8b 7c 24 0c	 mov	 edi, DWORD PTR __Right$[esp+4]
  0000c	74 04		 je	 SHORT $LN1@operator
  0000e	3b 07		 cmp	 eax, DWORD PTR [edi]
  00010	74 05		 je	 SHORT $LN2@operator
$LN1@operator:
  00012	e8 00 00 00 00	 call	 __invalid_parameter_noinfo
$LN2@operator:

; 298  :  #endif /* _HAS_ITERATOR_DEBUGGING */
; 299  : 
; 300  : 			return (_Ptr == _Right._Ptr);

  00017	8b 46 04	 mov	 eax, DWORD PTR [esi+4]
  0001a	33 c9		 xor	 ecx, ecx
  0001c	3b 47 04	 cmp	 eax, DWORD PTR [edi+4]
  0001f	5f		 pop	 edi
  00020	0f 94 c1	 sete	 cl
  00023	8a c1		 mov	 al, cl
  00025	5e		 pop	 esi

; 301  : 			}

  00026	c2 04 00	 ret	 4
??8const_iterator@?$_Tree@V?$_Tmap_traits@V?$basic_string@DU?$char_traits@D@std@@V?$allocator@D@2@@std@@V12@U?$less@V?$basic_string@DU?$char_traits@D@std@@V?$allocator@D@2@@std@@@2@V?$allocator@U?$pair@$$CBV?$basic_string@DU?$char_traits@D@std@@V?$allocator@D@2@@std@@V12@@std@@@2@$0A@@std@@@std@@QBE_NABV012@@Z ENDP ; std::_Tree<std::_Tmap_traits<std::basic_string<char,std::char_traits<char>,std::allocator<char> >,std::basic_string<char,std::char_traits<char>,std::allocator<char> >,std::less<std::basic_string<char,std::char_traits<char>,std::allocator<char> > >,std::allocator<std::pair<std::basic_string<char,std::char_traits<char>,std::allocator<char> > const ,std::basic_string<char,std::char_traits<char>,std::allocator<char> > > >,0> >::const_iterator::operator==
_TEXT	ENDS
PUBLIC	??9const_iterator@?$_Tree@V?$_Tmap_traits@V?$basic_string@DU?$char_traits@D@std@@V?$allocator@D@2@@std@@V12@U?$less@V?$basic_string@DU?$char_traits@D@std@@V?$allocator@D@2@@std@@@2@V?$allocator@U?$pair@$$CBV?$basic_string@DU?$char_traits@D@std@@V?$allocator@D@2@@std@@V12@@std@@@2@$0A@@std@@@std@@QBE_NABV012@@Z ; std::_Tree<std::_Tmap_traits<std::basic_string<char,std::char_traits<char>,std::allocator<char> >,std::basic_string<char,std::char_traits<char>,std::allocator<char> >,std::less<std::basic_string<char,std::char_traits<char>,std::allocator<char> > >,std::allocator<std::pair<std::basic_string<char,std::char_traits<char>,std::allocator<char> > const ,std::basic_string<char,std::char_traits<char>,std::allocator<char> > > >,0> >::const_iterator::operator!=
; Function compile flags: /Ogtpy
;	COMDAT ??9const_iterator@?$_Tree@V?$_Tmap_traits@V?$basic_string@DU?$char_traits@D@std@@V?$allocator@D@2@@std@@V12@U?$less@V?$basic_string@DU?$char_traits@D@std@@V?$allocator@D@2@@std@@@2@V?$allocator@U?$pair@$$CBV?$basic_string@DU?$char_traits@D@std@@V?$allocator@D@2@@std@@V12@@std@@@2@$0A@@std@@@std@@QBE_NABV012@@Z
_TEXT	SEGMENT
__Right$ = 8						; size = 4
??9const_iterator@?$_Tree@V?$_Tmap_traits@V?$basic_string@DU?$char_traits@D@std@@V?$allocator@D@2@@std@@V12@U?$less@V?$basic_string@DU?$char_traits@D@std@@V?$allocator@D@2@@std@@@2@V?$allocator@U?$pair@$$CBV?$basic_string@DU?$char_traits@D@std@@V?$allocator@D@2@@std@@V12@@std@@@2@$0A@@std@@@std@@QBE_NABV012@@Z PROC ; std::_Tree<std::_Tmap_traits<std::basic_string<char,std::char_traits<char>,std::allocator<char> >,std::basic_string<char,std::char_traits<char>,std::allocator<char> >,std::less<std::basic_string<char,std::char_traits<char>,std::allocator<char> > >,std::allocator<std::pair<std::basic_string<char,std::char_traits<char>,std::allocator<char> > const ,std::basic_string<char,std::char_traits<char>,std::allocator<char> > > >,0> >::const_iterator::operator!=, COMDAT
; _this$ = ecx

; 304  : 			{	// test for iterator inequality

  00000	56		 push	 esi
  00001	8b f1		 mov	 esi, ecx

; 305  : 			return (!(*this == _Right));

  00003	8b 06		 mov	 eax, DWORD PTR [esi]
  00005	85 c0		 test	 eax, eax
  00007	57		 push	 edi
  00008	8b 7c 24 0c	 mov	 edi, DWORD PTR __Right$[esp+4]
  0000c	74 04		 je	 SHORT $LN3@operator@2
  0000e	3b 07		 cmp	 eax, DWORD PTR [edi]
  00010	74 05		 je	 SHORT $LN4@operator@2
$LN3@operator@2:
  00012	e8 00 00 00 00	 call	 __invalid_parameter_noinfo
$LN4@operator@2:
  00017	8b 46 04	 mov	 eax, DWORD PTR [esi+4]
  0001a	33 c9		 xor	 ecx, ecx
  0001c	3b 47 04	 cmp	 eax, DWORD PTR [edi+4]
  0001f	5f		 pop	 edi
  00020	0f 95 c1	 setne	 cl
  00023	8a c1		 mov	 al, cl
  00025	5e		 pop	 esi

; 306  : 			}

  00026	c2 04 00	 ret	 4
??9const_iterator@?$_Tree@V?$_Tmap_traits@V?$basic_string@DU?$char_traits@D@std@@V?$allocator@D@2@@std@@V12@U?$less@V?$basic_string@DU?$char_traits@D@std@@V?$allocator@D@2@@std@@@2@V?$allocator@U?$pair@$$CBV?$basic_string@DU?$char_traits@D@std@@V?$allocator@D@2@@std@@V12@@std@@@2@$0A@@std@@@std@@QBE_NABV012@@Z ENDP ; std::_Tree<std::_Tmap_traits<std::basic_string<char,std::char_traits<char>,std::allocator<char> >,std::basic_string<char,std::char_traits<char>,std::allocator<char> >,std::less<std::basic_string<char,std::char_traits<char>,std::allocator<char> > >,std::allocator<std::pair<std::basic_string<char,std::char_traits<char>,std::allocator<char> > const ,std::basic_string<char,std::char_traits<char>,std::allocator<char> > > >,0> >::const_iterator::operator!=
_TEXT	ENDS
PUBLIC	?max_size@?$allocator@D@std@@QBEIXZ		; std::allocator<char>::max_size
; Function compile flags: /Ogtpy
; File d:\program files\microsoft visual studio 8\vc\include\xmemory
;	COMDAT ?max_size@?$allocator@D@std@@QBEIXZ
_TEXT	SEGMENT
?max_size@?$allocator@D@std@@QBEIXZ PROC		; std::allocator<char>::max_size, COMDAT
; _this$ = ecx

; 166  : 		_SIZT _Count = (_SIZT)(-1) / sizeof (_Ty);
; 167  : 		return (0 < _Count ? _Count : 1);

  00000	83 c8 ff	 or	 eax, -1

; 168  : 		}

  00003	c3		 ret	 0
?max_size@?$allocator@D@std@@QBEIXZ ENDP		; std::allocator<char>::max_size
_TEXT	ENDS
PUBLIC	?_Color@?$_Tree@V?$_Tmap_traits@V?$basic_string@DU?$char_traits@D@std@@V?$allocator@D@2@@std@@V12@U?$less@V?$basic_string@DU?$char_traits@D@std@@V?$allocator@D@2@@std@@@2@V?$allocator@U?$pair@$$CBV?$basic_string@DU?$char_traits@D@std@@V?$allocator@D@2@@std@@V12@@std@@@2@$0A@@std@@@std@@KAAADPAU_Node@?$_Tree_nod@V?$_Tmap_traits@V?$basic_string@DU?$char_traits@D@std@@V?$allocator@D@2@@std@@V12@U?$less@V?$basic_string@DU?$char_traits@D@std@@V?$allocator@D@2@@std@@@2@V?$allocator@U?$pair@$$CBV?$basic_string@DU?$char_traits@D@std@@V?$allocator@D@2@@std@@V12@@std@@@2@$0A@@std@@@2@@Z ; std::_Tree<std::_Tmap_traits<std::basic_string<char,std::char_traits<char>,std::allocator<char> >,std::basic_string<char,std::char_traits<char>,std::allocator<char> >,std::less<std::basic_string<char,std::char_traits<char>,std::allocator<char> > >,std::allocator<std::pair<std::basic_string<char,std::char_traits<char>,std::allocator<char> > const ,std::basic_string<char,std::char_traits<char>,std::allocator<char> > > >,0> >::_Color
; Function compile flags: /Ogtpy
; File d:\program files\microsoft visual studio 8\vc\include\xtree
;	COMDAT ?_Color@?$_Tree@V?$_Tmap_traits@V?$basic_string@DU?$char_traits@D@std@@V?$allocator@D@2@@std@@V12@U?$less@V?$basic_string@DU?$char_traits@D@std@@V?$allocator@D@2@@std@@@2@V?$allocator@U?$pair@$$CBV?$basic_string@DU?$char_traits@D@std@@V?$allocator@D@2@@std@@V12@@std@@@2@$0A@@std@@@std@@KAAADPAU_Node@?$_Tree_nod@V?$_Tmap_traits@V?$basic_string@DU?$char_traits@D@std@@V?$allocator@D@2@@std@@V12@U?$less@V?$basic_string@DU?$char_traits@D@std@@V?$allocator@D@2@@std@@@2@V?$allocator@U?$pair@$$CBV?$basic_string@DU?$char_traits@D@std@@V?$allocator@D@2@@std@@V12@@std@@@2@$0A@@std@@@2@@Z
_TEXT	SEGMENT
__Pnode$ = 8						; size = 4
?_Color@?$_Tree@V?$_Tmap_traits@V?$basic_string@DU?$char_traits@D@std@@V?$allocator@D@2@@std@@V12@U?$less@V?$basic_string@DU?$char_traits@D@std@@V?$allocator@D@2@@std@@@2@V?$allocator@U?$pair@$$CBV?$basic_string@DU?$char_traits@D@std@@V?$allocator@D@2@@std@@V12@@std@@@2@$0A@@std@@@std@@KAAADPAU_Node@?$_Tree_nod@V?$_Tmap_traits@V?$basic_string@DU?$char_traits@D@std@@V?$allocator@D@2@@std@@V12@U?$less@V?$basic_string@DU?$char_traits@D@std@@V?$allocator@D@2@@std@@@2@V?$allocator@U?$pair@$$CBV?$basic_string@DU?$char_traits@D@std@@V?$allocator@D@2@@std@@V12@@std@@@2@$0A@@std@@@2@@Z PROC ; std::_Tree<std::_Tmap_traits<std::basic_string<char,std::char_traits<char>,std::allocator<char> >,std::basic_string<char,std::char_traits<char>,std::allocator<char> >,std::less<std::basic_string<char,std::char_traits<char>,std::allocator<char> > >,std::allocator<std::pair<std::basic_string<char,std::char_traits<char>,std::allocator<char> > const ,std::basic_string<char,std::char_traits<char>,std::allocator<char> > > >,0> >::_Color, COMDAT

; 141  : 		return ((_Charref)(*_Pnode)._Color);

  00000	8b 44 24 04	 mov	 eax, DWORD PTR __Pnode$[esp-4]
  00004	83 c0 44	 add	 eax, 68			; 00000044H

; 142  : 		}

  00007	c3		 ret	 0
?_Color@?$_Tree@V?$_Tmap_traits@V?$basic_string@DU?$char_traits@D@std@@V?$allocator@D@2@@std@@V12@U?$less@V?$basic_string@DU?$char_traits@D@std@@V?$allocator@D@2@@std@@@2@V?$allocator@U?$pair@$$CBV?$basic_string@DU?$char_traits@D@std@@V?$allocator@D@2@@std@@V12@@std@@@2@$0A@@std@@@std@@KAAADPAU_Node@?$_Tree_nod@V?$_Tmap_traits@V?$basic_string@DU?$char_traits@D@std@@V?$allocator@D@2@@std@@V12@U?$less@V?$basic_string@DU?$char_traits@D@std@@V?$allocator@D@2@@std@@@2@V?$allocator@U?$pair@$$CBV?$basic_string@DU?$char_traits@D@std@@V?$allocator@D@2@@std@@V12@@std@@@2@$0A@@std@@@2@@Z ENDP ; std::_Tree<std::_Tmap_traits<std::basic_string<char,std::char_traits<char>,std::allocator<char> >,std::basic_string<char,std::char_traits<char>,std::allocator<char> >,std::less<std::basic_string<char,std::char_traits<char>,std::allocator<char> > >,std::allocator<std::pair<std::basic_string<char,std::char_traits<char>,std::allocator<char> > const ,std::basic_string<char,std::char_traits<char>,std::allocator<char> > > >,0> >::_Color
_TEXT	ENDS
PUBLIC	?_Lrotate@?$_Tree@V?$_Tmap_traits@V?$basic_string@DU?$char_traits@D@std@@V?$allocator@D@2@@std@@V12@U?$less@V?$basic_string@DU?$char_traits@D@std@@V?$allocator@D@2@@std@@@2@V?$allocator@U?$pair@$$CBV?$basic_string@DU?$char_traits@D@std@@V?$allocator@D@2@@std@@V12@@std@@@2@$0A@@std@@@std@@IAEXPAU_Node@?$_Tree_nod@V?$_Tmap_traits@V?$basic_string@DU?$char_traits@D@std@@V?$allocator@D@2@@std@@V12@U?$less@V?$basic_string@DU?$char_traits@D@std@@V?$allocator@D@2@@std@@@2@V?$allocator@U?$pair@$$CBV?$basic_string@DU?$char_traits@D@std@@V?$allocator@D@2@@std@@V12@@std@@@2@$0A@@std@@@2@@Z ; std::_Tree<std::_Tmap_traits<std::basic_string<char,std::char_traits<char>,std::allocator<char> >,std::basic_string<char,std::char_traits<char>,std::allocator<char> >,std::less<std::basic_string<char,std::char_traits<char>,std::allocator<char> > >,std::allocator<std::pair<std::basic_string<char,std::char_traits<char>,std::allocator<char> > const ,std::basic_string<char,std::char_traits<char>,std::allocator<char> > > >,0> >::_Lrotate
; Function compile flags: /Ogtpy
;	COMDAT ?_Lrotate@?$_Tree@V?$_Tmap_traits@V?$basic_string@DU?$char_traits@D@std@@V?$allocator@D@2@@std@@V12@U?$less@V?$basic_string@DU?$char_traits@D@std@@V?$allocator@D@2@@std@@@2@V?$allocator@U?$pair@$$CBV?$basic_string@DU?$char_traits@D@std@@V?$allocator@D@2@@std@@V12@@std@@@2@$0A@@std@@@std@@IAEXPAU_Node@?$_Tree_nod@V?$_Tmap_traits@V?$basic_string@DU?$char_traits@D@std@@V?$allocator@D@2@@std@@V12@U?$less@V?$basic_string@DU?$char_traits@D@std@@V?$allocator@D@2@@std@@@2@V?$allocator@U?$pair@$$CBV?$basic_string@DU?$char_traits@D@std@@V?$allocator@D@2@@std@@V12@@std@@@2@$0A@@std@@@2@@Z
_TEXT	SEGMENT
__Wherenode$ = 8					; size = 4
?_Lrotate@?$_Tree@V?$_Tmap_traits@V?$basic_string@DU?$char_traits@D@std@@V?$allocator@D@2@@std@@V12@U?$less@V?$basic_string@DU?$char_traits@D@std@@V?$allocator@D@2@@std@@@2@V?$allocator@U?$pair@$$CBV?$basic_string@DU?$char_traits@D@std@@V?$allocator@D@2@@std@@V12@@std@@@2@$0A@@std@@@std@@IAEXPAU_Node@?$_Tree_nod@V?$_Tmap_traits@V?$basic_string@DU?$char_traits@D@std@@V?$allocator@D@2@@std@@V12@U?$less@V?$basic_string@DU?$char_traits@D@std@@V?$allocator@D@2@@std@@@2@V?$allocator@U?$pair@$$CBV?$basic_string@DU?$char_traits@D@std@@V?$allocator@D@2@@std@@V12@@std@@@2@$0A@@std@@@2@@Z PROC ; std::_Tree<std::_Tmap_traits<std::basic_string<char,std::char_traits<char>,std::allocator<char> >,std::basic_string<char,std::char_traits<char>,std::allocator<char> >,std::less<std::basic_string<char,std::char_traits<char>,std::allocator<char> > >,std::allocator<std::pair<std::basic_string<char,std::char_traits<char>,std::allocator<char> > const ,std::basic_string<char,std::char_traits<char>,std::allocator<char> > > >,0> >::_Lrotate, COMDAT
; _this$ = ecx

; 1192 : 		_Nodeptr _Pnode = _Right(_Wherenode);

  00000	8b 54 24 04	 mov	 edx, DWORD PTR __Wherenode$[esp-4]
  00004	8b 42 08	 mov	 eax, DWORD PTR [edx+8]
  00007	56		 push	 esi

; 1193 : 		_Right(_Wherenode) = _Left(_Pnode);

  00008	8b 30		 mov	 esi, DWORD PTR [eax]
  0000a	89 72 08	 mov	 DWORD PTR [edx+8], esi

; 1194 : 
; 1195 : 		if (!_Isnil(_Left(_Pnode)))

  0000d	8b 30		 mov	 esi, DWORD PTR [eax]
  0000f	80 7e 45 00	 cmp	 BYTE PTR [esi+69], 0
  00013	75 03		 jne	 SHORT $LN5@Lrotate

; 1196 : 			_Parent(_Left(_Pnode)) = _Wherenode;

  00015	89 56 04	 mov	 DWORD PTR [esi+4], edx
$LN5@Lrotate:

; 1197 : 		_Parent(_Pnode) = _Parent(_Wherenode);

  00018	8b 72 04	 mov	 esi, DWORD PTR [edx+4]
  0001b	89 70 04	 mov	 DWORD PTR [eax+4], esi

; 1198 : 
; 1199 : 		if (_Wherenode == _Root())

  0001e	8b 49 04	 mov	 ecx, DWORD PTR [ecx+4]
  00021	3b 51 04	 cmp	 edx, DWORD PTR [ecx+4]
  00024	5e		 pop	 esi
  00025	75 0b		 jne	 SHORT $LN4@Lrotate

; 1200 : 			_Root() = _Pnode;

  00027	89 41 04	 mov	 DWORD PTR [ecx+4], eax

; 1205 : 
; 1206 : 		_Left(_Pnode) = _Wherenode;

  0002a	89 10		 mov	 DWORD PTR [eax], edx

; 1207 : 		_Parent(_Wherenode) = _Pnode;

  0002c	89 42 04	 mov	 DWORD PTR [edx+4], eax

; 1208 : 		}

  0002f	c2 04 00	 ret	 4
$LN4@Lrotate:

; 1201 : 		else if (_Wherenode == _Left(_Parent(_Wherenode)))

  00032	8b 4a 04	 mov	 ecx, DWORD PTR [edx+4]
  00035	3b 11		 cmp	 edx, DWORD PTR [ecx]
  00037	75 0a		 jne	 SHORT $LN2@Lrotate

; 1202 : 			_Left(_Parent(_Wherenode)) = _Pnode;

  00039	89 01		 mov	 DWORD PTR [ecx], eax

; 1205 : 
; 1206 : 		_Left(_Pnode) = _Wherenode;

  0003b	89 10		 mov	 DWORD PTR [eax], edx

; 1207 : 		_Parent(_Wherenode) = _Pnode;

  0003d	89 42 04	 mov	 DWORD PTR [edx+4], eax

; 1208 : 		}

  00040	c2 04 00	 ret	 4
$LN2@Lrotate:

; 1203 : 		else
; 1204 : 			_Right(_Parent(_Wherenode)) = _Pnode;

  00043	89 41 08	 mov	 DWORD PTR [ecx+8], eax

; 1205 : 
; 1206 : 		_Left(_Pnode) = _Wherenode;

  00046	89 10		 mov	 DWORD PTR [eax], edx

; 1207 : 		_Parent(_Wherenode) = _Pnode;

  00048	89 42 04	 mov	 DWORD PTR [edx+4], eax

; 1208 : 		}

  0004b	c2 04 00	 ret	 4
?_Lrotate@?$_Tree@V?$_Tmap_traits@V?$basic_string@DU?$char_traits@D@std@@V?$allocator@D@2@@std@@V12@U?$less@V?$basic_string@DU?$char_traits@D@std@@V?$allocator@D@2@@std@@@2@V?$allocator@U?$pair@$$CBV?$basic_string@DU?$char_traits@D@std@@V?$allocator@D@2@@std@@V12@@std@@@2@$0A@@std@@@std@@IAEXPAU_Node@?$_Tree_nod@V?$_Tmap_traits@V?$basic_string@DU?$char_traits@D@std@@V?$allocator@D@2@@std@@V12@U?$less@V?$basic_string@DU?$char_traits@D@std@@V?$allocator@D@2@@std@@@2@V?$allocator@U?$pair@$$CBV?$basic_string@DU?$char_traits@D@std@@V?$allocator@D@2@@std@@V12@@std@@@2@$0A@@std@@@2@@Z ENDP ; std::_Tree<std::_Tmap_traits<std::basic_string<char,std::char_traits<char>,std::allocator<char> >,std::basic_string<char,std::char_traits<char>,std::allocator<char> >,std::less<std::basic_string<char,std::char_traits<char>,std::allocator<char> > >,std::allocator<std::pair<std::basic_string<char,std::char_traits<char>,std::allocator<char> > const ,std::basic_string<char,std::char_traits<char>,std::allocator<char> > > >,0> >::_Lrotate
_TEXT	ENDS
PUBLIC	?_Max@?$_Tree@V?$_Tmap_traits@V?$basic_string@DU?$char_traits@D@std@@V?$allocator@D@2@@std@@V12@U?$less@V?$basic_string@DU?$char_traits@D@std@@V?$allocator@D@2@@std@@@2@V?$allocator@U?$pair@$$CBV?$basic_string@DU?$char_traits@D@std@@V?$allocator@D@2@@std@@V12@@std@@@2@$0A@@std@@@std@@KAPAU_Node@?$_Tree_nod@V?$_Tmap_traits@V?$basic_string@DU?$char_traits@D@std@@V?$allocator@D@2@@std@@V12@U?$less@V?$basic_string@DU?$char_traits@D@std@@V?$allocator@D@2@@std@@@2@V?$allocator@U?$pair@$$CBV?$basic_string@DU?$char_traits@D@std@@V?$allocator@D@2@@std@@V12@@std@@@2@$0A@@std@@@2@PAU342@@Z ; std::_Tree<std::_Tmap_traits<std::basic_string<char,std::char_traits<char>,std::allocator<char> >,std::basic_string<char,std::char_traits<char>,std::allocator<char> >,std::less<std::basic_string<char,std::char_traits<char>,std::allocator<char> > >,std::allocator<std::pair<std::basic_string<char,std::char_traits<char>,std::allocator<char> > const ,std::basic_string<char,std::char_traits<char>,std::allocator<char> > > >,0> >::_Max
; Function compile flags: /Ogtpy
;	COMDAT ?_Max@?$_Tree@V?$_Tmap_traits@V?$basic_string@DU?$char_traits@D@std@@V?$allocator@D@2@@std@@V12@U?$less@V?$basic_string@DU?$char_traits@D@std@@V?$allocator@D@2@@std@@@2@V?$allocator@U?$pair@$$CBV?$basic_string@DU?$char_traits@D@std@@V?$allocator@D@2@@std@@V12@@std@@@2@$0A@@std@@@std@@KAPAU_Node@?$_Tree_nod@V?$_Tmap_traits@V?$basic_string@DU?$char_traits@D@std@@V?$allocator@D@2@@std@@V12@U?$less@V?$basic_string@DU?$char_traits@D@std@@V?$allocator@D@2@@std@@@2@V?$allocator@U?$pair@$$CBV?$basic_string@DU?$char_traits@D@std@@V?$allocator@D@2@@std@@V12@@std@@@2@$0A@@std@@@2@PAU342@@Z
_TEXT	SEGMENT
__Pnode$ = 8						; size = 4
?_Max@?$_Tree@V?$_Tmap_traits@V?$basic_string@DU?$char_traits@D@std@@V?$allocator@D@2@@std@@V12@U?$less@V?$basic_string@DU?$char_traits@D@std@@V?$allocator@D@2@@std@@@2@V?$allocator@U?$pair@$$CBV?$basic_string@DU?$char_traits@D@std@@V?$allocator@D@2@@std@@V12@@std@@@2@$0A@@std@@@std@@KAPAU_Node@?$_Tree_nod@V?$_Tmap_traits@V?$basic_string@DU?$char_traits@D@std@@V?$allocator@D@2@@std@@V12@U?$less@V?$basic_string@DU?$char_traits@D@std@@V?$allocator@D@2@@std@@@2@V?$allocator@U?$pair@$$CBV?$basic_string@DU?$char_traits@D@std@@V?$allocator@D@2@@std@@V12@@std@@@2@$0A@@std@@@2@PAU342@@Z PROC ; std::_Tree<std::_Tmap_traits<std::basic_string<char,std::char_traits<char>,std::allocator<char> >,std::basic_string<char,std::char_traits<char>,std::allocator<char> >,std::less<std::basic_string<char,std::char_traits<char>,std::allocator<char> > >,std::allocator<std::pair<std::basic_string<char,std::char_traits<char>,std::allocator<char> > const ,std::basic_string<char,std::char_traits<char>,std::allocator<char> > > >,0> >::_Max, COMDAT

; 1212 : 		while (!_Isnil(_Right(_Pnode)))

  00000	8b 44 24 04	 mov	 eax, DWORD PTR __Pnode$[esp-4]
  00004	8b 48 08	 mov	 ecx, DWORD PTR [eax+8]
  00007	80 79 45 00	 cmp	 BYTE PTR [ecx+69], 0
  0000b	75 0e		 jne	 SHORT $LN1@Max
  0000d	8d 49 00	 npad	 3
$LL2@Max:

; 1213 : 			_Pnode = _Right(_Pnode);

  00010	8b c1		 mov	 eax, ecx
  00012	8b 48 08	 mov	 ecx, DWORD PTR [eax+8]
  00015	80 79 45 00	 cmp	 BYTE PTR [ecx+69], 0
  00019	74 f5		 je	 SHORT $LL2@Max
$LN1@Max:

; 1214 : 		return (_Pnode);
; 1215 : 		}

  0001b	c3		 ret	 0
?_Max@?$_Tree@V?$_Tmap_traits@V?$basic_string@DU?$char_traits@D@std@@V?$allocator@D@2@@std@@V12@U?$less@V?$basic_string@DU?$char_traits@D@std@@V?$allocator@D@2@@std@@@2@V?$allocator@U?$pair@$$CBV?$basic_string@DU?$char_traits@D@std@@V?$allocator@D@2@@std@@V12@@std@@@2@$0A@@std@@@std@@KAPAU_Node@?$_Tree_nod@V?$_Tmap_traits@V?$basic_string@DU?$char_traits@D@std@@V?$allocator@D@2@@std@@V12@U?$less@V?$basic_string@DU?$char_traits@D@std@@V?$allocator@D@2@@std@@@2@V?$allocator@U?$pair@$$CBV?$basic_string@DU?$char_traits@D@std@@V?$allocator@D@2@@std@@V12@@std@@@2@$0A@@std@@@2@PAU342@@Z ENDP ; std::_Tree<std::_Tmap_traits<std::basic_string<char,std::char_traits<char>,std::allocator<char> >,std::basic_string<char,std::char_traits<char>,std::allocator<char> >,std::less<std::basic_string<char,std::char_traits<char>,std::allocator<char> > >,std::allocator<std::pair<std::basic_string<char,std::char_traits<char>,std::allocator<char> > const ,std::basic_string<char,std::char_traits<char>,std::allocator<char> > > >,0> >::_Max
_TEXT	ENDS
PUBLIC	?_Min@?$_Tree@V?$_Tmap_traits@V?$basic_string@DU?$char_traits@D@std@@V?$allocator@D@2@@std@@V12@U?$less@V?$basic_string@DU?$char_traits@D@std@@V?$allocator@D@2@@std@@@2@V?$allocator@U?$pair@$$CBV?$basic_string@DU?$char_traits@D@std@@V?$allocator@D@2@@std@@V12@@std@@@2@$0A@@std@@@std@@KAPAU_Node@?$_Tree_nod@V?$_Tmap_traits@V?$basic_string@DU?$char_traits@D@std@@V?$allocator@D@2@@std@@V12@U?$less@V?$basic_string@DU?$char_traits@D@std@@V?$allocator@D@2@@std@@@2@V?$allocator@U?$pair@$$CBV?$basic_string@DU?$char_traits@D@std@@V?$allocator@D@2@@std@@V12@@std@@@2@$0A@@std@@@2@PAU342@@Z ; std::_Tree<std::_Tmap_traits<std::basic_string<char,std::char_traits<char>,std::allocator<char> >,std::basic_string<char,std::char_traits<char>,std::allocator<char> >,std::less<std::basic_string<char,std::char_traits<char>,std::allocator<char> > >,std::allocator<std::pair<std::basic_string<char,std::char_traits<char>,std::allocator<char> > const ,std::basic_string<char,std::char_traits<char>,std::allocator<char> > > >,0> >::_Min
; Function compile flags: /Ogtpy
;	COMDAT ?_Min@?$_Tree@V?$_Tmap_traits@V?$basic_string@DU?$char_traits@D@std@@V?$allocator@D@2@@std@@V12@U?$less@V?$basic_string@DU?$char_traits@D@std@@V?$allocator@D@2@@std@@@2@V?$allocator@U?$pair@$$CBV?$basic_string@DU?$char_traits@D@std@@V?$allocator@D@2@@std@@V12@@std@@@2@$0A@@std@@@std@@KAPAU_Node@?$_Tree_nod@V?$_Tmap_traits@V?$basic_string@DU?$char_traits@D@std@@V?$allocator@D@2@@std@@V12@U?$less@V?$basic_string@DU?$char_traits@D@std@@V?$allocator@D@2@@std@@@2@V?$allocator@U?$pair@$$CBV?$basic_string@DU?$char_traits@D@std@@V?$allocator@D@2@@std@@V12@@std@@@2@$0A@@std@@@2@PAU342@@Z
_TEXT	SEGMENT
__Pnode$ = 8						; size = 4
?_Min@?$_Tree@V?$_Tmap_traits@V?$basic_string@DU?$char_traits@D@std@@V?$allocator@D@2@@std@@V12@U?$less@V?$basic_string@DU?$char_traits@D@std@@V?$allocator@D@2@@std@@@2@V?$allocator@U?$pair@$$CBV?$basic_string@DU?$char_traits@D@std@@V?$allocator@D@2@@std@@V12@@std@@@2@$0A@@std@@@std@@KAPAU_Node@?$_Tree_nod@V?$_Tmap_traits@V?$basic_string@DU?$char_traits@D@std@@V?$allocator@D@2@@std@@V12@U?$less@V?$basic_string@DU?$char_traits@D@std@@V?$allocator@D@2@@std@@@2@V?$allocator@U?$pair@$$CBV?$basic_string@DU?$char_traits@D@std@@V?$allocator@D@2@@std@@V12@@std@@@2@$0A@@std@@@2@PAU342@@Z PROC ; std::_Tree<std::_Tmap_traits<std::basic_string<char,std::char_traits<char>,std::allocator<char> >,std::basic_string<char,std::char_traits<char>,std::allocator<char> >,std::less<std::basic_string<char,std::char_traits<char>,std::allocator<char> > >,std::allocator<std::pair<std::basic_string<char,std::char_traits<char>,std::allocator<char> > const ,std::basic_string<char,std::char_traits<char>,std::allocator<char> > > >,0> >::_Min, COMDAT

; 1219 : 		while (!_Isnil(_Left(_Pnode)))

  00000	8b 44 24 04	 mov	 eax, DWORD PTR __Pnode$[esp-4]
  00004	8b 08		 mov	 ecx, DWORD PTR [eax]
  00006	80 79 45 00	 cmp	 BYTE PTR [ecx+69], 0
  0000a	75 0e		 jne	 SHORT $LN1@Min
  0000c	8d 64 24 00	 npad	 4
$LL2@Min:

; 1220 : 			_Pnode = _Left(_Pnode);

  00010	8b c1		 mov	 eax, ecx
  00012	8b 08		 mov	 ecx, DWORD PTR [eax]
  00014	80 79 45 00	 cmp	 BYTE PTR [ecx+69], 0
  00018	74 f6		 je	 SHORT $LL2@Min
$LN1@Min:

; 1221 : 		return (_Pnode);
; 1222 : 		}

  0001a	c3		 ret	 0
?_Min@?$_Tree@V?$_Tmap_traits@V?$basic_string@DU?$char_traits@D@std@@V?$allocator@D@2@@std@@V12@U?$less@V?$basic_string@DU?$char_traits@D@std@@V?$allocator@D@2@@std@@@2@V?$allocator@U?$pair@$$CBV?$basic_string@DU?$char_traits@D@std@@V?$allocator@D@2@@std@@V12@@std@@@2@$0A@@std@@@std@@KAPAU_Node@?$_Tree_nod@V?$_Tmap_traits@V?$basic_string@DU?$char_traits@D@std@@V?$allocator@D@2@@std@@V12@U?$less@V?$basic_string@DU?$char_traits@D@std@@V?$allocator@D@2@@std@@@2@V?$allocator@U?$pair@$$CBV?$basic_string@DU?$char_traits@D@std@@V?$allocator@D@2@@std@@V12@@std@@@2@$0A@@std@@@2@PAU342@@Z ENDP ; std::_Tree<std::_Tmap_traits<std::basic_string<char,std::char_traits<char>,std::allocator<char> >,std::basic_string<char,std::char_traits<char>,std::allocator<char> >,std::less<std::basic_string<char,std::char_traits<char>,std::allocator<char> > >,std::allocator<std::pair<std::basic_string<char,std::char_traits<char>,std::allocator<char> > const ,std::basic_string<char,std::char_traits<char>,std::allocator<char> > > >,0> >::_Min
_TEXT	ENDS
PUBLIC	?_Rrotate@?$_Tree@V?$_Tmap_traits@V?$basic_string@DU?$char_traits@D@std@@V?$allocator@D@2@@std@@V12@U?$less@V?$basic_string@DU?$char_traits@D@std@@V?$allocator@D@2@@std@@@2@V?$allocator@U?$pair@$$CBV?$basic_string@DU?$char_traits@D@std@@V?$allocator@D@2@@std@@V12@@std@@@2@$0A@@std@@@std@@IAEXPAU_Node@?$_Tree_nod@V?$_Tmap_traits@V?$basic_string@DU?$char_traits@D@std@@V?$allocator@D@2@@std@@V12@U?$less@V?$basic_string@DU?$char_traits@D@std@@V?$allocator@D@2@@std@@@2@V?$allocator@U?$pair@$$CBV?$basic_string@DU?$char_traits@D@std@@V?$allocator@D@2@@std@@V12@@std@@@2@$0A@@std@@@2@@Z ; std::_Tree<std::_Tmap_traits<std::basic_string<char,std::char_traits<char>,std::allocator<char> >,std::basic_string<char,std::char_traits<char>,std::allocator<char> >,std::less<std::basic_string<char,std::char_traits<char>,std::allocator<char> > >,std::allocator<std::pair<std::basic_string<char,std::char_traits<char>,std::allocator<char> > const ,std::basic_string<char,std::char_traits<char>,std::allocator<char> > > >,0> >::_Rrotate
; Function compile flags: /Ogtpy
;	COMDAT ?_Rrotate@?$_Tree@V?$_Tmap_traits@V?$basic_string@DU?$char_traits@D@std@@V?$allocator@D@2@@std@@V12@U?$less@V?$basic_string@DU?$char_traits@D@std@@V?$allocator@D@2@@std@@@2@V?$allocator@U?$pair@$$CBV?$basic_string@DU?$char_traits@D@std@@V?$allocator@D@2@@std@@V12@@std@@@2@$0A@@std@@@std@@IAEXPAU_Node@?$_Tree_nod@V?$_Tmap_traits@V?$basic_string@DU?$char_traits@D@std@@V?$allocator@D@2@@std@@V12@U?$less@V?$basic_string@DU?$char_traits@D@std@@V?$allocator@D@2@@std@@@2@V?$allocator@U?$pair@$$CBV?$basic_string@DU?$char_traits@D@std@@V?$allocator@D@2@@std@@V12@@std@@@2@$0A@@std@@@2@@Z
_TEXT	SEGMENT
__Wherenode$ = 8					; size = 4
?_Rrotate@?$_Tree@V?$_Tmap_traits@V?$basic_string@DU?$char_traits@D@std@@V?$allocator@D@2@@std@@V12@U?$less@V?$basic_string@DU?$char_traits@D@std@@V?$allocator@D@2@@std@@@2@V?$allocator@U?$pair@$$CBV?$basic_string@DU?$char_traits@D@std@@V?$allocator@D@2@@std@@V12@@std@@@2@$0A@@std@@@std@@IAEXPAU_Node@?$_Tree_nod@V?$_Tmap_traits@V?$basic_string@DU?$char_traits@D@std@@V?$allocator@D@2@@std@@V12@U?$less@V?$basic_string@DU?$char_traits@D@std@@V?$allocator@D@2@@std@@@2@V?$allocator@U?$pair@$$CBV?$basic_string@DU?$char_traits@D@std@@V?$allocator@D@2@@std@@V12@@std@@@2@$0A@@std@@@2@@Z PROC ; std::_Tree<std::_Tmap_traits<std::basic_string<char,std::char_traits<char>,std::allocator<char> >,std::basic_string<char,std::char_traits<char>,std::allocator<char> >,std::less<std::basic_string<char,std::char_traits<char>,std::allocator<char> > >,std::allocator<std::pair<std::basic_string<char,std::char_traits<char>,std::allocator<char> > const ,std::basic_string<char,std::char_traits<char>,std::allocator<char> > > >,0> >::_Rrotate, COMDAT
; _this$ = ecx

; 1236 : 		_Nodeptr _Pnode = _Left(_Wherenode);

  00000	8b 54 24 04	 mov	 edx, DWORD PTR __Wherenode$[esp-4]
  00004	8b 02		 mov	 eax, DWORD PTR [edx]
  00006	56		 push	 esi

; 1237 : 		_Left(_Wherenode) = _Right(_Pnode);

  00007	8b 70 08	 mov	 esi, DWORD PTR [eax+8]
  0000a	89 32		 mov	 DWORD PTR [edx], esi

; 1238 : 
; 1239 : 		if (!_Isnil(_Right(_Pnode)))

  0000c	8b 70 08	 mov	 esi, DWORD PTR [eax+8]
  0000f	80 7e 45 00	 cmp	 BYTE PTR [esi+69], 0
  00013	75 03		 jne	 SHORT $LN5@Rrotate

; 1240 : 			_Parent(_Right(_Pnode)) = _Wherenode;

  00015	89 56 04	 mov	 DWORD PTR [esi+4], edx
$LN5@Rrotate:

; 1241 : 		_Parent(_Pnode) = _Parent(_Wherenode);

  00018	8b 72 04	 mov	 esi, DWORD PTR [edx+4]
  0001b	89 70 04	 mov	 DWORD PTR [eax+4], esi

; 1242 : 
; 1243 : 		if (_Wherenode == _Root())

  0001e	8b 49 04	 mov	 ecx, DWORD PTR [ecx+4]
  00021	3b 51 04	 cmp	 edx, DWORD PTR [ecx+4]
  00024	5e		 pop	 esi
  00025	75 0c		 jne	 SHORT $LN4@Rrotate

; 1244 : 			_Root() = _Pnode;

  00027	89 41 04	 mov	 DWORD PTR [ecx+4], eax

; 1249 : 
; 1250 : 		_Right(_Pnode) = _Wherenode;

  0002a	89 50 08	 mov	 DWORD PTR [eax+8], edx

; 1251 : 		_Parent(_Wherenode) = _Pnode;

  0002d	89 42 04	 mov	 DWORD PTR [edx+4], eax

; 1252 : 		}

  00030	c2 04 00	 ret	 4
$LN4@Rrotate:

; 1245 : 		else if (_Wherenode == _Right(_Parent(_Wherenode)))

  00033	8b 4a 04	 mov	 ecx, DWORD PTR [edx+4]
  00036	3b 51 08	 cmp	 edx, DWORD PTR [ecx+8]
  00039	75 0c		 jne	 SHORT $LN2@Rrotate

; 1246 : 			_Right(_Parent(_Wherenode)) = _Pnode;

  0003b	89 41 08	 mov	 DWORD PTR [ecx+8], eax

; 1249 : 
; 1250 : 		_Right(_Pnode) = _Wherenode;

  0003e	89 50 08	 mov	 DWORD PTR [eax+8], edx

; 1251 : 		_Parent(_Wherenode) = _Pnode;

  00041	89 42 04	 mov	 DWORD PTR [edx+4], eax

; 1252 : 		}

  00044	c2 04 00	 ret	 4
$LN2@Rrotate:

; 1247 : 		else
; 1248 : 			_Left(_Parent(_Wherenode)) = _Pnode;

  00047	89 01		 mov	 DWORD PTR [ecx], eax

; 1249 : 
; 1250 : 		_Right(_Pnode) = _Wherenode;

  00049	89 50 08	 mov	 DWORD PTR [eax+8], edx

; 1251 : 		_Parent(_Wherenode) = _Pnode;

  0004c	89 42 04	 mov	 DWORD PTR [edx+4], eax

; 1252 : 		}

  0004f	c2 04 00	 ret	 4
?_Rrotate@?$_Tree@V?$_Tmap_traits@V?$basic_string@DU?$char_traits@D@std@@V?$allocator@D@2@@std@@V12@U?$less@V?$basic_string@DU?$char_traits@D@std@@V?$allocator@D@2@@std@@@2@V?$allocator@U?$pair@$$CBV?$basic_string@DU?$char_traits@D@std@@V?$allocator@D@2@@std@@V12@@std@@@2@$0A@@std@@@std@@IAEXPAU_Node@?$_Tree_nod@V?$_Tmap_traits@V?$basic_string@DU?$char_traits@D@std@@V?$allocator@D@2@@std@@V12@U?$less@V?$basic_string@DU?$char_traits@D@std@@V?$allocator@D@2@@std@@@2@V?$allocator@U?$pair@$$CBV?$basic_string@DU?$char_traits@D@std@@V?$allocator@D@2@@std@@V12@@std@@@2@$0A@@std@@@2@@Z ENDP ; std::_Tree<std::_Tmap_traits<std::basic_string<char,std::char_traits<char>,std::allocator<char> >,std::basic_string<char,std::char_traits<char>,std::allocator<char> >,std::less<std::basic_string<char,std::char_traits<char>,std::allocator<char> > >,std::allocator<std::pair<std::basic_string<char,std::char_traits<char>,std::allocator<char> > const ,std::basic_string<char,std::char_traits<char>,std::allocator<char> > > >,0> >::_Rrotate
_TEXT	ENDS
PUBLIC	?_Mynode@const_iterator@?$_Tree@V?$_Tmap_traits@V?$basic_string@DU?$char_traits@D@std@@V?$allocator@D@2@@std@@V12@U?$less@V?$basic_string@DU?$char_traits@D@std@@V?$allocator@D@2@@std@@@2@V?$allocator@U?$pair@$$CBV?$basic_string@DU?$char_traits@D@std@@V?$allocator@D@2@@std@@V12@@std@@@2@$0A@@std@@@std@@QBEPAU_Node@?$_Tree_nod@V?$_Tmap_traits@V?$basic_string@DU?$char_traits@D@std@@V?$allocator@D@2@@std@@V12@U?$less@V?$basic_string@DU?$char_traits@D@std@@V?$allocator@D@2@@std@@@2@V?$allocator@U?$pair@$$CBV?$basic_string@DU?$char_traits@D@std@@V?$allocator@D@2@@std@@V12@@std@@@2@$0A@@std@@@3@XZ ; std::_Tree<std::_Tmap_traits<std::basic_string<char,std::char_traits<char>,std::allocator<char> >,std::basic_string<char,std::char_traits<char>,std::allocator<char> >,std::less<std::basic_string<char,std::char_traits<char>,std::allocator<char> > >,std::allocator<std::pair<std::basic_string<char,std::char_traits<char>,std::allocator<char> > const ,std::basic_string<char,std::char_traits<char>,std::allocator<char> > > >,0> >::const_iterator::_Mynode
; Function compile flags: /Ogtpy
;	COMDAT ?_Mynode@const_iterator@?$_Tree@V?$_Tmap_traits@V?$basic_string@DU?$char_traits@D@std@@V?$allocator@D@2@@std@@V12@U?$less@V?$basic_string@DU?$char_traits@D@std@@V?$allocator@D@2@@std@@@2@V?$allocator@U?$pair@$$CBV?$basic_string@DU?$char_traits@D@std@@V?$allocator@D@2@@std@@V12@@std@@@2@$0A@@std@@@std@@QBEPAU_Node@?$_Tree_nod@V?$_Tmap_traits@V?$basic_string@DU?$char_traits@D@std@@V?$allocator@D@2@@std@@V12@U?$less@V?$basic_string@DU?$char_traits@D@std@@V?$allocator@D@2@@std@@@2@V?$allocator@U?$pair@$$CBV?$basic_string@DU?$char_traits@D@std@@V?$allocator@D@2@@std@@V12@@std@@@2@$0A@@std@@@3@XZ
_TEXT	SEGMENT
?_Mynode@const_iterator@?$_Tree@V?$_Tmap_traits@V?$basic_string@DU?$char_traits@D@std@@V?$allocator@D@2@@std@@V12@U?$less@V?$basic_string@DU?$char_traits@D@std@@V?$allocator@D@2@@std@@@2@V?$allocator@U?$pair@$$CBV?$basic_string@DU?$char_traits@D@std@@V?$allocator@D@2@@std@@V12@@std@@@2@$0A@@std@@@std@@QBEPAU_Node@?$_Tree_nod@V?$_Tmap_traits@V?$basic_string@DU?$char_traits@D@std@@V?$allocator@D@2@@std@@V12@U?$less@V?$basic_string@DU?$char_traits@D@std@@V?$allocator@D@2@@std@@@2@V?$allocator@U?$pair@$$CBV?$basic_string@DU?$char_traits@D@std@@V?$allocator@D@2@@std@@V12@@std@@@2@$0A@@std@@@3@XZ PROC ; std::_Tree<std::_Tmap_traits<std::basic_string<char,std::char_traits<char>,std::allocator<char> >,std::basic_string<char,std::char_traits<char>,std::allocator<char> >,std::less<std::basic_string<char,std::char_traits<char>,std::allocator<char> > >,std::allocator<std::pair<std::basic_string<char,std::char_traits<char>,std::allocator<char> > const ,std::basic_string<char,std::char_traits<char>,std::allocator<char> > > >,0> >::const_iterator::_Mynode, COMDAT
; _this$ = ecx

; 396  : 			return (_Ptr);

  00000	8b 41 04	 mov	 eax, DWORD PTR [ecx+4]

; 397  : 			}

  00003	c3		 ret	 0
?_Mynode@const_iterator@?$_Tree@V?$_Tmap_traits@V?$basic_string@DU?$char_traits@D@std@@V?$allocator@D@2@@std@@V12@U?$less@V?$basic_string@DU?$char_traits@D@std@@V?$allocator@D@2@@std@@@2@V?$allocator@U?$pair@$$CBV?$basic_string@DU?$char_traits@D@std@@V?$allocator@D@2@@std@@V12@@std@@@2@$0A@@std@@@std@@QBEPAU_Node@?$_Tree_nod@V?$_Tmap_traits@V?$basic_string@DU?$char_traits@D@std@@V?$allocator@D@2@@std@@V12@U?$less@V?$basic_string@DU?$char_traits@D@std@@V?$allocator@D@2@@std@@@2@V?$allocator@U?$pair@$$CBV?$basic_string@DU?$char_traits@D@std@@V?$allocator@D@2@@std@@V12@@std@@@2@$0A@@std@@@3@XZ ENDP ; std::_Tree<std::_Tmap_traits<std::basic_string<char,std::char_traits<char>,std::allocator<char> >,std::basic_string<char,std::char_traits<char>,std::allocator<char> >,std::less<std::basic_string<char,std::char_traits<char>,std::allocator<char> > >,std::allocator<std::pair<std::basic_string<char,std::char_traits<char>,std::allocator<char> > const ,std::basic_string<char,std::char_traits<char>,std::allocator<char> > > >,0> >::const_iterator::_Mynode
_TEXT	ENDS
PUBLIC	??0?$_Bidit@U?$pair@$$CBV?$basic_string@DU?$char_traits@D@std@@V?$allocator@D@2@@std@@V12@@std@@HPBU12@ABU12@@std@@QAE@XZ ; std::_Bidit<std::pair<std::basic_string<char,std::char_traits<char>,std::allocator<char> > const ,std::basic_string<char,std::char_traits<char>,std::allocator<char> > >,int,std::pair<std::basic_string<char,std::char_traits<char>,std::allocator<char> > const ,std::basic_string<char,std::char_traits<char>,std::allocator<char> > > const *,std::pair<std::basic_string<char,std::char_traits<char>,std::allocator<char> > const ,std::basic_string<char,std::char_traits<char>,std::allocator<char> > > const &>::_Bidit<std::pair<std::basic_string<char,std::char_traits<char>,std::allocator<char> > const ,std::basic_string<char,std::char_traits<char>,std::allocator<char> > >,int,std::pair<std::basic_string<char,std::char_traits<char>,std::allocator<char> > const ,std::basic_string<char,std::char_traits<char>,std::allocator<char> > > const *,std::pair<std::basic_string<char,std::char_traits<char>,std::allocator<char> > const ,std::basic_string<char,std::char_traits<char>,std::allocator<char> > > const &>
; Function compile flags: /Ogtpy
;	COMDAT ??0?$_Bidit@U?$pair@$$CBV?$basic_string@DU?$char_traits@D@std@@V?$allocator@D@2@@std@@V12@@std@@HPBU12@ABU12@@std@@QAE@XZ
_TEXT	SEGMENT
??0?$_Bidit@U?$pair@$$CBV?$basic_string@DU?$char_traits@D@std@@V?$allocator@D@2@@std@@V12@@std@@HPBU12@ABU12@@std@@QAE@XZ PROC ; std::_Bidit<std::pair<std::basic_string<char,std::char_traits<char>,std::allocator<char> > const ,std::basic_string<char,std::char_traits<char>,std::allocator<char> > >,int,std::pair<std::basic_string<char,std::char_traits<char>,std::allocator<char> > const ,std::basic_string<char,std::char_traits<char>,std::allocator<char> > > const *,std::pair<std::basic_string<char,std::char_traits<char>,std::allocator<char> > const ,std::basic_string<char,std::char_traits<char>,std::allocator<char> > > const &>::_Bidit<std::pair<std::basic_string<char,std::char_traits<char>,std::allocator<char> > const ,std::basic_string<char,std::char_traits<char>,std::allocator<char> > >,int,std::pair<std::basic_string<char,std::char_traits<char>,std::allocator<char> > const ,std::basic_string<char,std::char_traits<char>,std::allocator<char> > > const *,std::pair<std::basic_string<char,std::char_traits<char>,std::allocator<char> > const ,std::basic_string<char,std::char_traits<char>,std::allocator<char> > > const &>, COMDAT
; _this$ = ecx
  00000	8b c1		 mov	 eax, ecx
  00002	c7 00 00 00 00
	00		 mov	 DWORD PTR [eax], 0
  00008	c3		 ret	 0
??0?$_Bidit@U?$pair@$$CBV?$basic_string@DU?$char_traits@D@std@@V?$allocator@D@2@@std@@V12@@std@@HPBU12@ABU12@@std@@QAE@XZ ENDP ; std::_Bidit<std::pair<std::basic_string<char,std::char_traits<char>,std::allocator<char> > const ,std::basic_string<char,std::char_traits<char>,std::allocator<char> > >,int,std::pair<std::basic_string<char,std::char_traits<char>,std::allocator<char> > const ,std::basic_string<char,std::char_traits<char>,std::allocator<char> > > const *,std::pair<std::basic_string<char,std::char_traits<char>,std::allocator<char> > const ,std::basic_string<char,std::char_traits<char>,std::allocator<char> > > const &>::_Bidit<std::pair<std::basic_string<char,std::char_traits<char>,std::allocator<char> > const ,std::basic_string<char,std::char_traits<char>,std::allocator<char> > >,int,std::pair<std::basic_string<char,std::char_traits<char>,std::allocator<char> > const ,std::basic_string<char,std::char_traits<char>,std::allocator<char> > > const *,std::pair<std::basic_string<char,std::char_traits<char>,std::allocator<char> > const ,std::basic_string<char,std::char_traits<char>,std::allocator<char> > > const &>
_TEXT	ENDS
PUBLIC	??0?$_Tmap_traits@V?$basic_string@DU?$char_traits@D@std@@V?$allocator@D@2@@std@@V12@U?$less@V?$basic_string@DU?$char_traits@D@std@@V?$allocator@D@2@@std@@@2@V?$allocator@U?$pair@$$CBV?$basic_string@DU?$char_traits@D@std@@V?$allocator@D@2@@std@@V12@@std@@@2@$0A@@std@@QAE@U?$less@V?$basic_string@DU?$char_traits@D@std@@V?$allocator@D@2@@std@@@1@@Z ; std::_Tmap_traits<std::basic_string<char,std::char_traits<char>,std::allocator<char> >,std::basic_string<char,std::char_traits<char>,std::allocator<char> >,std::less<std::basic_string<char,std::char_traits<char>,std::allocator<char> > >,std::allocator<std::pair<std::basic_string<char,std::char_traits<char>,std::allocator<char> > const ,std::basic_string<char,std::char_traits<char>,std::allocator<char> > > >,0>::_Tmap_traits<std::basic_string<char,std::char_traits<char>,std::allocator<char> >,std::basic_string<char,std::char_traits<char>,std::allocator<char> >,std::less<std::basic_string<char,std::char_traits<char>,std::allocator<char> > >,std::allocator<std::pair<std::basic_string<char,std::char_traits<char>,std::allocator<char> > const ,std::basic_string<char,std::char_traits<char>,std::allocator<char> > > >,0>
; Function compile flags: /Ogtpy
; File d:\program files\microsoft visual studio 8\vc\include\map
;	COMDAT ??0?$_Tmap_traits@V?$basic_string@DU?$char_traits@D@std@@V?$allocator@D@2@@std@@V12@U?$less@V?$basic_string@DU?$char_traits@D@std@@V?$allocator@D@2@@std@@@2@V?$allocator@U?$pair@$$CBV?$basic_string@DU?$char_traits@D@std@@V?$allocator@D@2@@std@@V12@@std@@@2@$0A@@std@@QAE@U?$less@V?$basic_string@DU?$char_traits@D@std@@V?$allocator@D@2@@std@@@1@@Z
_TEXT	SEGMENT
__Parg$ = 8						; size = 1
??0?$_Tmap_traits@V?$basic_string@DU?$char_traits@D@std@@V?$allocator@D@2@@std@@V12@U?$less@V?$basic_string@DU?$char_traits@D@std@@V?$allocator@D@2@@std@@@2@V?$allocator@U?$pair@$$CBV?$basic_string@DU?$char_traits@D@std@@V?$allocator@D@2@@std@@V12@@std@@@2@$0A@@std@@QAE@U?$less@V?$basic_string@DU?$char_traits@D@std@@V?$allocator@D@2@@std@@@1@@Z PROC ; std::_Tmap_traits<std::basic_string<char,std::char_traits<char>,std::allocator<char> >,std::basic_string<char,std::char_traits<char>,std::allocator<char> >,std::less<std::basic_string<char,std::char_traits<char>,std::allocator<char> > >,std::allocator<std::pair<std::basic_string<char,std::char_traits<char>,std::allocator<char> > const ,std::basic_string<char,std::char_traits<char>,std::allocator<char> > > >,0>::_Tmap_traits<std::basic_string<char,std::char_traits<char>,std::allocator<char> >,std::basic_string<char,std::char_traits<char>,std::allocator<char> >,std::less<std::basic_string<char,std::char_traits<char>,std::allocator<char> > >,std::allocator<std::pair<std::basic_string<char,std::char_traits<char>,std::allocator<char> > const ,std::basic_string<char,std::char_traits<char>,std::allocator<char> > > >,0>, COMDAT
; _this$ = ecx

; 43   : 		{	// construct with specified comparator

  00000	8b c1		 mov	 eax, ecx

; 44   : 		}

  00002	c2 04 00	 ret	 4
??0?$_Tmap_traits@V?$basic_string@DU?$char_traits@D@std@@V?$allocator@D@2@@std@@V12@U?$less@V?$basic_string@DU?$char_traits@D@std@@V?$allocator@D@2@@std@@@2@V?$allocator@U?$pair@$$CBV?$basic_string@DU?$char_traits@D@std@@V?$allocator@D@2@@std@@V12@@std@@@2@$0A@@std@@QAE@U?$less@V?$basic_string@DU?$char_traits@D@std@@V?$allocator@D@2@@std@@@1@@Z ENDP ; std::_Tmap_traits<std::basic_string<char,std::char_traits<char>,std::allocator<char> >,std::basic_string<char,std::char_traits<char>,std::allocator<char> >,std::less<std::basic_string<char,std::char_traits<char>,std::allocator<char> > >,std::allocator<std::pair<std::basic_string<char,std::char_traits<char>,std::allocator<char> > const ,std::basic_string<char,std::char_traits<char>,std::allocator<char> > > >,0>::_Tmap_traits<std::basic_string<char,std::char_traits<char>,std::allocator<char> >,std::basic_string<char,std::char_traits<char>,std::allocator<char> >,std::less<std::basic_string<char,std::char_traits<char>,std::allocator<char> > >,std::allocator<std::pair<std::basic_string<char,std::char_traits<char>,std::allocator<char> > const ,std::basic_string<char,std::char_traits<char>,std::allocator<char> > > >,0>
_TEXT	ENDS
PUBLIC	?_Inc@const_iterator@?$_Tree@V?$_Tmap_traits@V?$basic_string@DU?$char_traits@D@std@@V?$allocator@D@2@@std@@V12@U?$less@V?$basic_string@DU?$char_traits@D@std@@V?$allocator@D@2@@std@@@2@V?$allocator@U?$pair@$$CBV?$basic_string@DU?$char_traits@D@std@@V?$allocator@D@2@@std@@V12@@std@@@2@$0A@@std@@@std@@QAEXXZ ; std::_Tree<std::_Tmap_traits<std::basic_string<char,std::char_traits<char>,std::allocator<char> >,std::basic_string<char,std::char_traits<char>,std::allocator<char> >,std::less<std::basic_string<char,std::char_traits<char>,std::allocator<char> > >,std::allocator<std::pair<std::basic_string<char,std::char_traits<char>,std::allocator<char> > const ,std::basic_string<char,std::char_traits<char>,std::allocator<char> > > >,0> >::const_iterator::_Inc
; Function compile flags: /Ogtpy
; File d:\program files\microsoft visual studio 8\vc\include\xtree
;	COMDAT ?_Inc@const_iterator@?$_Tree@V?$_Tmap_traits@V?$basic_string@DU?$char_traits@D@std@@V?$allocator@D@2@@std@@V12@U?$less@V?$basic_string@DU?$char_traits@D@std@@V?$allocator@D@2@@std@@@2@V?$allocator@U?$pair@$$CBV?$basic_string@DU?$char_traits@D@std@@V?$allocator@D@2@@std@@V12@@std@@@2@$0A@@std@@@std@@QAEXXZ
_TEXT	SEGMENT
?_Inc@const_iterator@?$_Tree@V?$_Tmap_traits@V?$basic_string@DU?$char_traits@D@std@@V?$allocator@D@2@@std@@V12@U?$less@V?$basic_string@DU?$char_traits@D@std@@V?$allocator@D@2@@std@@@2@V?$allocator@U?$pair@$$CBV?$basic_string@DU?$char_traits@D@std@@V?$allocator@D@2@@std@@V12@@std@@@2@$0A@@std@@@std@@QAEXXZ PROC ; std::_Tree<std::_Tmap_traits<std::basic_string<char,std::char_traits<char>,std::allocator<char> >,std::basic_string<char,std::char_traits<char>,std::allocator<char> >,std::less<std::basic_string<char,std::char_traits<char>,std::allocator<char> > >,std::allocator<std::pair<std::basic_string<char,std::char_traits<char>,std::allocator<char> > const ,std::basic_string<char,std::char_traits<char>,std::allocator<char> > > >,0> >::const_iterator::_Inc, COMDAT
; _this$ = ecx

; 365  : 			{	// move to node with next larger value

  00000	56		 push	 esi
  00001	8b f1		 mov	 esi, ecx

; 366  : 
; 367  :  #if _HAS_ITERATOR_DEBUGGING
; 368  : 			if (this->_Mycont == 0 || _Isnil(_Ptr))
; 369  : 				{
; 370  : 				_DEBUG_ERROR("map/set iterator not incrementable");
; 371  : 				_SCL_SECURE_OUT_OF_RANGE;
; 372  : 				}
; 373  :  #else
; 374  : 			_SCL_SECURE_VALIDATE(this->_Mycont != NULL);

  00003	83 3e 00	 cmp	 DWORD PTR [esi], 0
  00006	75 05		 jne	 SHORT $LN7@Inc
  00008	e8 00 00 00 00	 call	 __invalid_parameter_noinfo
$LN7@Inc:

; 375  : 			if (_Isnil(_Ptr))

  0000d	8b 46 04	 mov	 eax, DWORD PTR [esi+4]
  00010	80 78 45 00	 cmp	 BYTE PTR [eax+69], 0
  00014	74 06		 je	 SHORT $LN6@Inc
  00016	5e		 pop	 esi

; 376  : 				{
; 377  : 				_SCL_SECURE_OUT_OF_RANGE;

  00017	e9 00 00 00 00	 jmp	 __invalid_parameter_noinfo
$LN6@Inc:

; 378  : 				// end() shouldn't be incremented, don't move if _SCL_SECURE is not turned on
; 379  : 				}
; 380  :  #endif /* _HAS_ITERATOR_DEBUGGING */
; 381  : 
; 382  : 			else if (!_Isnil(_Right(_Ptr)))

  0001c	8b 48 08	 mov	 ecx, DWORD PTR [eax+8]
  0001f	80 79 45 00	 cmp	 BYTE PTR [ecx+69], 0
  00023	75 1a		 jne	 SHORT $LN35@Inc

; 383  : 				_Ptr = _Min(_Right(_Ptr));	// ==> smallest of right subtree

  00025	8b 01		 mov	 eax, DWORD PTR [ecx]
  00027	80 78 45 00	 cmp	 BYTE PTR [eax+69], 0
  0002b	75 0d		 jne	 SHORT $LN18@Inc
  0002d	8d 49 00	 npad	 3
$LL19@Inc:
  00030	8b c8		 mov	 ecx, eax
  00032	8b 01		 mov	 eax, DWORD PTR [ecx]
  00034	80 78 45 00	 cmp	 BYTE PTR [eax+69], 0
  00038	74 f6		 je	 SHORT $LL19@Inc
$LN18@Inc:
  0003a	89 4e 04	 mov	 DWORD PTR [esi+4], ecx
  0003d	5e		 pop	 esi

; 391  : 				}
; 392  : 			}

  0003e	c3		 ret	 0
$LN35@Inc:

; 384  : 			else
; 385  : 				{	// climb looking for right subtree
; 386  : 				_Nodeptr _Pnode;
; 387  : 				while (!_Isnil(_Pnode = _Parent(_Ptr))
; 388  : 					&& _Ptr == _Right(_Pnode))

  0003f	8b 40 04	 mov	 eax, DWORD PTR [eax+4]
  00042	80 78 45 00	 cmp	 BYTE PTR [eax+69], 0
  00046	75 16		 jne	 SHORT $LN1@Inc
$LL2@Inc:
  00048	8b 4e 04	 mov	 ecx, DWORD PTR [esi+4]
  0004b	3b 48 08	 cmp	 ecx, DWORD PTR [eax+8]
  0004e	75 0e		 jne	 SHORT $LN1@Inc

; 389  : 					_Ptr = _Pnode;	// ==> parent while right subtree

  00050	89 46 04	 mov	 DWORD PTR [esi+4], eax
  00053	8b d0		 mov	 edx, eax
  00055	8b 42 04	 mov	 eax, DWORD PTR [edx+4]
  00058	80 78 45 00	 cmp	 BYTE PTR [eax+69], 0
  0005c	74 ea		 je	 SHORT $LL2@Inc
$LN1@Inc:

; 390  : 				_Ptr = _Pnode;	// ==> parent (head if end())

  0005e	89 46 04	 mov	 DWORD PTR [esi+4], eax
  00061	5e		 pop	 esi

; 391  : 				}
; 392  : 			}

  00062	c3		 ret	 0
?_Inc@const_iterator@?$_Tree@V?$_Tmap_traits@V?$basic_string@DU?$char_traits@D@std@@V?$allocator@D@2@@std@@V12@U?$less@V?$basic_string@DU?$char_traits@D@std@@V?$allocator@D@2@@std@@@2@V?$allocator@U?$pair@$$CBV?$basic_string@DU?$char_traits@D@std@@V?$allocator@D@2@@std@@V12@@std@@@2@$0A@@std@@@std@@QAEXXZ ENDP ; std::_Tree<std::_Tmap_traits<std::basic_string<char,std::char_traits<char>,std::allocator<char> >,std::basic_string<char,std::char_traits<char>,std::allocator<char> >,std::less<std::basic_string<char,std::char_traits<char>,std::allocator<char> > >,std::allocator<std::pair<std::basic_string<char,std::char_traits<char>,std::allocator<char> > const ,std::basic_string<char,std::char_traits<char>,std::allocator<char> > > >,0> >::const_iterator::_Inc
_TEXT	ENDS
PUBLIC	__TI2?AVbad_alloc@std@@
PUBLIC	??$_Allocate@D@std@@YAPADIPAD@Z			; std::_Allocate<char>
PUBLIC	__CTA2?AVbad_alloc@std@@
PUBLIC	__CT??_R0?AVbad_alloc@std@@@8??0bad_alloc@std@@QAE@ABV01@@Z12
PUBLIC	??0bad_alloc@std@@QAE@ABV01@@Z			; std::bad_alloc::bad_alloc
PUBLIC	__CT??_R0?AVexception@std@@@8??0exception@std@@QAE@ABV01@@Z12
EXTRN	??2@YAPAXI@Z:PROC				; operator new
EXTRN	__CxxThrowException@8:PROC
EXTRN	??0exception@std@@QAE@ABV01@@Z:PROC		; std::exception::exception
;	COMDAT __CT??_R0?AVexception@std@@@8??0exception@std@@QAE@ABV01@@Z12
; File d:\program files\microsoft visual studio 8\vc\include\exception
xdata$x	SEGMENT
__CT??_R0?AVexception@std@@@8??0exception@std@@QAE@ABV01@@Z12 DD 00H
	DD	FLAT:??_R0?AVexception@std@@@8
	DD	00H
	DD	0ffffffffH
	ORG $+4
	DD	0cH
	DD	FLAT:??0exception@std@@QAE@ABV01@@Z
xdata$x	ENDS
;	COMDAT __CT??_R0?AVbad_alloc@std@@@8??0bad_alloc@std@@QAE@ABV01@@Z12
xdata$x	SEGMENT
__CT??_R0?AVbad_alloc@std@@@8??0bad_alloc@std@@QAE@ABV01@@Z12 DD 00H
	DD	FLAT:??_R0?AVbad_alloc@std@@@8
	DD	00H
	DD	0ffffffffH
	ORG $+4
	DD	0cH
	DD	FLAT:??0bad_alloc@std@@QAE@ABV01@@Z
xdata$x	ENDS
;	COMDAT __CTA2?AVbad_alloc@std@@
xdata$x	SEGMENT
__CTA2?AVbad_alloc@std@@ DD 02H
	DD	FLAT:__CT??_R0?AVbad_alloc@std@@@8??0bad_alloc@std@@QAE@ABV01@@Z12
	DD	FLAT:__CT??_R0?AVexception@std@@@8??0exception@std@@QAE@ABV01@@Z12
xdata$x	ENDS
;	COMDAT __TI2?AVbad_alloc@std@@
xdata$x	SEGMENT
__TI2?AVbad_alloc@std@@ DD 00H
	DD	FLAT:??1bad_alloc@std@@UAE@XZ
	DD	00H
	DD	FLAT:__CTA2?AVbad_alloc@std@@
; Function compile flags: /Ogtpy
; File d:\program files\microsoft visual studio 8\vc\include\xmemory
xdata$x	ENDS
;	COMDAT ??$_Allocate@D@std@@YAPADIPAD@Z
_TEXT	SEGMENT
$T147009 = -12						; size = 12
$T147014 = 8						; size = 4
__Count$ = 8						; size = 4
___formal$ = 12						; size = 4
??$_Allocate@D@std@@YAPADIPAD@Z PROC			; std::_Allocate<char>, COMDAT

; 38   : 	if (_Count <= 0)

  00000	8b 4c 24 04	 mov	 ecx, DWORD PTR __Count$[esp-4]
  00004	83 ec 0c	 sub	 esp, 12			; 0000000cH
  00007	85 c9		 test	 ecx, ecx
  00009	77 0f		 ja	 SHORT $LN3@Allocate

; 39   : 		_Count = 0;

  0000b	33 c9		 xor	 ecx, ecx
$LN1@Allocate:

; 42   : 
; 43   : 		// allocate storage for _Count elements of type _Ty
; 44   : 	return ((_Ty _FARQ *)::operator new(_Count * sizeof (_Ty)));

  0000d	51		 push	 ecx
  0000e	e8 00 00 00 00	 call	 ??2@YAPAXI@Z		; operator new
  00013	83 c4 04	 add	 esp, 4

; 45   : 	}

  00016	83 c4 0c	 add	 esp, 12			; 0000000cH
  00019	c3		 ret	 0
$LN3@Allocate:

; 40   : 	else if (((_SIZT)(-1) / _Count) < sizeof (_Ty))

  0001a	83 c8 ff	 or	 eax, -1
  0001d	33 d2		 xor	 edx, edx
  0001f	f7 f1		 div	 ecx
  00021	83 f8 01	 cmp	 eax, 1
  00024	73 e7		 jae	 SHORT $LN1@Allocate

; 41   : 		_THROW_NCEE(std::bad_alloc, NULL);

  00026	8d 44 24 10	 lea	 eax, DWORD PTR $T147014[esp+8]
  0002a	50		 push	 eax
  0002b	8d 4c 24 04	 lea	 ecx, DWORD PTR $T147009[esp+16]
  0002f	c7 44 24 14 00
	00 00 00	 mov	 DWORD PTR $T147014[esp+12], 0
  00037	e8 00 00 00 00	 call	 ??0exception@std@@QAE@ABQBD@Z ; std::exception::exception
  0003c	68 00 00 00 00	 push	 OFFSET __TI2?AVbad_alloc@std@@
  00041	8d 4c 24 04	 lea	 ecx, DWORD PTR $T147009[esp+16]
  00045	51		 push	 ecx
  00046	c7 44 24 08 00
	00 00 00	 mov	 DWORD PTR $T147009[esp+20], OFFSET ??_7bad_alloc@std@@6B@
  0004e	e8 00 00 00 00	 call	 __CxxThrowException@8
$LN9@Allocate:
$LN8@Allocate:
  00053	cc		 int	 3
??$_Allocate@D@std@@YAPADIPAD@Z ENDP			; std::_Allocate<char>
_TEXT	ENDS
PUBLIC	??$_Destroy@PAU_Node@?$_Tree_nod@V?$_Tmap_traits@V?$basic_string@DU?$char_traits@D@std@@V?$allocator@D@2@@std@@V12@U?$less@V?$basic_string@DU?$char_traits@D@std@@V?$allocator@D@2@@std@@@2@V?$allocator@U?$pair@$$CBV?$basic_string@DU?$char_traits@D@std@@V?$allocator@D@2@@std@@V12@@std@@@2@$0A@@std@@@std@@@std@@YAXPAPAU_Node@?$_Tree_nod@V?$_Tmap_traits@V?$basic_string@DU?$char_traits@D@std@@V?$allocator@D@2@@std@@V12@U?$less@V?$basic_string@DU?$char_traits@D@std@@V?$allocator@D@2@@std@@@2@V?$allocator@U?$pair@$$CBV?$basic_string@DU?$char_traits@D@std@@V?$allocator@D@2@@std@@V12@@std@@@2@$0A@@std@@@0@@Z ; std::_Destroy<std::_Tree_nod<std::_Tmap_traits<std::basic_string<char,std::char_traits<char>,std::allocator<char> >,std::basic_string<char,std::char_traits<char>,std::allocator<char> >,std::less<std::basic_string<char,std::char_traits<char>,std::allocator<char> > >,std::allocator<std::pair<std::basic_string<char,std::char_traits<char>,std::allocator<char> > const ,std::basic_string<char,std::char_traits<char>,std::allocator<char> > > >,0> >::_Node *>
; Function compile flags: /Ogtpy
;	COMDAT ??$_Destroy@PAU_Node@?$_Tree_nod@V?$_Tmap_traits@V?$basic_string@DU?$char_traits@D@std@@V?$allocator@D@2@@std@@V12@U?$less@V?$basic_string@DU?$char_traits@D@std@@V?$allocator@D@2@@std@@@2@V?$allocator@U?$pair@$$CBV?$basic_string@DU?$char_traits@D@std@@V?$allocator@D@2@@std@@V12@@std@@@2@$0A@@std@@@std@@@std@@YAXPAPAU_Node@?$_Tree_nod@V?$_Tmap_traits@V?$basic_string@DU?$char_traits@D@std@@V?$allocator@D@2@@std@@V12@U?$less@V?$basic_string@DU?$char_traits@D@std@@V?$allocator@D@2@@std@@@2@V?$allocator@U?$pair@$$CBV?$basic_string@DU?$char_traits@D@std@@V?$allocator@D@2@@std@@V12@@std@@@2@$0A@@std@@@0@@Z
_TEXT	SEGMENT
__Ptr$ = 8						; size = 4
??$_Destroy@PAU_Node@?$_Tree_nod@V?$_Tmap_traits@V?$basic_string@DU?$char_traits@D@std@@V?$allocator@D@2@@std@@V12@U?$less@V?$basic_string@DU?$char_traits@D@std@@V?$allocator@D@2@@std@@@2@V?$allocator@U?$pair@$$CBV?$basic_string@DU?$char_traits@D@std@@V?$allocator@D@2@@std@@V12@@std@@@2@$0A@@std@@@std@@@std@@YAXPAPAU_Node@?$_Tree_nod@V?$_Tmap_traits@V?$basic_string@DU?$char_traits@D@std@@V?$allocator@D@2@@std@@V12@U?$less@V?$basic_string@DU?$char_traits@D@std@@V?$allocator@D@2@@std@@@2@V?$allocator@U?$pair@$$CBV?$basic_string@DU?$char_traits@D@std@@V?$allocator@D@2@@std@@V12@@std@@@2@$0A@@std@@@0@@Z PROC ; std::_Destroy<std::_Tree_nod<std::_Tmap_traits<std::basic_string<char,std::char_traits<char>,std::allocator<char> >,std::basic_string<char,std::char_traits<char>,std::allocator<char> >,std::less<std::basic_string<char,std::char_traits<char>,std::allocator<char> > >,std::allocator<std::pair<std::basic_string<char,std::char_traits<char>,std::allocator<char> > const ,std::basic_string<char,std::char_traits<char>,std::allocator<char> > > >,0> >::_Node *>, COMDAT

; 60   : 	_DESTRUCTOR(_Ty, _Ptr);
; 61   : 	}

  00000	c3		 ret	 0
??$_Destroy@PAU_Node@?$_Tree_nod@V?$_Tmap_traits@V?$basic_string@DU?$char_traits@D@std@@V?$allocator@D@2@@std@@V12@U?$less@V?$basic_string@DU?$char_traits@D@std@@V?$allocator@D@2@@std@@@2@V?$allocator@U?$pair@$$CBV?$basic_string@DU?$char_traits@D@std@@V?$allocator@D@2@@std@@V12@@std@@@2@$0A@@std@@@std@@@std@@YAXPAPAU_Node@?$_Tree_nod@V?$_Tmap_traits@V?$basic_string@DU?$char_traits@D@std@@V?$allocator@D@2@@std@@V12@U?$less@V?$basic_string@DU?$char_traits@D@std@@V?$allocator@D@2@@std@@@2@V?$allocator@U?$pair@$$CBV?$basic_string@DU?$char_traits@D@std@@V?$allocator@D@2@@std@@V12@@std@@@2@$0A@@std@@@0@@Z ENDP ; std::_Destroy<std::_Tree_nod<std::_Tmap_traits<std::basic_string<char,std::char_traits<char>,std::allocator<char> >,std::basic_string<char,std::char_traits<char>,std::allocator<char> >,std::less<std::basic_string<char,std::char_traits<char>,std::allocator<char> > >,std::allocator<std::pair<std::basic_string<char,std::char_traits<char>,std::allocator<char> > const ,std::basic_string<char,std::char_traits<char>,std::allocator<char> > > >,0> >::_Node *>
_TEXT	ENDS
PUBLIC	??$swap@D@std@@YAXAAD0@Z			; std::swap<char>
; Function compile flags: /Ogtpy
; File d:\program files\microsoft visual studio 8\vc\include\utility
;	COMDAT ??$swap@D@std@@YAXAAD0@Z
_TEXT	SEGMENT
__Left$ = 8						; size = 4
__Right$ = 12						; size = 4
??$swap@D@std@@YAXAAD0@Z PROC				; std::swap<char>, COMDAT

; 18   : 	_Ty _Tmp = _Left;

  00000	8b 44 24 04	 mov	 eax, DWORD PTR __Left$[esp-4]
  00004	8a 08		 mov	 cl, BYTE PTR [eax]
  00006	56		 push	 esi

; 19   : 	_Left = _Right, _Right = _Tmp;

  00007	8b 74 24 0c	 mov	 esi, DWORD PTR __Right$[esp]
  0000b	8a 16		 mov	 dl, BYTE PTR [esi]
  0000d	88 10		 mov	 BYTE PTR [eax], dl
  0000f	88 0e		 mov	 BYTE PTR [esi], cl
  00011	5e		 pop	 esi

; 20   : 	}

  00012	c3		 ret	 0
??$swap@D@std@@YAXAAD0@Z ENDP				; std::swap<char>
_TEXT	ENDS
PUBLIC	??$?0U?$pair@$$CBV?$basic_string@DU?$char_traits@D@std@@V?$allocator@D@2@@std@@V12@@std@@@?$allocator@PAU_Node@?$_Tree_nod@V?$_Tmap_traits@V?$basic_string@DU?$char_traits@D@std@@V?$allocator@D@2@@std@@V12@U?$less@V?$basic_string@DU?$char_traits@D@std@@V?$allocator@D@2@@std@@@2@V?$allocator@U?$pair@$$CBV?$basic_string@DU?$char_traits@D@std@@V?$allocator@D@2@@std@@V12@@std@@@2@$0A@@std@@@std@@@std@@QAE@ABV?$allocator@U?$pair@$$CBV?$basic_string@DU?$char_traits@D@std@@V?$allocator@D@2@@std@@V12@@std@@@1@@Z ; std::allocator<std::_Tree_nod<std::_Tmap_traits<std::basic_string<char,std::char_traits<char>,std::allocator<char> >,std::basic_string<char,std::char_traits<char>,std::allocator<char> >,std::less<std::basic_string<char,std::char_traits<char>,std::allocator<char> > >,std::allocator<std::pair<std::basic_string<char,std::char_traits<char>,std::allocator<char> > const ,std::basic_string<char,std::char_traits<char>,std::allocator<char> > > >,0> >::_Node *>::allocator<std::_Tree_nod<std::_Tmap_traits<std::basic_string<char,std::char_traits<char>,std::allocator<char> >,std::basic_string<char,std::char_traits<char>,std::allocator<char> >,std::less<std::basic_string<char,std::char_traits<char>,std::allocator<char> > >,std::allocator<std::pair<std::basic_string<char,std::char_traits<char>,std::allocator<char> > const ,std::basic_string<char,std::char_traits<char>,std::allocator<char> > > >,0> >::_Node *><std::pair<std::basic_string<char,std::char_traits<char>,std::allocator<char> > const ,std::basic_string<char,std::char_traits<char>,std::allocator<char> > > >
; Function compile flags: /Ogtpy
; File d:\program files\microsoft visual studio 8\vc\include\xmemory
;	COMDAT ??$?0U?$pair@$$CBV?$basic_string@DU?$char_traits@D@std@@V?$allocator@D@2@@std@@V12@@std@@@?$allocator@PAU_Node@?$_Tree_nod@V?$_Tmap_traits@V?$basic_string@DU?$char_traits@D@std@@V?$allocator@D@2@@std@@V12@U?$less@V?$basic_string@DU?$char_traits@D@std@@V?$allocator@D@2@@std@@@2@V?$allocator@U?$pair@$$CBV?$basic_string@DU?$char_traits@D@std@@V?$allocator@D@2@@std@@V12@@std@@@2@$0A@@std@@@std@@@std@@QAE@ABV?$allocator@U?$pair@$$CBV?$basic_string@DU?$char_traits@D@std@@V?$allocator@D@2@@std@@V12@@std@@@1@@Z
_TEXT	SEGMENT
___formal$ = 8						; size = 4
??$?0U?$pair@$$CBV?$basic_string@DU?$char_traits@D@std@@V?$allocator@D@2@@std@@V12@@std@@@?$allocator@PAU_Node@?$_Tree_nod@V?$_Tmap_traits@V?$basic_string@DU?$char_traits@D@std@@V?$allocator@D@2@@std@@V12@U?$less@V?$basic_string@DU?$char_traits@D@std@@V?$allocator@D@2@@std@@@2@V?$allocator@U?$pair@$$CBV?$basic_string@DU?$char_traits@D@std@@V?$allocator@D@2@@std@@V12@@std@@@2@$0A@@std@@@std@@@std@@QAE@ABV?$allocator@U?$pair@$$CBV?$basic_string@DU?$char_traits@D@std@@V?$allocator@D@2@@std@@V12@@std@@@1@@Z PROC ; std::allocator<std::_Tree_nod<std::_Tmap_traits<std::basic_string<char,std::char_traits<char>,std::allocator<char> >,std::basic_string<char,std::char_traits<char>,std::allocator<char> >,std::less<std::basic_string<char,std::char_traits<char>,std::allocator<char> > >,std::allocator<std::pair<std::basic_string<char,std::char_traits<char>,std::allocator<char> > const ,std::basic_string<char,std::char_traits<char>,std::allocator<char> > > >,0> >::_Node *>::allocator<std::_Tree_nod<std::_Tmap_traits<std::basic_string<char,std::char_traits<char>,std::allocator<char> >,std::basic_string<char,std::char_traits<char>,std::allocator<char> >,std::less<std::basic_string<char,std::char_traits<char>,std::allocator<char> > >,std::allocator<std::pair<std::basic_string<char,std::char_traits<char>,std::allocator<char> > const ,std::basic_string<char,std::char_traits<char>,std::allocator<char> > > >,0> >::_Node *><std::pair<std::basic_string<char,std::char_traits<char>,std::allocator<char> > const ,std::basic_string<char,std::char_traits<char>,std::allocator<char> > > >, COMDAT
; _this$ = ecx

; 129  : 		allocator(const allocator<_Other>&) _THROW0()

  00000	8b c1		 mov	 eax, ecx

; 130  : 		{	// construct from a related allocator (do nothing)
; 131  : 		}

  00002	c2 04 00	 ret	 4
??$?0U?$pair@$$CBV?$basic_string@DU?$char_traits@D@std@@V?$allocator@D@2@@std@@V12@@std@@@?$allocator@PAU_Node@?$_Tree_nod@V?$_Tmap_traits@V?$basic_string@DU?$char_traits@D@std@@V?$allocator@D@2@@std@@V12@U?$less@V?$basic_string@DU?$char_traits@D@std@@V?$allocator@D@2@@std@@@2@V?$allocator@U?$pair@$$CBV?$basic_string@DU?$char_traits@D@std@@V?$allocator@D@2@@std@@V12@@std@@@2@$0A@@std@@@std@@@std@@QAE@ABV?$allocator@U?$pair@$$CBV?$basic_string@DU?$char_traits@D@std@@V?$allocator@D@2@@std@@V12@@std@@@1@@Z ENDP ; std::allocator<std::_Tree_nod<std::_Tmap_traits<std::basic_string<char,std::char_traits<char>,std::allocator<char> >,std::basic_string<char,std::char_traits<char>,std::allocator<char> >,std::less<std::basic_string<char,std::char_traits<char>,std::allocator<char> > >,std::allocator<std::pair<std::basic_string<char,std::char_traits<char>,std::allocator<char> > const ,std::basic_string<char,std::char_traits<char>,std::allocator<char> > > >,0> >::_Node *>::allocator<std::_Tree_nod<std::_Tmap_traits<std::basic_string<char,std::char_traits<char>,std::allocator<char> >,std::basic_string<char,std::char_traits<char>,std::allocator<char> >,std::less<std::basic_string<char,std::char_traits<char>,std::allocator<char> > >,std::allocator<std::pair<std::basic_string<char,std::char_traits<char>,std::allocator<char> > const ,std::basic_string<char,std::char_traits<char>,std::allocator<char> > > >,0> >::_Node *><std::pair<std::basic_string<char,std::char_traits<char>,std::allocator<char> > const ,std::basic_string<char,std::char_traits<char>,std::allocator<char> > > >
_TEXT	ENDS
PUBLIC	??$?0U?$pair@$$CBV?$basic_string@DU?$char_traits@D@std@@V?$allocator@D@2@@std@@V12@@std@@@?$allocator@U_Node@?$_Tree_nod@V?$_Tmap_traits@V?$basic_string@DU?$char_traits@D@std@@V?$allocator@D@2@@std@@V12@U?$less@V?$basic_string@DU?$char_traits@D@std@@V?$allocator@D@2@@std@@@2@V?$allocator@U?$pair@$$CBV?$basic_string@DU?$char_traits@D@std@@V?$allocator@D@2@@std@@V12@@std@@@2@$0A@@std@@@std@@@std@@QAE@ABV?$allocator@U?$pair@$$CBV?$basic_string@DU?$char_traits@D@std@@V?$allocator@D@2@@std@@V12@@std@@@1@@Z ; std::allocator<std::_Tree_nod<std::_Tmap_traits<std::basic_string<char,std::char_traits<char>,std::allocator<char> >,std::basic_string<char,std::char_traits<char>,std::allocator<char> >,std::less<std::basic_string<char,std::char_traits<char>,std::allocator<char> > >,std::allocator<std::pair<std::basic_string<char,std::char_traits<char>,std::allocator<char> > const ,std::basic_string<char,std::char_traits<char>,std::allocator<char> > > >,0> >::_Node>::allocator<std::_Tree_nod<std::_Tmap_traits<std::basic_string<char,std::char_traits<char>,std::allocator<char> >,std::basic_string<char,std::char_traits<char>,std::allocator<char> >,std::less<std::basic_string<char,std::char_traits<char>,std::allocator<char> > >,std::allocator<std::pair<std::basic_string<char,std::char_traits<char>,std::allocator<char> > const ,std::basic_string<char,std::char_traits<char>,std::allocator<char> > > >,0> >::_Node><std::pair<std::basic_string<char,std::char_traits<char>,std::allocator<char> > const ,std::basic_string<char,std::char_traits<char>,std::allocator<char> > > >
; Function compile flags: /Ogtpy
;	COMDAT ??$?0U?$pair@$$CBV?$basic_string@DU?$char_traits@D@std@@V?$allocator@D@2@@std@@V12@@std@@@?$allocator@U_Node@?$_Tree_nod@V?$_Tmap_traits@V?$basic_string@DU?$char_traits@D@std@@V?$allocator@D@2@@std@@V12@U?$less@V?$basic_string@DU?$char_traits@D@std@@V?$allocator@D@2@@std@@@2@V?$allocator@U?$pair@$$CBV?$basic_string@DU?$char_traits@D@std@@V?$allocator@D@2@@std@@V12@@std@@@2@$0A@@std@@@std@@@std@@QAE@ABV?$allocator@U?$pair@$$CBV?$basic_string@DU?$char_traits@D@std@@V?$allocator@D@2@@std@@V12@@std@@@1@@Z
_TEXT	SEGMENT
___formal$ = 8						; size = 4
??$?0U?$pair@$$CBV?$basic_string@DU?$char_traits@D@std@@V?$allocator@D@2@@std@@V12@@std@@@?$allocator@U_Node@?$_Tree_nod@V?$_Tmap_traits@V?$basic_string@DU?$char_traits@D@std@@V?$allocator@D@2@@std@@V12@U?$less@V?$basic_string@DU?$char_traits@D@std@@V?$allocator@D@2@@std@@@2@V?$allocator@U?$pair@$$CBV?$basic_string@DU?$char_traits@D@std@@V?$allocator@D@2@@std@@V12@@std@@@2@$0A@@std@@@std@@@std@@QAE@ABV?$allocator@U?$pair@$$CBV?$basic_string@DU?$char_traits@D@std@@V?$allocator@D@2@@std@@V12@@std@@@1@@Z PROC ; std::allocator<std::_Tree_nod<std::_Tmap_traits<std::basic_string<char,std::char_traits<char>,std::allocator<char> >,std::basic_string<char,std::char_traits<char>,std::allocator<char> >,std::less<std::basic_string<char,std::char_traits<char>,std::allocator<char> > >,std::allocator<std::pair<std::basic_string<char,std::char_traits<char>,std::allocator<char> > const ,std::basic_string<char,std::char_traits<char>,std::allocator<char> > > >,0> >::_Node>::allocator<std::_Tree_nod<std::_Tmap_traits<std::basic_string<char,std::char_traits<char>,std::allocator<char> >,std::basic_string<char,std::char_traits<char>,std::allocator<char> >,std::less<std::basic_string<char,std::char_traits<char>,std::allocator<char> > >,std::allocator<std::pair<std::basic_string<char,std::char_traits<char>,std::allocator<char> > const ,std::basic_string<char,std::char_traits<char>,std::allocator<char> > > >,0> >::_Node><std::pair<std::basic_string<char,std::char_traits<char>,std::allocator<char> > const ,std::basic_string<char,std::char_traits<char>,std::allocator<char> > > >, COMDAT
; _this$ = ecx

; 129  : 		allocator(const allocator<_Other>&) _THROW0()

  00000	8b c1		 mov	 eax, ecx

; 130  : 		{	// construct from a related allocator (do nothing)
; 131  : 		}

  00002	c2 04 00	 ret	 4
??$?0U?$pair@$$CBV?$basic_string@DU?$char_traits@D@std@@V?$allocator@D@2@@std@@V12@@std@@@?$allocator@U_Node@?$_Tree_nod@V?$_Tmap_traits@V?$basic_string@DU?$char_traits@D@std@@V?$allocator@D@2@@std@@V12@U?$less@V?$basic_string@DU?$char_traits@D@std@@V?$allocator@D@2@@std@@@2@V?$allocator@U?$pair@$$CBV?$basic_string@DU?$char_traits@D@std@@V?$allocator@D@2@@std@@V12@@std@@@2@$0A@@std@@@std@@@std@@QAE@ABV?$allocator@U?$pair@$$CBV?$basic_string@DU?$char_traits@D@std@@V?$allocator@D@2@@std@@V12@@std@@@1@@Z ENDP ; std::allocator<std::_Tree_nod<std::_Tmap_traits<std::basic_string<char,std::char_traits<char>,std::allocator<char> >,std::basic_string<char,std::char_traits<char>,std::allocator<char> >,std::less<std::basic_string<char,std::char_traits<char>,std::allocator<char> > >,std::allocator<std::pair<std::basic_string<char,std::char_traits<char>,std::allocator<char> > const ,std::basic_string<char,std::char_traits<char>,std::allocator<char> > > >,0> >::_Node>::allocator<std::_Tree_nod<std::_Tmap_traits<std::basic_string<char,std::char_traits<char>,std::allocator<char> >,std::basic_string<char,std::char_traits<char>,std::allocator<char> >,std::less<std::basic_string<char,std::char_traits<char>,std::allocator<char> > >,std::allocator<std::pair<std::basic_string<char,std::char_traits<char>,std::allocator<char> > const ,std::basic_string<char,std::char_traits<char>,std::allocator<char> > > >,0> >::_Node><std::pair<std::basic_string<char,std::char_traits<char>,std::allocator<char> > const ,std::basic_string<char,std::char_traits<char>,std::allocator<char> > > >
_TEXT	ENDS
PUBLIC	??$_Allocate@U_Node@?$_Tree_nod@V?$_Tmap_traits@V?$basic_string@DU?$char_traits@D@std@@V?$allocator@D@2@@std@@V12@U?$less@V?$basic_string@DU?$char_traits@D@std@@V?$allocator@D@2@@std@@@2@V?$allocator@U?$pair@$$CBV?$basic_string@DU?$char_traits@D@std@@V?$allocator@D@2@@std@@V12@@std@@@2@$0A@@std@@@std@@@std@@YAPAU_Node@?$_Tree_nod@V?$_Tmap_traits@V?$basic_string@DU?$char_traits@D@std@@V?$allocator@D@2@@std@@V12@U?$less@V?$basic_string@DU?$char_traits@D@std@@V?$allocator@D@2@@std@@@2@V?$allocator@U?$pair@$$CBV?$basic_string@DU?$char_traits@D@std@@V?$allocator@D@2@@std@@V12@@std@@@2@$0A@@std@@@0@IPAU120@@Z ; std::_Allocate<std::_Tree_nod<std::_Tmap_traits<std::basic_string<char,std::char_traits<char>,std::allocator<char> >,std::basic_string<char,std::char_traits<char>,std::allocator<char> >,std::less<std::basic_string<char,std::char_traits<char>,std::allocator<char> > >,std::allocator<std::pair<std::basic_string<char,std::char_traits<char>,std::allocator<char> > const ,std::basic_string<char,std::char_traits<char>,std::allocator<char> > > >,0> >::_Node>
; Function compile flags: /Ogtpy
;	COMDAT ??$_Allocate@U_Node@?$_Tree_nod@V?$_Tmap_traits@V?$basic_string@DU?$char_traits@D@std@@V?$allocator@D@2@@std@@V12@U?$less@V?$basic_string@DU?$char_traits@D@std@@V?$allocator@D@2@@std@@@2@V?$allocator@U?$pair@$$CBV?$basic_string@DU?$char_traits@D@std@@V?$allocator@D@2@@std@@V12@@std@@@2@$0A@@std@@@std@@@std@@YAPAU_Node@?$_Tree_nod@V?$_Tmap_traits@V?$basic_string@DU?$char_traits@D@std@@V?$allocator@D@2@@std@@V12@U?$less@V?$basic_string@DU?$char_traits@D@std@@V?$allocator@D@2@@std@@@2@V?$allocator@U?$pair@$$CBV?$basic_string@DU?$char_traits@D@std@@V?$allocator@D@2@@std@@V12@@std@@@2@$0A@@std@@@0@IPAU120@@Z
_TEXT	SEGMENT
$T147032 = -12						; size = 12
$T147036 = 8						; size = 4
__Count$ = 8						; size = 4
___formal$ = 12						; size = 4
??$_Allocate@U_Node@?$_Tree_nod@V?$_Tmap_traits@V?$basic_string@DU?$char_traits@D@std@@V?$allocator@D@2@@std@@V12@U?$less@V?$basic_string@DU?$char_traits@D@std@@V?$allocator@D@2@@std@@@2@V?$allocator@U?$pair@$$CBV?$basic_string@DU?$char_traits@D@std@@V?$allocator@D@2@@std@@V12@@std@@@2@$0A@@std@@@std@@@std@@YAPAU_Node@?$_Tree_nod@V?$_Tmap_traits@V?$basic_string@DU?$char_traits@D@std@@V?$allocator@D@2@@std@@V12@U?$less@V?$basic_string@DU?$char_traits@D@std@@V?$allocator@D@2@@std@@@2@V?$allocator@U?$pair@$$CBV?$basic_string@DU?$char_traits@D@std@@V?$allocator@D@2@@std@@V12@@std@@@2@$0A@@std@@@0@IPAU120@@Z PROC ; std::_Allocate<std::_Tree_nod<std::_Tmap_traits<std::basic_string<char,std::char_traits<char>,std::allocator<char> >,std::basic_string<char,std::char_traits<char>,std::allocator<char> >,std::less<std::basic_string<char,std::char_traits<char>,std::allocator<char> > >,std::allocator<std::pair<std::basic_string<char,std::char_traits<char>,std::allocator<char> > const ,std::basic_string<char,std::char_traits<char>,std::allocator<char> > > >,0> >::_Node>, COMDAT

; 38   : 	if (_Count <= 0)

  00000	8b 4c 24 04	 mov	 ecx, DWORD PTR __Count$[esp-4]
  00004	83 ec 0c	 sub	 esp, 12			; 0000000cH
  00007	85 c9		 test	 ecx, ecx
  00009	77 18		 ja	 SHORT $LN3@Allocate@2

; 39   : 		_Count = 0;

  0000b	33 c9		 xor	 ecx, ecx
$LN1@Allocate@2:

; 42   : 
; 43   : 		// allocate storage for _Count elements of type _Ty
; 44   : 	return ((_Ty _FARQ *)::operator new(_Count * sizeof (_Ty)));

  0000d	8d 14 c9	 lea	 edx, DWORD PTR [ecx+ecx*8]
  00010	03 d2		 add	 edx, edx
  00012	03 d2		 add	 edx, edx
  00014	03 d2		 add	 edx, edx
  00016	52		 push	 edx
  00017	e8 00 00 00 00	 call	 ??2@YAPAXI@Z		; operator new
  0001c	83 c4 04	 add	 esp, 4

; 45   : 	}

  0001f	83 c4 0c	 add	 esp, 12			; 0000000cH
  00022	c3		 ret	 0
$LN3@Allocate@2:

; 40   : 	else if (((_SIZT)(-1) / _Count) < sizeof (_Ty))

  00023	83 c8 ff	 or	 eax, -1
  00026	33 d2		 xor	 edx, edx
  00028	f7 f1		 div	 ecx
  0002a	83 f8 48	 cmp	 eax, 72			; 00000048H
  0002d	73 de		 jae	 SHORT $LN1@Allocate@2

; 41   : 		_THROW_NCEE(std::bad_alloc, NULL);

  0002f	8d 44 24 10	 lea	 eax, DWORD PTR $T147036[esp+8]
  00033	50		 push	 eax
  00034	8d 4c 24 04	 lea	 ecx, DWORD PTR $T147032[esp+16]
  00038	c7 44 24 14 00
	00 00 00	 mov	 DWORD PTR $T147036[esp+12], 0
  00040	e8 00 00 00 00	 call	 ??0exception@std@@QAE@ABQBD@Z ; std::exception::exception
  00045	68 00 00 00 00	 push	 OFFSET __TI2?AVbad_alloc@std@@
  0004a	8d 4c 24 04	 lea	 ecx, DWORD PTR $T147032[esp+16]
  0004e	51		 push	 ecx
  0004f	c7 44 24 08 00
	00 00 00	 mov	 DWORD PTR $T147032[esp+20], OFFSET ??_7bad_alloc@std@@6B@
  00057	e8 00 00 00 00	 call	 __CxxThrowException@8
$LN9@Allocate@2:
$LN8@Allocate@2:
  0005c	cc		 int	 3
??$_Allocate@U_Node@?$_Tree_nod@V?$_Tmap_traits@V?$basic_string@DU?$char_traits@D@std@@V?$allocator@D@2@@std@@V12@U?$less@V?$basic_string@DU?$char_traits@D@std@@V?$allocator@D@2@@std@@@2@V?$allocator@U?$pair@$$CBV?$basic_string@DU?$char_traits@D@std@@V?$allocator@D@2@@std@@V12@@std@@@2@$0A@@std@@@std@@@std@@YAPAU_Node@?$_Tree_nod@V?$_Tmap_traits@V?$basic_string@DU?$char_traits@D@std@@V?$allocator@D@2@@std@@V12@U?$less@V?$basic_string@DU?$char_traits@D@std@@V?$allocator@D@2@@std@@@2@V?$allocator@U?$pair@$$CBV?$basic_string@DU?$char_traits@D@std@@V?$allocator@D@2@@std@@V12@@std@@@2@$0A@@std@@@0@IPAU120@@Z ENDP ; std::_Allocate<std::_Tree_nod<std::_Tmap_traits<std::basic_string<char,std::char_traits<char>,std::allocator<char> >,std::basic_string<char,std::char_traits<char>,std::allocator<char> >,std::less<std::basic_string<char,std::char_traits<char>,std::allocator<char> > >,std::allocator<std::pair<std::basic_string<char,std::char_traits<char>,std::allocator<char> > const ,std::basic_string<char,std::char_traits<char>,std::allocator<char> > > >,0> >::_Node>
_TEXT	ENDS
PUBLIC	??$_Construct@PAU_Node@?$_Tree_nod@V?$_Tmap_traits@V?$basic_string@DU?$char_traits@D@std@@V?$allocator@D@2@@std@@V12@U?$less@V?$basic_string@DU?$char_traits@D@std@@V?$allocator@D@2@@std@@@2@V?$allocator@U?$pair@$$CBV?$basic_string@DU?$char_traits@D@std@@V?$allocator@D@2@@std@@V12@@std@@@2@$0A@@std@@@std@@PAU123@@std@@YAXPAPAU_Node@?$_Tree_nod@V?$_Tmap_traits@V?$basic_string@DU?$char_traits@D@std@@V?$allocator@D@2@@std@@V12@U?$less@V?$basic_string@DU?$char_traits@D@std@@V?$allocator@D@2@@std@@@2@V?$allocator@U?$pair@$$CBV?$basic_string@DU?$char_traits@D@std@@V?$allocator@D@2@@std@@V12@@std@@@2@$0A@@std@@@0@ABQAU120@@Z ; std::_Construct<std::_Tree_nod<std::_Tmap_traits<std::basic_string<char,std::char_traits<char>,std::allocator<char> >,std::basic_string<char,std::char_traits<char>,std::allocator<char> >,std::less<std::basic_string<char,std::char_traits<char>,std::allocator<char> > >,std::allocator<std::pair<std::basic_string<char,std::char_traits<char>,std::allocator<char> > const ,std::basic_string<char,std::char_traits<char>,std::allocator<char> > > >,0> >::_Node *,std::_Tree_nod<std::_Tmap_traits<std::basic_string<char,std::char_traits<char>,std::allocator<char> >,std::basic_string<char,std::char_traits<char>,std::allocator<char> >,std::less<std::basic_string<char,std::char_traits<char>,std::allocator<char> > >,std::allocator<std::pair<std::basic_string<char,std::char_traits<char>,std::allocator<char> > const ,std::basic_string<char,std::char_traits<char>,std::allocator<char> > > >,0> >::_Node *>
; Function compile flags: /Ogtpy
;	COMDAT ??$_Construct@PAU_Node@?$_Tree_nod@V?$_Tmap_traits@V?$basic_string@DU?$char_traits@D@std@@V?$allocator@D@2@@std@@V12@U?$less@V?$basic_string@DU?$char_traits@D@std@@V?$allocator@D@2@@std@@@2@V?$allocator@U?$pair@$$CBV?$basic_string@DU?$char_traits@D@std@@V?$allocator@D@2@@std@@V12@@std@@@2@$0A@@std@@@std@@PAU123@@std@@YAXPAPAU_Node@?$_Tree_nod@V?$_Tmap_traits@V?$basic_string@DU?$char_traits@D@std@@V?$allocator@D@2@@std@@V12@U?$less@V?$basic_string@DU?$char_traits@D@std@@V?$allocator@D@2@@std@@@2@V?$allocator@U?$pair@$$CBV?$basic_string@DU?$char_traits@D@std@@V?$allocator@D@2@@std@@V12@@std@@@2@$0A@@std@@@0@ABQAU120@@Z
_TEXT	SEGMENT
__Ptr$ = 8						; size = 4
__Val$ = 12						; size = 4
??$_Construct@PAU_Node@?$_Tree_nod@V?$_Tmap_traits@V?$basic_string@DU?$char_traits@D@std@@V?$allocator@D@2@@std@@V12@U?$less@V?$basic_string@DU?$char_traits@D@std@@V?$allocator@D@2@@std@@@2@V?$allocator@U?$pair@$$CBV?$basic_string@DU?$char_traits@D@std@@V?$allocator@D@2@@std@@V12@@std@@@2@$0A@@std@@@std@@PAU123@@std@@YAXPAPAU_Node@?$_Tree_nod@V?$_Tmap_traits@V?$basic_string@DU?$char_traits@D@std@@V?$allocator@D@2@@std@@V12@U?$less@V?$basic_string@DU?$char_traits@D@std@@V?$allocator@D@2@@std@@@2@V?$allocator@U?$pair@$$CBV?$basic_string@DU?$char_traits@D@std@@V?$allocator@D@2@@std@@V12@@std@@@2@$0A@@std@@@0@ABQAU120@@Z PROC ; std::_Construct<std::_Tree_nod<std::_Tmap_traits<std::basic_string<char,std::char_traits<char>,std::allocator<char> >,std::basic_string<char,std::char_traits<char>,std::allocator<char> >,std::less<std::basic_string<char,std::char_traits<char>,std::allocator<char> > >,std::allocator<std::pair<std::basic_string<char,std::char_traits<char>,std::allocator<char> > const ,std::basic_string<char,std::char_traits<char>,std::allocator<char> > > >,0> >::_Node *,std::_Tree_nod<std::_Tmap_traits<std::basic_string<char,std::char_traits<char>,std::allocator<char> >,std::basic_string<char,std::char_traits<char>,std::allocator<char> >,std::less<std::basic_string<char,std::char_traits<char>,std::allocator<char> > >,std::allocator<std::pair<std::basic_string<char,std::char_traits<char>,std::allocator<char> > const ,std::basic_string<char,std::char_traits<char>,std::allocator<char> > > >,0> >::_Node *>, COMDAT

; 52   : 	void _FARQ *_Vptr = _Ptr;
; 53   : 	::new (_Vptr) _T1(_Val);

  00000	8b 44 24 04	 mov	 eax, DWORD PTR __Ptr$[esp-4]
  00004	85 c0		 test	 eax, eax
  00006	74 08		 je	 SHORT $LN3@Construct
  00008	8b 4c 24 08	 mov	 ecx, DWORD PTR __Val$[esp-4]
  0000c	8b 11		 mov	 edx, DWORD PTR [ecx]
  0000e	89 10		 mov	 DWORD PTR [eax], edx
$LN3@Construct:

; 54   : 	}

  00010	c3		 ret	 0
??$_Construct@PAU_Node@?$_Tree_nod@V?$_Tmap_traits@V?$basic_string@DU?$char_traits@D@std@@V?$allocator@D@2@@std@@V12@U?$less@V?$basic_string@DU?$char_traits@D@std@@V?$allocator@D@2@@std@@@2@V?$allocator@U?$pair@$$CBV?$basic_string@DU?$char_traits@D@std@@V?$allocator@D@2@@std@@V12@@std@@@2@$0A@@std@@@std@@PAU123@@std@@YAXPAPAU_Node@?$_Tree_nod@V?$_Tmap_traits@V?$basic_string@DU?$char_traits@D@std@@V?$allocator@D@2@@std@@V12@U?$less@V?$basic_string@DU?$char_traits@D@std@@V?$allocator@D@2@@std@@@2@V?$allocator@U?$pair@$$CBV?$basic_string@DU?$char_traits@D@std@@V?$allocator@D@2@@std@@V12@@std@@@2@$0A@@std@@@0@ABQAU120@@Z ENDP ; std::_Construct<std::_Tree_nod<std::_Tmap_traits<std::basic_string<char,std::char_traits<char>,std::allocator<char> >,std::basic_string<char,std::char_traits<char>,std::allocator<char> >,std::less<std::basic_string<char,std::char_traits<char>,std::allocator<char> > >,std::allocator<std::pair<std::basic_string<char,std::char_traits<char>,std::allocator<char> > const ,std::basic_string<char,std::char_traits<char>,std::allocator<char> > > >,0> >::_Node *,std::_Tree_nod<std::_Tmap_traits<std::basic_string<char,std::char_traits<char>,std::allocator<char> >,std::basic_string<char,std::char_traits<char>,std::allocator<char> >,std::less<std::basic_string<char,std::char_traits<char>,std::allocator<char> > >,std::allocator<std::pair<std::basic_string<char,std::char_traits<char>,std::allocator<char> > const ,std::basic_string<char,std::char_traits<char>,std::allocator<char> > > >,0> >::_Node *>
; Function compile flags: /Ogtpy
_TEXT	ENDS
;	COMDAT ??0bad_alloc@std@@QAE@ABV01@@Z
_TEXT	SEGMENT
___that$ = 8						; size = 4
??0bad_alloc@std@@QAE@ABV01@@Z PROC			; std::bad_alloc::bad_alloc, COMDAT
; _this$ = ecx
  00000	8b 44 24 04	 mov	 eax, DWORD PTR ___that$[esp-4]
  00004	56		 push	 esi
  00005	50		 push	 eax
  00006	8b f1		 mov	 esi, ecx
  00008	e8 00 00 00 00	 call	 ??0exception@std@@QAE@ABV01@@Z ; std::exception::exception
  0000d	c7 06 00 00 00
	00		 mov	 DWORD PTR [esi], OFFSET ??_7bad_alloc@std@@6B@
  00013	8b c6		 mov	 eax, esi
  00015	5e		 pop	 esi
  00016	c2 04 00	 ret	 4
??0bad_alloc@std@@QAE@ABV01@@Z ENDP			; std::bad_alloc::bad_alloc
_TEXT	ENDS
PUBLIC	??$copy_s@U?$char_traits@D@std@@@_Traits_helper@std@@YAPADPADIPBDIU_Secure_char_traits_tag@1@@Z ; std::_Traits_helper::copy_s<std::char_traits<char> >
; Function compile flags: /Ogtpy
; File d:\program files\microsoft visual studio 8\vc\include\iosfwd
;	COMDAT ??$copy_s@U?$char_traits@D@std@@@_Traits_helper@std@@YAPADPADIPBDIU_Secure_char_traits_tag@1@@Z
_TEXT	SEGMENT
__First1$ = 8						; size = 4
__Size$ = 12						; size = 4
__First2$ = 16						; size = 4
__Count$ = 20						; size = 4
___formal$ = 24						; size = 1
??$copy_s@U?$char_traits@D@std@@@_Traits_helper@std@@YAPADPADIPBDIU_Secure_char_traits_tag@1@@Z PROC ; std::_Traits_helper::copy_s<std::char_traits<char> >, COMDAT

; 590  : 		return _Traits::_Copy_s(_First1, _Size, _First2, _Count);

  00000	8b 44 24 10	 mov	 eax, DWORD PTR __Count$[esp-4]
  00004	8b 4c 24 0c	 mov	 ecx, DWORD PTR __First2$[esp-4]
  00008	8b 54 24 08	 mov	 edx, DWORD PTR __Size$[esp-4]
  0000c	56		 push	 esi
  0000d	8b 74 24 08	 mov	 esi, DWORD PTR __First1$[esp]
  00011	50		 push	 eax
  00012	51		 push	 ecx
  00013	52		 push	 edx
  00014	56		 push	 esi
  00015	e8 00 00 00 00	 call	 _memcpy_s
  0001a	83 c4 10	 add	 esp, 16			; 00000010H
  0001d	8b c6		 mov	 eax, esi
  0001f	5e		 pop	 esi

; 591  : 	}

  00020	c3		 ret	 0
??$copy_s@U?$char_traits@D@std@@@_Traits_helper@std@@YAPADPADIPBDIU_Secure_char_traits_tag@1@@Z ENDP ; std::_Traits_helper::copy_s<std::char_traits<char> >
_TEXT	ENDS
PUBLIC	??$move_s@U?$char_traits@D@std@@@_Traits_helper@std@@YAPADPADIPBDIU_Secure_char_traits_tag@1@@Z ; std::_Traits_helper::move_s<std::char_traits<char> >
; Function compile flags: /Ogtpy
;	COMDAT ??$move_s@U?$char_traits@D@std@@@_Traits_helper@std@@YAPADPADIPBDIU_Secure_char_traits_tag@1@@Z
_TEXT	SEGMENT
__First1$ = 8						; size = 4
__Size$ = 12						; size = 4
__First2$ = 16						; size = 4
__Count$ = 20						; size = 4
___formal$ = 24						; size = 1
??$move_s@U?$char_traits@D@std@@@_Traits_helper@std@@YAPADPADIPBDIU_Secure_char_traits_tag@1@@Z PROC ; std::_Traits_helper::move_s<std::char_traits<char> >, COMDAT

; 617  : 		return _Traits::_Move_s(_First1, _Size, _First2, _Count);

  00000	8b 44 24 10	 mov	 eax, DWORD PTR __Count$[esp-4]
  00004	8b 4c 24 0c	 mov	 ecx, DWORD PTR __First2$[esp-4]
  00008	8b 54 24 08	 mov	 edx, DWORD PTR __Size$[esp-4]
  0000c	56		 push	 esi
  0000d	8b 74 24 08	 mov	 esi, DWORD PTR __First1$[esp]
  00011	50		 push	 eax
  00012	51		 push	 ecx
  00013	52		 push	 edx
  00014	56		 push	 esi
  00015	e8 00 00 00 00	 call	 _memmove_s
  0001a	83 c4 10	 add	 esp, 16			; 00000010H
  0001d	8b c6		 mov	 eax, esi
  0001f	5e		 pop	 esi

; 618  : 	}

  00020	c3		 ret	 0
??$move_s@U?$char_traits@D@std@@@_Traits_helper@std@@YAPADPADIPBDIU_Secure_char_traits_tag@1@@Z ENDP ; std::_Traits_helper::move_s<std::char_traits<char> >
_TEXT	ENDS
PUBLIC	??0?$_String_val@DV?$allocator@D@std@@@std@@IAE@V?$allocator@D@1@@Z ; std::_String_val<char,std::allocator<char> >::_String_val<char,std::allocator<char> >
; Function compile flags: /Ogtpy
; File d:\program files\microsoft visual studio 8\vc\include\xstring
;	COMDAT ??0?$_String_val@DV?$allocator@D@std@@@std@@IAE@V?$allocator@D@1@@Z
_TEXT	SEGMENT
__Al$ = 8						; size = 1
??0?$_String_val@DV?$allocator@D@std@@@std@@IAE@V?$allocator@D@1@@Z PROC ; std::_String_val<char,std::allocator<char> >::_String_val<char,std::allocator<char> >, COMDAT
; _this$ = ecx

; 471  : 		{	// construct allocator from _Al

  00000	8b c1		 mov	 eax, ecx

; 472  : 		}

  00002	c2 04 00	 ret	 4
??0?$_String_val@DV?$allocator@D@std@@@std@@IAE@V?$allocator@D@1@@Z ENDP ; std::_String_val<char,std::allocator<char> >::_String_val<char,std::allocator<char> >
_TEXT	ENDS
PUBLIC	??0?$_String_val@DV?$allocator@D@std@@@std@@QAE@ABV01@@Z ; std::_String_val<char,std::allocator<char> >::_String_val<char,std::allocator<char> >
; Function compile flags: /Ogtpy
;	COMDAT ??0?$_String_val@DV?$allocator@D@std@@@std@@QAE@ABV01@@Z
_TEXT	SEGMENT
__Right$ = 8						; size = 4
??0?$_String_val@DV?$allocator@D@std@@@std@@QAE@ABV01@@Z PROC ; std::_String_val<char,std::allocator<char> >::_String_val<char,std::allocator<char> >, COMDAT
; _this$ = ecx

; 477  : 		{	// copy constructor

  00000	8b c1		 mov	 eax, ecx

; 478  : #if defined(_DEBUG)
; 479  : 		if (_Right._Myfirstiter == _IGNORE_MYITERLIST)
; 480  : 			{
; 481  : 			this->_Myfirstiter = _IGNORE_MYITERLIST;
; 482  : 			}
; 483  : #endif
; 484  : 		}

  00002	c2 04 00	 ret	 4
??0?$_String_val@DV?$allocator@D@std@@@std@@QAE@ABV01@@Z ENDP ; std::_String_val<char,std::allocator<char> >::_String_val<char,std::allocator<char> >
_TEXT	ENDS
PUBLIC	?allocate@?$allocator@D@std@@QAEPADI@Z		; std::allocator<char>::allocate
; Function compile flags: /Ogtpy
; File d:\program files\microsoft visual studio 8\vc\include\xmemory
;	COMDAT ?allocate@?$allocator@D@std@@QAEPADI@Z
_TEXT	SEGMENT
__Count$ = 8						; size = 4
?allocate@?$allocator@D@std@@QAEPADI@Z PROC		; std::allocator<char>::allocate, COMDAT
; _this$ = ecx

; 146  : 		return (_Allocate(_Count, (pointer)0));

  00000	8b 44 24 04	 mov	 eax, DWORD PTR __Count$[esp-4]
  00004	6a 00		 push	 0
  00006	50		 push	 eax
  00007	e8 00 00 00 00	 call	 ??$_Allocate@D@std@@YAPADIPAD@Z ; std::_Allocate<char>
  0000c	83 c4 08	 add	 esp, 8

; 147  : 		}

  0000f	c2 04 00	 ret	 4
?allocate@?$allocator@D@std@@QAEPADI@Z ENDP		; std::allocator<char>::allocate
_TEXT	ENDS
PUBLIC	?_Eos@?$basic_string@DU?$char_traits@D@std@@V?$allocator@D@2@@std@@IAEXI@Z ; std::basic_string<char,std::char_traits<char>,std::allocator<char> >::_Eos
; Function compile flags: /Ogtpy
; File d:\program files\microsoft visual studio 8\vc\include\xstring
;	COMDAT ?_Eos@?$basic_string@DU?$char_traits@D@std@@V?$allocator@D@2@@std@@IAEXI@Z
_TEXT	SEGMENT
__Newsize$ = 8						; size = 4
?_Eos@?$basic_string@DU?$char_traits@D@std@@V?$allocator@D@2@@std@@IAEXI@Z PROC ; std::basic_string<char,std::char_traits<char>,std::allocator<char> >::_Eos, COMDAT
; _this$ = ecx

; 2031 : 		_Traits::assign(_Myptr()[_Mysize = _Newsize], _Elem());

  00000	83 79 18 10	 cmp	 DWORD PTR [ecx+24], 16	; 00000010H
  00004	8b 44 24 04	 mov	 eax, DWORD PTR __Newsize$[esp-4]
  00008	89 41 14	 mov	 DWORD PTR [ecx+20], eax
  0000b	72 0a		 jb	 SHORT $LN5@Eos
  0000d	8b 49 04	 mov	 ecx, DWORD PTR [ecx+4]
  00010	c6 04 01 00	 mov	 BYTE PTR [ecx+eax], 0

; 2032 : 		}

  00014	c2 04 00	 ret	 4

; 2031 : 		_Traits::assign(_Myptr()[_Mysize = _Newsize], _Elem());

$LN5@Eos:
  00017	c6 44 01 04 00	 mov	 BYTE PTR [ecx+eax+4], 0

; 2032 : 		}

  0001c	c2 04 00	 ret	 4
?_Eos@?$basic_string@DU?$char_traits@D@std@@V?$allocator@D@2@@std@@IAEXI@Z ENDP ; std::basic_string<char,std::char_traits<char>,std::allocator<char> >::_Eos
_TEXT	ENDS
PUBLIC	?_Inside@?$basic_string@DU?$char_traits@D@std@@V?$allocator@D@2@@std@@IAE_NPBD@Z ; std::basic_string<char,std::char_traits<char>,std::allocator<char> >::_Inside
; Function compile flags: /Ogtpy
;	COMDAT ?_Inside@?$basic_string@DU?$char_traits@D@std@@V?$allocator@D@2@@std@@IAE_NPBD@Z
_TEXT	SEGMENT
__Ptr$ = 8						; size = 4
?_Inside@?$basic_string@DU?$char_traits@D@std@@V?$allocator@D@2@@std@@IAE_NPBD@Z PROC ; std::basic_string<char,std::char_traits<char>,std::allocator<char> >::_Inside, COMDAT
; _this$ = ecx

; 2050 : 		{	// test if _Ptr points inside string

  00000	56		 push	 esi

; 2051 : 		_DEBUG_POINTER(_Ptr);
; 2052 : 		if (_Ptr < _Myptr() || _Myptr() + _Mysize <= _Ptr)

  00001	8b 71 18	 mov	 esi, DWORD PTR [ecx+24]
  00004	83 fe 10	 cmp	 esi, 16			; 00000010H
  00007	57		 push	 edi
  00008	8d 41 04	 lea	 eax, DWORD PTR [ecx+4]
  0000b	72 04		 jb	 SHORT $LN8@Inside
  0000d	8b 10		 mov	 edx, DWORD PTR [eax]
  0000f	eb 02		 jmp	 SHORT $LN9@Inside
$LN8@Inside:
  00011	8b d0		 mov	 edx, eax
$LN9@Inside:
  00013	8b 7c 24 0c	 mov	 edi, DWORD PTR __Ptr$[esp+4]
  00017	3b fa		 cmp	 edi, edx
  00019	72 17		 jb	 SHORT $LN2@Inside
  0001b	83 fe 10	 cmp	 esi, 16			; 00000010H
  0001e	72 02		 jb	 SHORT $LN12@Inside
  00020	8b 00		 mov	 eax, DWORD PTR [eax]
$LN12@Inside:
  00022	8b 49 14	 mov	 ecx, DWORD PTR [ecx+20]
  00025	03 c8		 add	 ecx, eax
  00027	3b cf		 cmp	 ecx, edi
  00029	76 07		 jbe	 SHORT $LN2@Inside
  0002b	5f		 pop	 edi

; 2054 : 		else
; 2055 : 			return (true);

  0002c	b0 01		 mov	 al, 1
  0002e	5e		 pop	 esi

; 2056 : 		}

  0002f	c2 04 00	 ret	 4
$LN2@Inside:
  00032	5f		 pop	 edi

; 2053 : 			return (false);	// don't ask

  00033	32 c0		 xor	 al, al
  00035	5e		 pop	 esi

; 2056 : 		}

  00036	c2 04 00	 ret	 4
?_Inside@?$basic_string@DU?$char_traits@D@std@@V?$allocator@D@2@@std@@IAE_NPBD@Z ENDP ; std::basic_string<char,std::char_traits<char>,std::allocator<char> >::_Inside
_TEXT	ENDS
PUBLIC	?destroy@?$allocator@PAU_Node@?$_Tree_nod@V?$_Tmap_traits@V?$basic_string@DU?$char_traits@D@std@@V?$allocator@D@2@@std@@V12@U?$less@V?$basic_string@DU?$char_traits@D@std@@V?$allocator@D@2@@std@@@2@V?$allocator@U?$pair@$$CBV?$basic_string@DU?$char_traits@D@std@@V?$allocator@D@2@@std@@V12@@std@@@2@$0A@@std@@@std@@@std@@QAEXPAPAU_Node@?$_Tree_nod@V?$_Tmap_traits@V?$basic_string@DU?$char_traits@D@std@@V?$allocator@D@2@@std@@V12@U?$less@V?$basic_string@DU?$char_traits@D@std@@V?$allocator@D@2@@std@@@2@V?$allocator@U?$pair@$$CBV?$basic_string@DU?$char_traits@D@std@@V?$allocator@D@2@@std@@V12@@std@@@2@$0A@@std@@@2@@Z ; std::allocator<std::_Tree_nod<std::_Tmap_traits<std::basic_string<char,std::char_traits<char>,std::allocator<char> >,std::basic_string<char,std::char_traits<char>,std::allocator<char> >,std::less<std::basic_string<char,std::char_traits<char>,std::allocator<char> > >,std::allocator<std::pair<std::basic_string<char,std::char_traits<char>,std::allocator<char> > const ,std::basic_string<char,std::char_traits<char>,std::allocator<char> > > >,0> >::_Node *>::destroy
; Function compile flags: /Ogtpy
; File d:\program files\microsoft visual studio 8\vc\include\xmemory
;	COMDAT ?destroy@?$allocator@PAU_Node@?$_Tree_nod@V?$_Tmap_traits@V?$basic_string@DU?$char_traits@D@std@@V?$allocator@D@2@@std@@V12@U?$less@V?$basic_string@DU?$char_traits@D@std@@V?$allocator@D@2@@std@@@2@V?$allocator@U?$pair@$$CBV?$basic_string@DU?$char_traits@D@std@@V?$allocator@D@2@@std@@V12@@std@@@2@$0A@@std@@@std@@@std@@QAEXPAPAU_Node@?$_Tree_nod@V?$_Tmap_traits@V?$basic_string@DU?$char_traits@D@std@@V?$allocator@D@2@@std@@V12@U?$less@V?$basic_string@DU?$char_traits@D@std@@V?$allocator@D@2@@std@@@2@V?$allocator@U?$pair@$$CBV?$basic_string@DU?$char_traits@D@std@@V?$allocator@D@2@@std@@V12@@std@@@2@$0A@@std@@@2@@Z
_TEXT	SEGMENT
__Ptr$ = 8						; size = 4
?destroy@?$allocator@PAU_Node@?$_Tree_nod@V?$_Tmap_traits@V?$basic_string@DU?$char_traits@D@std@@V?$allocator@D@2@@std@@V12@U?$less@V?$basic_string@DU?$char_traits@D@std@@V?$allocator@D@2@@std@@@2@V?$allocator@U?$pair@$$CBV?$basic_string@DU?$char_traits@D@std@@V?$allocator@D@2@@std@@V12@@std@@@2@$0A@@std@@@std@@@std@@QAEXPAPAU_Node@?$_Tree_nod@V?$_Tmap_traits@V?$basic_string@DU?$char_traits@D@std@@V?$allocator@D@2@@std@@V12@U?$less@V?$basic_string@DU?$char_traits@D@std@@V?$allocator@D@2@@std@@@2@V?$allocator@U?$pair@$$CBV?$basic_string@DU?$char_traits@D@std@@V?$allocator@D@2@@std@@V12@@std@@@2@$0A@@std@@@2@@Z PROC ; std::allocator<std::_Tree_nod<std::_Tmap_traits<std::basic_string<char,std::char_traits<char>,std::allocator<char> >,std::basic_string<char,std::char_traits<char>,std::allocator<char> >,std::less<std::basic_string<char,std::char_traits<char>,std::allocator<char> > >,std::allocator<std::pair<std::basic_string<char,std::char_traits<char>,std::allocator<char> > const ,std::basic_string<char,std::char_traits<char>,std::allocator<char> > > >,0> >::_Node *>::destroy, COMDAT
; _this$ = ecx

; 161  : 		_Destroy(_Ptr);
; 162  : 		}

  00000	c2 04 00	 ret	 4
?destroy@?$allocator@PAU_Node@?$_Tree_nod@V?$_Tmap_traits@V?$basic_string@DU?$char_traits@D@std@@V?$allocator@D@2@@std@@V12@U?$less@V?$basic_string@DU?$char_traits@D@std@@V?$allocator@D@2@@std@@@2@V?$allocator@U?$pair@$$CBV?$basic_string@DU?$char_traits@D@std@@V?$allocator@D@2@@std@@V12@@std@@@2@$0A@@std@@@std@@@std@@QAEXPAPAU_Node@?$_Tree_nod@V?$_Tmap_traits@V?$basic_string@DU?$char_traits@D@std@@V?$allocator@D@2@@std@@V12@U?$less@V?$basic_string@DU?$char_traits@D@std@@V?$allocator@D@2@@std@@@2@V?$allocator@U?$pair@$$CBV?$basic_string@DU?$char_traits@D@std@@V?$allocator@D@2@@std@@V12@@std@@@2@$0A@@std@@@2@@Z ENDP ; std::allocator<std::_Tree_nod<std::_Tmap_traits<std::basic_string<char,std::char_traits<char>,std::allocator<char> >,std::basic_string<char,std::char_traits<char>,std::allocator<char> >,std::less<std::basic_string<char,std::char_traits<char>,std::allocator<char> > >,std::allocator<std::pair<std::basic_string<char,std::char_traits<char>,std::allocator<char> > const ,std::basic_string<char,std::char_traits<char>,std::allocator<char> > > >,0> >::_Node *>::destroy
_TEXT	ENDS
PUBLIC	?max_size@?$basic_string@DU?$char_traits@D@std@@V?$allocator@D@2@@std@@QBEIXZ ; std::basic_string<char,std::char_traits<char>,std::allocator<char> >::max_size
; Function compile flags: /Ogtpy
; File d:\program files\microsoft visual studio 8\vc\include\xstring
;	COMDAT ?max_size@?$basic_string@DU?$char_traits@D@std@@V?$allocator@D@2@@std@@QBEIXZ
_TEXT	SEGMENT
?max_size@?$basic_string@DU?$char_traits@D@std@@V?$allocator@D@2@@std@@QBEIXZ PROC ; std::basic_string<char,std::char_traits<char>,std::allocator<char> >::max_size, COMDAT
; _this$ = ecx

; 1642 : 		size_type _Num = _Mybase::_Alval.max_size();
; 1643 : 		return (_Num <= 1 ? 1 : _Num - 1);

  00000	b8 fe ff ff ff	 mov	 eax, -2			; fffffffeH

; 1644 : 		}

  00005	c3		 ret	 0
?max_size@?$basic_string@DU?$char_traits@D@std@@V?$allocator@D@2@@std@@QBEIXZ ENDP ; std::basic_string<char,std::char_traits<char>,std::allocator<char> >::max_size
_TEXT	ENDS
PUBLIC	??0?$_Tree_nod@V?$_Tmap_traits@V?$basic_string@DU?$char_traits@D@std@@V?$allocator@D@2@@std@@V12@U?$less@V?$basic_string@DU?$char_traits@D@std@@V?$allocator@D@2@@std@@@2@V?$allocator@U?$pair@$$CBV?$basic_string@DU?$char_traits@D@std@@V?$allocator@D@2@@std@@V12@@std@@@2@$0A@@std@@@std@@IAE@ABU?$less@V?$basic_string@DU?$char_traits@D@std@@V?$allocator@D@2@@std@@@1@V?$allocator@U?$pair@$$CBV?$basic_string@DU?$char_traits@D@std@@V?$allocator@D@2@@std@@V12@@std@@@1@@Z ; std::_Tree_nod<std::_Tmap_traits<std::basic_string<char,std::char_traits<char>,std::allocator<char> >,std::basic_string<char,std::char_traits<char>,std::allocator<char> >,std::less<std::basic_string<char,std::char_traits<char>,std::allocator<char> > >,std::allocator<std::pair<std::basic_string<char,std::char_traits<char>,std::allocator<char> > const ,std::basic_string<char,std::char_traits<char>,std::allocator<char> > > >,0> >::_Tree_nod<std::_Tmap_traits<std::basic_string<char,std::char_traits<char>,std::allocator<char> >,std::basic_string<char,std::char_traits<char>,std::allocator<char> >,std::less<std::basic_string<char,std::char_traits<char>,std::allocator<char> > >,std::allocator<std::pair<std::basic_string<char,std::char_traits<char>,std::allocator<char> > const ,std::basic_string<char,std::char_traits<char>,std::allocator<char> > > >,0> >
; Function compile flags: /Ogtpy
; File d:\program files\microsoft visual studio 8\vc\include\xtree
;	COMDAT ??0?$_Tree_nod@V?$_Tmap_traits@V?$basic_string@DU?$char_traits@D@std@@V?$allocator@D@2@@std@@V12@U?$less@V?$basic_string@DU?$char_traits@D@std@@V?$allocator@D@2@@std@@@2@V?$allocator@U?$pair@$$CBV?$basic_string@DU?$char_traits@D@std@@V?$allocator@D@2@@std@@V12@@std@@@2@$0A@@std@@@std@@IAE@ABU?$less@V?$basic_string@DU?$char_traits@D@std@@V?$allocator@D@2@@std@@@1@V?$allocator@U?$pair@$$CBV?$basic_string@DU?$char_traits@D@std@@V?$allocator@D@2@@std@@V12@@std@@@1@@Z
_TEXT	SEGMENT
__Parg$ = 8						; size = 4
__Al$ = 12						; size = 1
??0?$_Tree_nod@V?$_Tmap_traits@V?$basic_string@DU?$char_traits@D@std@@V?$allocator@D@2@@std@@V12@U?$less@V?$basic_string@DU?$char_traits@D@std@@V?$allocator@D@2@@std@@@2@V?$allocator@U?$pair@$$CBV?$basic_string@DU?$char_traits@D@std@@V?$allocator@D@2@@std@@V12@@std@@@2@$0A@@std@@@std@@IAE@ABU?$less@V?$basic_string@DU?$char_traits@D@std@@V?$allocator@D@2@@std@@@1@V?$allocator@U?$pair@$$CBV?$basic_string@DU?$char_traits@D@std@@V?$allocator@D@2@@std@@V12@@std@@@1@@Z PROC ; std::_Tree_nod<std::_Tmap_traits<std::basic_string<char,std::char_traits<char>,std::allocator<char> >,std::basic_string<char,std::char_traits<char>,std::allocator<char> >,std::less<std::basic_string<char,std::char_traits<char>,std::allocator<char> > >,std::allocator<std::pair<std::basic_string<char,std::char_traits<char>,std::allocator<char> > const ,std::basic_string<char,std::char_traits<char>,std::allocator<char> > > >,0> >::_Tree_nod<std::_Tmap_traits<std::basic_string<char,std::char_traits<char>,std::allocator<char> >,std::basic_string<char,std::char_traits<char>,std::allocator<char> >,std::less<std::basic_string<char,std::char_traits<char>,std::allocator<char> > >,std::allocator<std::pair<std::basic_string<char,std::char_traits<char>,std::allocator<char> > const ,std::basic_string<char,std::char_traits<char>,std::allocator<char> > > >,0> >, COMDAT
; _this$ = ecx

; 57   : 		{	// construct traits from _Parg and allocator from _Al

  00000	8b c1		 mov	 eax, ecx

; 58   : 		}

  00002	c2 08 00	 ret	 8
??0?$_Tree_nod@V?$_Tmap_traits@V?$basic_string@DU?$char_traits@D@std@@V?$allocator@D@2@@std@@V12@U?$less@V?$basic_string@DU?$char_traits@D@std@@V?$allocator@D@2@@std@@@2@V?$allocator@U?$pair@$$CBV?$basic_string@DU?$char_traits@D@std@@V?$allocator@D@2@@std@@V12@@std@@@2@$0A@@std@@@std@@IAE@ABU?$less@V?$basic_string@DU?$char_traits@D@std@@V?$allocator@D@2@@std@@@1@V?$allocator@U?$pair@$$CBV?$basic_string@DU?$char_traits@D@std@@V?$allocator@D@2@@std@@V12@@std@@@1@@Z ENDP ; std::_Tree_nod<std::_Tmap_traits<std::basic_string<char,std::char_traits<char>,std::allocator<char> >,std::basic_string<char,std::char_traits<char>,std::allocator<char> >,std::less<std::basic_string<char,std::char_traits<char>,std::allocator<char> > >,std::allocator<std::pair<std::basic_string<char,std::char_traits<char>,std::allocator<char> > const ,std::basic_string<char,std::char_traits<char>,std::allocator<char> > > >,0> >::_Tree_nod<std::_Tmap_traits<std::basic_string<char,std::char_traits<char>,std::allocator<char> >,std::basic_string<char,std::char_traits<char>,std::allocator<char> >,std::less<std::basic_string<char,std::char_traits<char>,std::allocator<char> > >,std::allocator<std::pair<std::basic_string<char,std::char_traits<char>,std::allocator<char> > const ,std::basic_string<char,std::char_traits<char>,std::allocator<char> > > >,0> >
_TEXT	ENDS
PUBLIC	?allocate@?$allocator@U_Node@?$_Tree_nod@V?$_Tmap_traits@V?$basic_string@DU?$char_traits@D@std@@V?$allocator@D@2@@std@@V12@U?$less@V?$basic_string@DU?$char_traits@D@std@@V?$allocator@D@2@@std@@@2@V?$allocator@U?$pair@$$CBV?$basic_string@DU?$char_traits@D@std@@V?$allocator@D@2@@std@@V12@@std@@@2@$0A@@std@@@std@@@std@@QAEPAU_Node@?$_Tree_nod@V?$_Tmap_traits@V?$basic_string@DU?$char_traits@D@std@@V?$allocator@D@2@@std@@V12@U?$less@V?$basic_string@DU?$char_traits@D@std@@V?$allocator@D@2@@std@@@2@V?$allocator@U?$pair@$$CBV?$basic_string@DU?$char_traits@D@std@@V?$allocator@D@2@@std@@V12@@std@@@2@$0A@@std@@@2@I@Z ; std::allocator<std::_Tree_nod<std::_Tmap_traits<std::basic_string<char,std::char_traits<char>,std::allocator<char> >,std::basic_string<char,std::char_traits<char>,std::allocator<char> >,std::less<std::basic_string<char,std::char_traits<char>,std::allocator<char> > >,std::allocator<std::pair<std::basic_string<char,std::char_traits<char>,std::allocator<char> > const ,std::basic_string<char,std::char_traits<char>,std::allocator<char> > > >,0> >::_Node>::allocate
; Function compile flags: /Ogtpy
; File d:\program files\microsoft visual studio 8\vc\include\xmemory
;	COMDAT ?allocate@?$allocator@U_Node@?$_Tree_nod@V?$_Tmap_traits@V?$basic_string@DU?$char_traits@D@std@@V?$allocator@D@2@@std@@V12@U?$less@V?$basic_string@DU?$char_traits@D@std@@V?$allocator@D@2@@std@@@2@V?$allocator@U?$pair@$$CBV?$basic_string@DU?$char_traits@D@std@@V?$allocator@D@2@@std@@V12@@std@@@2@$0A@@std@@@std@@@std@@QAEPAU_Node@?$_Tree_nod@V?$_Tmap_traits@V?$basic_string@DU?$char_traits@D@std@@V?$allocator@D@2@@std@@V12@U?$less@V?$basic_string@DU?$char_traits@D@std@@V?$allocator@D@2@@std@@@2@V?$allocator@U?$pair@$$CBV?$basic_string@DU?$char_traits@D@std@@V?$allocator@D@2@@std@@V12@@std@@@2@$0A@@std@@@2@I@Z
_TEXT	SEGMENT
__Count$ = 8						; size = 4
?allocate@?$allocator@U_Node@?$_Tree_nod@V?$_Tmap_traits@V?$basic_string@DU?$char_traits@D@std@@V?$allocator@D@2@@std@@V12@U?$less@V?$basic_string@DU?$char_traits@D@std@@V?$allocator@D@2@@std@@@2@V?$allocator@U?$pair@$$CBV?$basic_string@DU?$char_traits@D@std@@V?$allocator@D@2@@std@@V12@@std@@@2@$0A@@std@@@std@@@std@@QAEPAU_Node@?$_Tree_nod@V?$_Tmap_traits@V?$basic_string@DU?$char_traits@D@std@@V?$allocator@D@2@@std@@V12@U?$less@V?$basic_string@DU?$char_traits@D@std@@V?$allocator@D@2@@std@@@2@V?$allocator@U?$pair@$$CBV?$basic_string@DU?$char_traits@D@std@@V?$allocator@D@2@@std@@V12@@std@@@2@$0A@@std@@@2@I@Z PROC ; std::allocator<std::_Tree_nod<std::_Tmap_traits<std::basic_string<char,std::char_traits<char>,std::allocator<char> >,std::basic_string<char,std::char_traits<char>,std::allocator<char> >,std::less<std::basic_string<char,std::char_traits<char>,std::allocator<char> > >,std::allocator<std::pair<std::basic_string<char,std::char_traits<char>,std::allocator<char> > const ,std::basic_string<char,std::char_traits<char>,std::allocator<char> > > >,0> >::_Node>::allocate, COMDAT
; _this$ = ecx

; 146  : 		return (_Allocate(_Count, (pointer)0));

  00000	8b 44 24 04	 mov	 eax, DWORD PTR __Count$[esp-4]
  00004	6a 00		 push	 0
  00006	50		 push	 eax
  00007	e8 00 00 00 00	 call	 ??$_Allocate@U_Node@?$_Tree_nod@V?$_Tmap_traits@V?$basic_string@DU?$char_traits@D@std@@V?$allocator@D@2@@std@@V12@U?$less@V?$basic_string@DU?$char_traits@D@std@@V?$allocator@D@2@@std@@@2@V?$allocator@U?$pair@$$CBV?$basic_string@DU?$char_traits@D@std@@V?$allocator@D@2@@std@@V12@@std@@@2@$0A@@std@@@std@@@std@@YAPAU_Node@?$_Tree_nod@V?$_Tmap_traits@V?$basic_string@DU?$char_traits@D@std@@V?$allocator@D@2@@std@@V12@U?$less@V?$basic_string@DU?$char_traits@D@std@@V?$allocator@D@2@@std@@@2@V?$allocator@U?$pair@$$CBV?$basic_string@DU?$char_traits@D@std@@V?$allocator@D@2@@std@@V12@@std@@@2@$0A@@std@@@0@IPAU120@@Z ; std::_Allocate<std::_Tree_nod<std::_Tmap_traits<std::basic_string<char,std::char_traits<char>,std::allocator<char> >,std::basic_string<char,std::char_traits<char>,std::allocator<char> >,std::less<std::basic_string<char,std::char_traits<char>,std::allocator<char> > >,std::allocator<std::pair<std::basic_string<char,std::char_traits<char>,std::allocator<char> > const ,std::basic_string<char,std::char_traits<char>,std::allocator<char> > > >,0> >::_Node>
  0000c	83 c4 08	 add	 esp, 8

; 147  : 		}

  0000f	c2 04 00	 ret	 4
?allocate@?$allocator@U_Node@?$_Tree_nod@V?$_Tmap_traits@V?$basic_string@DU?$char_traits@D@std@@V?$allocator@D@2@@std@@V12@U?$less@V?$basic_string@DU?$char_traits@D@std@@V?$allocator@D@2@@std@@@2@V?$allocator@U?$pair@$$CBV?$basic_string@DU?$char_traits@D@std@@V?$allocator@D@2@@std@@V12@@std@@@2@$0A@@std@@@std@@@std@@QAEPAU_Node@?$_Tree_nod@V?$_Tmap_traits@V?$basic_string@DU?$char_traits@D@std@@V?$allocator@D@2@@std@@V12@U?$less@V?$basic_string@DU?$char_traits@D@std@@V?$allocator@D@2@@std@@@2@V?$allocator@U?$pair@$$CBV?$basic_string@DU?$char_traits@D@std@@V?$allocator@D@2@@std@@V12@@std@@@2@$0A@@std@@@2@I@Z ENDP ; std::allocator<std::_Tree_nod<std::_Tmap_traits<std::basic_string<char,std::char_traits<char>,std::allocator<char> >,std::basic_string<char,std::char_traits<char>,std::allocator<char> >,std::less<std::basic_string<char,std::char_traits<char>,std::allocator<char> > >,std::allocator<std::pair<std::basic_string<char,std::char_traits<char>,std::allocator<char> > const ,std::basic_string<char,std::char_traits<char>,std::allocator<char> > > >,0> >::_Node>::allocate
_TEXT	ENDS
PUBLIC	?construct@?$allocator@PAU_Node@?$_Tree_nod@V?$_Tmap_traits@V?$basic_string@DU?$char_traits@D@std@@V?$allocator@D@2@@std@@V12@U?$less@V?$basic_string@DU?$char_traits@D@std@@V?$allocator@D@2@@std@@@2@V?$allocator@U?$pair@$$CBV?$basic_string@DU?$char_traits@D@std@@V?$allocator@D@2@@std@@V12@@std@@@2@$0A@@std@@@std@@@std@@QAEXPAPAU_Node@?$_Tree_nod@V?$_Tmap_traits@V?$basic_string@DU?$char_traits@D@std@@V?$allocator@D@2@@std@@V12@U?$less@V?$basic_string@DU?$char_traits@D@std@@V?$allocator@D@2@@std@@@2@V?$allocator@U?$pair@$$CBV?$basic_string@DU?$char_traits@D@std@@V?$allocator@D@2@@std@@V12@@std@@@2@$0A@@std@@@2@ABQAU342@@Z ; std::allocator<std::_Tree_nod<std::_Tmap_traits<std::basic_string<char,std::char_traits<char>,std::allocator<char> >,std::basic_string<char,std::char_traits<char>,std::allocator<char> >,std::less<std::basic_string<char,std::char_traits<char>,std::allocator<char> > >,std::allocator<std::pair<std::basic_string<char,std::char_traits<char>,std::allocator<char> > const ,std::basic_string<char,std::char_traits<char>,std::allocator<char> > > >,0> >::_Node *>::construct
; Function compile flags: /Ogtpy
;	COMDAT ?construct@?$allocator@PAU_Node@?$_Tree_nod@V?$_Tmap_traits@V?$basic_string@DU?$char_traits@D@std@@V?$allocator@D@2@@std@@V12@U?$less@V?$basic_string@DU?$char_traits@D@std@@V?$allocator@D@2@@std@@@2@V?$allocator@U?$pair@$$CBV?$basic_string@DU?$char_traits@D@std@@V?$allocator@D@2@@std@@V12@@std@@@2@$0A@@std@@@std@@@std@@QAEXPAPAU_Node@?$_Tree_nod@V?$_Tmap_traits@V?$basic_string@DU?$char_traits@D@std@@V?$allocator@D@2@@std@@V12@U?$less@V?$basic_string@DU?$char_traits@D@std@@V?$allocator@D@2@@std@@@2@V?$allocator@U?$pair@$$CBV?$basic_string@DU?$char_traits@D@std@@V?$allocator@D@2@@std@@V12@@std@@@2@$0A@@std@@@2@ABQAU342@@Z
_TEXT	SEGMENT
__Ptr$ = 8						; size = 4
__Val$ = 12						; size = 4
?construct@?$allocator@PAU_Node@?$_Tree_nod@V?$_Tmap_traits@V?$basic_string@DU?$char_traits@D@std@@V?$allocator@D@2@@std@@V12@U?$less@V?$basic_string@DU?$char_traits@D@std@@V?$allocator@D@2@@std@@@2@V?$allocator@U?$pair@$$CBV?$basic_string@DU?$char_traits@D@std@@V?$allocator@D@2@@std@@V12@@std@@@2@$0A@@std@@@std@@@std@@QAEXPAPAU_Node@?$_Tree_nod@V?$_Tmap_traits@V?$basic_string@DU?$char_traits@D@std@@V?$allocator@D@2@@std@@V12@U?$less@V?$basic_string@DU?$char_traits@D@std@@V?$allocator@D@2@@std@@@2@V?$allocator@U?$pair@$$CBV?$basic_string@DU?$char_traits@D@std@@V?$allocator@D@2@@std@@V12@@std@@@2@$0A@@std@@@2@ABQAU342@@Z PROC ; std::allocator<std::_Tree_nod<std::_Tmap_traits<std::basic_string<char,std::char_traits<char>,std::allocator<char> >,std::basic_string<char,std::char_traits<char>,std::allocator<char> >,std::less<std::basic_string<char,std::char_traits<char>,std::allocator<char> > >,std::allocator<std::pair<std::basic_string<char,std::char_traits<char>,std::allocator<char> > const ,std::basic_string<char,std::char_traits<char>,std::allocator<char> > > >,0> >::_Node *>::construct, COMDAT
; _this$ = ecx

; 156  : 		_Construct(_Ptr, _Val);

  00000	8b 44 24 04	 mov	 eax, DWORD PTR __Ptr$[esp-4]
  00004	85 c0		 test	 eax, eax
  00006	74 08		 je	 SHORT $LN5@construct
  00008	8b 4c 24 08	 mov	 ecx, DWORD PTR __Val$[esp-4]
  0000c	8b 11		 mov	 edx, DWORD PTR [ecx]
  0000e	89 10		 mov	 DWORD PTR [eax], edx
$LN5@construct:

; 157  : 		}

  00010	c2 08 00	 ret	 8
?construct@?$allocator@PAU_Node@?$_Tree_nod@V?$_Tmap_traits@V?$basic_string@DU?$char_traits@D@std@@V?$allocator@D@2@@std@@V12@U?$less@V?$basic_string@DU?$char_traits@D@std@@V?$allocator@D@2@@std@@@2@V?$allocator@U?$pair@$$CBV?$basic_string@DU?$char_traits@D@std@@V?$allocator@D@2@@std@@V12@@std@@@2@$0A@@std@@@std@@@std@@QAEXPAPAU_Node@?$_Tree_nod@V?$_Tmap_traits@V?$basic_string@DU?$char_traits@D@std@@V?$allocator@D@2@@std@@V12@U?$less@V?$basic_string@DU?$char_traits@D@std@@V?$allocator@D@2@@std@@@2@V?$allocator@U?$pair@$$CBV?$basic_string@DU?$char_traits@D@std@@V?$allocator@D@2@@std@@V12@@std@@@2@$0A@@std@@@2@ABQAU342@@Z ENDP ; std::allocator<std::_Tree_nod<std::_Tmap_traits<std::basic_string<char,std::char_traits<char>,std::allocator<char> >,std::basic_string<char,std::char_traits<char>,std::allocator<char> >,std::less<std::basic_string<char,std::char_traits<char>,std::allocator<char> > >,std::allocator<std::pair<std::basic_string<char,std::char_traits<char>,std::allocator<char> > const ,std::basic_string<char,std::char_traits<char>,std::allocator<char> > > >,0> >::_Node *>::construct
_TEXT	ENDS
PUBLIC	??0const_iterator@?$_Tree@V?$_Tmap_traits@V?$basic_string@DU?$char_traits@D@std@@V?$allocator@D@2@@std@@V12@U?$less@V?$basic_string@DU?$char_traits@D@std@@V?$allocator@D@2@@std@@@2@V?$allocator@U?$pair@$$CBV?$basic_string@DU?$char_traits@D@std@@V?$allocator@D@2@@std@@V12@@std@@@2@$0A@@std@@@std@@QAE@PAU_Node@?$_Tree_nod@V?$_Tmap_traits@V?$basic_string@DU?$char_traits@D@std@@V?$allocator@D@2@@std@@V12@U?$less@V?$basic_string@DU?$char_traits@D@std@@V?$allocator@D@2@@std@@@2@V?$allocator@U?$pair@$$CBV?$basic_string@DU?$char_traits@D@std@@V?$allocator@D@2@@std@@V12@@std@@@2@$0A@@std@@@2@PBV12@@Z ; std::_Tree<std::_Tmap_traits<std::basic_string<char,std::char_traits<char>,std::allocator<char> >,std::basic_string<char,std::char_traits<char>,std::allocator<char> >,std::less<std::basic_string<char,std::char_traits<char>,std::allocator<char> > >,std::allocator<std::pair<std::basic_string<char,std::char_traits<char>,std::allocator<char> > const ,std::basic_string<char,std::char_traits<char>,std::allocator<char> > > >,0> >::const_iterator::const_iterator
; Function compile flags: /Ogtpy
; File d:\program files\microsoft visual studio 8\vc\include\xtree
;	COMDAT ??0const_iterator@?$_Tree@V?$_Tmap_traits@V?$basic_string@DU?$char_traits@D@std@@V?$allocator@D@2@@std@@V12@U?$less@V?$basic_string@DU?$char_traits@D@std@@V?$allocator@D@2@@std@@@2@V?$allocator@U?$pair@$$CBV?$basic_string@DU?$char_traits@D@std@@V?$allocator@D@2@@std@@V12@@std@@@2@$0A@@std@@@std@@QAE@PAU_Node@?$_Tree_nod@V?$_Tmap_traits@V?$basic_string@DU?$char_traits@D@std@@V?$allocator@D@2@@std@@V12@U?$less@V?$basic_string@DU?$char_traits@D@std@@V?$allocator@D@2@@std@@@2@V?$allocator@U?$pair@$$CBV?$basic_string@DU?$char_traits@D@std@@V?$allocator@D@2@@std@@V12@@std@@@2@$0A@@std@@@2@PBV12@@Z
_TEXT	SEGMENT
__Pnode$ = 8						; size = 4
__Plist$ = 12						; size = 4
??0const_iterator@?$_Tree@V?$_Tmap_traits@V?$basic_string@DU?$char_traits@D@std@@V?$allocator@D@2@@std@@V12@U?$less@V?$basic_string@DU?$char_traits@D@std@@V?$allocator@D@2@@std@@@2@V?$allocator@U?$pair@$$CBV?$basic_string@DU?$char_traits@D@std@@V?$allocator@D@2@@std@@V12@@std@@@2@$0A@@std@@@std@@QAE@PAU_Node@?$_Tree_nod@V?$_Tmap_traits@V?$basic_string@DU?$char_traits@D@std@@V?$allocator@D@2@@std@@V12@U?$less@V?$basic_string@DU?$char_traits@D@std@@V?$allocator@D@2@@std@@@2@V?$allocator@U?$pair@$$CBV?$basic_string@DU?$char_traits@D@std@@V?$allocator@D@2@@std@@V12@@std@@@2@$0A@@std@@@2@PBV12@@Z PROC ; std::_Tree<std::_Tmap_traits<std::basic_string<char,std::char_traits<char>,std::allocator<char> >,std::basic_string<char,std::char_traits<char>,std::allocator<char> >,std::less<std::basic_string<char,std::char_traits<char>,std::allocator<char> > >,std::allocator<std::pair<std::basic_string<char,std::char_traits<char>,std::allocator<char> > const ,std::basic_string<char,std::char_traits<char>,std::allocator<char> > > >,0> >::const_iterator::const_iterator, COMDAT
; _this$ = ecx

; 224  : 			{	// construct with node pointer _Pnode

  00000	8b 44 24 04	 mov	 eax, DWORD PTR __Pnode$[esp-4]
  00004	56		 push	 esi
  00005	57		 push	 edi

; 225  : 			_SCL_SECURE_VALIDATE(_Plist != NULL);

  00006	8b 7c 24 10	 mov	 edi, DWORD PTR __Plist$[esp+4]
  0000a	85 ff		 test	 edi, edi
  0000c	8b f1		 mov	 esi, ecx
  0000e	c7 06 00 00 00
	00		 mov	 DWORD PTR [esi], 0
  00014	89 46 04	 mov	 DWORD PTR [esi+4], eax
  00017	75 05		 jne	 SHORT $LN8@const_iter
  00019	e8 00 00 00 00	 call	 __invalid_parameter_noinfo
$LN8@const_iter:

; 226  : 			this->_Mycont =_Plist;

  0001e	89 3e		 mov	 DWORD PTR [esi], edi
  00020	5f		 pop	 edi

; 227  : 			}

  00021	8b c6		 mov	 eax, esi
  00023	5e		 pop	 esi
  00024	c2 08 00	 ret	 8
??0const_iterator@?$_Tree@V?$_Tmap_traits@V?$basic_string@DU?$char_traits@D@std@@V?$allocator@D@2@@std@@V12@U?$less@V?$basic_string@DU?$char_traits@D@std@@V?$allocator@D@2@@std@@@2@V?$allocator@U?$pair@$$CBV?$basic_string@DU?$char_traits@D@std@@V?$allocator@D@2@@std@@V12@@std@@@2@$0A@@std@@@std@@QAE@PAU_Node@?$_Tree_nod@V?$_Tmap_traits@V?$basic_string@DU?$char_traits@D@std@@V?$allocator@D@2@@std@@V12@U?$less@V?$basic_string@DU?$char_traits@D@std@@V?$allocator@D@2@@std@@@2@V?$allocator@U?$pair@$$CBV?$basic_string@DU?$char_traits@D@std@@V?$allocator@D@2@@std@@V12@@std@@@2@$0A@@std@@@2@PBV12@@Z ENDP ; std::_Tree<std::_Tmap_traits<std::basic_string<char,std::char_traits<char>,std::allocator<char> >,std::basic_string<char,std::char_traits<char>,std::allocator<char> >,std::less<std::basic_string<char,std::char_traits<char>,std::allocator<char> > >,std::allocator<std::pair<std::basic_string<char,std::char_traits<char>,std::allocator<char> > const ,std::basic_string<char,std::char_traits<char>,std::allocator<char> > > >,0> >::const_iterator::const_iterator
_TEXT	ENDS
PUBLIC	??Econst_iterator@?$_Tree@V?$_Tmap_traits@V?$basic_string@DU?$char_traits@D@std@@V?$allocator@D@2@@std@@V12@U?$less@V?$basic_string@DU?$char_traits@D@std@@V?$allocator@D@2@@std@@@2@V?$allocator@U?$pair@$$CBV?$basic_string@DU?$char_traits@D@std@@V?$allocator@D@2@@std@@V12@@std@@@2@$0A@@std@@@std@@QAEAAV012@XZ ; std::_Tree<std::_Tmap_traits<std::basic_string<char,std::char_traits<char>,std::allocator<char> >,std::basic_string<char,std::char_traits<char>,std::allocator<char> >,std::less<std::basic_string<char,std::char_traits<char>,std::allocator<char> > >,std::allocator<std::pair<std::basic_string<char,std::char_traits<char>,std::allocator<char> > const ,std::basic_string<char,std::char_traits<char>,std::allocator<char> > > >,0> >::const_iterator::operator++
; Function compile flags: /Ogtpy
;	COMDAT ??Econst_iterator@?$_Tree@V?$_Tmap_traits@V?$basic_string@DU?$char_traits@D@std@@V?$allocator@D@2@@std@@V12@U?$less@V?$basic_string@DU?$char_traits@D@std@@V?$allocator@D@2@@std@@@2@V?$allocator@U?$pair@$$CBV?$basic_string@DU?$char_traits@D@std@@V?$allocator@D@2@@std@@V12@@std@@@2@$0A@@std@@@std@@QAEAAV012@XZ
_TEXT	SEGMENT
??Econst_iterator@?$_Tree@V?$_Tmap_traits@V?$basic_string@DU?$char_traits@D@std@@V?$allocator@D@2@@std@@V12@U?$less@V?$basic_string@DU?$char_traits@D@std@@V?$allocator@D@2@@std@@@2@V?$allocator@U?$pair@$$CBV?$basic_string@DU?$char_traits@D@std@@V?$allocator@D@2@@std@@V12@@std@@@2@$0A@@std@@@std@@QAEAAV012@XZ PROC ; std::_Tree<std::_Tmap_traits<std::basic_string<char,std::char_traits<char>,std::allocator<char> >,std::basic_string<char,std::char_traits<char>,std::allocator<char> >,std::less<std::basic_string<char,std::char_traits<char>,std::allocator<char> > >,std::allocator<std::pair<std::basic_string<char,std::char_traits<char>,std::allocator<char> > const ,std::basic_string<char,std::char_traits<char>,std::allocator<char> > > >,0> >::const_iterator::operator++, COMDAT
; _this$ = ecx

; 262  : 			{	// preincrement

  00000	56		 push	 esi
  00001	8b f1		 mov	 esi, ecx

; 263  : 			_Inc();

  00003	e8 00 00 00 00	 call	 ?_Inc@const_iterator@?$_Tree@V?$_Tmap_traits@V?$basic_string@DU?$char_traits@D@std@@V?$allocator@D@2@@std@@V12@U?$less@V?$basic_string@DU?$char_traits@D@std@@V?$allocator@D@2@@std@@@2@V?$allocator@U?$pair@$$CBV?$basic_string@DU?$char_traits@D@std@@V?$allocator@D@2@@std@@V12@@std@@@2@$0A@@std@@@std@@QAEXXZ ; std::_Tree<std::_Tmap_traits<std::basic_string<char,std::char_traits<char>,std::allocator<char> >,std::basic_string<char,std::char_traits<char>,std::allocator<char> >,std::less<std::basic_string<char,std::char_traits<char>,std::allocator<char> > >,std::allocator<std::pair<std::basic_string<char,std::char_traits<char>,std::allocator<char> > const ,std::basic_string<char,std::char_traits<char>,std::allocator<char> > > >,0> >::const_iterator::_Inc

; 264  : 			return (*this);

  00008	8b c6		 mov	 eax, esi
  0000a	5e		 pop	 esi

; 265  : 			}

  0000b	c3		 ret	 0
??Econst_iterator@?$_Tree@V?$_Tmap_traits@V?$basic_string@DU?$char_traits@D@std@@V?$allocator@D@2@@std@@V12@U?$less@V?$basic_string@DU?$char_traits@D@std@@V?$allocator@D@2@@std@@@2@V?$allocator@U?$pair@$$CBV?$basic_string@DU?$char_traits@D@std@@V?$allocator@D@2@@std@@V12@@std@@@2@$0A@@std@@@std@@QAEAAV012@XZ ENDP ; std::_Tree<std::_Tmap_traits<std::basic_string<char,std::char_traits<char>,std::allocator<char> >,std::basic_string<char,std::char_traits<char>,std::allocator<char> >,std::less<std::basic_string<char,std::char_traits<char>,std::allocator<char> > >,std::allocator<std::pair<std::basic_string<char,std::char_traits<char>,std::allocator<char> > const ,std::basic_string<char,std::char_traits<char>,std::allocator<char> > > >,0> >::const_iterator::operator++
_TEXT	ENDS
PUBLIC	??$copy_s@U?$char_traits@D@std@@@_Traits_helper@std@@YAPADPADIPBDI@Z ; std::_Traits_helper::copy_s<std::char_traits<char> >
; Function compile flags: /Ogtpy
; File d:\program files\microsoft visual studio 8\vc\include\iosfwd
;	COMDAT ??$copy_s@U?$char_traits@D@std@@@_Traits_helper@std@@YAPADPADIPBDI@Z
_TEXT	SEGMENT
__First1$ = 8						; size = 4
__Size$ = 12						; size = 4
__First2$ = 16						; size = 4
__Count$ = 20						; size = 4
??$copy_s@U?$char_traits@D@std@@@_Traits_helper@std@@YAPADPADIPBDI@Z PROC ; std::_Traits_helper::copy_s<std::char_traits<char> >, COMDAT

; 582  : 		return copy_s<_Traits>(_First1, _Size, _First2, _Count, _Char_traits_cat<_Traits>());

  00000	8b 44 24 10	 mov	 eax, DWORD PTR __Count$[esp-4]
  00004	8b 4c 24 0c	 mov	 ecx, DWORD PTR __First2$[esp-4]
  00008	8b 54 24 08	 mov	 edx, DWORD PTR __Size$[esp-4]
  0000c	56		 push	 esi
  0000d	8b 74 24 08	 mov	 esi, DWORD PTR __First1$[esp]
  00011	50		 push	 eax
  00012	51		 push	 ecx
  00013	52		 push	 edx
  00014	56		 push	 esi
  00015	e8 00 00 00 00	 call	 _memcpy_s
  0001a	83 c4 10	 add	 esp, 16			; 00000010H
  0001d	8b c6		 mov	 eax, esi
  0001f	5e		 pop	 esi

; 583  : 	}

  00020	c3		 ret	 0
??$copy_s@U?$char_traits@D@std@@@_Traits_helper@std@@YAPADPADIPBDI@Z ENDP ; std::_Traits_helper::copy_s<std::char_traits<char> >
_TEXT	ENDS
PUBLIC	??$move_s@U?$char_traits@D@std@@@_Traits_helper@std@@YAPADPADIPBDI@Z ; std::_Traits_helper::move_s<std::char_traits<char> >
; Function compile flags: /Ogtpy
;	COMDAT ??$move_s@U?$char_traits@D@std@@@_Traits_helper@std@@YAPADPADIPBDI@Z
_TEXT	SEGMENT
__First1$ = 8						; size = 4
__Size$ = 12						; size = 4
__First2$ = 16						; size = 4
__Count$ = 20						; size = 4
??$move_s@U?$char_traits@D@std@@@_Traits_helper@std@@YAPADPADIPBDI@Z PROC ; std::_Traits_helper::move_s<std::char_traits<char> >, COMDAT

; 609  : 		return move_s<_Traits>(_First1, _Size, _First2, _Count, _Char_traits_cat<_Traits>());

  00000	8b 44 24 10	 mov	 eax, DWORD PTR __Count$[esp-4]
  00004	8b 4c 24 0c	 mov	 ecx, DWORD PTR __First2$[esp-4]
  00008	8b 54 24 08	 mov	 edx, DWORD PTR __Size$[esp-4]
  0000c	56		 push	 esi
  0000d	8b 74 24 08	 mov	 esi, DWORD PTR __First1$[esp]
  00011	50		 push	 eax
  00012	51		 push	 ecx
  00013	52		 push	 edx
  00014	56		 push	 esi
  00015	e8 00 00 00 00	 call	 _memmove_s
  0001a	83 c4 10	 add	 esp, 16			; 00000010H
  0001d	8b c6		 mov	 eax, esi
  0001f	5e		 pop	 esi

; 610  : 	}

  00020	c3		 ret	 0
??$move_s@U?$char_traits@D@std@@@_Traits_helper@std@@YAPADPADIPBDI@Z ENDP ; std::_Traits_helper::move_s<std::char_traits<char> >
_TEXT	ENDS
PUBLIC	?erase@?$basic_string@DU?$char_traits@D@std@@V?$allocator@D@2@@std@@QAEAAV12@II@Z ; std::basic_string<char,std::char_traits<char>,std::allocator<char> >::erase
EXTRN	?_Xran@_String_base@std@@SAXXZ:PROC		; std::_String_base::_Xran
; Function compile flags: /Ogtpy
; File d:\program files\microsoft visual studio 8\vc\include\xstring
;	COMDAT ?erase@?$basic_string@DU?$char_traits@D@std@@V?$allocator@D@2@@std@@QAEAAV12@II@Z
_TEXT	SEGMENT
tv130 = 8						; size = 4
__Off$ = 8						; size = 4
__Count$ = 12						; size = 4
?erase@?$basic_string@DU?$char_traits@D@std@@V?$allocator@D@2@@std@@QAEAAV12@II@Z PROC ; std::basic_string<char,std::char_traits<char>,std::allocator<char> >::erase, COMDAT
; _this$ = ecx

; 1240 : 		{	// erase elements [_Off, _Off + _Count)

  00000	53		 push	 ebx

; 1241 : 		if (_Mysize < _Off)

  00001	8b 5c 24 08	 mov	 ebx, DWORD PTR __Off$[esp]
  00005	56		 push	 esi
  00006	8b f1		 mov	 esi, ecx
  00008	39 5e 14	 cmp	 DWORD PTR [esi+20], ebx
  0000b	57		 push	 edi
  0000c	73 05		 jae	 SHORT $LN3@erase

; 1242 : 			_String_base::_Xran();	// _Off off end

  0000e	e8 00 00 00 00	 call	 ?_Xran@_String_base@std@@SAXXZ ; std::_String_base::_Xran
$LN3@erase:

; 1243 : 		if (_Mysize - _Off < _Count)

  00013	8b 46 14	 mov	 eax, DWORD PTR [esi+20]
  00016	8b 7c 24 14	 mov	 edi, DWORD PTR __Count$[esp+8]
  0001a	2b c3		 sub	 eax, ebx
  0001c	3b c7		 cmp	 eax, edi

; 1244 : 			_Count = _Mysize - _Off;	// trim _Count

  0001e	0f 42 f8	 cmovb	 edi, eax

; 1245 : 		if (0 < _Count)

  00021	85 ff		 test	 edi, edi
  00023	76 55		 jbe	 SHORT $LN30@erase

; 1246 : 			{	// move elements down
; 1247 : 			_Traits_helper::move_s<_Traits>(_Myptr() + _Off, _Myres - _Off, _Myptr() + _Off + _Count,
; 1248 : 				_Mysize - _Off - _Count);

  00025	8b 4e 18	 mov	 ecx, DWORD PTR [esi+24]
  00028	83 f9 10	 cmp	 ecx, 16			; 00000010H
  0002b	55		 push	 ebp
  0002c	8d 6e 04	 lea	 ebp, DWORD PTR [esi+4]
  0002f	72 09		 jb	 SHORT $LN8@erase
  00031	8b 55 00	 mov	 edx, DWORD PTR [ebp]
  00034	89 54 24 14	 mov	 DWORD PTR tv130[esp+12], edx
  00038	eb 04		 jmp	 SHORT $LN9@erase
$LN8@erase:
  0003a	89 6c 24 14	 mov	 DWORD PTR tv130[esp+12], ebp
$LN9@erase:
  0003e	83 f9 10	 cmp	 ecx, 16			; 00000010H
  00041	72 05		 jb	 SHORT $LN12@erase
  00043	8b 55 00	 mov	 edx, DWORD PTR [ebp]
  00046	eb 02		 jmp	 SHORT $LN13@erase
$LN12@erase:
  00048	8b d5		 mov	 edx, ebp
$LN13@erase:
  0004a	2b c7		 sub	 eax, edi
  0004c	50		 push	 eax
  0004d	8b 44 24 18	 mov	 eax, DWORD PTR tv130[esp+16]
  00051	03 c3		 add	 eax, ebx
  00053	03 c7		 add	 eax, edi
  00055	50		 push	 eax
  00056	2b cb		 sub	 ecx, ebx
  00058	51		 push	 ecx
  00059	03 d3		 add	 edx, ebx
  0005b	52		 push	 edx
  0005c	e8 00 00 00 00	 call	 _memmove_s

; 1249 : 			size_type _Newsize = _Mysize - _Count;

  00061	8b 46 14	 mov	 eax, DWORD PTR [esi+20]
  00064	2b c7		 sub	 eax, edi
  00066	83 c4 10	 add	 esp, 16			; 00000010H

; 1250 : 			_Eos(_Newsize);

  00069	83 7e 18 10	 cmp	 DWORD PTR [esi+24], 16	; 00000010H
  0006d	89 46 14	 mov	 DWORD PTR [esi+20], eax
  00070	72 03		 jb	 SHORT $LN26@erase
  00072	8b 6d 00	 mov	 ebp, DWORD PTR [ebp]
$LN26@erase:
  00075	c6 04 28 00	 mov	 BYTE PTR [eax+ebp], 0
  00079	5d		 pop	 ebp
$LN30@erase:
  0007a	5f		 pop	 edi

; 1251 : 			}
; 1252 : 		return (*this);

  0007b	8b c6		 mov	 eax, esi
  0007d	5e		 pop	 esi
  0007e	5b		 pop	 ebx

; 1253 : 		}

  0007f	c2 08 00	 ret	 8
?erase@?$basic_string@DU?$char_traits@D@std@@V?$allocator@D@2@@std@@QAEAAV12@II@Z ENDP ; std::basic_string<char,std::char_traits<char>,std::allocator<char> >::erase
_TEXT	ENDS
PUBLIC	?_Tidy@?$basic_string@DU?$char_traits@D@std@@V?$allocator@D@2@@std@@IAEX_NI@Z ; std::basic_string<char,std::char_traits<char>,std::allocator<char> >::_Tidy
; Function compile flags: /Ogtpy
;	COMDAT ?_Tidy@?$basic_string@DU?$char_traits@D@std@@V?$allocator@D@2@@std@@IAEX_NI@Z
_TEXT	SEGMENT
__Built$ = 8						; size = 1
__Newsize$ = 12						; size = 4
?_Tidy@?$basic_string@DU?$char_traits@D@std@@V?$allocator@D@2@@std@@IAEX_NI@Z PROC ; std::basic_string<char,std::char_traits<char>,std::allocator<char> >::_Tidy, COMDAT
; _this$ = ecx

; 2067 : 		if (!_Built)

  00000	80 7c 24 04 00	 cmp	 BYTE PTR __Built$[esp-4], 0
  00005	56		 push	 esi
  00006	57		 push	 edi
  00007	8b 7c 24 10	 mov	 edi, DWORD PTR __Newsize$[esp+4]
  0000b	8b f1		 mov	 esi, ecx
  0000d	74 27		 je	 SHORT $LN15@Tidy

; 2068 : 			;
; 2069 : 		else if (_BUF_SIZE <= _Myres)

  0000f	83 7e 18 10	 cmp	 DWORD PTR [esi+24], 16	; 00000010H
  00013	72 21		 jb	 SHORT $LN15@Tidy

; 2070 : 			{	// copy any leftovers to small buffer and deallocate
; 2071 : 			_Elem *_Ptr = _Bx._Ptr;
; 2072 : 			if (0 < _Newsize)

  00015	85 ff		 test	 edi, edi
  00017	8d 46 04	 lea	 eax, DWORD PTR [esi+4]
  0001a	53		 push	 ebx
  0001b	8b 18		 mov	 ebx, DWORD PTR [eax]
  0001d	76 0d		 jbe	 SHORT $LN13@Tidy

; 2073 : 				_Traits_helper::copy_s<_Traits>(_Bx._Buf, _BUF_SIZE, _Ptr, _Newsize);

  0001f	57		 push	 edi
  00020	53		 push	 ebx
  00021	6a 10		 push	 16			; 00000010H
  00023	50		 push	 eax
  00024	e8 00 00 00 00	 call	 _memcpy_s
  00029	83 c4 10	 add	 esp, 16			; 00000010H
$LN13@Tidy:

; 2074 : 			_Mybase::_Alval.deallocate(_Ptr, _Myres + 1);

  0002c	53		 push	 ebx
  0002d	e8 00 00 00 00	 call	 ??3@YAXPAX@Z		; operator delete
  00032	83 c4 04	 add	 esp, 4
  00035	5b		 pop	 ebx
$LN15@Tidy:

; 2075 : 			}
; 2076 : 		_Myres = _BUF_SIZE - 1;
; 2077 : 		_Eos(_Newsize);

  00036	89 7e 14	 mov	 DWORD PTR [esi+20], edi
  00039	c7 46 18 0f 00
	00 00		 mov	 DWORD PTR [esi+24], 15	; 0000000fH
  00040	c6 44 3e 04 00	 mov	 BYTE PTR [esi+edi+4], 0
  00045	5f		 pop	 edi
  00046	5e		 pop	 esi

; 2078 : 		}

  00047	c2 08 00	 ret	 8
?_Tidy@?$basic_string@DU?$char_traits@D@std@@V?$allocator@D@2@@std@@IAEX_NI@Z ENDP ; std::basic_string<char,std::char_traits<char>,std::allocator<char> >::_Tidy
_TEXT	ENDS
PUBLIC	?_Copy@?$basic_string@DU?$char_traits@D@std@@V?$allocator@D@2@@std@@IAEXII@Z ; std::basic_string<char,std::char_traits<char>,std::allocator<char> >::_Copy
EXTRN	___security_cookie:DWORD
EXTRN	___CxxFrameHandler3:PROC
EXTRN	@__security_check_cookie@4:PROC
;	COMDAT xdata$x
; File d:\program files\microsoft visual studio 8\vc\include\iosfwd
xdata$x	SEGMENT
__catchsym$?_Copy@?$basic_string@DU?$char_traits@D@std@@V?$allocator@D@2@@std@@IAEXII@Z$5 DD 040H
	DD	00H
	DD	00H
	DD	FLAT:__catch$?_Copy@?$basic_string@DU?$char_traits@D@std@@V?$allocator@D@2@@std@@IAEXII@Z$0
__catchsym$?_Copy@?$basic_string@DU?$char_traits@D@std@@V?$allocator@D@2@@std@@IAEXII@Z$4 DD 040H
	DD	00H
	DD	00H
	DD	FLAT:__catch$?_Copy@?$basic_string@DU?$char_traits@D@std@@V?$allocator@D@2@@std@@IAEXII@Z$1
__unwindtable$?_Copy@?$basic_string@DU?$char_traits@D@std@@V?$allocator@D@2@@std@@IAEXII@Z DD 0ffffffffH
	DD	00H
	DD	0ffffffffH
	DD	00H
	DD	01H
	DD	00H
	DD	01H
	DD	00H
__ehfuncinfo$?_Copy@?$basic_string@DU?$char_traits@D@std@@V?$allocator@D@2@@std@@IAEXII@Z DD 019930522H
	DD	04H
	DD	FLAT:__unwindtable$?_Copy@?$basic_string@DU?$char_traits@D@std@@V?$allocator@D@2@@std@@IAEXII@Z
	DD	02H
	DD	FLAT:__tryblocktable$?_Copy@?$basic_string@DU?$char_traits@D@std@@V?$allocator@D@2@@std@@IAEXII@Z
	DD	2 DUP(00H)
	DD	00H
	DD	01H
__tryblocktable$?_Copy@?$basic_string@DU?$char_traits@D@std@@V?$allocator@D@2@@std@@IAEXII@Z DD 02H
	DD	02H
	DD	03H
	DD	01H
	DD	FLAT:__catchsym$?_Copy@?$basic_string@DU?$char_traits@D@std@@V?$allocator@D@2@@std@@IAEXII@Z$4
	DD	00H
	DD	00H
	DD	03H
	DD	01H
	DD	FLAT:__catchsym$?_Copy@?$basic_string@DU?$char_traits@D@std@@V?$allocator@D@2@@std@@IAEXII@Z$5
; Function compile flags: /Ogtpy
; File d:\program files\microsoft visual studio 8\vc\include\xstring
xdata$x	ENDS
;	COMDAT ?_Copy@?$basic_string@DU?$char_traits@D@std@@V?$allocator@D@2@@std@@IAEXII@Z
_TEXT	SEGMENT
__Newres$ = -24						; size = 4
_this$ = -20						; size = 4
__$EHRec$ = -16						; size = 16
__Ptr$ = 8						; size = 4
__Newsize$ = 8						; size = 4
__Oldlen$ = 12						; size = 4
?_Copy@?$basic_string@DU?$char_traits@D@std@@V?$allocator@D@2@@std@@IAEXII@Z PROC ; std::basic_string<char,std::char_traits<char>,std::allocator<char> >::_Copy, COMDAT
; _this$ = ecx

; 2000 : 		{	// copy _Oldlen elements to newly allocated buffer

  00000	55		 push	 ebp
  00001	8b ec		 mov	 ebp, esp
  00003	6a ff		 push	 -1
  00005	68 00 00 00 00	 push	 __ehhandler$?_Copy@?$basic_string@DU?$char_traits@D@std@@V?$allocator@D@2@@std@@IAEXII@Z
  0000a	64 a1 00 00 00
	00		 mov	 eax, DWORD PTR fs:0
  00010	50		 push	 eax
  00011	83 ec 0c	 sub	 esp, 12			; 0000000cH
  00014	53		 push	 ebx
  00015	56		 push	 esi
  00016	57		 push	 edi
  00017	a1 00 00 00 00	 mov	 eax, DWORD PTR ___security_cookie
  0001c	33 c5		 xor	 eax, ebp
  0001e	50		 push	 eax
  0001f	8d 45 f4	 lea	 eax, DWORD PTR __$EHRec$[ebp+4]
  00022	64 a3 00 00 00
	00		 mov	 DWORD PTR fs:0, eax
  00028	89 65 f0	 mov	 DWORD PTR __$EHRec$[ebp], esp
  0002b	8b f9		 mov	 edi, ecx
  0002d	89 7d ec	 mov	 DWORD PTR _this$[ebp], edi

; 2001 : 		size_type _Newres = _Newsize | _ALLOC_MASK;

  00030	8b 45 08	 mov	 eax, DWORD PTR __Newsize$[ebp]
  00033	8b f0		 mov	 esi, eax
  00035	83 ce 0f	 or	 esi, 15			; 0000000fH

; 2002 : 		if (max_size() < _Newres)

  00038	83 fe fe	 cmp	 esi, -2			; fffffffeH
  0003b	76 04		 jbe	 SHORT $LN6@Copy

; 2003 : 			_Newres = _Newsize;	// undo roundup if too big

  0003d	8b f0		 mov	 esi, eax

; 2004 : 		else if (_Newres / 3 < _Myres / 2

  0003f	eb 22		 jmp	 SHORT $LN4@Copy
$LN6@Copy:

; 2005 : 			&& _Myres <= max_size() - _Myres / 2)

  00041	8b 5f 18	 mov	 ebx, DWORD PTR [edi+24]
  00044	b8 ab aa aa aa	 mov	 eax, -1431655765	; aaaaaaabH
  00049	f7 e6		 mul	 esi
  0004b	8b cb		 mov	 ecx, ebx
  0004d	d1 e9		 shr	 ecx, 1
  0004f	d1 ea		 shr	 edx, 1
  00051	3b d1		 cmp	 edx, ecx
  00053	73 0e		 jae	 SHORT $LN4@Copy
  00055	b8 fe ff ff ff	 mov	 eax, -2			; fffffffeH
  0005a	2b c1		 sub	 eax, ecx
  0005c	3b d8		 cmp	 ebx, eax
  0005e	77 03		 ja	 SHORT $LN4@Copy

; 2006 : 			_Newres = _Myres + _Myres / 2;	// grow exponentially if possible

  00060	8d 34 19	 lea	 esi, DWORD PTR [ecx+ebx]
$LN4@Copy:

; 2007 : 		_Elem *_Ptr = 0;
; 2008 : 
; 2009 : 		_TRY_BEGIN
; 2010 : 			_Ptr = _Mybase::_Alval.allocate(_Newres + 1);

  00063	8d 4e 01	 lea	 ecx, DWORD PTR [esi+1]
  00066	6a 00		 push	 0
  00068	51		 push	 ecx
  00069	c7 45 fc 00 00
	00 00		 mov	 DWORD PTR __$EHRec$[ebp+12], 0
  00070	e8 00 00 00 00	 call	 ??$_Allocate@D@std@@YAPADIPAD@Z ; std::_Allocate<char>
  00075	83 c4 08	 add	 esp, 8
  00078	89 45 08	 mov	 DWORD PTR __Ptr$[ebp], eax

; 2018 : 			_CATCH_END
; 2019 : 		_CATCH_END

  0007b	eb 2a		 jmp	 SHORT $LN16@Copy
__catch$?_Copy@?$basic_string@DU?$char_traits@D@std@@V?$allocator@D@2@@std@@IAEXII@Z$0:

; 2011 : 		_CATCH_ALL
; 2012 : 			_Newres = _Newsize;	// allocation failed, undo roundup and retry

  0007d	8b 45 08	 mov	 eax, DWORD PTR __Newsize$[ebp]
  00080	89 65 f0	 mov	 DWORD PTR __$EHRec$[ebp], esp
  00083	89 45 e8	 mov	 DWORD PTR __Newres$[ebp], eax

; 2013 : 			_TRY_BEGIN
; 2014 : 				_Ptr = _Mybase::_Alval.allocate(_Newres + 1);

  00086	83 c0 01	 add	 eax, 1
  00089	6a 00		 push	 0
  0008b	50		 push	 eax
  0008c	c6 45 fc 02	 mov	 BYTE PTR __$EHRec$[ebp+12], 2
  00090	e8 00 00 00 00	 call	 ??$_Allocate@D@std@@YAPADIPAD@Z ; std::_Allocate<char>
  00095	89 45 08	 mov	 DWORD PTR __Ptr$[ebp], eax
  00098	83 c4 08	 add	 esp, 8

; 2018 : 			_CATCH_END
; 2019 : 		_CATCH_END

  0009b	b8 00 00 00 00	 mov	 eax, $LN106@Copy
  000a0	c3		 ret	 0
$LN106@Copy:
  000a1	8b 7d ec	 mov	 edi, DWORD PTR _this$[ebp]
  000a4	8b 75 e8	 mov	 esi, DWORD PTR __Newres$[ebp]
$LN16@Copy:

; 2020 : 
; 2021 : 		if (0 < _Oldlen)

  000a7	8b 5d 0c	 mov	 ebx, DWORD PTR __Oldlen$[ebp]
  000aa	85 db		 test	 ebx, ebx
  000ac	76 20		 jbe	 SHORT $LN71@Copy

; 2022 : 			_Traits_helper::copy_s<_Traits>(_Ptr, _Newres + 1, _Myptr(), _Oldlen);	// copy existing elements

  000ae	83 7f 18 10	 cmp	 DWORD PTR [edi+24], 16	; 00000010H
  000b2	72 05		 jb	 SHORT $LN63@Copy
  000b4	8b 47 04	 mov	 eax, DWORD PTR [edi+4]
  000b7	eb 03		 jmp	 SHORT $LN64@Copy
$LN63@Copy:
  000b9	8d 47 04	 lea	 eax, DWORD PTR [edi+4]
$LN64@Copy:
  000bc	53		 push	 ebx
  000bd	50		 push	 eax
  000be	8b 45 08	 mov	 eax, DWORD PTR __Ptr$[ebp]
  000c1	8d 56 01	 lea	 edx, DWORD PTR [esi+1]
  000c4	52		 push	 edx
  000c5	50		 push	 eax
  000c6	e8 00 00 00 00	 call	 _memcpy_s
  000cb	83 c4 10	 add	 esp, 16			; 00000010H
$LN71@Copy:

; 2023 : 		_Tidy(true);

  000ce	83 7f 18 10	 cmp	 DWORD PTR [edi+24], 16	; 00000010H
  000d2	72 0c		 jb	 SHORT $LN87@Copy
  000d4	8b 4f 04	 mov	 ecx, DWORD PTR [edi+4]
  000d7	51		 push	 ecx
  000d8	e8 00 00 00 00	 call	 ??3@YAXPAX@Z		; operator delete
  000dd	83 c4 04	 add	 esp, 4
$LN87@Copy:

; 2024 : 		_Bx._Ptr = _Ptr;
; 2025 : 		_Myres = _Newres;
; 2026 : 		_Eos(_Oldlen);

  000e0	83 fe 10	 cmp	 esi, 16			; 00000010H
  000e3	8b 4d 08	 mov	 ecx, DWORD PTR __Ptr$[ebp]
  000e6	8d 47 04	 lea	 eax, DWORD PTR [edi+4]
  000e9	c6 00 00	 mov	 BYTE PTR [eax], 0
  000ec	89 08		 mov	 DWORD PTR [eax], ecx
  000ee	89 77 18	 mov	 DWORD PTR [edi+24], esi
  000f1	89 5f 14	 mov	 DWORD PTR [edi+20], ebx
  000f4	72 02		 jb	 SHORT $LN101@Copy
  000f6	8b c1		 mov	 eax, ecx
$LN101@Copy:
  000f8	c6 04 18 00	 mov	 BYTE PTR [eax+ebx], 0

; 2027 : 		}

  000fc	8b 4d f4	 mov	 ecx, DWORD PTR __$EHRec$[ebp+4]
  000ff	64 89 0d 00 00
	00 00		 mov	 DWORD PTR fs:0, ecx
  00106	59		 pop	 ecx
  00107	5f		 pop	 edi
  00108	5e		 pop	 esi
  00109	5b		 pop	 ebx
  0010a	8b e5		 mov	 esp, ebp
  0010c	5d		 pop	 ebp
  0010d	c2 08 00	 ret	 8
__catch$?_Copy@?$basic_string@DU?$char_traits@D@std@@V?$allocator@D@2@@std@@IAEXII@Z$1:

; 2015 : 			_CATCH_ALL
; 2016 : 			_Tidy(true);	// failed again, discard storage and reraise

  00110	8b 75 ec	 mov	 esi, DWORD PTR _this$[ebp]
  00113	83 7e 18 10	 cmp	 DWORD PTR [esi+24], 16	; 00000010H
  00117	72 0c		 jb	 SHORT $LN51@Copy
  00119	8b 56 04	 mov	 edx, DWORD PTR [esi+4]
  0011c	52		 push	 edx
  0011d	e8 00 00 00 00	 call	 ??3@YAXPAX@Z		; operator delete
  00122	83 c4 04	 add	 esp, 4
$LN51@Copy:

; 2017 : 			_RERAISE;

  00125	6a 00		 push	 0
  00127	c7 46 18 0f 00
	00 00		 mov	 DWORD PTR [esi+24], 15	; 0000000fH
  0012e	c7 46 14 00 00
	00 00		 mov	 DWORD PTR [esi+20], 0
  00135	6a 00		 push	 0
  00137	c6 46 04 00	 mov	 BYTE PTR [esi+4], 0
  0013b	e8 00 00 00 00	 call	 __CxxThrowException@8
$LN110@Copy:
$LN109@Copy:
  00140	cc		 int	 3
_TEXT	ENDS
;	COMDAT text$x
text$x	SEGMENT
__ehhandler$?_Copy@?$basic_string@DU?$char_traits@D@std@@V?$allocator@D@2@@std@@IAEXII@Z:
  00000	8b 54 24 08	 mov	 edx, DWORD PTR [esp+8]
  00004	8d 42 0c	 lea	 eax, DWORD PTR [edx+12]
  00007	8b 4a e4	 mov	 ecx, DWORD PTR [edx-28]
  0000a	33 c8		 xor	 ecx, eax
  0000c	e8 00 00 00 00	 call	 @__security_check_cookie@4
  00011	b8 00 00 00 00	 mov	 eax, OFFSET __ehfuncinfo$?_Copy@?$basic_string@DU?$char_traits@D@std@@V?$allocator@D@2@@std@@IAEXII@Z
  00016	e9 00 00 00 00	 jmp	 ___CxxFrameHandler3
text$x	ENDS
?_Copy@?$basic_string@DU?$char_traits@D@std@@V?$allocator@D@2@@std@@IAEXII@Z ENDP ; std::basic_string<char,std::char_traits<char>,std::allocator<char> >::_Copy
PUBLIC	?_Buynode@?$_Tree@V?$_Tmap_traits@V?$basic_string@DU?$char_traits@D@std@@V?$allocator@D@2@@std@@V12@U?$less@V?$basic_string@DU?$char_traits@D@std@@V?$allocator@D@2@@std@@@2@V?$allocator@U?$pair@$$CBV?$basic_string@DU?$char_traits@D@std@@V?$allocator@D@2@@std@@V12@@std@@@2@$0A@@std@@@std@@IAEPAU_Node@?$_Tree_nod@V?$_Tmap_traits@V?$basic_string@DU?$char_traits@D@std@@V?$allocator@D@2@@std@@V12@U?$less@V?$basic_string@DU?$char_traits@D@std@@V?$allocator@D@2@@std@@@2@V?$allocator@U?$pair@$$CBV?$basic_string@DU?$char_traits@D@std@@V?$allocator@D@2@@std@@V12@@std@@@2@$0A@@std@@@2@XZ ; std::_Tree<std::_Tmap_traits<std::basic_string<char,std::char_traits<char>,std::allocator<char> >,std::basic_string<char,std::char_traits<char>,std::allocator<char> >,std::less<std::basic_string<char,std::char_traits<char>,std::allocator<char> > >,std::allocator<std::pair<std::basic_string<char,std::char_traits<char>,std::allocator<char> > const ,std::basic_string<char,std::char_traits<char>,std::allocator<char> > > >,0> >::_Buynode
; Function compile flags: /Ogtpy
; File d:\program files\microsoft visual studio 8\vc\include\xtree
;	COMDAT ?_Buynode@?$_Tree@V?$_Tmap_traits@V?$basic_string@DU?$char_traits@D@std@@V?$allocator@D@2@@std@@V12@U?$less@V?$basic_string@DU?$char_traits@D@std@@V?$allocator@D@2@@std@@@2@V?$allocator@U?$pair@$$CBV?$basic_string@DU?$char_traits@D@std@@V?$allocator@D@2@@std@@V12@@std@@@2@$0A@@std@@@std@@IAEPAU_Node@?$_Tree_nod@V?$_Tmap_traits@V?$basic_string@DU?$char_traits@D@std@@V?$allocator@D@2@@std@@V12@U?$less@V?$basic_string@DU?$char_traits@D@std@@V?$allocator@D@2@@std@@@2@V?$allocator@U?$pair@$$CBV?$basic_string@DU?$char_traits@D@std@@V?$allocator@D@2@@std@@V12@@std@@@2@$0A@@std@@@2@XZ
_TEXT	SEGMENT
?_Buynode@?$_Tree@V?$_Tmap_traits@V?$basic_string@DU?$char_traits@D@std@@V?$allocator@D@2@@std@@V12@U?$less@V?$basic_string@DU?$char_traits@D@std@@V?$allocator@D@2@@std@@@2@V?$allocator@U?$pair@$$CBV?$basic_string@DU?$char_traits@D@std@@V?$allocator@D@2@@std@@V12@@std@@@2@$0A@@std@@@std@@IAEPAU_Node@?$_Tree_nod@V?$_Tmap_traits@V?$basic_string@DU?$char_traits@D@std@@V?$allocator@D@2@@std@@V12@U?$less@V?$basic_string@DU?$char_traits@D@std@@V?$allocator@D@2@@std@@@2@V?$allocator@U?$pair@$$CBV?$basic_string@DU?$char_traits@D@std@@V?$allocator@D@2@@std@@V12@@std@@@2@$0A@@std@@@2@XZ PROC ; std::_Tree<std::_Tmap_traits<std::basic_string<char,std::char_traits<char>,std::allocator<char> >,std::basic_string<char,std::char_traits<char>,std::allocator<char> >,std::less<std::basic_string<char,std::char_traits<char>,std::allocator<char> > >,std::allocator<std::pair<std::basic_string<char,std::char_traits<char>,std::allocator<char> > const ,std::basic_string<char,std::char_traits<char>,std::allocator<char> > > >,0> >::_Buynode, COMDAT
; _this$ = ecx

; 1290 : 		_Nodeptr _Wherenode = this->_Alnod.allocate(1);

  00000	6a 48		 push	 72			; 00000048H
  00002	e8 00 00 00 00	 call	 ??2@YAPAXI@Z		; operator new
  00007	83 c4 04	 add	 esp, 4

; 1291 : 		int _Linkcnt = 0;
; 1292 : 
; 1293 : 		_TRY_BEGIN
; 1294 : 		this->_Alptr.construct(&_Left(_Wherenode), 0);

  0000a	85 c0		 test	 eax, eax
  0000c	74 06		 je	 SHORT $LN27@Buynode
  0000e	c7 00 00 00 00
	00		 mov	 DWORD PTR [eax], 0
$LN27@Buynode:

; 1295 : 		++_Linkcnt;
; 1296 : 		this->_Alptr.construct(&_Parent(_Wherenode), 0);

  00014	8d 48 04	 lea	 ecx, DWORD PTR [eax+4]
  00017	85 c9		 test	 ecx, ecx
  00019	74 06		 je	 SHORT $LN37@Buynode
  0001b	c7 01 00 00 00
	00		 mov	 DWORD PTR [ecx], 0
$LN37@Buynode:

; 1297 : 		++_Linkcnt;
; 1298 : 		this->_Alptr.construct(&_Right(_Wherenode), 0);

  00021	8d 48 08	 lea	 ecx, DWORD PTR [eax+8]
  00024	85 c9		 test	 ecx, ecx
  00026	74 06		 je	 SHORT $LN47@Buynode
  00028	c7 01 00 00 00
	00		 mov	 DWORD PTR [ecx], 0
$LN47@Buynode:

; 1299 : 		_CATCH_ALL
; 1300 : 		if (1 < _Linkcnt)
; 1301 : 			this->_Alptr.destroy(&_Parent(_Wherenode));
; 1302 : 		if (0 < _Linkcnt)
; 1303 : 			this->_Alptr.destroy(&_Left(_Wherenode));
; 1304 : 		this->_Alnod.deallocate(_Wherenode, 1);
; 1305 : 		_RERAISE;
; 1306 : 		_CATCH_END
; 1307 : 		_Color(_Wherenode) = _Black;

  0002e	c6 40 44 01	 mov	 BYTE PTR [eax+68], 1

; 1308 : 		_Isnil(_Wherenode) = false;

  00032	c6 40 45 00	 mov	 BYTE PTR [eax+69], 0

; 1309 : 		return (_Wherenode);
; 1310 : 		}

  00036	c3		 ret	 0
?_Buynode@?$_Tree@V?$_Tmap_traits@V?$basic_string@DU?$char_traits@D@std@@V?$allocator@D@2@@std@@V12@U?$less@V?$basic_string@DU?$char_traits@D@std@@V?$allocator@D@2@@std@@@2@V?$allocator@U?$pair@$$CBV?$basic_string@DU?$char_traits@D@std@@V?$allocator@D@2@@std@@V12@@std@@@2@$0A@@std@@@std@@IAEPAU_Node@?$_Tree_nod@V?$_Tmap_traits@V?$basic_string@DU?$char_traits@D@std@@V?$allocator@D@2@@std@@V12@U?$less@V?$basic_string@DU?$char_traits@D@std@@V?$allocator@D@2@@std@@@2@V?$allocator@U?$pair@$$CBV?$basic_string@DU?$char_traits@D@std@@V?$allocator@D@2@@std@@V12@@std@@@2@$0A@@std@@@2@XZ ENDP ; std::_Tree<std::_Tmap_traits<std::basic_string<char,std::char_traits<char>,std::allocator<char> >,std::basic_string<char,std::char_traits<char>,std::allocator<char> >,std::less<std::basic_string<char,std::char_traits<char>,std::allocator<char> > >,std::allocator<std::pair<std::basic_string<char,std::char_traits<char>,std::allocator<char> > const ,std::basic_string<char,std::char_traits<char>,std::allocator<char> > > >,0> >::_Buynode
_TEXT	ENDS
PUBLIC	??0?$_Tree_ptr@V?$_Tmap_traits@V?$basic_string@DU?$char_traits@D@std@@V?$allocator@D@2@@std@@V12@U?$less@V?$basic_string@DU?$char_traits@D@std@@V?$allocator@D@2@@std@@@2@V?$allocator@U?$pair@$$CBV?$basic_string@DU?$char_traits@D@std@@V?$allocator@D@2@@std@@V12@@std@@@2@$0A@@std@@@std@@IAE@ABU?$less@V?$basic_string@DU?$char_traits@D@std@@V?$allocator@D@2@@std@@@1@V?$allocator@U?$pair@$$CBV?$basic_string@DU?$char_traits@D@std@@V?$allocator@D@2@@std@@V12@@std@@@1@@Z ; std::_Tree_ptr<std::_Tmap_traits<std::basic_string<char,std::char_traits<char>,std::allocator<char> >,std::basic_string<char,std::char_traits<char>,std::allocator<char> >,std::less<std::basic_string<char,std::char_traits<char>,std::allocator<char> > >,std::allocator<std::pair<std::basic_string<char,std::char_traits<char>,std::allocator<char> > const ,std::basic_string<char,std::char_traits<char>,std::allocator<char> > > >,0> >::_Tree_ptr<std::_Tmap_traits<std::basic_string<char,std::char_traits<char>,std::allocator<char> >,std::basic_string<char,std::char_traits<char>,std::allocator<char> >,std::less<std::basic_string<char,std::char_traits<char>,std::allocator<char> > >,std::allocator<std::pair<std::basic_string<char,std::char_traits<char>,std::allocator<char> > const ,std::basic_string<char,std::char_traits<char>,std::allocator<char> > > >,0> >
; Function compile flags: /Ogtpy
;	COMDAT ??0?$_Tree_ptr@V?$_Tmap_traits@V?$basic_string@DU?$char_traits@D@std@@V?$allocator@D@2@@std@@V12@U?$less@V?$basic_string@DU?$char_traits@D@std@@V?$allocator@D@2@@std@@@2@V?$allocator@U?$pair@$$CBV?$basic_string@DU?$char_traits@D@std@@V?$allocator@D@2@@std@@V12@@std@@@2@$0A@@std@@@std@@IAE@ABU?$less@V?$basic_string@DU?$char_traits@D@std@@V?$allocator@D@2@@std@@@1@V?$allocator@U?$pair@$$CBV?$basic_string@DU?$char_traits@D@std@@V?$allocator@D@2@@std@@V12@@std@@@1@@Z
_TEXT	SEGMENT
__Parg$ = 8						; size = 4
__Al$ = 12						; size = 1
??0?$_Tree_ptr@V?$_Tmap_traits@V?$basic_string@DU?$char_traits@D@std@@V?$allocator@D@2@@std@@V12@U?$less@V?$basic_string@DU?$char_traits@D@std@@V?$allocator@D@2@@std@@@2@V?$allocator@U?$pair@$$CBV?$basic_string@DU?$char_traits@D@std@@V?$allocator@D@2@@std@@V12@@std@@@2@$0A@@std@@@std@@IAE@ABU?$less@V?$basic_string@DU?$char_traits@D@std@@V?$allocator@D@2@@std@@@1@V?$allocator@U?$pair@$$CBV?$basic_string@DU?$char_traits@D@std@@V?$allocator@D@2@@std@@V12@@std@@@1@@Z PROC ; std::_Tree_ptr<std::_Tmap_traits<std::basic_string<char,std::char_traits<char>,std::allocator<char> >,std::basic_string<char,std::char_traits<char>,std::allocator<char> >,std::less<std::basic_string<char,std::char_traits<char>,std::allocator<char> > >,std::allocator<std::pair<std::basic_string<char,std::char_traits<char>,std::allocator<char> > const ,std::basic_string<char,std::char_traits<char>,std::allocator<char> > > >,0> >::_Tree_ptr<std::_Tmap_traits<std::basic_string<char,std::char_traits<char>,std::allocator<char> >,std::basic_string<char,std::char_traits<char>,std::allocator<char> >,std::less<std::basic_string<char,std::char_traits<char>,std::allocator<char> > >,std::allocator<std::pair<std::basic_string<char,std::char_traits<char>,std::allocator<char> > const ,std::basic_string<char,std::char_traits<char>,std::allocator<char> > > >,0> >, COMDAT
; _this$ = ecx

; 83   : 		{	// construct base, and allocator from _Al

  00000	8b c1		 mov	 eax, ecx

; 84   : 		}

  00002	c2 08 00	 ret	 8
??0?$_Tree_ptr@V?$_Tmap_traits@V?$basic_string@DU?$char_traits@D@std@@V?$allocator@D@2@@std@@V12@U?$less@V?$basic_string@DU?$char_traits@D@std@@V?$allocator@D@2@@std@@@2@V?$allocator@U?$pair@$$CBV?$basic_string@DU?$char_traits@D@std@@V?$allocator@D@2@@std@@V12@@std@@@2@$0A@@std@@@std@@IAE@ABU?$less@V?$basic_string@DU?$char_traits@D@std@@V?$allocator@D@2@@std@@@1@V?$allocator@U?$pair@$$CBV?$basic_string@DU?$char_traits@D@std@@V?$allocator@D@2@@std@@V12@@std@@@1@@Z ENDP ; std::_Tree_ptr<std::_Tmap_traits<std::basic_string<char,std::char_traits<char>,std::allocator<char> >,std::basic_string<char,std::char_traits<char>,std::allocator<char> >,std::less<std::basic_string<char,std::char_traits<char>,std::allocator<char> > >,std::allocator<std::pair<std::basic_string<char,std::char_traits<char>,std::allocator<char> > const ,std::basic_string<char,std::char_traits<char>,std::allocator<char> > > >,0> >::_Tree_ptr<std::_Tmap_traits<std::basic_string<char,std::char_traits<char>,std::allocator<char> >,std::basic_string<char,std::char_traits<char>,std::allocator<char> >,std::less<std::basic_string<char,std::char_traits<char>,std::allocator<char> > >,std::allocator<std::pair<std::basic_string<char,std::char_traits<char>,std::allocator<char> > const ,std::basic_string<char,std::char_traits<char>,std::allocator<char> > > >,0> >
_TEXT	ENDS
PUBLIC	??0iterator@?$_Tree@V?$_Tmap_traits@V?$basic_string@DU?$char_traits@D@std@@V?$allocator@D@2@@std@@V12@U?$less@V?$basic_string@DU?$char_traits@D@std@@V?$allocator@D@2@@std@@@2@V?$allocator@U?$pair@$$CBV?$basic_string@DU?$char_traits@D@std@@V?$allocator@D@2@@std@@V12@@std@@@2@$0A@@std@@@std@@QAE@PAU_Node@?$_Tree_nod@V?$_Tmap_traits@V?$basic_string@DU?$char_traits@D@std@@V?$allocator@D@2@@std@@V12@U?$less@V?$basic_string@DU?$char_traits@D@std@@V?$allocator@D@2@@std@@@2@V?$allocator@U?$pair@$$CBV?$basic_string@DU?$char_traits@D@std@@V?$allocator@D@2@@std@@V12@@std@@@2@$0A@@std@@@2@PBV12@@Z ; std::_Tree<std::_Tmap_traits<std::basic_string<char,std::char_traits<char>,std::allocator<char> >,std::basic_string<char,std::char_traits<char>,std::allocator<char> >,std::less<std::basic_string<char,std::char_traits<char>,std::allocator<char> > >,std::allocator<std::pair<std::basic_string<char,std::char_traits<char>,std::allocator<char> > const ,std::basic_string<char,std::char_traits<char>,std::allocator<char> > > >,0> >::iterator::iterator
; Function compile flags: /Ogtpy
;	COMDAT ??0iterator@?$_Tree@V?$_Tmap_traits@V?$basic_string@DU?$char_traits@D@std@@V?$allocator@D@2@@std@@V12@U?$less@V?$basic_string@DU?$char_traits@D@std@@V?$allocator@D@2@@std@@@2@V?$allocator@U?$pair@$$CBV?$basic_string@DU?$char_traits@D@std@@V?$allocator@D@2@@std@@V12@@std@@@2@$0A@@std@@@std@@QAE@PAU_Node@?$_Tree_nod@V?$_Tmap_traits@V?$basic_string@DU?$char_traits@D@std@@V?$allocator@D@2@@std@@V12@U?$less@V?$basic_string@DU?$char_traits@D@std@@V?$allocator@D@2@@std@@@2@V?$allocator@U?$pair@$$CBV?$basic_string@DU?$char_traits@D@std@@V?$allocator@D@2@@std@@V12@@std@@@2@$0A@@std@@@2@PBV12@@Z
_TEXT	SEGMENT
__Pnode$ = 8						; size = 4
__Plist$ = 12						; size = 4
??0iterator@?$_Tree@V?$_Tmap_traits@V?$basic_string@DU?$char_traits@D@std@@V?$allocator@D@2@@std@@V12@U?$less@V?$basic_string@DU?$char_traits@D@std@@V?$allocator@D@2@@std@@@2@V?$allocator@U?$pair@$$CBV?$basic_string@DU?$char_traits@D@std@@V?$allocator@D@2@@std@@V12@@std@@@2@$0A@@std@@@std@@QAE@PAU_Node@?$_Tree_nod@V?$_Tmap_traits@V?$basic_string@DU?$char_traits@D@std@@V?$allocator@D@2@@std@@V12@U?$less@V?$basic_string@DU?$char_traits@D@std@@V?$allocator@D@2@@std@@@2@V?$allocator@U?$pair@$$CBV?$basic_string@DU?$char_traits@D@std@@V?$allocator@D@2@@std@@V12@@std@@@2@$0A@@std@@@2@PBV12@@Z PROC ; std::_Tree<std::_Tmap_traits<std::basic_string<char,std::char_traits<char>,std::allocator<char> >,std::basic_string<char,std::char_traits<char>,std::allocator<char> >,std::less<std::basic_string<char,std::char_traits<char>,std::allocator<char> > >,std::allocator<std::pair<std::basic_string<char,std::char_traits<char>,std::allocator<char> > const ,std::basic_string<char,std::char_traits<char>,std::allocator<char> > > >,0> >::iterator::iterator, COMDAT
; _this$ = ecx

; 437  : 			{	// construct with node pointer _Pnode

  00000	8b 44 24 04	 mov	 eax, DWORD PTR __Pnode$[esp-4]
  00004	56		 push	 esi
  00005	57		 push	 edi
  00006	8b 7c 24 10	 mov	 edi, DWORD PTR __Plist$[esp+4]
  0000a	85 ff		 test	 edi, edi
  0000c	8b f1		 mov	 esi, ecx
  0000e	c7 06 00 00 00
	00		 mov	 DWORD PTR [esi], 0
  00014	89 46 04	 mov	 DWORD PTR [esi+4], eax
  00017	75 05		 jne	 SHORT $LN10@iterator
  00019	e8 00 00 00 00	 call	 __invalid_parameter_noinfo
$LN10@iterator:
  0001e	89 3e		 mov	 DWORD PTR [esi], edi
  00020	5f		 pop	 edi

; 438  : 			}

  00021	8b c6		 mov	 eax, esi
  00023	5e		 pop	 esi
  00024	c2 08 00	 ret	 8
??0iterator@?$_Tree@V?$_Tmap_traits@V?$basic_string@DU?$char_traits@D@std@@V?$allocator@D@2@@std@@V12@U?$less@V?$basic_string@DU?$char_traits@D@std@@V?$allocator@D@2@@std@@@2@V?$allocator@U?$pair@$$CBV?$basic_string@DU?$char_traits@D@std@@V?$allocator@D@2@@std@@V12@@std@@@2@$0A@@std@@@std@@QAE@PAU_Node@?$_Tree_nod@V?$_Tmap_traits@V?$basic_string@DU?$char_traits@D@std@@V?$allocator@D@2@@std@@V12@U?$less@V?$basic_string@DU?$char_traits@D@std@@V?$allocator@D@2@@std@@@2@V?$allocator@U?$pair@$$CBV?$basic_string@DU?$char_traits@D@std@@V?$allocator@D@2@@std@@V12@@std@@@2@$0A@@std@@@2@PBV12@@Z ENDP ; std::_Tree<std::_Tmap_traits<std::basic_string<char,std::char_traits<char>,std::allocator<char> >,std::basic_string<char,std::char_traits<char>,std::allocator<char> >,std::less<std::basic_string<char,std::char_traits<char>,std::allocator<char> > >,std::allocator<std::pair<std::basic_string<char,std::char_traits<char>,std::allocator<char> > const ,std::basic_string<char,std::char_traits<char>,std::allocator<char> > > >,0> >::iterator::iterator
_TEXT	ENDS
PUBLIC	??Eiterator@?$_Tree@V?$_Tmap_traits@V?$basic_string@DU?$char_traits@D@std@@V?$allocator@D@2@@std@@V12@U?$less@V?$basic_string@DU?$char_traits@D@std@@V?$allocator@D@2@@std@@@2@V?$allocator@U?$pair@$$CBV?$basic_string@DU?$char_traits@D@std@@V?$allocator@D@2@@std@@V12@@std@@@2@$0A@@std@@@std@@QAEAAV012@XZ ; std::_Tree<std::_Tmap_traits<std::basic_string<char,std::char_traits<char>,std::allocator<char> >,std::basic_string<char,std::char_traits<char>,std::allocator<char> >,std::less<std::basic_string<char,std::char_traits<char>,std::allocator<char> > >,std::allocator<std::pair<std::basic_string<char,std::char_traits<char>,std::allocator<char> > const ,std::basic_string<char,std::char_traits<char>,std::allocator<char> > > >,0> >::iterator::operator++
; Function compile flags: /Ogtpy
;	COMDAT ??Eiterator@?$_Tree@V?$_Tmap_traits@V?$basic_string@DU?$char_traits@D@std@@V?$allocator@D@2@@std@@V12@U?$less@V?$basic_string@DU?$char_traits@D@std@@V?$allocator@D@2@@std@@@2@V?$allocator@U?$pair@$$CBV?$basic_string@DU?$char_traits@D@std@@V?$allocator@D@2@@std@@V12@@std@@@2@$0A@@std@@@std@@QAEAAV012@XZ
_TEXT	SEGMENT
??Eiterator@?$_Tree@V?$_Tmap_traits@V?$basic_string@DU?$char_traits@D@std@@V?$allocator@D@2@@std@@V12@U?$less@V?$basic_string@DU?$char_traits@D@std@@V?$allocator@D@2@@std@@@2@V?$allocator@U?$pair@$$CBV?$basic_string@DU?$char_traits@D@std@@V?$allocator@D@2@@std@@V12@@std@@@2@$0A@@std@@@std@@QAEAAV012@XZ PROC ; std::_Tree<std::_Tmap_traits<std::basic_string<char,std::char_traits<char>,std::allocator<char> >,std::basic_string<char,std::char_traits<char>,std::allocator<char> >,std::less<std::basic_string<char,std::char_traits<char>,std::allocator<char> > >,std::allocator<std::pair<std::basic_string<char,std::char_traits<char>,std::allocator<char> > const ,std::basic_string<char,std::char_traits<char>,std::allocator<char> > > >,0> >::iterator::operator++, COMDAT
; _this$ = ecx

; 460  : 			{	// preincrement

  00000	56		 push	 esi
  00001	8b f1		 mov	 esi, ecx

; 461  : 			++(*(const_iterator *)this);

  00003	e8 00 00 00 00	 call	 ?_Inc@const_iterator@?$_Tree@V?$_Tmap_traits@V?$basic_string@DU?$char_traits@D@std@@V?$allocator@D@2@@std@@V12@U?$less@V?$basic_string@DU?$char_traits@D@std@@V?$allocator@D@2@@std@@@2@V?$allocator@U?$pair@$$CBV?$basic_string@DU?$char_traits@D@std@@V?$allocator@D@2@@std@@V12@@std@@@2@$0A@@std@@@std@@QAEXXZ ; std::_Tree<std::_Tmap_traits<std::basic_string<char,std::char_traits<char>,std::allocator<char> >,std::basic_string<char,std::char_traits<char>,std::allocator<char> >,std::less<std::basic_string<char,std::char_traits<char>,std::allocator<char> > >,std::allocator<std::pair<std::basic_string<char,std::char_traits<char>,std::allocator<char> > const ,std::basic_string<char,std::char_traits<char>,std::allocator<char> > > >,0> >::const_iterator::_Inc

; 462  : 			return (*this);

  00008	8b c6		 mov	 eax, esi
  0000a	5e		 pop	 esi

; 463  : 			}

  0000b	c3		 ret	 0
??Eiterator@?$_Tree@V?$_Tmap_traits@V?$basic_string@DU?$char_traits@D@std@@V?$allocator@D@2@@std@@V12@U?$less@V?$basic_string@DU?$char_traits@D@std@@V?$allocator@D@2@@std@@@2@V?$allocator@U?$pair@$$CBV?$basic_string@DU?$char_traits@D@std@@V?$allocator@D@2@@std@@V12@@std@@@2@$0A@@std@@@std@@QAEAAV012@XZ ENDP ; std::_Tree<std::_Tmap_traits<std::basic_string<char,std::char_traits<char>,std::allocator<char> >,std::basic_string<char,std::char_traits<char>,std::allocator<char> >,std::less<std::basic_string<char,std::char_traits<char>,std::allocator<char> > >,std::allocator<std::pair<std::basic_string<char,std::char_traits<char>,std::allocator<char> > const ,std::basic_string<char,std::char_traits<char>,std::allocator<char> > > >,0> >::iterator::operator++
_TEXT	ENDS
PUBLIC	??1?$basic_string@DU?$char_traits@D@std@@V?$allocator@D@2@@std@@QAE@XZ ; std::basic_string<char,std::char_traits<char>,std::allocator<char> >::~basic_string<char,std::char_traits<char>,std::allocator<char> >
; Function compile flags: /Ogtpy
; File d:\program files\microsoft visual studio 8\vc\include\xstring
;	COMDAT ??1?$basic_string@DU?$char_traits@D@std@@V?$allocator@D@2@@std@@QAE@XZ
_TEXT	SEGMENT
??1?$basic_string@DU?$char_traits@D@std@@V?$allocator@D@2@@std@@QAE@XZ PROC ; std::basic_string<char,std::char_traits<char>,std::allocator<char> >::~basic_string<char,std::char_traits<char>,std::allocator<char> >, COMDAT
; _this$ = ecx

; 904  : 		{	// destroy the string

  00000	56		 push	 esi
  00001	8b f1		 mov	 esi, ecx

; 905  : 		_Tidy(true);

  00003	83 7e 18 10	 cmp	 DWORD PTR [esi+24], 16	; 00000010H
  00007	72 0c		 jb	 SHORT $LN17@basic_stri
  00009	8b 46 04	 mov	 eax, DWORD PTR [esi+4]
  0000c	50		 push	 eax
  0000d	e8 00 00 00 00	 call	 ??3@YAXPAX@Z		; operator delete
  00012	83 c4 04	 add	 esp, 4
$LN17@basic_stri:
  00015	33 c0		 xor	 eax, eax
  00017	c7 46 18 0f 00
	00 00		 mov	 DWORD PTR [esi+24], 15	; 0000000fH
  0001e	89 46 14	 mov	 DWORD PTR [esi+20], eax
  00021	88 46 04	 mov	 BYTE PTR [esi+4], al
  00024	5e		 pop	 esi

; 906  : 		}

  00025	c3		 ret	 0
??1?$basic_string@DU?$char_traits@D@std@@V?$allocator@D@2@@std@@QAE@XZ ENDP ; std::basic_string<char,std::char_traits<char>,std::allocator<char> >::~basic_string<char,std::char_traits<char>,std::allocator<char> >
_TEXT	ENDS
PUBLIC	?_Grow@?$basic_string@DU?$char_traits@D@std@@V?$allocator@D@2@@std@@IAE_NI_N@Z ; std::basic_string<char,std::char_traits<char>,std::allocator<char> >::_Grow
EXTRN	?_Xlen@_String_base@std@@SAXXZ:PROC		; std::_String_base::_Xlen
; Function compile flags: /Ogtpy
;	COMDAT ?_Grow@?$basic_string@DU?$char_traits@D@std@@V?$allocator@D@2@@std@@IAE_NI_N@Z
_TEXT	SEGMENT
__Newsize$ = 8						; size = 4
__Trim$ = 12						; size = 1
?_Grow@?$basic_string@DU?$char_traits@D@std@@V?$allocator@D@2@@std@@IAE_NI_N@Z PROC ; std::basic_string<char,std::char_traits<char>,std::allocator<char> >::_Grow, COMDAT
; _this$ = ecx

; 2036 : 		{	// ensure buffer is big enough, trim to size if _Trim is true

  00000	53		 push	 ebx

; 2037 : 			if (max_size() < _Newsize)

  00001	8b 5c 24 08	 mov	 ebx, DWORD PTR __Newsize$[esp]
  00005	83 fb fe	 cmp	 ebx, -2			; fffffffeH
  00008	56		 push	 esi
  00009	8b f1		 mov	 esi, ecx
  0000b	76 05		 jbe	 SHORT $LN6@Grow

; 2038 : 			_String_base::_Xlen();	// result too long

  0000d	e8 00 00 00 00	 call	 ?_Xlen@_String_base@std@@SAXXZ ; std::_String_base::_Xlen
$LN6@Grow:

; 2039 : 		if (_Myres < _Newsize)

  00012	8b 46 18	 mov	 eax, DWORD PTR [esi+24]
  00015	3b c3		 cmp	 eax, ebx
  00017	73 19		 jae	 SHORT $LN5@Grow

; 2040 : 			_Copy(_Newsize, _Mysize);	// reallocate to grow

  00019	8b 46 14	 mov	 eax, DWORD PTR [esi+20]
  0001c	50		 push	 eax
  0001d	53		 push	 ebx
  0001e	8b ce		 mov	 ecx, esi
  00020	e8 00 00 00 00	 call	 ?_Copy@?$basic_string@DU?$char_traits@D@std@@V?$allocator@D@2@@std@@IAEXII@Z ; std::basic_string<char,std::char_traits<char>,std::allocator<char> >::_Copy

; 2046 : 		return (0 < _Newsize);	// return true only if more work to do

  00025	33 c9		 xor	 ecx, ecx
  00027	3b cb		 cmp	 ecx, ebx
  00029	1b c0		 sbb	 eax, eax
  0002b	5e		 pop	 esi
  0002c	f7 d8		 neg	 eax
  0002e	5b		 pop	 ebx

; 2047 : 		}

  0002f	c2 08 00	 ret	 8
$LN5@Grow:

; 2041 : 		else if (_Trim && _Newsize < _BUF_SIZE)

  00032	80 7c 24 10 00	 cmp	 BYTE PTR __Trim$[esp+4], 0
  00037	74 52		 je	 SHORT $LN3@Grow
  00039	83 fb 10	 cmp	 ebx, 16			; 00000010H
  0003c	73 4d		 jae	 SHORT $LN3@Grow
  0003e	57		 push	 edi

; 2042 : 			_Tidy(true,	// copy and deallocate if trimming to small string
; 2043 : 				_Newsize < _Mysize ? _Newsize : _Mysize);

  0003f	8b 7e 14	 mov	 edi, DWORD PTR [esi+20]
  00042	3b df		 cmp	 ebx, edi
  00044	73 02		 jae	 SHORT $LN9@Grow
  00046	8b fb		 mov	 edi, ebx
$LN9@Grow:
  00048	83 f8 10	 cmp	 eax, 16			; 00000010H
  0004b	72 21		 jb	 SHORT $LN33@Grow
  0004d	85 ff		 test	 edi, edi
  0004f	8d 46 04	 lea	 eax, DWORD PTR [esi+4]
  00052	55		 push	 ebp
  00053	8b 28		 mov	 ebp, DWORD PTR [eax]
  00055	76 0d		 jbe	 SHORT $LN31@Grow
  00057	57		 push	 edi
  00058	55		 push	 ebp
  00059	6a 10		 push	 16			; 00000010H
  0005b	50		 push	 eax
  0005c	e8 00 00 00 00	 call	 _memcpy_s
  00061	83 c4 10	 add	 esp, 16			; 00000010H
$LN31@Grow:
  00064	55		 push	 ebp
  00065	e8 00 00 00 00	 call	 ??3@YAXPAX@Z		; operator delete
  0006a	83 c4 04	 add	 esp, 4
  0006d	5d		 pop	 ebp
$LN33@Grow:
  0006e	89 7e 14	 mov	 DWORD PTR [esi+20], edi
  00071	c7 46 18 0f 00
	00 00		 mov	 DWORD PTR [esi+24], 15	; 0000000fH

; 2046 : 		return (0 < _Newsize);	// return true only if more work to do

  00078	33 c9		 xor	 ecx, ecx
  0007a	c6 44 3e 04 00	 mov	 BYTE PTR [esi+edi+4], 0
  0007f	3b cb		 cmp	 ecx, ebx
  00081	5f		 pop	 edi
  00082	1b c0		 sbb	 eax, eax
  00084	5e		 pop	 esi
  00085	f7 d8		 neg	 eax
  00087	5b		 pop	 ebx

; 2047 : 		}

  00088	c2 08 00	 ret	 8
$LN3@Grow:

; 2044 : 		else if (_Newsize == 0)

  0008b	85 db		 test	 ebx, ebx
  0008d	75 20		 jne	 SHORT $LN49@Grow

; 2045 : 			_Eos(0);	// new size is zero, just null terminate

  0008f	83 f8 10	 cmp	 eax, 16			; 00000010H
  00092	89 5e 14	 mov	 DWORD PTR [esi+20], ebx
  00095	72 12		 jb	 SHORT $LN47@Grow
  00097	8b 76 04	 mov	 esi, DWORD PTR [esi+4]

; 2046 : 		return (0 < _Newsize);	// return true only if more work to do

  0009a	33 c9		 xor	 ecx, ecx
  0009c	3b cb		 cmp	 ecx, ebx
  0009e	88 1e		 mov	 BYTE PTR [esi], bl
  000a0	1b c0		 sbb	 eax, eax
  000a2	5e		 pop	 esi
  000a3	f7 d8		 neg	 eax
  000a5	5b		 pop	 ebx

; 2047 : 		}

  000a6	c2 08 00	 ret	 8

; 2045 : 			_Eos(0);	// new size is zero, just null terminate

$LN47@Grow:
  000a9	83 c6 04	 add	 esi, 4
  000ac	c6 06 00	 mov	 BYTE PTR [esi], 0
$LN49@Grow:

; 2046 : 		return (0 < _Newsize);	// return true only if more work to do

  000af	33 c9		 xor	 ecx, ecx
  000b1	3b cb		 cmp	 ecx, ebx
  000b3	1b c0		 sbb	 eax, eax
  000b5	5e		 pop	 esi
  000b6	f7 d8		 neg	 eax
  000b8	5b		 pop	 ebx

; 2047 : 		}

  000b9	c2 08 00	 ret	 8
?_Grow@?$basic_string@DU?$char_traits@D@std@@V?$allocator@D@2@@std@@IAE_NI_N@Z ENDP ; std::basic_string<char,std::char_traits<char>,std::allocator<char> >::_Grow
_TEXT	ENDS
PUBLIC	?begin@?$_Tree@V?$_Tmap_traits@V?$basic_string@DU?$char_traits@D@std@@V?$allocator@D@2@@std@@V12@U?$less@V?$basic_string@DU?$char_traits@D@std@@V?$allocator@D@2@@std@@@2@V?$allocator@U?$pair@$$CBV?$basic_string@DU?$char_traits@D@std@@V?$allocator@D@2@@std@@V12@@std@@@2@$0A@@std@@@std@@QAE?AViterator@12@XZ ; std::_Tree<std::_Tmap_traits<std::basic_string<char,std::char_traits<char>,std::allocator<char> >,std::basic_string<char,std::char_traits<char>,std::allocator<char> >,std::less<std::basic_string<char,std::char_traits<char>,std::allocator<char> > >,std::allocator<std::pair<std::basic_string<char,std::char_traits<char>,std::allocator<char> > const ,std::basic_string<char,std::char_traits<char>,std::allocator<char> > > >,0> >::begin
; Function compile flags: /Ogtpy
; File d:\program files\microsoft visual studio 8\vc\include\xtree
;	COMDAT ?begin@?$_Tree@V?$_Tmap_traits@V?$basic_string@DU?$char_traits@D@std@@V?$allocator@D@2@@std@@V12@U?$less@V?$basic_string@DU?$char_traits@D@std@@V?$allocator@D@2@@std@@@2@V?$allocator@U?$pair@$$CBV?$basic_string@DU?$char_traits@D@std@@V?$allocator@D@2@@std@@V12@@std@@@2@$0A@@std@@@std@@QAE?AViterator@12@XZ
_TEXT	SEGMENT
___$ReturnUdt$ = 8					; size = 4
?begin@?$_Tree@V?$_Tmap_traits@V?$basic_string@DU?$char_traits@D@std@@V?$allocator@D@2@@std@@V12@U?$less@V?$basic_string@DU?$char_traits@D@std@@V?$allocator@D@2@@std@@@2@V?$allocator@U?$pair@$$CBV?$basic_string@DU?$char_traits@D@std@@V?$allocator@D@2@@std@@V12@@std@@@2@$0A@@std@@@std@@QAE?AViterator@12@XZ PROC ; std::_Tree<std::_Tmap_traits<std::basic_string<char,std::char_traits<char>,std::allocator<char> >,std::basic_string<char,std::char_traits<char>,std::allocator<char> >,std::less<std::basic_string<char,std::char_traits<char>,std::allocator<char> > >,std::allocator<std::pair<std::basic_string<char,std::char_traits<char>,std::allocator<char> > const ,std::basic_string<char,std::char_traits<char>,std::allocator<char> > > >,0> >::begin, COMDAT
; _this$ = ecx

; 542  : 		return (_TREE_ITERATOR(_Lmost()));

  00000	8b 41 04	 mov	 eax, DWORD PTR [ecx+4]
  00003	8b 10		 mov	 edx, DWORD PTR [eax]
  00005	8b 44 24 04	 mov	 eax, DWORD PTR ___$ReturnUdt$[esp-4]
  00009	89 50 04	 mov	 DWORD PTR [eax+4], edx
  0000c	89 08		 mov	 DWORD PTR [eax], ecx

; 543  : 		}

  0000e	c2 04 00	 ret	 4
?begin@?$_Tree@V?$_Tmap_traits@V?$basic_string@DU?$char_traits@D@std@@V?$allocator@D@2@@std@@V12@U?$less@V?$basic_string@DU?$char_traits@D@std@@V?$allocator@D@2@@std@@@2@V?$allocator@U?$pair@$$CBV?$basic_string@DU?$char_traits@D@std@@V?$allocator@D@2@@std@@V12@@std@@@2@$0A@@std@@@std@@QAE?AViterator@12@XZ ENDP ; std::_Tree<std::_Tmap_traits<std::basic_string<char,std::char_traits<char>,std::allocator<char> >,std::basic_string<char,std::char_traits<char>,std::allocator<char> >,std::less<std::basic_string<char,std::char_traits<char>,std::allocator<char> > >,std::allocator<std::pair<std::basic_string<char,std::char_traits<char>,std::allocator<char> > const ,std::basic_string<char,std::char_traits<char>,std::allocator<char> > > >,0> >::begin
_TEXT	ENDS
PUBLIC	?end@?$_Tree@V?$_Tmap_traits@V?$basic_string@DU?$char_traits@D@std@@V?$allocator@D@2@@std@@V12@U?$less@V?$basic_string@DU?$char_traits@D@std@@V?$allocator@D@2@@std@@@2@V?$allocator@U?$pair@$$CBV?$basic_string@DU?$char_traits@D@std@@V?$allocator@D@2@@std@@V12@@std@@@2@$0A@@std@@@std@@QAE?AViterator@12@XZ ; std::_Tree<std::_Tmap_traits<std::basic_string<char,std::char_traits<char>,std::allocator<char> >,std::basic_string<char,std::char_traits<char>,std::allocator<char> >,std::less<std::basic_string<char,std::char_traits<char>,std::allocator<char> > >,std::allocator<std::pair<std::basic_string<char,std::char_traits<char>,std::allocator<char> > const ,std::basic_string<char,std::char_traits<char>,std::allocator<char> > > >,0> >::end
; Function compile flags: /Ogtpy
;	COMDAT ?end@?$_Tree@V?$_Tmap_traits@V?$basic_string@DU?$char_traits@D@std@@V?$allocator@D@2@@std@@V12@U?$less@V?$basic_string@DU?$char_traits@D@std@@V?$allocator@D@2@@std@@@2@V?$allocator@U?$pair@$$CBV?$basic_string@DU?$char_traits@D@std@@V?$allocator@D@2@@std@@V12@@std@@@2@$0A@@std@@@std@@QAE?AViterator@12@XZ
_TEXT	SEGMENT
___$ReturnUdt$ = 8					; size = 4
?end@?$_Tree@V?$_Tmap_traits@V?$basic_string@DU?$char_traits@D@std@@V?$allocator@D@2@@std@@V12@U?$less@V?$basic_string@DU?$char_traits@D@std@@V?$allocator@D@2@@std@@@2@V?$allocator@U?$pair@$$CBV?$basic_string@DU?$char_traits@D@std@@V?$allocator@D@2@@std@@V12@@std@@@2@$0A@@std@@@std@@QAE?AViterator@12@XZ PROC ; std::_Tree<std::_Tmap_traits<std::basic_string<char,std::char_traits<char>,std::allocator<char> >,std::basic_string<char,std::char_traits<char>,std::allocator<char> >,std::less<std::basic_string<char,std::char_traits<char>,std::allocator<char> > >,std::allocator<std::pair<std::basic_string<char,std::char_traits<char>,std::allocator<char> > const ,std::basic_string<char,std::char_traits<char>,std::allocator<char> > > >,0> >::end, COMDAT
; _this$ = ecx

; 552  : 		return (_TREE_ITERATOR(_Myhead));

  00000	8b 44 24 04	 mov	 eax, DWORD PTR ___$ReturnUdt$[esp-4]
  00004	8b 51 04	 mov	 edx, DWORD PTR [ecx+4]
  00007	89 50 04	 mov	 DWORD PTR [eax+4], edx
  0000a	89 08		 mov	 DWORD PTR [eax], ecx

; 553  : 		}

  0000c	c2 04 00	 ret	 4
?end@?$_Tree@V?$_Tmap_traits@V?$basic_string@DU?$char_traits@D@std@@V?$allocator@D@2@@std@@V12@U?$less@V?$basic_string@DU?$char_traits@D@std@@V?$allocator@D@2@@std@@@2@V?$allocator@U?$pair@$$CBV?$basic_string@DU?$char_traits@D@std@@V?$allocator@D@2@@std@@V12@@std@@@2@$0A@@std@@@std@@QAE?AViterator@12@XZ ENDP ; std::_Tree<std::_Tmap_traits<std::basic_string<char,std::char_traits<char>,std::allocator<char> >,std::basic_string<char,std::char_traits<char>,std::allocator<char> >,std::less<std::basic_string<char,std::char_traits<char>,std::allocator<char> > >,std::allocator<std::pair<std::basic_string<char,std::char_traits<char>,std::allocator<char> > const ,std::basic_string<char,std::char_traits<char>,std::allocator<char> > > >,0> >::end
_TEXT	ENDS
PUBLIC	?_Init@?$_Tree@V?$_Tmap_traits@V?$basic_string@DU?$char_traits@D@std@@V?$allocator@D@2@@std@@V12@U?$less@V?$basic_string@DU?$char_traits@D@std@@V?$allocator@D@2@@std@@@2@V?$allocator@U?$pair@$$CBV?$basic_string@DU?$char_traits@D@std@@V?$allocator@D@2@@std@@V12@@std@@@2@$0A@@std@@@std@@IAEXXZ ; std::_Tree<std::_Tmap_traits<std::basic_string<char,std::char_traits<char>,std::allocator<char> >,std::basic_string<char,std::char_traits<char>,std::allocator<char> >,std::less<std::basic_string<char,std::char_traits<char>,std::allocator<char> > >,std::allocator<std::pair<std::basic_string<char,std::char_traits<char>,std::allocator<char> > const ,std::basic_string<char,std::char_traits<char>,std::allocator<char> > > >,0> >::_Init
; Function compile flags: /Ogtpy
;	COMDAT ?_Init@?$_Tree@V?$_Tmap_traits@V?$basic_string@DU?$char_traits@D@std@@V?$allocator@D@2@@std@@V12@U?$less@V?$basic_string@DU?$char_traits@D@std@@V?$allocator@D@2@@std@@@2@V?$allocator@U?$pair@$$CBV?$basic_string@DU?$char_traits@D@std@@V?$allocator@D@2@@std@@V12@@std@@@2@$0A@@std@@@std@@IAEXXZ
_TEXT	SEGMENT
?_Init@?$_Tree@V?$_Tmap_traits@V?$basic_string@DU?$char_traits@D@std@@V?$allocator@D@2@@std@@V12@U?$less@V?$basic_string@DU?$char_traits@D@std@@V?$allocator@D@2@@std@@@2@V?$allocator@U?$pair@$$CBV?$basic_string@DU?$char_traits@D@std@@V?$allocator@D@2@@std@@V12@@std@@@2@$0A@@std@@@std@@IAEXXZ PROC ; std::_Tree<std::_Tmap_traits<std::basic_string<char,std::char_traits<char>,std::allocator<char> >,std::basic_string<char,std::char_traits<char>,std::allocator<char> >,std::less<std::basic_string<char,std::char_traits<char>,std::allocator<char> > >,std::allocator<std::pair<std::basic_string<char,std::char_traits<char>,std::allocator<char> > const ,std::basic_string<char,std::char_traits<char>,std::allocator<char> > > >,0> >::_Init, COMDAT
; _this$ = ecx

; 1083 : 		{	// create head/nil node and make tree empty

  00000	56		 push	 esi
  00001	8b f1		 mov	 esi, ecx

; 1084 : 		_Myhead = _Buynode();

  00003	e8 00 00 00 00	 call	 ?_Buynode@?$_Tree@V?$_Tmap_traits@V?$basic_string@DU?$char_traits@D@std@@V?$allocator@D@2@@std@@V12@U?$less@V?$basic_string@DU?$char_traits@D@std@@V?$allocator@D@2@@std@@@2@V?$allocator@U?$pair@$$CBV?$basic_string@DU?$char_traits@D@std@@V?$allocator@D@2@@std@@V12@@std@@@2@$0A@@std@@@std@@IAEPAU_Node@?$_Tree_nod@V?$_Tmap_traits@V?$basic_string@DU?$char_traits@D@std@@V?$allocator@D@2@@std@@V12@U?$less@V?$basic_string@DU?$char_traits@D@std@@V?$allocator@D@2@@std@@@2@V?$allocator@U?$pair@$$CBV?$basic_string@DU?$char_traits@D@std@@V?$allocator@D@2@@std@@V12@@std@@@2@$0A@@std@@@2@XZ ; std::_Tree<std::_Tmap_traits<std::basic_string<char,std::char_traits<char>,std::allocator<char> >,std::basic_string<char,std::char_traits<char>,std::allocator<char> >,std::less<std::basic_string<char,std::char_traits<char>,std::allocator<char> > >,std::allocator<std::pair<std::basic_string<char,std::char_traits<char>,std::allocator<char> > const ,std::basic_string<char,std::char_traits<char>,std::allocator<char> > > >,0> >::_Buynode
  00008	89 46 04	 mov	 DWORD PTR [esi+4], eax

; 1085 : 		_Isnil(_Myhead) = true;

  0000b	c6 40 45 01	 mov	 BYTE PTR [eax+69], 1

; 1086 : 		_Root() = _Myhead;

  0000f	8b 46 04	 mov	 eax, DWORD PTR [esi+4]
  00012	89 40 04	 mov	 DWORD PTR [eax+4], eax

; 1087 : 		_Lmost() = _Myhead, _Rmost() = _Myhead;

  00015	8b 46 04	 mov	 eax, DWORD PTR [esi+4]
  00018	89 00		 mov	 DWORD PTR [eax], eax
  0001a	8b 46 04	 mov	 eax, DWORD PTR [esi+4]
  0001d	89 40 08	 mov	 DWORD PTR [eax+8], eax

; 1088 : 		_Mysize = 0;

  00020	c7 46 08 00 00
	00 00		 mov	 DWORD PTR [esi+8], 0
  00027	5e		 pop	 esi

; 1089 : 		}

  00028	c3		 ret	 0
?_Init@?$_Tree@V?$_Tmap_traits@V?$basic_string@DU?$char_traits@D@std@@V?$allocator@D@2@@std@@V12@U?$less@V?$basic_string@DU?$char_traits@D@std@@V?$allocator@D@2@@std@@@2@V?$allocator@U?$pair@$$CBV?$basic_string@DU?$char_traits@D@std@@V?$allocator@D@2@@std@@V12@@std@@@2@$0A@@std@@@std@@IAEXXZ ENDP ; std::_Tree<std::_Tmap_traits<std::basic_string<char,std::char_traits<char>,std::allocator<char> >,std::basic_string<char,std::char_traits<char>,std::allocator<char> >,std::less<std::basic_string<char,std::char_traits<char>,std::allocator<char> > >,std::allocator<std::pair<std::basic_string<char,std::char_traits<char>,std::allocator<char> > const ,std::basic_string<char,std::char_traits<char>,std::allocator<char> > > >,0> >::_Init
_TEXT	ENDS
PUBLIC	??0?$_Tree_val@V?$_Tmap_traits@V?$basic_string@DU?$char_traits@D@std@@V?$allocator@D@2@@std@@V12@U?$less@V?$basic_string@DU?$char_traits@D@std@@V?$allocator@D@2@@std@@@2@V?$allocator@U?$pair@$$CBV?$basic_string@DU?$char_traits@D@std@@V?$allocator@D@2@@std@@V12@@std@@@2@$0A@@std@@@std@@IAE@ABU?$less@V?$basic_string@DU?$char_traits@D@std@@V?$allocator@D@2@@std@@@1@V?$allocator@U?$pair@$$CBV?$basic_string@DU?$char_traits@D@std@@V?$allocator@D@2@@std@@V12@@std@@@1@@Z ; std::_Tree_val<std::_Tmap_traits<std::basic_string<char,std::char_traits<char>,std::allocator<char> >,std::basic_string<char,std::char_traits<char>,std::allocator<char> >,std::less<std::basic_string<char,std::char_traits<char>,std::allocator<char> > >,std::allocator<std::pair<std::basic_string<char,std::char_traits<char>,std::allocator<char> > const ,std::basic_string<char,std::char_traits<char>,std::allocator<char> > > >,0> >::_Tree_val<std::_Tmap_traits<std::basic_string<char,std::char_traits<char>,std::allocator<char> >,std::basic_string<char,std::char_traits<char>,std::allocator<char> >,std::less<std::basic_string<char,std::char_traits<char>,std::allocator<char> > >,std::allocator<std::pair<std::basic_string<char,std::char_traits<char>,std::allocator<char> > const ,std::basic_string<char,std::char_traits<char>,std::allocator<char> > > >,0> >
; Function compile flags: /Ogtpy
;	COMDAT ??0?$_Tree_val@V?$_Tmap_traits@V?$basic_string@DU?$char_traits@D@std@@V?$allocator@D@2@@std@@V12@U?$less@V?$basic_string@DU?$char_traits@D@std@@V?$allocator@D@2@@std@@@2@V?$allocator@U?$pair@$$CBV?$basic_string@DU?$char_traits@D@std@@V?$allocator@D@2@@std@@V12@@std@@@2@$0A@@std@@@std@@IAE@ABU?$less@V?$basic_string@DU?$char_traits@D@std@@V?$allocator@D@2@@std@@@1@V?$allocator@U?$pair@$$CBV?$basic_string@DU?$char_traits@D@std@@V?$allocator@D@2@@std@@V12@@std@@@1@@Z
_TEXT	SEGMENT
__Parg$ = 8						; size = 4
__Al$ = 12						; size = 1
??0?$_Tree_val@V?$_Tmap_traits@V?$basic_string@DU?$char_traits@D@std@@V?$allocator@D@2@@std@@V12@U?$less@V?$basic_string@DU?$char_traits@D@std@@V?$allocator@D@2@@std@@@2@V?$allocator@U?$pair@$$CBV?$basic_string@DU?$char_traits@D@std@@V?$allocator@D@2@@std@@V12@@std@@@2@$0A@@std@@@std@@IAE@ABU?$less@V?$basic_string@DU?$char_traits@D@std@@V?$allocator@D@2@@std@@@1@V?$allocator@U?$pair@$$CBV?$basic_string@DU?$char_traits@D@std@@V?$allocator@D@2@@std@@V12@@std@@@1@@Z PROC ; std::_Tree_val<std::_Tmap_traits<std::basic_string<char,std::char_traits<char>,std::allocator<char> >,std::basic_string<char,std::char_traits<char>,std::allocator<char> >,std::less<std::basic_string<char,std::char_traits<char>,std::allocator<char> > >,std::allocator<std::pair<std::basic_string<char,std::char_traits<char>,std::allocator<char> > const ,std::basic_string<char,std::char_traits<char>,std::allocator<char> > > >,0> >::_Tree_val<std::_Tmap_traits<std::basic_string<char,std::char_traits<char>,std::allocator<char> >,std::basic_string<char,std::char_traits<char>,std::allocator<char> >,std::less<std::basic_string<char,std::char_traits<char>,std::allocator<char> > >,std::allocator<std::pair<std::basic_string<char,std::char_traits<char>,std::allocator<char> > const ,std::basic_string<char,std::char_traits<char>,std::allocator<char> > > >,0> >, COMDAT
; _this$ = ecx

; 102  : 		{	// construct base, and allocator from _Al

  00000	8b c1		 mov	 eax, ecx

; 103  : 		}

  00002	c2 08 00	 ret	 8
??0?$_Tree_val@V?$_Tmap_traits@V?$basic_string@DU?$char_traits@D@std@@V?$allocator@D@2@@std@@V12@U?$less@V?$basic_string@DU?$char_traits@D@std@@V?$allocator@D@2@@std@@@2@V?$allocator@U?$pair@$$CBV?$basic_string@DU?$char_traits@D@std@@V?$allocator@D@2@@std@@V12@@std@@@2@$0A@@std@@@std@@IAE@ABU?$less@V?$basic_string@DU?$char_traits@D@std@@V?$allocator@D@2@@std@@@1@V?$allocator@U?$pair@$$CBV?$basic_string@DU?$char_traits@D@std@@V?$allocator@D@2@@std@@V12@@std@@@1@@Z ENDP ; std::_Tree_val<std::_Tmap_traits<std::basic_string<char,std::char_traits<char>,std::allocator<char> >,std::basic_string<char,std::char_traits<char>,std::allocator<char> >,std::less<std::basic_string<char,std::char_traits<char>,std::allocator<char> > >,std::allocator<std::pair<std::basic_string<char,std::char_traits<char>,std::allocator<char> > const ,std::basic_string<char,std::char_traits<char>,std::allocator<char> > > >,0> >::_Tree_val<std::_Tmap_traits<std::basic_string<char,std::char_traits<char>,std::allocator<char> >,std::basic_string<char,std::char_traits<char>,std::allocator<char> >,std::less<std::basic_string<char,std::char_traits<char>,std::allocator<char> > >,std::allocator<std::pair<std::basic_string<char,std::char_traits<char>,std::allocator<char> > const ,std::basic_string<char,std::char_traits<char>,std::allocator<char> > > >,0> >
_TEXT	ENDS
PUBLIC	??Eiterator@?$_Tree@V?$_Tmap_traits@V?$basic_string@DU?$char_traits@D@std@@V?$allocator@D@2@@std@@V12@U?$less@V?$basic_string@DU?$char_traits@D@std@@V?$allocator@D@2@@std@@@2@V?$allocator@U?$pair@$$CBV?$basic_string@DU?$char_traits@D@std@@V?$allocator@D@2@@std@@V12@@std@@@2@$0A@@std@@@std@@QAE?AV012@H@Z ; std::_Tree<std::_Tmap_traits<std::basic_string<char,std::char_traits<char>,std::allocator<char> >,std::basic_string<char,std::char_traits<char>,std::allocator<char> >,std::less<std::basic_string<char,std::char_traits<char>,std::allocator<char> > >,std::allocator<std::pair<std::basic_string<char,std::char_traits<char>,std::allocator<char> > const ,std::basic_string<char,std::char_traits<char>,std::allocator<char> > > >,0> >::iterator::operator++
; Function compile flags: /Ogtpy
;	COMDAT ??Eiterator@?$_Tree@V?$_Tmap_traits@V?$basic_string@DU?$char_traits@D@std@@V?$allocator@D@2@@std@@V12@U?$less@V?$basic_string@DU?$char_traits@D@std@@V?$allocator@D@2@@std@@@2@V?$allocator@U?$pair@$$CBV?$basic_string@DU?$char_traits@D@std@@V?$allocator@D@2@@std@@V12@@std@@@2@$0A@@std@@@std@@QAE?AV012@H@Z
_TEXT	SEGMENT
___$ReturnUdt$ = 8					; size = 4
___formal$ = 12						; size = 4
??Eiterator@?$_Tree@V?$_Tmap_traits@V?$basic_string@DU?$char_traits@D@std@@V?$allocator@D@2@@std@@V12@U?$less@V?$basic_string@DU?$char_traits@D@std@@V?$allocator@D@2@@std@@@2@V?$allocator@U?$pair@$$CBV?$basic_string@DU?$char_traits@D@std@@V?$allocator@D@2@@std@@V12@@std@@@2@$0A@@std@@@std@@QAE?AV012@H@Z PROC ; std::_Tree<std::_Tmap_traits<std::basic_string<char,std::char_traits<char>,std::allocator<char> >,std::basic_string<char,std::char_traits<char>,std::allocator<char> >,std::less<std::basic_string<char,std::char_traits<char>,std::allocator<char> > >,std::allocator<std::pair<std::basic_string<char,std::char_traits<char>,std::allocator<char> > const ,std::basic_string<char,std::char_traits<char>,std::allocator<char> > > >,0> >::iterator::operator++, COMDAT
; _this$ = ecx

; 467  : 			iterator _Tmp = *this;

  00000	8b 01		 mov	 eax, DWORD PTR [ecx]
  00002	8b 51 04	 mov	 edx, DWORD PTR [ecx+4]
  00005	56		 push	 esi
  00006	8b 74 24 08	 mov	 esi, DWORD PTR ___$ReturnUdt$[esp]
  0000a	89 06		 mov	 DWORD PTR [esi], eax
  0000c	89 56 04	 mov	 DWORD PTR [esi+4], edx

; 468  : 			++*this;

  0000f	e8 00 00 00 00	 call	 ?_Inc@const_iterator@?$_Tree@V?$_Tmap_traits@V?$basic_string@DU?$char_traits@D@std@@V?$allocator@D@2@@std@@V12@U?$less@V?$basic_string@DU?$char_traits@D@std@@V?$allocator@D@2@@std@@@2@V?$allocator@U?$pair@$$CBV?$basic_string@DU?$char_traits@D@std@@V?$allocator@D@2@@std@@V12@@std@@@2@$0A@@std@@@std@@QAEXXZ ; std::_Tree<std::_Tmap_traits<std::basic_string<char,std::char_traits<char>,std::allocator<char> >,std::basic_string<char,std::char_traits<char>,std::allocator<char> >,std::less<std::basic_string<char,std::char_traits<char>,std::allocator<char> > >,std::allocator<std::pair<std::basic_string<char,std::char_traits<char>,std::allocator<char> > const ,std::basic_string<char,std::char_traits<char>,std::allocator<char> > > >,0> >::const_iterator::_Inc

; 469  : 			return (_Tmp);

  00014	8b c6		 mov	 eax, esi
  00016	5e		 pop	 esi

; 470  : 			}

  00017	c2 08 00	 ret	 8
??Eiterator@?$_Tree@V?$_Tmap_traits@V?$basic_string@DU?$char_traits@D@std@@V?$allocator@D@2@@std@@V12@U?$less@V?$basic_string@DU?$char_traits@D@std@@V?$allocator@D@2@@std@@@2@V?$allocator@U?$pair@$$CBV?$basic_string@DU?$char_traits@D@std@@V?$allocator@D@2@@std@@V12@@std@@@2@$0A@@std@@@std@@QAE?AV012@H@Z ENDP ; std::_Tree<std::_Tmap_traits<std::basic_string<char,std::char_traits<char>,std::allocator<char> >,std::basic_string<char,std::char_traits<char>,std::allocator<char> >,std::less<std::basic_string<char,std::char_traits<char>,std::allocator<char> > >,std::allocator<std::pair<std::basic_string<char,std::char_traits<char>,std::allocator<char> > const ,std::basic_string<char,std::char_traits<char>,std::allocator<char> > > >,0> >::iterator::operator++
_TEXT	ENDS
PUBLIC	??1?$pair@$$CBV?$basic_string@DU?$char_traits@D@std@@V?$allocator@D@2@@std@@V12@@std@@QAE@XZ ; std::pair<std::basic_string<char,std::char_traits<char>,std::allocator<char> > const ,std::basic_string<char,std::char_traits<char>,std::allocator<char> > >::~pair<std::basic_string<char,std::char_traits<char>,std::allocator<char> > const ,std::basic_string<char,std::char_traits<char>,std::allocator<char> > >
; Function compile flags: /Ogtpy
;	COMDAT ??1?$pair@$$CBV?$basic_string@DU?$char_traits@D@std@@V?$allocator@D@2@@std@@V12@@std@@QAE@XZ
_TEXT	SEGMENT
??1?$pair@$$CBV?$basic_string@DU?$char_traits@D@std@@V?$allocator@D@2@@std@@V12@@std@@QAE@XZ PROC ; std::pair<std::basic_string<char,std::char_traits<char>,std::allocator<char> > const ,std::basic_string<char,std::char_traits<char>,std::allocator<char> > >::~pair<std::basic_string<char,std::char_traits<char>,std::allocator<char> > const ,std::basic_string<char,std::char_traits<char>,std::allocator<char> > >, COMDAT
; _this$ = ecx
  00000	53		 push	 ebx
  00001	56		 push	 esi
  00002	8b f1		 mov	 esi, ecx
  00004	83 7e 34 10	 cmp	 DWORD PTR [esi+52], 16	; 00000010H
  00008	72 0c		 jb	 SHORT $LN21@pair
  0000a	8b 46 20	 mov	 eax, DWORD PTR [esi+32]
  0000d	50		 push	 eax
  0000e	e8 00 00 00 00	 call	 ??3@YAXPAX@Z		; operator delete
  00013	83 c4 04	 add	 esp, 4
$LN21@pair:
  00016	33 db		 xor	 ebx, ebx
  00018	c7 46 34 0f 00
	00 00		 mov	 DWORD PTR [esi+52], 15	; 0000000fH
  0001f	89 5e 30	 mov	 DWORD PTR [esi+48], ebx
  00022	88 5e 20	 mov	 BYTE PTR [esi+32], bl
  00025	83 7e 18 10	 cmp	 DWORD PTR [esi+24], 16	; 00000010H
  00029	72 0c		 jb	 SHORT $LN47@pair
  0002b	8b 4e 04	 mov	 ecx, DWORD PTR [esi+4]
  0002e	51		 push	 ecx
  0002f	e8 00 00 00 00	 call	 ??3@YAXPAX@Z		; operator delete
  00034	83 c4 04	 add	 esp, 4
$LN47@pair:
  00037	89 5e 14	 mov	 DWORD PTR [esi+20], ebx
  0003a	c7 46 18 0f 00
	00 00		 mov	 DWORD PTR [esi+24], 15	; 0000000fH
  00041	88 5e 04	 mov	 BYTE PTR [esi+4], bl
  00044	5e		 pop	 esi
  00045	5b		 pop	 ebx
  00046	c3		 ret	 0
??1?$pair@$$CBV?$basic_string@DU?$char_traits@D@std@@V?$allocator@D@2@@std@@V12@@std@@QAE@XZ ENDP ; std::pair<std::basic_string<char,std::char_traits<char>,std::allocator<char> > const ,std::basic_string<char,std::char_traits<char>,std::allocator<char> > >::~pair<std::basic_string<char,std::char_traits<char>,std::allocator<char> > const ,std::basic_string<char,std::char_traits<char>,std::allocator<char> > >
_TEXT	ENDS
PUBLIC	??_7logic_error@std@@6B@			; std::logic_error::`vftable'
PUBLIC	??1logic_error@std@@UAE@XZ			; std::logic_error::~logic_error
PUBLIC	??_R4logic_error@std@@6B@			; std::logic_error::`RTTI Complete Object Locator'
PUBLIC	??_R0?AVlogic_error@std@@@8			; std::logic_error `RTTI Type Descriptor'
PUBLIC	??_R3logic_error@std@@8				; std::logic_error::`RTTI Class Hierarchy Descriptor'
PUBLIC	??_R2logic_error@std@@8				; std::logic_error::`RTTI Base Class Array'
PUBLIC	??_R1A@?0A@EA@logic_error@std@@8		; std::logic_error::`RTTI Base Class Descriptor at (0,-1,0,64)'
PUBLIC	?what@logic_error@std@@UBEPBDXZ			; std::logic_error::what
EXTRN	??_Elogic_error@std@@UAEPAXI@Z:PROC		; std::logic_error::`vector deleting destructor'
;	COMDAT ??_R1A@?0A@EA@logic_error@std@@8
; File d:\program files\microsoft visual studio 8\vc\include\iosfwd
rdata$r	SEGMENT
??_R1A@?0A@EA@logic_error@std@@8 DD FLAT:??_R0?AVlogic_error@std@@@8 ; std::logic_error::`RTTI Base Class Descriptor at (0,-1,0,64)'
	DD	01H
	DD	00H
	DD	0ffffffffH
	DD	00H
	DD	040H
	DD	FLAT:??_R3logic_error@std@@8
rdata$r	ENDS
;	COMDAT ??_R2logic_error@std@@8
rdata$r	SEGMENT
??_R2logic_error@std@@8 DD FLAT:??_R1A@?0A@EA@logic_error@std@@8 ; std::logic_error::`RTTI Base Class Array'
	DD	FLAT:??_R1A@?0A@EA@exception@std@@8
rdata$r	ENDS
;	COMDAT ??_R3logic_error@std@@8
rdata$r	SEGMENT
??_R3logic_error@std@@8 DD 00H				; std::logic_error::`RTTI Class Hierarchy Descriptor'
	DD	00H
	DD	02H
	DD	FLAT:??_R2logic_error@std@@8
rdata$r	ENDS
;	COMDAT ??_R0?AVlogic_error@std@@@8
_DATA	SEGMENT
??_R0?AVlogic_error@std@@@8 DD FLAT:??_7type_info@@6B@	; std::logic_error `RTTI Type Descriptor'
	DD	00H
	DB	'.?AVlogic_error@std@@', 00H
_DATA	ENDS
;	COMDAT ??_R4logic_error@std@@6B@
rdata$r	SEGMENT
??_R4logic_error@std@@6B@ DD 00H			; std::logic_error::`RTTI Complete Object Locator'
	DD	00H
	DD	00H
	DD	FLAT:??_R0?AVlogic_error@std@@@8
	DD	FLAT:??_R3logic_error@std@@8
rdata$r	ENDS
;	COMDAT ??_7logic_error@std@@6B@
CONST	SEGMENT
??_7logic_error@std@@6B@ DD FLAT:??_R4logic_error@std@@6B@ ; std::logic_error::`vftable'
	DD	FLAT:??_Elogic_error@std@@UAEPAXI@Z
	DD	FLAT:?what@logic_error@std@@UBEPBDXZ
; Function compile flags: /Ogtpy
; File d:\program files\microsoft visual studio 8\vc\include\stdexcept
CONST	ENDS
;	COMDAT ??1logic_error@std@@UAE@XZ
_TEXT	SEGMENT
??1logic_error@std@@UAE@XZ PROC				; std::logic_error::~logic_error, COMDAT
; _this$ = ecx

; 31   : 		{	// destroy the object

  00000	56		 push	 esi
  00001	8b f1		 mov	 esi, ecx
  00003	c7 06 00 00 00
	00		 mov	 DWORD PTR [esi], OFFSET ??_7logic_error@std@@6B@

; 32   : 		}

  00009	83 7e 24 10	 cmp	 DWORD PTR [esi+36], 16	; 00000010H
  0000d	72 0c		 jb	 SHORT $LN19@logic_erro
  0000f	8b 46 10	 mov	 eax, DWORD PTR [esi+16]
  00012	50		 push	 eax
  00013	e8 00 00 00 00	 call	 ??3@YAXPAX@Z		; operator delete
  00018	83 c4 04	 add	 esp, 4
$LN19@logic_erro:
  0001b	33 c0		 xor	 eax, eax
  0001d	c7 46 24 0f 00
	00 00		 mov	 DWORD PTR [esi+36], 15	; 0000000fH
  00024	89 46 20	 mov	 DWORD PTR [esi+32], eax
  00027	88 46 10	 mov	 BYTE PTR [esi+16], al
  0002a	8b ce		 mov	 ecx, esi
  0002c	5e		 pop	 esi
  0002d	e9 00 00 00 00	 jmp	 ??1exception@std@@UAE@XZ ; std::exception::~exception
??1logic_error@std@@UAE@XZ ENDP				; std::logic_error::~logic_error
_TEXT	ENDS
PUBLIC	?c_str@?$basic_string@DU?$char_traits@D@std@@V?$allocator@D@2@@std@@QBEPBDXZ ; std::basic_string<char,std::char_traits<char>,std::allocator<char> >::c_str
; Function compile flags: /Ogtpy
; File d:\program files\microsoft visual studio 8\vc\include\xstring
;	COMDAT ?c_str@?$basic_string@DU?$char_traits@D@std@@V?$allocator@D@2@@std@@QBEPBDXZ
_TEXT	SEGMENT
?c_str@?$basic_string@DU?$char_traits@D@std@@V?$allocator@D@2@@std@@QBEPBDXZ PROC ; std::basic_string<char,std::char_traits<char>,std::allocator<char> >::c_str, COMDAT
; _this$ = ecx

; 1622 : 		return (_Myptr());

  00000	83 79 18 10	 cmp	 DWORD PTR [ecx+24], 16	; 00000010H
  00004	72 04		 jb	 SHORT $LN5@c_str
  00006	8b 41 04	 mov	 eax, DWORD PTR [ecx+4]

; 1623 : 		}

  00009	c3		 ret	 0

; 1622 : 		return (_Myptr());

$LN5@c_str:
  0000a	8d 41 04	 lea	 eax, DWORD PTR [ecx+4]

; 1623 : 		}

  0000d	c3		 ret	 0
?c_str@?$basic_string@DU?$char_traits@D@std@@V?$allocator@D@2@@std@@QBEPBDXZ ENDP ; std::basic_string<char,std::char_traits<char>,std::allocator<char> >::c_str
; Function compile flags: /Ogtpy
; File d:\program files\microsoft visual studio 8\vc\include\stdexcept
_TEXT	ENDS
;	COMDAT ?what@logic_error@std@@UBEPBDXZ
_TEXT	SEGMENT
?what@logic_error@std@@UBEPBDXZ PROC			; std::logic_error::what, COMDAT
; _this$ = ecx

; 36   : 		return (_Str.c_str());

  00000	83 79 24 10	 cmp	 DWORD PTR [ecx+36], 16	; 00000010H
  00004	72 04		 jb	 SHORT $LN7@what
  00006	8b 41 10	 mov	 eax, DWORD PTR [ecx+16]

; 37   : 		}

  00009	c3		 ret	 0

; 36   : 		return (_Str.c_str());

$LN7@what:
  0000a	8d 41 10	 lea	 eax, DWORD PTR [ecx+16]

; 37   : 		}

  0000d	c3		 ret	 0
?what@logic_error@std@@UBEPBDXZ ENDP			; std::logic_error::what
; Function compile flags: /Ogtpy
_TEXT	ENDS
;	COMDAT ??_Glogic_error@std@@UAEPAXI@Z
_TEXT	SEGMENT
___flags$ = 8						; size = 4
??_Glogic_error@std@@UAEPAXI@Z PROC			; std::logic_error::`scalar deleting destructor', COMDAT
; _this$ = ecx
  00000	56		 push	 esi
  00001	8b f1		 mov	 esi, ecx
  00003	c7 06 00 00 00
	00		 mov	 DWORD PTR [esi], OFFSET ??_7logic_error@std@@6B@
  00009	83 7e 24 10	 cmp	 DWORD PTR [esi+36], 16	; 00000010H
  0000d	72 0c		 jb	 SHORT $LN22@scalar@2
  0000f	8b 46 10	 mov	 eax, DWORD PTR [esi+16]
  00012	50		 push	 eax
  00013	e8 00 00 00 00	 call	 ??3@YAXPAX@Z		; operator delete
  00018	83 c4 04	 add	 esp, 4
$LN22@scalar@2:
  0001b	33 c0		 xor	 eax, eax
  0001d	c7 46 24 0f 00
	00 00		 mov	 DWORD PTR [esi+36], 15	; 0000000fH
  00024	89 46 20	 mov	 DWORD PTR [esi+32], eax
  00027	8b ce		 mov	 ecx, esi
  00029	88 46 10	 mov	 BYTE PTR [esi+16], al
  0002c	e8 00 00 00 00	 call	 ??1exception@std@@UAE@XZ ; std::exception::~exception
  00031	f6 44 24 08 01	 test	 BYTE PTR ___flags$[esp], 1
  00036	74 09		 je	 SHORT $LN32@scalar@2
  00038	56		 push	 esi
  00039	e8 00 00 00 00	 call	 ??3@YAXPAX@Z		; operator delete
  0003e	83 c4 04	 add	 esp, 4
$LN32@scalar@2:
  00041	8b c6		 mov	 eax, esi
  00043	5e		 pop	 esi
  00044	c2 04 00	 ret	 4
??_Glogic_error@std@@UAEPAXI@Z ENDP			; std::logic_error::`scalar deleting destructor'
_TEXT	ENDS
PUBLIC	?assign@?$basic_string@DU?$char_traits@D@std@@V?$allocator@D@2@@std@@QAEAAV12@ABV12@II@Z ; std::basic_string<char,std::char_traits<char>,std::allocator<char> >::assign
; Function compile flags: /Ogtpy
; File d:\program files\microsoft visual studio 8\vc\include\xstring
;	COMDAT ?assign@?$basic_string@DU?$char_traits@D@std@@V?$allocator@D@2@@std@@QAEAAV12@ABV12@II@Z
_TEXT	SEGMENT
__Right$ = 8						; size = 4
__Roff$ = 12						; size = 4
__Count$ = 16						; size = 4
?assign@?$basic_string@DU?$char_traits@D@std@@V?$allocator@D@2@@std@@QAEAAV12@ABV12@II@Z PROC ; std::basic_string<char,std::char_traits<char>,std::allocator<char> >::assign, COMDAT
; _this$ = ecx

; 1038 : 		{	// assign _Right [_Roff, _Roff + _Count)

  00000	53		 push	 ebx

; 1039 : 		if (_Right.size() < _Roff)

  00001	8b 5c 24 08	 mov	 ebx, DWORD PTR __Right$[esp]
  00005	55		 push	 ebp
  00006	8b 6c 24 10	 mov	 ebp, DWORD PTR __Roff$[esp+4]
  0000a	39 6b 14	 cmp	 DWORD PTR [ebx+20], ebp
  0000d	56		 push	 esi
  0000e	57		 push	 edi
  0000f	8b f1		 mov	 esi, ecx
  00011	73 05		 jae	 SHORT $LN5@assign

; 1040 : 			_String_base::_Xran();	// _Roff off end

  00013	e8 00 00 00 00	 call	 ?_Xran@_String_base@std@@SAXXZ ; std::_String_base::_Xran
$LN5@assign:

; 1041 : 		size_type _Num = _Right.size() - _Roff;

  00018	8b 7b 14	 mov	 edi, DWORD PTR [ebx+20]

; 1042 : 		if (_Count < _Num)

  0001b	8b 44 24 1c	 mov	 eax, DWORD PTR __Count$[esp+12]
  0001f	2b fd		 sub	 edi, ebp
  00021	3b c7		 cmp	 eax, edi

; 1043 : 			_Num = _Count;	// trim _Num to size

  00023	0f 42 f8	 cmovb	 edi, eax

; 1044 : 
; 1045 : 		if (this == &_Right)

  00026	3b f3		 cmp	 esi, ebx
  00028	75 1f		 jne	 SHORT $LN3@assign

; 1046 : 			erase((size_type)(_Roff + _Num)), erase(0, _Roff);	// substring

  0002a	6a ff		 push	 -1
  0002c	03 fd		 add	 edi, ebp
  0002e	57		 push	 edi
  0002f	8b ce		 mov	 ecx, esi
  00031	e8 00 00 00 00	 call	 ?erase@?$basic_string@DU?$char_traits@D@std@@V?$allocator@D@2@@std@@QAEAAV12@II@Z ; std::basic_string<char,std::char_traits<char>,std::allocator<char> >::erase
  00036	55		 push	 ebp
  00037	6a 00		 push	 0
  00039	8b ce		 mov	 ecx, esi
  0003b	e8 00 00 00 00	 call	 ?erase@?$basic_string@DU?$char_traits@D@std@@V?$allocator@D@2@@std@@QAEAAV12@II@Z ; std::basic_string<char,std::char_traits<char>,std::allocator<char> >::erase
  00040	5f		 pop	 edi

; 1051 : 			}
; 1052 : 		return (*this);

  00041	8b c6		 mov	 eax, esi
  00043	5e		 pop	 esi
  00044	5d		 pop	 ebp
  00045	5b		 pop	 ebx

; 1053 : 		}

  00046	c2 0c 00	 ret	 12			; 0000000cH
$LN3@assign:

; 1047 : 		else if (_Grow(_Num))

  00049	83 ff fe	 cmp	 edi, -2			; fffffffeH
  0004c	76 05		 jbe	 SHORT $LN17@assign
  0004e	e8 00 00 00 00	 call	 ?_Xlen@_String_base@std@@SAXXZ ; std::_String_base::_Xlen
$LN17@assign:
  00053	8b 46 18	 mov	 eax, DWORD PTR [esi+24]
  00056	3b c7		 cmp	 eax, edi
  00058	73 1b		 jae	 SHORT $LN16@assign
  0005a	8b 46 14	 mov	 eax, DWORD PTR [esi+20]
  0005d	50		 push	 eax
  0005e	57		 push	 edi
  0005f	8b ce		 mov	 ecx, esi
  00061	e8 00 00 00 00	 call	 ?_Copy@?$basic_string@DU?$char_traits@D@std@@V?$allocator@D@2@@std@@IAEXII@Z ; std::basic_string<char,std::char_traits<char>,std::allocator<char> >::_Copy
  00066	85 ff		 test	 edi, edi
$LN87@assign:
  00068	76 66		 jbe	 SHORT $LN86@assign

; 1048 : 			{	// make room and assign new stuff
; 1049 : 			_Traits_helper::copy_s<_Traits>(_Myptr(), _Myres, _Right._Myptr() + _Roff, _Num);

  0006a	83 7b 18 10	 cmp	 DWORD PTR [ebx+24], 16	; 00000010H
  0006e	72 2f		 jb	 SHORT $LN64@assign
  00070	8b 53 04	 mov	 edx, DWORD PTR [ebx+4]
  00073	eb 2d		 jmp	 SHORT $LN65@assign

; 1047 : 		else if (_Grow(_Num))

$LN16@assign:
  00075	85 ff		 test	 edi, edi
  00077	75 ef		 jne	 SHORT $LN87@assign
  00079	83 f8 10	 cmp	 eax, 16			; 00000010H
  0007c	89 7e 14	 mov	 DWORD PTR [esi+20], edi
  0007f	72 0f		 jb	 SHORT $LN58@assign
  00081	8b 46 04	 mov	 eax, DWORD PTR [esi+4]
  00084	5f		 pop	 edi
  00085	c6 00 00	 mov	 BYTE PTR [eax], 0

; 1051 : 			}
; 1052 : 		return (*this);

  00088	8b c6		 mov	 eax, esi
  0008a	5e		 pop	 esi
  0008b	5d		 pop	 ebp
  0008c	5b		 pop	 ebx

; 1053 : 		}

  0008d	c2 0c 00	 ret	 12			; 0000000cH

; 1047 : 		else if (_Grow(_Num))

$LN58@assign:
  00090	8d 46 04	 lea	 eax, DWORD PTR [esi+4]
  00093	5f		 pop	 edi
  00094	c6 00 00	 mov	 BYTE PTR [eax], 0

; 1051 : 			}
; 1052 : 		return (*this);

  00097	8b c6		 mov	 eax, esi
  00099	5e		 pop	 esi
  0009a	5d		 pop	 ebp
  0009b	5b		 pop	 ebx

; 1053 : 		}

  0009c	c2 0c 00	 ret	 12			; 0000000cH

; 1048 : 			{	// make room and assign new stuff
; 1049 : 			_Traits_helper::copy_s<_Traits>(_Myptr(), _Myres, _Right._Myptr() + _Roff, _Num);

$LN64@assign:
  0009f	8d 53 04	 lea	 edx, DWORD PTR [ebx+4]
$LN65@assign:
  000a2	8b 4e 18	 mov	 ecx, DWORD PTR [esi+24]
  000a5	83 f9 10	 cmp	 ecx, 16			; 00000010H
  000a8	8d 5e 04	 lea	 ebx, DWORD PTR [esi+4]
  000ab	72 04		 jb	 SHORT $LN68@assign
  000ad	8b 03		 mov	 eax, DWORD PTR [ebx]
  000af	eb 02		 jmp	 SHORT $LN69@assign
$LN68@assign:
  000b1	8b c3		 mov	 eax, ebx
$LN69@assign:
  000b3	57		 push	 edi
  000b4	03 d5		 add	 edx, ebp
  000b6	52		 push	 edx
  000b7	51		 push	 ecx
  000b8	50		 push	 eax
  000b9	e8 00 00 00 00	 call	 _memcpy_s
  000be	83 c4 10	 add	 esp, 16			; 00000010H

; 1050 : 			_Eos(_Num);

  000c1	83 7e 18 10	 cmp	 DWORD PTR [esi+24], 16	; 00000010H
  000c5	89 7e 14	 mov	 DWORD PTR [esi+20], edi
  000c8	72 02		 jb	 SHORT $LN82@assign
  000ca	8b 1b		 mov	 ebx, DWORD PTR [ebx]
$LN82@assign:
  000cc	c6 04 3b 00	 mov	 BYTE PTR [ebx+edi], 0
$LN86@assign:
  000d0	5f		 pop	 edi

; 1051 : 			}
; 1052 : 		return (*this);

  000d1	8b c6		 mov	 eax, esi
  000d3	5e		 pop	 esi
  000d4	5d		 pop	 ebp
  000d5	5b		 pop	 ebx

; 1053 : 		}

  000d6	c2 0c 00	 ret	 12			; 0000000cH
?assign@?$basic_string@DU?$char_traits@D@std@@V?$allocator@D@2@@std@@QAEAAV12@ABV12@II@Z ENDP ; std::basic_string<char,std::char_traits<char>,std::allocator<char> >::assign
_TEXT	ENDS
PUBLIC	??0?$_Tree@V?$_Tmap_traits@V?$basic_string@DU?$char_traits@D@std@@V?$allocator@D@2@@std@@V12@U?$less@V?$basic_string@DU?$char_traits@D@std@@V?$allocator@D@2@@std@@@2@V?$allocator@U?$pair@$$CBV?$basic_string@DU?$char_traits@D@std@@V?$allocator@D@2@@std@@V12@@std@@@2@$0A@@std@@@std@@QAE@ABU?$less@V?$basic_string@DU?$char_traits@D@std@@V?$allocator@D@2@@std@@@1@ABV?$allocator@U?$pair@$$CBV?$basic_string@DU?$char_traits@D@std@@V?$allocator@D@2@@std@@V12@@std@@@1@@Z ; std::_Tree<std::_Tmap_traits<std::basic_string<char,std::char_traits<char>,std::allocator<char> >,std::basic_string<char,std::char_traits<char>,std::allocator<char> >,std::less<std::basic_string<char,std::char_traits<char>,std::allocator<char> > >,std::allocator<std::pair<std::basic_string<char,std::char_traits<char>,std::allocator<char> > const ,std::basic_string<char,std::char_traits<char>,std::allocator<char> > > >,0> >::_Tree<std::_Tmap_traits<std::basic_string<char,std::char_traits<char>,std::allocator<char> >,std::basic_string<char,std::char_traits<char>,std::allocator<char> >,std::less<std::basic_string<char,std::char_traits<char>,std::allocator<char> > >,std::allocator<std::pair<std::basic_string<char,std::char_traits<char>,std::allocator<char> > const ,std::basic_string<char,std::char_traits<char>,std::allocator<char> > > >,0> >
; Function compile flags: /Ogtpy
; File d:\program files\microsoft visual studio 8\vc\include\xtree
;	COMDAT ??0?$_Tree@V?$_Tmap_traits@V?$basic_string@DU?$char_traits@D@std@@V?$allocator@D@2@@std@@V12@U?$less@V?$basic_string@DU?$char_traits@D@std@@V?$allocator@D@2@@std@@@2@V?$allocator@U?$pair@$$CBV?$basic_string@DU?$char_traits@D@std@@V?$allocator@D@2@@std@@V12@@std@@@2@$0A@@std@@@std@@QAE@ABU?$less@V?$basic_string@DU?$char_traits@D@std@@V?$allocator@D@2@@std@@@1@ABV?$allocator@U?$pair@$$CBV?$basic_string@DU?$char_traits@D@std@@V?$allocator@D@2@@std@@V12@@std@@@1@@Z
_TEXT	SEGMENT
__Parg$ = 8						; size = 4
__Al$ = 12						; size = 4
??0?$_Tree@V?$_Tmap_traits@V?$basic_string@DU?$char_traits@D@std@@V?$allocator@D@2@@std@@V12@U?$less@V?$basic_string@DU?$char_traits@D@std@@V?$allocator@D@2@@std@@@2@V?$allocator@U?$pair@$$CBV?$basic_string@DU?$char_traits@D@std@@V?$allocator@D@2@@std@@V12@@std@@@2@$0A@@std@@@std@@QAE@ABU?$less@V?$basic_string@DU?$char_traits@D@std@@V?$allocator@D@2@@std@@@1@ABV?$allocator@U?$pair@$$CBV?$basic_string@DU?$char_traits@D@std@@V?$allocator@D@2@@std@@V12@@std@@@1@@Z PROC ; std::_Tree<std::_Tmap_traits<std::basic_string<char,std::char_traits<char>,std::allocator<char> >,std::basic_string<char,std::char_traits<char>,std::allocator<char> >,std::less<std::basic_string<char,std::char_traits<char>,std::allocator<char> > >,std::allocator<std::pair<std::basic_string<char,std::char_traits<char>,std::allocator<char> > const ,std::basic_string<char,std::char_traits<char>,std::allocator<char> > > >,0> >::_Tree<std::_Tmap_traits<std::basic_string<char,std::char_traits<char>,std::allocator<char> >,std::basic_string<char,std::char_traits<char>,std::allocator<char> >,std::less<std::basic_string<char,std::char_traits<char>,std::allocator<char> > >,std::allocator<std::pair<std::basic_string<char,std::char_traits<char>,std::allocator<char> > const ,std::basic_string<char,std::char_traits<char>,std::allocator<char> > > >,0> >, COMDAT
; _this$ = ecx

; 495  : 		{	// construct empty tree

  00000	56		 push	 esi
  00001	8b f1		 mov	 esi, ecx

; 496  : 		_Init();

  00003	e8 00 00 00 00	 call	 ?_Buynode@?$_Tree@V?$_Tmap_traits@V?$basic_string@DU?$char_traits@D@std@@V?$allocator@D@2@@std@@V12@U?$less@V?$basic_string@DU?$char_traits@D@std@@V?$allocator@D@2@@std@@@2@V?$allocator@U?$pair@$$CBV?$basic_string@DU?$char_traits@D@std@@V?$allocator@D@2@@std@@V12@@std@@@2@$0A@@std@@@std@@IAEPAU_Node@?$_Tree_nod@V?$_Tmap_traits@V?$basic_string@DU?$char_traits@D@std@@V?$allocator@D@2@@std@@V12@U?$less@V?$basic_string@DU?$char_traits@D@std@@V?$allocator@D@2@@std@@@2@V?$allocator@U?$pair@$$CBV?$basic_string@DU?$char_traits@D@std@@V?$allocator@D@2@@std@@V12@@std@@@2@$0A@@std@@@2@XZ ; std::_Tree<std::_Tmap_traits<std::basic_string<char,std::char_traits<char>,std::allocator<char> >,std::basic_string<char,std::char_traits<char>,std::allocator<char> >,std::less<std::basic_string<char,std::char_traits<char>,std::allocator<char> > >,std::allocator<std::pair<std::basic_string<char,std::char_traits<char>,std::allocator<char> > const ,std::basic_string<char,std::char_traits<char>,std::allocator<char> > > >,0> >::_Buynode
  00008	89 46 04	 mov	 DWORD PTR [esi+4], eax
  0000b	c6 40 45 01	 mov	 BYTE PTR [eax+69], 1
  0000f	8b 46 04	 mov	 eax, DWORD PTR [esi+4]
  00012	89 40 04	 mov	 DWORD PTR [eax+4], eax
  00015	8b 46 04	 mov	 eax, DWORD PTR [esi+4]
  00018	89 00		 mov	 DWORD PTR [eax], eax
  0001a	8b 46 04	 mov	 eax, DWORD PTR [esi+4]
  0001d	89 40 08	 mov	 DWORD PTR [eax+8], eax
  00020	c7 46 08 00 00
	00 00		 mov	 DWORD PTR [esi+8], 0

; 497  : 		}

  00027	8b c6		 mov	 eax, esi
  00029	5e		 pop	 esi
  0002a	c2 08 00	 ret	 8
??0?$_Tree@V?$_Tmap_traits@V?$basic_string@DU?$char_traits@D@std@@V?$allocator@D@2@@std@@V12@U?$less@V?$basic_string@DU?$char_traits@D@std@@V?$allocator@D@2@@std@@@2@V?$allocator@U?$pair@$$CBV?$basic_string@DU?$char_traits@D@std@@V?$allocator@D@2@@std@@V12@@std@@@2@$0A@@std@@@std@@QAE@ABU?$less@V?$basic_string@DU?$char_traits@D@std@@V?$allocator@D@2@@std@@@1@ABV?$allocator@U?$pair@$$CBV?$basic_string@DU?$char_traits@D@std@@V?$allocator@D@2@@std@@V12@@std@@@1@@Z ENDP ; std::_Tree<std::_Tmap_traits<std::basic_string<char,std::char_traits<char>,std::allocator<char> >,std::basic_string<char,std::char_traits<char>,std::allocator<char> >,std::less<std::basic_string<char,std::char_traits<char>,std::allocator<char> > >,std::allocator<std::pair<std::basic_string<char,std::char_traits<char>,std::allocator<char> > const ,std::basic_string<char,std::char_traits<char>,std::allocator<char> > > >,0> >::_Tree<std::_Tmap_traits<std::basic_string<char,std::char_traits<char>,std::allocator<char> >,std::basic_string<char,std::char_traits<char>,std::allocator<char> >,std::less<std::basic_string<char,std::char_traits<char>,std::allocator<char> > >,std::allocator<std::pair<std::basic_string<char,std::char_traits<char>,std::allocator<char> > const ,std::basic_string<char,std::char_traits<char>,std::allocator<char> > > >,0> >
_TEXT	ENDS
PUBLIC	?assign@?$basic_string@DU?$char_traits@D@std@@V?$allocator@D@2@@std@@QAEAAV12@PBDI@Z ; std::basic_string<char,std::char_traits<char>,std::allocator<char> >::assign
; Function compile flags: /Ogtpy
; File d:\program files\microsoft visual studio 8\vc\include\xstring
;	COMDAT ?assign@?$basic_string@DU?$char_traits@D@std@@V?$allocator@D@2@@std@@QAEAAV12@PBDI@Z
_TEXT	SEGMENT
__Ptr$ = 8						; size = 4
__Num$ = 12						; size = 4
?assign@?$basic_string@DU?$char_traits@D@std@@V?$allocator@D@2@@std@@QAEAAV12@PBDI@Z PROC ; std::basic_string<char,std::char_traits<char>,std::allocator<char> >::assign, COMDAT
; _this$ = ecx

; 1056 : 		{	// assign [_Ptr, _Ptr + _Num)

  00000	53		 push	 ebx
  00001	55		 push	 ebp
  00002	56		 push	 esi
  00003	8b f1		 mov	 esi, ecx

; 1057 : 		if (_Inside(_Ptr))

  00005	8b 4e 18	 mov	 ecx, DWORD PTR [esi+24]
  00008	83 f9 10	 cmp	 ecx, 16			; 00000010H
  0000b	8d 5e 04	 lea	 ebx, DWORD PTR [esi+4]
  0000e	72 04		 jb	 SHORT $LN12@assign@2
  00010	8b 03		 mov	 eax, DWORD PTR [ebx]
  00012	eb 02		 jmp	 SHORT $LN13@assign@2
$LN12@assign@2:
  00014	8b c3		 mov	 eax, ebx
$LN13@assign@2:
  00016	8b 6c 24 10	 mov	 ebp, DWORD PTR __Ptr$[esp+8]
  0001a	3b e8		 cmp	 ebp, eax
  0001c	72 31		 jb	 SHORT $LN2@assign@2
  0001e	83 f9 10	 cmp	 ecx, 16			; 00000010H
  00021	72 04		 jb	 SHORT $LN16@assign@2
  00023	8b 03		 mov	 eax, DWORD PTR [ebx]
  00025	eb 02		 jmp	 SHORT $LN17@assign@2
$LN16@assign@2:
  00027	8b c3		 mov	 eax, ebx
$LN17@assign@2:
  00029	8b 56 14	 mov	 edx, DWORD PTR [esi+20]
  0002c	03 d0		 add	 edx, eax
  0002e	3b d5		 cmp	 edx, ebp
  00030	76 1d		 jbe	 SHORT $LN2@assign@2

; 1058 : 			return (assign(*this, _Ptr - _Myptr(), _Num));	// substring

  00032	83 f9 10	 cmp	 ecx, 16			; 00000010H
  00035	72 02		 jb	 SHORT $LN20@assign@2
  00037	8b 1b		 mov	 ebx, DWORD PTR [ebx]
$LN20@assign@2:
  00039	8b 44 24 14	 mov	 eax, DWORD PTR __Num$[esp+8]
  0003d	50		 push	 eax
  0003e	2b eb		 sub	 ebp, ebx
  00040	55		 push	 ebp
  00041	56		 push	 esi
  00042	8b ce		 mov	 ecx, esi
  00044	e8 00 00 00 00	 call	 ?assign@?$basic_string@DU?$char_traits@D@std@@V?$allocator@D@2@@std@@QAEAAV12@ABV12@II@Z ; std::basic_string<char,std::char_traits<char>,std::allocator<char> >::assign
  00049	5e		 pop	 esi
  0004a	5d		 pop	 ebp
  0004b	5b		 pop	 ebx

; 1066 : 		}

  0004c	c2 08 00	 ret	 8
$LN2@assign@2:
  0004f	57		 push	 edi

; 1059 : 
; 1060 : 		if (_Grow(_Num))

  00050	8b 7c 24 18	 mov	 edi, DWORD PTR __Num$[esp+12]
  00054	83 ff fe	 cmp	 edi, -2			; fffffffeH
  00057	76 05		 jbe	 SHORT $LN27@assign@2
  00059	e8 00 00 00 00	 call	 ?_Xlen@_String_base@std@@SAXXZ ; std::_String_base::_Xlen
$LN27@assign@2:
  0005e	8b 46 18	 mov	 eax, DWORD PTR [esi+24]
  00061	3b c7		 cmp	 eax, edi
  00063	73 1c		 jae	 SHORT $LN26@assign@2
  00065	8b 4e 14	 mov	 ecx, DWORD PTR [esi+20]
  00068	51		 push	 ecx
  00069	57		 push	 edi
  0006a	8b ce		 mov	 ecx, esi
  0006c	e8 00 00 00 00	 call	 ?_Copy@?$basic_string@DU?$char_traits@D@std@@V?$allocator@D@2@@std@@IAEXII@Z ; std::basic_string<char,std::char_traits<char>,std::allocator<char> >::_Copy
  00071	85 ff		 test	 edi, edi
$LN93@assign@2:
  00073	76 43		 jbe	 SHORT $LN90@assign@2

; 1061 : 			{	// make room and assign new stuff
; 1062 : 			_Traits_helper::copy_s<_Traits>(_Myptr(), _Myres, _Ptr, _Num);

  00075	8b 4e 18	 mov	 ecx, DWORD PTR [esi+24]
  00078	83 f9 10	 cmp	 ecx, 16			; 00000010H
  0007b	72 1e		 jb	 SHORT $LN74@assign@2
  0007d	8b 03		 mov	 eax, DWORD PTR [ebx]
  0007f	eb 1c		 jmp	 SHORT $LN75@assign@2

; 1059 : 
; 1060 : 		if (_Grow(_Num))

$LN26@assign@2:
  00081	85 ff		 test	 edi, edi
  00083	75 ee		 jne	 SHORT $LN93@assign@2
  00085	83 f8 10	 cmp	 eax, 16			; 00000010H
  00088	89 7e 14	 mov	 DWORD PTR [esi+20], edi
  0008b	72 02		 jb	 SHORT $LN68@assign@2
  0008d	8b 1b		 mov	 ebx, DWORD PTR [ebx]
$LN68@assign@2:
  0008f	5f		 pop	 edi

; 1064 : 			}
; 1065 : 		return (*this);

  00090	8b c6		 mov	 eax, esi
  00092	5e		 pop	 esi
  00093	5d		 pop	 ebp
  00094	c6 03 00	 mov	 BYTE PTR [ebx], 0
  00097	5b		 pop	 ebx

; 1066 : 		}

  00098	c2 08 00	 ret	 8

; 1061 : 			{	// make room and assign new stuff
; 1062 : 			_Traits_helper::copy_s<_Traits>(_Myptr(), _Myres, _Ptr, _Num);

$LN74@assign@2:
  0009b	8b c3		 mov	 eax, ebx
$LN75@assign@2:
  0009d	57		 push	 edi
  0009e	55		 push	 ebp
  0009f	51		 push	 ecx
  000a0	50		 push	 eax
  000a1	e8 00 00 00 00	 call	 _memcpy_s
  000a6	83 c4 10	 add	 esp, 16			; 00000010H

; 1063 : 			_Eos(_Num);

  000a9	83 7e 18 10	 cmp	 DWORD PTR [esi+24], 16	; 00000010H
  000ad	89 7e 14	 mov	 DWORD PTR [esi+20], edi
  000b0	72 02		 jb	 SHORT $LN88@assign@2
  000b2	8b 1b		 mov	 ebx, DWORD PTR [ebx]
$LN88@assign@2:
  000b4	c6 04 3b 00	 mov	 BYTE PTR [ebx+edi], 0
$LN90@assign@2:
  000b8	5f		 pop	 edi

; 1064 : 			}
; 1065 : 		return (*this);

  000b9	8b c6		 mov	 eax, esi
  000bb	5e		 pop	 esi
  000bc	5d		 pop	 ebp
  000bd	5b		 pop	 ebx

; 1066 : 		}

  000be	c2 08 00	 ret	 8
?assign@?$basic_string@DU?$char_traits@D@std@@V?$allocator@D@2@@std@@QAEAAV12@PBDI@Z ENDP ; std::basic_string<char,std::char_traits<char>,std::allocator<char> >::assign
_TEXT	ENDS
PUBLIC	??1_Node@?$_Tree_nod@V?$_Tmap_traits@V?$basic_string@DU?$char_traits@D@std@@V?$allocator@D@2@@std@@V12@U?$less@V?$basic_string@DU?$char_traits@D@std@@V?$allocator@D@2@@std@@@2@V?$allocator@U?$pair@$$CBV?$basic_string@DU?$char_traits@D@std@@V?$allocator@D@2@@std@@V12@@std@@@2@$0A@@std@@@std@@QAE@XZ ; std::_Tree_nod<std::_Tmap_traits<std::basic_string<char,std::char_traits<char>,std::allocator<char> >,std::basic_string<char,std::char_traits<char>,std::allocator<char> >,std::less<std::basic_string<char,std::char_traits<char>,std::allocator<char> > >,std::allocator<std::pair<std::basic_string<char,std::char_traits<char>,std::allocator<char> > const ,std::basic_string<char,std::char_traits<char>,std::allocator<char> > > >,0> >::_Node::~_Node
; Function compile flags: /Ogtpy
;	COMDAT ??1_Node@?$_Tree_nod@V?$_Tmap_traits@V?$basic_string@DU?$char_traits@D@std@@V?$allocator@D@2@@std@@V12@U?$less@V?$basic_string@DU?$char_traits@D@std@@V?$allocator@D@2@@std@@@2@V?$allocator@U?$pair@$$CBV?$basic_string@DU?$char_traits@D@std@@V?$allocator@D@2@@std@@V12@@std@@@2@$0A@@std@@@std@@QAE@XZ
_TEXT	SEGMENT
??1_Node@?$_Tree_nod@V?$_Tmap_traits@V?$basic_string@DU?$char_traits@D@std@@V?$allocator@D@2@@std@@V12@U?$less@V?$basic_string@DU?$char_traits@D@std@@V?$allocator@D@2@@std@@@2@V?$allocator@U?$pair@$$CBV?$basic_string@DU?$char_traits@D@std@@V?$allocator@D@2@@std@@V12@@std@@@2@$0A@@std@@@std@@QAE@XZ PROC ; std::_Tree_nod<std::_Tmap_traits<std::basic_string<char,std::char_traits<char>,std::allocator<char> >,std::basic_string<char,std::char_traits<char>,std::allocator<char> >,std::less<std::basic_string<char,std::char_traits<char>,std::allocator<char> > >,std::allocator<std::pair<std::basic_string<char,std::char_traits<char>,std::allocator<char> > const ,std::basic_string<char,std::char_traits<char>,std::allocator<char> > > >,0> >::_Node::~_Node, COMDAT
; _this$ = ecx
  00000	53		 push	 ebx
  00001	56		 push	 esi
  00002	8b f1		 mov	 esi, ecx
  00004	83 7e 40 10	 cmp	 DWORD PTR [esi+64], 16	; 00000010H
  00008	72 0c		 jb	 SHORT $LN22@Node
  0000a	8b 46 2c	 mov	 eax, DWORD PTR [esi+44]
  0000d	50		 push	 eax
  0000e	e8 00 00 00 00	 call	 ??3@YAXPAX@Z		; operator delete
  00013	83 c4 04	 add	 esp, 4
$LN22@Node:
  00016	33 db		 xor	 ebx, ebx
  00018	c7 46 40 0f 00
	00 00		 mov	 DWORD PTR [esi+64], 15	; 0000000fH
  0001f	89 5e 3c	 mov	 DWORD PTR [esi+60], ebx
  00022	88 5e 2c	 mov	 BYTE PTR [esi+44], bl
  00025	83 7e 24 10	 cmp	 DWORD PTR [esi+36], 16	; 00000010H
  00029	72 0c		 jb	 SHORT $LN48@Node
  0002b	8b 4e 10	 mov	 ecx, DWORD PTR [esi+16]
  0002e	51		 push	 ecx
  0002f	e8 00 00 00 00	 call	 ??3@YAXPAX@Z		; operator delete
  00034	83 c4 04	 add	 esp, 4
$LN48@Node:
  00037	89 5e 20	 mov	 DWORD PTR [esi+32], ebx
  0003a	c7 46 24 0f 00
	00 00		 mov	 DWORD PTR [esi+36], 15	; 0000000fH
  00041	88 5e 10	 mov	 BYTE PTR [esi+16], bl
  00044	5e		 pop	 esi
  00045	5b		 pop	 ebx
  00046	c3		 ret	 0
??1_Node@?$_Tree_nod@V?$_Tmap_traits@V?$basic_string@DU?$char_traits@D@std@@V?$allocator@D@2@@std@@V12@U?$less@V?$basic_string@DU?$char_traits@D@std@@V?$allocator@D@2@@std@@@2@V?$allocator@U?$pair@$$CBV?$basic_string@DU?$char_traits@D@std@@V?$allocator@D@2@@std@@V12@@std@@@2@$0A@@std@@@std@@QAE@XZ ENDP ; std::_Tree_nod<std::_Tmap_traits<std::basic_string<char,std::char_traits<char>,std::allocator<char> >,std::basic_string<char,std::char_traits<char>,std::allocator<char> >,std::less<std::basic_string<char,std::char_traits<char>,std::allocator<char> > >,std::allocator<std::pair<std::basic_string<char,std::char_traits<char>,std::allocator<char> > const ,std::basic_string<char,std::char_traits<char>,std::allocator<char> > > >,0> >::_Node::~_Node
_TEXT	ENDS
PUBLIC	??0?$basic_string@DU?$char_traits@D@std@@V?$allocator@D@2@@std@@QAE@ABV01@@Z ; std::basic_string<char,std::char_traits<char>,std::allocator<char> >::basic_string<char,std::char_traits<char>,std::allocator<char> >
; Function compile flags: /Ogtpy
;	COMDAT ??0?$basic_string@DU?$char_traits@D@std@@V?$allocator@D@2@@std@@QAE@ABV01@@Z
_TEXT	SEGMENT
__Right$ = 8						; size = 4
??0?$basic_string@DU?$char_traits@D@std@@V?$allocator@D@2@@std@@QAE@ABV01@@Z PROC ; std::basic_string<char,std::char_traits<char>,std::allocator<char> >::basic_string<char,std::char_traits<char>,std::allocator<char> >, COMDAT
; _this$ = ecx

; 720  : 		{	// construct by copying _Right

  00000	56		 push	 esi

; 721  : 		_Tidy();

  00001	33 c0		 xor	 eax, eax
  00003	8b f1		 mov	 esi, ecx

; 722  : 		assign(_Right, 0, npos);

  00005	6a ff		 push	 -1
  00007	89 46 14	 mov	 DWORD PTR [esi+20], eax
  0000a	c7 46 18 0f 00
	00 00		 mov	 DWORD PTR [esi+24], 15	; 0000000fH
  00011	50		 push	 eax
  00012	88 46 04	 mov	 BYTE PTR [esi+4], al
  00015	8b 44 24 10	 mov	 eax, DWORD PTR __Right$[esp+8]
  00019	50		 push	 eax
  0001a	e8 00 00 00 00	 call	 ?assign@?$basic_string@DU?$char_traits@D@std@@V?$allocator@D@2@@std@@QAEAAV12@ABV12@II@Z ; std::basic_string<char,std::char_traits<char>,std::allocator<char> >::assign

; 723  : 		}

  0001f	8b c6		 mov	 eax, esi
  00021	5e		 pop	 esi
  00022	c2 04 00	 ret	 4
??0?$basic_string@DU?$char_traits@D@std@@V?$allocator@D@2@@std@@QAE@ABV01@@Z ENDP ; std::basic_string<char,std::char_traits<char>,std::allocator<char> >::basic_string<char,std::char_traits<char>,std::allocator<char> >
_TEXT	ENDS
PUBLIC	?assign@?$basic_string@DU?$char_traits@D@std@@V?$allocator@D@2@@std@@QAEAAV12@PBD@Z ; std::basic_string<char,std::char_traits<char>,std::allocator<char> >::assign
; Function compile flags: /Ogtpy
;	COMDAT ?assign@?$basic_string@DU?$char_traits@D@std@@V?$allocator@D@2@@std@@QAEAAV12@PBD@Z
_TEXT	SEGMENT
__Ptr$ = 8						; size = 4
?assign@?$basic_string@DU?$char_traits@D@std@@V?$allocator@D@2@@std@@QAEAAV12@PBD@Z PROC ; std::basic_string<char,std::char_traits<char>,std::allocator<char> >::assign, COMDAT
; _this$ = ecx

; 1069 : 		{	// assign [_Ptr, <null>)

  00000	56		 push	 esi

; 1070 : 		return (assign(_Ptr, _Traits::length(_Ptr)));

  00001	8b 74 24 08	 mov	 esi, DWORD PTR __Ptr$[esp]
  00005	8b c6		 mov	 eax, esi
  00007	57		 push	 edi
  00008	8d 78 01	 lea	 edi, DWORD PTR [eax+1]
  0000b	eb 03 8d 49 00	 npad	 5
$LL5@assign@3:
  00010	8a 10		 mov	 dl, BYTE PTR [eax]
  00012	83 c0 01	 add	 eax, 1
  00015	84 d2		 test	 dl, dl
  00017	75 f7		 jne	 SHORT $LL5@assign@3
  00019	2b c7		 sub	 eax, edi
  0001b	50		 push	 eax
  0001c	56		 push	 esi
  0001d	e8 00 00 00 00	 call	 ?assign@?$basic_string@DU?$char_traits@D@std@@V?$allocator@D@2@@std@@QAEAAV12@PBDI@Z ; std::basic_string<char,std::char_traits<char>,std::allocator<char> >::assign
  00022	5f		 pop	 edi
  00023	5e		 pop	 esi

; 1071 : 		}

  00024	c2 04 00	 ret	 4
?assign@?$basic_string@DU?$char_traits@D@std@@V?$allocator@D@2@@std@@QAEAAV12@PBD@Z ENDP ; std::basic_string<char,std::char_traits<char>,std::allocator<char> >::assign
_TEXT	ENDS
PUBLIC	??_G_Node@?$_Tree_nod@V?$_Tmap_traits@V?$basic_string@DU?$char_traits@D@std@@V?$allocator@D@2@@std@@V12@U?$less@V?$basic_string@DU?$char_traits@D@std@@V?$allocator@D@2@@std@@@2@V?$allocator@U?$pair@$$CBV?$basic_string@DU?$char_traits@D@std@@V?$allocator@D@2@@std@@V12@@std@@@2@$0A@@std@@@std@@QAEPAXI@Z ; std::_Tree_nod<std::_Tmap_traits<std::basic_string<char,std::char_traits<char>,std::allocator<char> >,std::basic_string<char,std::char_traits<char>,std::allocator<char> >,std::less<std::basic_string<char,std::char_traits<char>,std::allocator<char> > >,std::allocator<std::pair<std::basic_string<char,std::char_traits<char>,std::allocator<char> > const ,std::basic_string<char,std::char_traits<char>,std::allocator<char> > > >,0> >::_Node::`scalar deleting destructor'
; Function compile flags: /Ogtpy
;	COMDAT ??_G_Node@?$_Tree_nod@V?$_Tmap_traits@V?$basic_string@DU?$char_traits@D@std@@V?$allocator@D@2@@std@@V12@U?$less@V?$basic_string@DU?$char_traits@D@std@@V?$allocator@D@2@@std@@@2@V?$allocator@U?$pair@$$CBV?$basic_string@DU?$char_traits@D@std@@V?$allocator@D@2@@std@@V12@@std@@@2@$0A@@std@@@std@@QAEPAXI@Z
_TEXT	SEGMENT
___flags$ = 8						; size = 4
??_G_Node@?$_Tree_nod@V?$_Tmap_traits@V?$basic_string@DU?$char_traits@D@std@@V?$allocator@D@2@@std@@V12@U?$less@V?$basic_string@DU?$char_traits@D@std@@V?$allocator@D@2@@std@@@2@V?$allocator@U?$pair@$$CBV?$basic_string@DU?$char_traits@D@std@@V?$allocator@D@2@@std@@V12@@std@@@2@$0A@@std@@@std@@QAEPAXI@Z PROC ; std::_Tree_nod<std::_Tmap_traits<std::basic_string<char,std::char_traits<char>,std::allocator<char> >,std::basic_string<char,std::char_traits<char>,std::allocator<char> >,std::less<std::basic_string<char,std::char_traits<char>,std::allocator<char> > >,std::allocator<std::pair<std::basic_string<char,std::char_traits<char>,std::allocator<char> > const ,std::basic_string<char,std::char_traits<char>,std::allocator<char> > > >,0> >::_Node::`scalar deleting destructor', COMDAT
; _this$ = ecx
  00000	56		 push	 esi
  00001	8b f1		 mov	 esi, ecx
  00003	83 7e 40 10	 cmp	 DWORD PTR [esi+64], 16	; 00000010H
  00007	72 0c		 jb	 SHORT $LN24@scalar@3
  00009	8b 46 2c	 mov	 eax, DWORD PTR [esi+44]
  0000c	50		 push	 eax
  0000d	e8 00 00 00 00	 call	 ??3@YAXPAX@Z		; operator delete
  00012	83 c4 04	 add	 esp, 4
$LN24@scalar@3:
  00015	53		 push	 ebx
  00016	33 db		 xor	 ebx, ebx
  00018	c7 46 40 0f 00
	00 00		 mov	 DWORD PTR [esi+64], 15	; 0000000fH
  0001f	89 5e 3c	 mov	 DWORD PTR [esi+60], ebx
  00022	88 5e 2c	 mov	 BYTE PTR [esi+44], bl
  00025	83 7e 24 10	 cmp	 DWORD PTR [esi+36], 16	; 00000010H
  00029	72 0c		 jb	 SHORT $LN50@scalar@3
  0002b	8b 4e 10	 mov	 ecx, DWORD PTR [esi+16]
  0002e	51		 push	 ecx
  0002f	e8 00 00 00 00	 call	 ??3@YAXPAX@Z		; operator delete
  00034	83 c4 04	 add	 esp, 4
$LN50@scalar@3:
  00037	f6 44 24 0c 01	 test	 BYTE PTR ___flags$[esp+4], 1
  0003c	89 5e 20	 mov	 DWORD PTR [esi+32], ebx
  0003f	c7 46 24 0f 00
	00 00		 mov	 DWORD PTR [esi+36], 15	; 0000000fH
  00046	88 5e 10	 mov	 BYTE PTR [esi+16], bl
  00049	5b		 pop	 ebx
  0004a	74 09		 je	 SHORT $LN60@scalar@3
  0004c	56		 push	 esi
  0004d	e8 00 00 00 00	 call	 ??3@YAXPAX@Z		; operator delete
  00052	83 c4 04	 add	 esp, 4
$LN60@scalar@3:
  00055	8b c6		 mov	 eax, esi
  00057	5e		 pop	 esi
  00058	c2 04 00	 ret	 4
??_G_Node@?$_Tree_nod@V?$_Tmap_traits@V?$basic_string@DU?$char_traits@D@std@@V?$allocator@D@2@@std@@V12@U?$less@V?$basic_string@DU?$char_traits@D@std@@V?$allocator@D@2@@std@@@2@V?$allocator@U?$pair@$$CBV?$basic_string@DU?$char_traits@D@std@@V?$allocator@D@2@@std@@V12@@std@@@2@$0A@@std@@@std@@QAEPAXI@Z ENDP ; std::_Tree_nod<std::_Tmap_traits<std::basic_string<char,std::char_traits<char>,std::allocator<char> >,std::basic_string<char,std::char_traits<char>,std::allocator<char> >,std::less<std::basic_string<char,std::char_traits<char>,std::allocator<char> > >,std::allocator<std::pair<std::basic_string<char,std::char_traits<char>,std::allocator<char> > const ,std::basic_string<char,std::char_traits<char>,std::allocator<char> > > >,0> >::_Node::`scalar deleting destructor'
_TEXT	ENDS
PUBLIC	??0logic_error@std@@QAE@ABV?$basic_string@DU?$char_traits@D@std@@V?$allocator@D@2@@1@@Z ; std::logic_error::logic_error
EXTRN	??0exception@std@@QAE@XZ:PROC			; std::exception::exception
;	COMDAT xdata$x
; File d:\program files\microsoft visual studio 8\vc\include\iosfwd
xdata$x	SEGMENT
__unwindtable$??0logic_error@std@@QAE@ABV?$basic_string@DU?$char_traits@D@std@@V?$allocator@D@2@@1@@Z DD 0ffffffffH
	DD	FLAT:__unwindfunclet$??0logic_error@std@@QAE@ABV?$basic_string@DU?$char_traits@D@std@@V?$allocator@D@2@@1@@Z$0
__ehfuncinfo$??0logic_error@std@@QAE@ABV?$basic_string@DU?$char_traits@D@std@@V?$allocator@D@2@@1@@Z DD 019930522H
	DD	01H
	DD	FLAT:__unwindtable$??0logic_error@std@@QAE@ABV?$basic_string@DU?$char_traits@D@std@@V?$allocator@D@2@@1@@Z
	DD	2 DUP(00H)
	DD	2 DUP(00H)
	DD	00H
	DD	01H
; Function compile flags: /Ogtpy
; File d:\program files\microsoft visual studio 8\vc\include\stdexcept
xdata$x	ENDS
;	COMDAT ??0logic_error@std@@QAE@ABV?$basic_string@DU?$char_traits@D@std@@V?$allocator@D@2@@1@@Z
_TEXT	SEGMENT
_this$ = -16						; size = 4
__$EHRec$ = -12						; size = 12
__Message$ = 8						; size = 4
??0logic_error@std@@QAE@ABV?$basic_string@DU?$char_traits@D@std@@V?$allocator@D@2@@1@@Z PROC ; std::logic_error::logic_error, COMDAT
; _this$ = ecx

; 27   : 		{	// construct from message string

  00000	6a ff		 push	 -1
  00002	68 00 00 00 00	 push	 __ehhandler$??0logic_error@std@@QAE@ABV?$basic_string@DU?$char_traits@D@std@@V?$allocator@D@2@@1@@Z
  00007	64 a1 00 00 00
	00		 mov	 eax, DWORD PTR fs:0
  0000d	50		 push	 eax
  0000e	51		 push	 ecx
  0000f	56		 push	 esi
  00010	a1 00 00 00 00	 mov	 eax, DWORD PTR ___security_cookie
  00015	33 c4		 xor	 eax, esp
  00017	50		 push	 eax
  00018	8d 44 24 0c	 lea	 eax, DWORD PTR __$EHRec$[esp+24]
  0001c	64 a3 00 00 00
	00		 mov	 DWORD PTR fs:0, eax
  00022	8b f1		 mov	 esi, ecx
  00024	89 74 24 08	 mov	 DWORD PTR _this$[esp+24], esi
  00028	e8 00 00 00 00	 call	 ??0exception@std@@QAE@XZ ; std::exception::exception
  0002d	33 c0		 xor	 eax, eax
  0002f	8d 4e 0c	 lea	 ecx, DWORD PTR [esi+12]
  00032	c7 06 00 00 00
	00		 mov	 DWORD PTR [esi], OFFSET ??_7logic_error@std@@6B@
  00038	6a ff		 push	 -1
  0003a	89 41 14	 mov	 DWORD PTR [ecx+20], eax
  0003d	c7 41 18 0f 00
	00 00		 mov	 DWORD PTR [ecx+24], 15	; 0000000fH
  00044	50		 push	 eax
  00045	89 44 24 1c	 mov	 DWORD PTR __$EHRec$[esp+40], eax
  00049	88 41 04	 mov	 BYTE PTR [ecx+4], al
  0004c	8b 44 24 24	 mov	 eax, DWORD PTR __Message$[esp+28]
  00050	50		 push	 eax
  00051	e8 00 00 00 00	 call	 ?assign@?$basic_string@DU?$char_traits@D@std@@V?$allocator@D@2@@std@@QAEAAV12@ABV12@II@Z ; std::basic_string<char,std::char_traits<char>,std::allocator<char> >::assign

; 28   : 		}

  00056	8b c6		 mov	 eax, esi
  00058	8b 4c 24 0c	 mov	 ecx, DWORD PTR __$EHRec$[esp+24]
  0005c	64 89 0d 00 00
	00 00		 mov	 DWORD PTR fs:0, ecx
  00063	59		 pop	 ecx
  00064	5e		 pop	 esi
  00065	83 c4 10	 add	 esp, 16			; 00000010H
  00068	c2 04 00	 ret	 4
_TEXT	ENDS
;	COMDAT text$x
text$x	SEGMENT
__unwindfunclet$??0logic_error@std@@QAE@ABV?$basic_string@DU?$char_traits@D@std@@V?$allocator@D@2@@1@@Z$0:
  00000	8b 4d f0	 mov	 ecx, DWORD PTR _this$[ebp]
  00003	e9 00 00 00 00	 jmp	 ??1exception@std@@UAE@XZ ; std::exception::~exception
__ehhandler$??0logic_error@std@@QAE@ABV?$basic_string@DU?$char_traits@D@std@@V?$allocator@D@2@@1@@Z:
  00008	8b 54 24 08	 mov	 edx, DWORD PTR [esp+8]
  0000c	8d 42 f8	 lea	 eax, DWORD PTR [edx-8]
  0000f	8b 4a f4	 mov	 ecx, DWORD PTR [edx-12]
  00012	33 c8		 xor	 ecx, eax
  00014	e8 00 00 00 00	 call	 @__security_check_cookie@4
  00019	b8 00 00 00 00	 mov	 eax, OFFSET __ehfuncinfo$??0logic_error@std@@QAE@ABV?$basic_string@DU?$char_traits@D@std@@V?$allocator@D@2@@1@@Z
  0001e	e9 00 00 00 00	 jmp	 ___CxxFrameHandler3
text$x	ENDS
??0logic_error@std@@QAE@ABV?$basic_string@DU?$char_traits@D@std@@V?$allocator@D@2@@1@@Z ENDP ; std::logic_error::logic_error
PUBLIC	??_7out_of_range@std@@6B@			; std::out_of_range::`vftable'
PUBLIC	??0out_of_range@std@@QAE@ABV?$basic_string@DU?$char_traits@D@std@@V?$allocator@D@2@@1@@Z ; std::out_of_range::out_of_range
PUBLIC	??_R4out_of_range@std@@6B@			; std::out_of_range::`RTTI Complete Object Locator'
PUBLIC	??_R0?AVout_of_range@std@@@8			; std::out_of_range `RTTI Type Descriptor'
PUBLIC	??_R3out_of_range@std@@8			; std::out_of_range::`RTTI Class Hierarchy Descriptor'
PUBLIC	??_R2out_of_range@std@@8			; std::out_of_range::`RTTI Base Class Array'
PUBLIC	??_R1A@?0A@EA@out_of_range@std@@8		; std::out_of_range::`RTTI Base Class Descriptor at (0,-1,0,64)'
EXTRN	??_Eout_of_range@std@@UAEPAXI@Z:PROC		; std::out_of_range::`vector deleting destructor'
;	COMDAT ??_R1A@?0A@EA@out_of_range@std@@8
rdata$r	SEGMENT
??_R1A@?0A@EA@out_of_range@std@@8 DD FLAT:??_R0?AVout_of_range@std@@@8 ; std::out_of_range::`RTTI Base Class Descriptor at (0,-1,0,64)'
	DD	02H
	DD	00H
	DD	0ffffffffH
	DD	00H
	DD	040H
	DD	FLAT:??_R3out_of_range@std@@8
rdata$r	ENDS
;	COMDAT ??_R2out_of_range@std@@8
rdata$r	SEGMENT
??_R2out_of_range@std@@8 DD FLAT:??_R1A@?0A@EA@out_of_range@std@@8 ; std::out_of_range::`RTTI Base Class Array'
	DD	FLAT:??_R1A@?0A@EA@logic_error@std@@8
	DD	FLAT:??_R1A@?0A@EA@exception@std@@8
rdata$r	ENDS
;	COMDAT ??_R3out_of_range@std@@8
rdata$r	SEGMENT
??_R3out_of_range@std@@8 DD 00H				; std::out_of_range::`RTTI Class Hierarchy Descriptor'
	DD	00H
	DD	03H
	DD	FLAT:??_R2out_of_range@std@@8
rdata$r	ENDS
;	COMDAT ??_R0?AVout_of_range@std@@@8
_DATA	SEGMENT
??_R0?AVout_of_range@std@@@8 DD FLAT:??_7type_info@@6B@	; std::out_of_range `RTTI Type Descriptor'
	DD	00H
	DB	'.?AVout_of_range@std@@', 00H
_DATA	ENDS
;	COMDAT ??_R4out_of_range@std@@6B@
rdata$r	SEGMENT
??_R4out_of_range@std@@6B@ DD 00H			; std::out_of_range::`RTTI Complete Object Locator'
	DD	00H
	DD	00H
	DD	FLAT:??_R0?AVout_of_range@std@@@8
	DD	FLAT:??_R3out_of_range@std@@8
rdata$r	ENDS
;	COMDAT ??_7out_of_range@std@@6B@
CONST	SEGMENT
??_7out_of_range@std@@6B@ DD FLAT:??_R4out_of_range@std@@6B@ ; std::out_of_range::`vftable'
	DD	FLAT:??_Eout_of_range@std@@UAEPAXI@Z
	DD	FLAT:?what@logic_error@std@@UBEPBDXZ
; Function compile flags: /Ogtpy
CONST	ENDS
;	COMDAT ??0out_of_range@std@@QAE@ABV?$basic_string@DU?$char_traits@D@std@@V?$allocator@D@2@@1@@Z
_TEXT	SEGMENT
__Message$ = 8						; size = 4
??0out_of_range@std@@QAE@ABV?$basic_string@DU?$char_traits@D@std@@V?$allocator@D@2@@1@@Z PROC ; std::out_of_range::out_of_range, COMDAT
; _this$ = ecx

; 130  : 		{	// construct from message string

  00000	8b 44 24 04	 mov	 eax, DWORD PTR __Message$[esp-4]
  00004	56		 push	 esi
  00005	50		 push	 eax
  00006	8b f1		 mov	 esi, ecx
  00008	e8 00 00 00 00	 call	 ??0logic_error@std@@QAE@ABV?$basic_string@DU?$char_traits@D@std@@V?$allocator@D@2@@1@@Z ; std::logic_error::logic_error
  0000d	c7 06 00 00 00
	00		 mov	 DWORD PTR [esi], OFFSET ??_7out_of_range@std@@6B@

; 131  : 		}

  00013	8b c6		 mov	 eax, esi
  00015	5e		 pop	 esi
  00016	c2 04 00	 ret	 4
??0out_of_range@std@@QAE@ABV?$basic_string@DU?$char_traits@D@std@@V?$allocator@D@2@@1@@Z ENDP ; std::out_of_range::out_of_range
_TEXT	ENDS
PUBLIC	??1out_of_range@std@@UAE@XZ			; std::out_of_range::~out_of_range
; Function compile flags: /Ogtpy
;	COMDAT ??1out_of_range@std@@UAE@XZ
_TEXT	SEGMENT
??1out_of_range@std@@UAE@XZ PROC			; std::out_of_range::~out_of_range, COMDAT
; _this$ = ecx

; 134  : 		{	// destroy the object

  00000	56		 push	 esi
  00001	8b f1		 mov	 esi, ecx

; 135  : 		}

  00003	c7 06 00 00 00
	00		 mov	 DWORD PTR [esi], OFFSET ??_7logic_error@std@@6B@
  00009	83 7e 24 10	 cmp	 DWORD PTR [esi+36], 16	; 00000010H
  0000d	72 0c		 jb	 SHORT $LN21@out_of_ran
  0000f	8b 46 10	 mov	 eax, DWORD PTR [esi+16]
  00012	50		 push	 eax
  00013	e8 00 00 00 00	 call	 ??3@YAXPAX@Z		; operator delete
  00018	83 c4 04	 add	 esp, 4
$LN21@out_of_ran:
  0001b	33 c0		 xor	 eax, eax
  0001d	c7 46 24 0f 00
	00 00		 mov	 DWORD PTR [esi+36], 15	; 0000000fH
  00024	89 46 20	 mov	 DWORD PTR [esi+32], eax
  00027	88 46 10	 mov	 BYTE PTR [esi+16], al
  0002a	8b ce		 mov	 ecx, esi
  0002c	5e		 pop	 esi
  0002d	e9 00 00 00 00	 jmp	 ??1exception@std@@UAE@XZ ; std::exception::~exception
??1out_of_range@std@@UAE@XZ ENDP			; std::out_of_range::~out_of_range
; Function compile flags: /Ogtpy
_TEXT	ENDS
;	COMDAT ??_Gout_of_range@std@@UAEPAXI@Z
_TEXT	SEGMENT
___flags$ = 8						; size = 4
??_Gout_of_range@std@@UAEPAXI@Z PROC			; std::out_of_range::`scalar deleting destructor', COMDAT
; _this$ = ecx
  00000	56		 push	 esi
  00001	8b f1		 mov	 esi, ecx
  00003	c7 06 00 00 00
	00		 mov	 DWORD PTR [esi], OFFSET ??_7logic_error@std@@6B@
  00009	83 7e 24 10	 cmp	 DWORD PTR [esi+36], 16	; 00000010H
  0000d	72 0c		 jb	 SHORT $LN24@scalar@4
  0000f	8b 46 10	 mov	 eax, DWORD PTR [esi+16]
  00012	50		 push	 eax
  00013	e8 00 00 00 00	 call	 ??3@YAXPAX@Z		; operator delete
  00018	83 c4 04	 add	 esp, 4
$LN24@scalar@4:
  0001b	33 c0		 xor	 eax, eax
  0001d	c7 46 24 0f 00
	00 00		 mov	 DWORD PTR [esi+36], 15	; 0000000fH
  00024	89 46 20	 mov	 DWORD PTR [esi+32], eax
  00027	8b ce		 mov	 ecx, esi
  00029	88 46 10	 mov	 BYTE PTR [esi+16], al
  0002c	e8 00 00 00 00	 call	 ??1exception@std@@UAE@XZ ; std::exception::~exception
  00031	f6 44 24 08 01	 test	 BYTE PTR ___flags$[esp], 1
  00036	74 09		 je	 SHORT $LN34@scalar@4
  00038	56		 push	 esi
  00039	e8 00 00 00 00	 call	 ??3@YAXPAX@Z		; operator delete
  0003e	83 c4 04	 add	 esp, 4
$LN34@scalar@4:
  00041	8b c6		 mov	 eax, esi
  00043	5e		 pop	 esi
  00044	c2 04 00	 ret	 4
??_Gout_of_range@std@@UAEPAXI@Z ENDP			; std::out_of_range::`scalar deleting destructor'
_TEXT	ENDS
PUBLIC	??0?$basic_string@DU?$char_traits@D@std@@V?$allocator@D@2@@std@@QAE@PBD@Z ; std::basic_string<char,std::char_traits<char>,std::allocator<char> >::basic_string<char,std::char_traits<char>,std::allocator<char> >
; Function compile flags: /Ogtpy
; File d:\program files\microsoft visual studio 8\vc\include\xstring
;	COMDAT ??0?$basic_string@DU?$char_traits@D@std@@V?$allocator@D@2@@std@@QAE@PBD@Z
_TEXT	SEGMENT
__Ptr$ = 8						; size = 4
??0?$basic_string@DU?$char_traits@D@std@@V?$allocator@D@2@@std@@QAE@PBD@Z PROC ; std::basic_string<char,std::char_traits<char>,std::allocator<char> >::basic_string<char,std::char_traits<char>,std::allocator<char> >, COMDAT
; _this$ = ecx

; 651  : 		_Tidy();
; 652  : 		assign(_Ptr);

  00000	8b 54 24 04	 mov	 edx, DWORD PTR __Ptr$[esp-4]
  00004	56		 push	 esi
  00005	8b f1		 mov	 esi, ecx
  00007	8b c2		 mov	 eax, edx
  00009	57		 push	 edi
  0000a	c7 46 18 0f 00
	00 00		 mov	 DWORD PTR [esi+24], 15	; 0000000fH
  00011	c7 46 14 00 00
	00 00		 mov	 DWORD PTR [esi+20], 0
  00018	c6 46 04 00	 mov	 BYTE PTR [esi+4], 0
  0001c	8d 78 01	 lea	 edi, DWORD PTR [eax+1]
  0001f	90		 npad	 1
$LL37@basic_stri@2:
  00020	8a 08		 mov	 cl, BYTE PTR [eax]
  00022	83 c0 01	 add	 eax, 1
  00025	84 c9		 test	 cl, cl
  00027	75 f7		 jne	 SHORT $LL37@basic_stri@2
  00029	2b c7		 sub	 eax, edi
  0002b	50		 push	 eax
  0002c	52		 push	 edx
  0002d	8b ce		 mov	 ecx, esi
  0002f	e8 00 00 00 00	 call	 ?assign@?$basic_string@DU?$char_traits@D@std@@V?$allocator@D@2@@std@@QAEAAV12@PBDI@Z ; std::basic_string<char,std::char_traits<char>,std::allocator<char> >::assign
  00034	5f		 pop	 edi

; 653  : 		}

  00035	8b c6		 mov	 eax, esi
  00037	5e		 pop	 esi
  00038	c2 04 00	 ret	 4
??0?$basic_string@DU?$char_traits@D@std@@V?$allocator@D@2@@std@@QAE@PBD@Z ENDP ; std::basic_string<char,std::char_traits<char>,std::allocator<char> >::basic_string<char,std::char_traits<char>,std::allocator<char> >
_TEXT	ENDS
PUBLIC	??$_Destroy@U_Node@?$_Tree_nod@V?$_Tmap_traits@V?$basic_string@DU?$char_traits@D@std@@V?$allocator@D@2@@std@@V12@U?$less@V?$basic_string@DU?$char_traits@D@std@@V?$allocator@D@2@@std@@@2@V?$allocator@U?$pair@$$CBV?$basic_string@DU?$char_traits@D@std@@V?$allocator@D@2@@std@@V12@@std@@@2@$0A@@std@@@std@@@std@@YAXPAU_Node@?$_Tree_nod@V?$_Tmap_traits@V?$basic_string@DU?$char_traits@D@std@@V?$allocator@D@2@@std@@V12@U?$less@V?$basic_string@DU?$char_traits@D@std@@V?$allocator@D@2@@std@@@2@V?$allocator@U?$pair@$$CBV?$basic_string@DU?$char_traits@D@std@@V?$allocator@D@2@@std@@V12@@std@@@2@$0A@@std@@@0@@Z ; std::_Destroy<std::_Tree_nod<std::_Tmap_traits<std::basic_string<char,std::char_traits<char>,std::allocator<char> >,std::basic_string<char,std::char_traits<char>,std::allocator<char> >,std::less<std::basic_string<char,std::char_traits<char>,std::allocator<char> > >,std::allocator<std::pair<std::basic_string<char,std::char_traits<char>,std::allocator<char> > const ,std::basic_string<char,std::char_traits<char>,std::allocator<char> > > >,0> >::_Node>
; Function compile flags: /Ogtpy
; File d:\program files\microsoft visual studio 8\vc\include\xmemory
;	COMDAT ??$_Destroy@U_Node@?$_Tree_nod@V?$_Tmap_traits@V?$basic_string@DU?$char_traits@D@std@@V?$allocator@D@2@@std@@V12@U?$less@V?$basic_string@DU?$char_traits@D@std@@V?$allocator@D@2@@std@@@2@V?$allocator@U?$pair@$$CBV?$basic_string@DU?$char_traits@D@std@@V?$allocator@D@2@@std@@V12@@std@@@2@$0A@@std@@@std@@@std@@YAXPAU_Node@?$_Tree_nod@V?$_Tmap_traits@V?$basic_string@DU?$char_traits@D@std@@V?$allocator@D@2@@std@@V12@U?$less@V?$basic_string@DU?$char_traits@D@std@@V?$allocator@D@2@@std@@@2@V?$allocator@U?$pair@$$CBV?$basic_string@DU?$char_traits@D@std@@V?$allocator@D@2@@std@@V12@@std@@@2@$0A@@std@@@0@@Z
_TEXT	SEGMENT
__Ptr$ = 8						; size = 4
??$_Destroy@U_Node@?$_Tree_nod@V?$_Tmap_traits@V?$basic_string@DU?$char_traits@D@std@@V?$allocator@D@2@@std@@V12@U?$less@V?$basic_string@DU?$char_traits@D@std@@V?$allocator@D@2@@std@@@2@V?$allocator@U?$pair@$$CBV?$basic_string@DU?$char_traits@D@std@@V?$allocator@D@2@@std@@V12@@std@@@2@$0A@@std@@@std@@@std@@YAXPAU_Node@?$_Tree_nod@V?$_Tmap_traits@V?$basic_string@DU?$char_traits@D@std@@V?$allocator@D@2@@std@@V12@U?$less@V?$basic_string@DU?$char_traits@D@std@@V?$allocator@D@2@@std@@@2@V?$allocator@U?$pair@$$CBV?$basic_string@DU?$char_traits@D@std@@V?$allocator@D@2@@std@@V12@@std@@@2@$0A@@std@@@0@@Z PROC ; std::_Destroy<std::_Tree_nod<std::_Tmap_traits<std::basic_string<char,std::char_traits<char>,std::allocator<char> >,std::basic_string<char,std::char_traits<char>,std::allocator<char> >,std::less<std::basic_string<char,std::char_traits<char>,std::allocator<char> > >,std::allocator<std::pair<std::basic_string<char,std::char_traits<char>,std::allocator<char> > const ,std::basic_string<char,std::char_traits<char>,std::allocator<char> > > >,0> >::_Node>, COMDAT

; 59   : 	{	// destroy object at _Ptr

  00000	53		 push	 ebx
  00001	56		 push	 esi

; 60   : 	_DESTRUCTOR(_Ty, _Ptr);

  00002	8b 74 24 0c	 mov	 esi, DWORD PTR __Ptr$[esp+4]
  00006	83 7e 40 10	 cmp	 DWORD PTR [esi+64], 16	; 00000010H
  0000a	72 0c		 jb	 SHORT $LN26@Destroy
  0000c	8b 46 2c	 mov	 eax, DWORD PTR [esi+44]
  0000f	50		 push	 eax
  00010	e8 00 00 00 00	 call	 ??3@YAXPAX@Z		; operator delete
  00015	83 c4 04	 add	 esp, 4
$LN26@Destroy:
  00018	33 db		 xor	 ebx, ebx
  0001a	c7 46 40 0f 00
	00 00		 mov	 DWORD PTR [esi+64], 15	; 0000000fH
  00021	89 5e 3c	 mov	 DWORD PTR [esi+60], ebx
  00024	88 5e 2c	 mov	 BYTE PTR [esi+44], bl
  00027	83 7e 24 10	 cmp	 DWORD PTR [esi+36], 16	; 00000010H
  0002b	72 0c		 jb	 SHORT $LN52@Destroy
  0002d	8b 4e 10	 mov	 ecx, DWORD PTR [esi+16]
  00030	51		 push	 ecx
  00031	e8 00 00 00 00	 call	 ??3@YAXPAX@Z		; operator delete
  00036	83 c4 04	 add	 esp, 4
$LN52@Destroy:
  00039	89 5e 20	 mov	 DWORD PTR [esi+32], ebx
  0003c	c7 46 24 0f 00
	00 00		 mov	 DWORD PTR [esi+36], 15	; 0000000fH
  00043	88 5e 10	 mov	 BYTE PTR [esi+16], bl
  00046	5e		 pop	 esi
  00047	5b		 pop	 ebx

; 61   : 	}

  00048	c3		 ret	 0
??$_Destroy@U_Node@?$_Tree_nod@V?$_Tmap_traits@V?$basic_string@DU?$char_traits@D@std@@V?$allocator@D@2@@std@@V12@U?$less@V?$basic_string@DU?$char_traits@D@std@@V?$allocator@D@2@@std@@@2@V?$allocator@U?$pair@$$CBV?$basic_string@DU?$char_traits@D@std@@V?$allocator@D@2@@std@@V12@@std@@@2@$0A@@std@@@std@@@std@@YAXPAU_Node@?$_Tree_nod@V?$_Tmap_traits@V?$basic_string@DU?$char_traits@D@std@@V?$allocator@D@2@@std@@V12@U?$less@V?$basic_string@DU?$char_traits@D@std@@V?$allocator@D@2@@std@@@2@V?$allocator@U?$pair@$$CBV?$basic_string@DU?$char_traits@D@std@@V?$allocator@D@2@@std@@V12@@std@@@2@$0A@@std@@@0@@Z ENDP ; std::_Destroy<std::_Tree_nod<std::_Tmap_traits<std::basic_string<char,std::char_traits<char>,std::allocator<char> >,std::basic_string<char,std::char_traits<char>,std::allocator<char> >,std::less<std::basic_string<char,std::char_traits<char>,std::allocator<char> > >,std::allocator<std::pair<std::basic_string<char,std::char_traits<char>,std::allocator<char> > const ,std::basic_string<char,std::char_traits<char>,std::allocator<char> > > >,0> >::_Node>
_TEXT	ENDS
PUBLIC	?destroy@?$allocator@U_Node@?$_Tree_nod@V?$_Tmap_traits@V?$basic_string@DU?$char_traits@D@std@@V?$allocator@D@2@@std@@V12@U?$less@V?$basic_string@DU?$char_traits@D@std@@V?$allocator@D@2@@std@@@2@V?$allocator@U?$pair@$$CBV?$basic_string@DU?$char_traits@D@std@@V?$allocator@D@2@@std@@V12@@std@@@2@$0A@@std@@@std@@@std@@QAEXPAU_Node@?$_Tree_nod@V?$_Tmap_traits@V?$basic_string@DU?$char_traits@D@std@@V?$allocator@D@2@@std@@V12@U?$less@V?$basic_string@DU?$char_traits@D@std@@V?$allocator@D@2@@std@@@2@V?$allocator@U?$pair@$$CBV?$basic_string@DU?$char_traits@D@std@@V?$allocator@D@2@@std@@V12@@std@@@2@$0A@@std@@@2@@Z ; std::allocator<std::_Tree_nod<std::_Tmap_traits<std::basic_string<char,std::char_traits<char>,std::allocator<char> >,std::basic_string<char,std::char_traits<char>,std::allocator<char> >,std::less<std::basic_string<char,std::char_traits<char>,std::allocator<char> > >,std::allocator<std::pair<std::basic_string<char,std::char_traits<char>,std::allocator<char> > const ,std::basic_string<char,std::char_traits<char>,std::allocator<char> > > >,0> >::_Node>::destroy
; Function compile flags: /Ogtpy
;	COMDAT ?destroy@?$allocator@U_Node@?$_Tree_nod@V?$_Tmap_traits@V?$basic_string@DU?$char_traits@D@std@@V?$allocator@D@2@@std@@V12@U?$less@V?$basic_string@DU?$char_traits@D@std@@V?$allocator@D@2@@std@@@2@V?$allocator@U?$pair@$$CBV?$basic_string@DU?$char_traits@D@std@@V?$allocator@D@2@@std@@V12@@std@@@2@$0A@@std@@@std@@@std@@QAEXPAU_Node@?$_Tree_nod@V?$_Tmap_traits@V?$basic_string@DU?$char_traits@D@std@@V?$allocator@D@2@@std@@V12@U?$less@V?$basic_string@DU?$char_traits@D@std@@V?$allocator@D@2@@std@@@2@V?$allocator@U?$pair@$$CBV?$basic_string@DU?$char_traits@D@std@@V?$allocator@D@2@@std@@V12@@std@@@2@$0A@@std@@@2@@Z
_TEXT	SEGMENT
__Ptr$ = 8						; size = 4
?destroy@?$allocator@U_Node@?$_Tree_nod@V?$_Tmap_traits@V?$basic_string@DU?$char_traits@D@std@@V?$allocator@D@2@@std@@V12@U?$less@V?$basic_string@DU?$char_traits@D@std@@V?$allocator@D@2@@std@@@2@V?$allocator@U?$pair@$$CBV?$basic_string@DU?$char_traits@D@std@@V?$allocator@D@2@@std@@V12@@std@@@2@$0A@@std@@@std@@@std@@QAEXPAU_Node@?$_Tree_nod@V?$_Tmap_traits@V?$basic_string@DU?$char_traits@D@std@@V?$allocator@D@2@@std@@V12@U?$less@V?$basic_string@DU?$char_traits@D@std@@V?$allocator@D@2@@std@@@2@V?$allocator@U?$pair@$$CBV?$basic_string@DU?$char_traits@D@std@@V?$allocator@D@2@@std@@V12@@std@@@2@$0A@@std@@@2@@Z PROC ; std::allocator<std::_Tree_nod<std::_Tmap_traits<std::basic_string<char,std::char_traits<char>,std::allocator<char> >,std::basic_string<char,std::char_traits<char>,std::allocator<char> >,std::less<std::basic_string<char,std::char_traits<char>,std::allocator<char> > >,std::allocator<std::pair<std::basic_string<char,std::char_traits<char>,std::allocator<char> > const ,std::basic_string<char,std::char_traits<char>,std::allocator<char> > > >,0> >::_Node>::destroy, COMDAT
; _this$ = ecx

; 160  : 		{	// destroy object at _Ptr

  00000	53		 push	 ebx
  00001	56		 push	 esi

; 161  : 		_Destroy(_Ptr);

  00002	8b 74 24 0c	 mov	 esi, DWORD PTR __Ptr$[esp+4]
  00006	83 7e 40 10	 cmp	 DWORD PTR [esi+64], 16	; 00000010H
  0000a	72 0c		 jb	 SHORT $LN28@destroy
  0000c	8b 46 2c	 mov	 eax, DWORD PTR [esi+44]
  0000f	50		 push	 eax
  00010	e8 00 00 00 00	 call	 ??3@YAXPAX@Z		; operator delete
  00015	83 c4 04	 add	 esp, 4
$LN28@destroy:
  00018	33 db		 xor	 ebx, ebx
  0001a	c7 46 40 0f 00
	00 00		 mov	 DWORD PTR [esi+64], 15	; 0000000fH
  00021	89 5e 3c	 mov	 DWORD PTR [esi+60], ebx
  00024	88 5e 2c	 mov	 BYTE PTR [esi+44], bl
  00027	83 7e 24 10	 cmp	 DWORD PTR [esi+36], 16	; 00000010H
  0002b	72 0c		 jb	 SHORT $LN54@destroy
  0002d	8b 4e 10	 mov	 ecx, DWORD PTR [esi+16]
  00030	51		 push	 ecx
  00031	e8 00 00 00 00	 call	 ??3@YAXPAX@Z		; operator delete
  00036	83 c4 04	 add	 esp, 4
$LN54@destroy:
  00039	89 5e 20	 mov	 DWORD PTR [esi+32], ebx
  0003c	c7 46 24 0f 00
	00 00		 mov	 DWORD PTR [esi+36], 15	; 0000000fH
  00043	88 5e 10	 mov	 BYTE PTR [esi+16], bl
  00046	5e		 pop	 esi
  00047	5b		 pop	 ebx

; 162  : 		}

  00048	c2 04 00	 ret	 4
?destroy@?$allocator@U_Node@?$_Tree_nod@V?$_Tmap_traits@V?$basic_string@DU?$char_traits@D@std@@V?$allocator@D@2@@std@@V12@U?$less@V?$basic_string@DU?$char_traits@D@std@@V?$allocator@D@2@@std@@@2@V?$allocator@U?$pair@$$CBV?$basic_string@DU?$char_traits@D@std@@V?$allocator@D@2@@std@@V12@@std@@@2@$0A@@std@@@std@@@std@@QAEXPAU_Node@?$_Tree_nod@V?$_Tmap_traits@V?$basic_string@DU?$char_traits@D@std@@V?$allocator@D@2@@std@@V12@U?$less@V?$basic_string@DU?$char_traits@D@std@@V?$allocator@D@2@@std@@@2@V?$allocator@U?$pair@$$CBV?$basic_string@DU?$char_traits@D@std@@V?$allocator@D@2@@std@@V12@@std@@@2@$0A@@std@@@2@@Z ENDP ; std::allocator<std::_Tree_nod<std::_Tmap_traits<std::basic_string<char,std::char_traits<char>,std::allocator<char> >,std::basic_string<char,std::char_traits<char>,std::allocator<char> >,std::less<std::basic_string<char,std::char_traits<char>,std::allocator<char> > >,std::allocator<std::pair<std::basic_string<char,std::char_traits<char>,std::allocator<char> > const ,std::basic_string<char,std::char_traits<char>,std::allocator<char> > > >,0> >::_Node>::destroy
_TEXT	ENDS
PUBLIC	__TI3?AVout_of_range@std@@
PUBLIC	??_C@_0BM@PAPJHAGI@invalid?5map?1set?$DMT?$DO?5iterator?$AA@ ; `string'
PUBLIC	?erase@?$_Tree@V?$_Tmap_traits@V?$basic_string@DU?$char_traits@D@std@@V?$allocator@D@2@@std@@V12@U?$less@V?$basic_string@DU?$char_traits@D@std@@V?$allocator@D@2@@std@@@2@V?$allocator@U?$pair@$$CBV?$basic_string@DU?$char_traits@D@std@@V?$allocator@D@2@@std@@V12@@std@@@2@$0A@@std@@@std@@QAE?AViterator@12@V312@@Z ; std::_Tree<std::_Tmap_traits<std::basic_string<char,std::char_traits<char>,std::allocator<char> >,std::basic_string<char,std::char_traits<char>,std::allocator<char> >,std::less<std::basic_string<char,std::char_traits<char>,std::allocator<char> > >,std::allocator<std::pair<std::basic_string<char,std::char_traits<char>,std::allocator<char> > const ,std::basic_string<char,std::char_traits<char>,std::allocator<char> > > >,0> >::erase
PUBLIC	__CTA3?AVout_of_range@std@@
PUBLIC	__CT??_R0?AVout_of_range@std@@@8??0out_of_range@std@@QAE@ABV01@@Z40
PUBLIC	??0out_of_range@std@@QAE@ABV01@@Z		; std::out_of_range::out_of_range
PUBLIC	__CT??_R0?AVlogic_error@std@@@8??0logic_error@std@@QAE@ABV01@@Z40
PUBLIC	??0logic_error@std@@QAE@ABV01@@Z		; std::logic_error::logic_error
;	COMDAT __CT??_R0?AVlogic_error@std@@@8??0logic_error@std@@QAE@ABV01@@Z40
xdata$x	SEGMENT
__CT??_R0?AVlogic_error@std@@@8??0logic_error@std@@QAE@ABV01@@Z40 DD 00H
	DD	FLAT:??_R0?AVlogic_error@std@@@8
	DD	00H
	DD	0ffffffffH
	ORG $+4
	DD	028H
	DD	FLAT:??0logic_error@std@@QAE@ABV01@@Z
xdata$x	ENDS
;	COMDAT __CT??_R0?AVout_of_range@std@@@8??0out_of_range@std@@QAE@ABV01@@Z40
xdata$x	SEGMENT
__CT??_R0?AVout_of_range@std@@@8??0out_of_range@std@@QAE@ABV01@@Z40 DD 00H
	DD	FLAT:??_R0?AVout_of_range@std@@@8
	DD	00H
	DD	0ffffffffH
	ORG $+4
	DD	028H
	DD	FLAT:??0out_of_range@std@@QAE@ABV01@@Z
xdata$x	ENDS
;	COMDAT __CTA3?AVout_of_range@std@@
xdata$x	SEGMENT
__CTA3?AVout_of_range@std@@ DD 03H
	DD	FLAT:__CT??_R0?AVout_of_range@std@@@8??0out_of_range@std@@QAE@ABV01@@Z40
	DD	FLAT:__CT??_R0?AVlogic_error@std@@@8??0logic_error@std@@QAE@ABV01@@Z40
	DD	FLAT:__CT??_R0?AVexception@std@@@8??0exception@std@@QAE@ABV01@@Z12
xdata$x	ENDS
;	COMDAT __TI3?AVout_of_range@std@@
xdata$x	SEGMENT
__TI3?AVout_of_range@std@@ DD 00H
	DD	FLAT:??1out_of_range@std@@UAE@XZ
	DD	00H
	DD	FLAT:__CTA3?AVout_of_range@std@@
xdata$x	ENDS
;	COMDAT ??_C@_0BM@PAPJHAGI@invalid?5map?1set?$DMT?$DO?5iterator?$AA@
CONST	SEGMENT
??_C@_0BM@PAPJHAGI@invalid?5map?1set?$DMT?$DO?5iterator?$AA@ DB 'invalid '
	DB	'map/set<T> iterator', 00H			; `string'
CONST	ENDS
;	COMDAT xdata$x
xdata$x	SEGMENT
__unwindtable$?erase@?$_Tree@V?$_Tmap_traits@V?$basic_string@DU?$char_traits@D@std@@V?$allocator@D@2@@std@@V12@U?$less@V?$basic_string@DU?$char_traits@D@std@@V?$allocator@D@2@@std@@@2@V?$allocator@U?$pair@$$CBV?$basic_string@DU?$char_traits@D@std@@V?$allocator@D@2@@std@@V12@@std@@@2@$0A@@std@@@std@@QAE?AViterator@12@V312@@Z DD 0ffffffffH
	DD	FLAT:__unwindfunclet$?erase@?$_Tree@V?$_Tmap_traits@V?$basic_string@DU?$char_traits@D@std@@V?$allocator@D@2@@std@@V12@U?$less@V?$basic_string@DU?$char_traits@D@std@@V?$allocator@D@2@@std@@@2@V?$allocator@U?$pair@$$CBV?$basic_string@DU?$char_traits@D@std@@V?$allocator@D@2@@std@@V12@@std@@@2@$0A@@std@@@std@@QAE?AViterator@12@V312@@Z$0
__ehfuncinfo$?erase@?$_Tree@V?$_Tmap_traits@V?$basic_string@DU?$char_traits@D@std@@V?$allocator@D@2@@std@@V12@U?$less@V?$basic_string@DU?$char_traits@D@std@@V?$allocator@D@2@@std@@@2@V?$allocator@U?$pair@$$CBV?$basic_string@DU?$char_traits@D@std@@V?$allocator@D@2@@std@@V12@@std@@@2@$0A@@std@@@std@@QAE?AViterator@12@V312@@Z DD 019930522H
	DD	01H
	DD	FLAT:__unwindtable$?erase@?$_Tree@V?$_Tmap_traits@V?$basic_string@DU?$char_traits@D@std@@V?$allocator@D@2@@std@@V12@U?$less@V?$basic_string@DU?$char_traits@D@std@@V?$allocator@D@2@@std@@@2@V?$allocator@U?$pair@$$CBV?$basic_string@DU?$char_traits@D@std@@V?$allocator@D@2@@std@@V12@@std@@@2@$0A@@std@@@std@@QAE?AViterator@12@V312@@Z
	DD	2 DUP(00H)
	DD	2 DUP(00H)
	DD	00H
	DD	01H
; Function compile flags: /Ogtpy
; File d:\program files\microsoft visual studio 8\vc\include\xtree
xdata$x	ENDS
;	COMDAT ?erase@?$_Tree@V?$_Tmap_traits@V?$basic_string@DU?$char_traits@D@std@@V?$allocator@D@2@@std@@V12@U?$less@V?$basic_string@DU?$char_traits@D@std@@V?$allocator@D@2@@std@@@2@V?$allocator@U?$pair@$$CBV?$basic_string@DU?$char_traits@D@std@@V?$allocator@D@2@@std@@V12@@std@@@2@$0A@@std@@@std@@QAE?AViterator@12@V312@@Z
_TEXT	SEGMENT
_this$ = -84						; size = 4
$T151558 = -80						; size = 28
$T151557 = -52						; size = 40
__$EHRec$ = -12						; size = 12
___$ReturnUdt$ = 8					; size = 4
__Where$ = 12						; size = 8
?erase@?$_Tree@V?$_Tmap_traits@V?$basic_string@DU?$char_traits@D@std@@V?$allocator@D@2@@std@@V12@U?$less@V?$basic_string@DU?$char_traits@D@std@@V?$allocator@D@2@@std@@@2@V?$allocator@U?$pair@$$CBV?$basic_string@DU?$char_traits@D@std@@V?$allocator@D@2@@std@@V12@@std@@@2@$0A@@std@@@std@@QAE?AViterator@12@V312@@Z PROC ; std::_Tree<std::_Tmap_traits<std::basic_string<char,std::char_traits<char>,std::allocator<char> >,std::basic_string<char,std::char_traits<char>,std::allocator<char> >,std::less<std::basic_string<char,std::char_traits<char>,std::allocator<char> > >,std::allocator<std::pair<std::basic_string<char,std::char_traits<char>,std::allocator<char> > const ,std::basic_string<char,std::char_traits<char>,std::allocator<char> > > >,0> >::erase, COMDAT
; _this$ = ecx

; 747  : 		{	// erase element at _Where

  00000	6a ff		 push	 -1
  00002	68 00 00 00 00	 push	 __ehhandler$?erase@?$_Tree@V?$_Tmap_traits@V?$basic_string@DU?$char_traits@D@std@@V?$allocator@D@2@@std@@V12@U?$less@V?$basic_string@DU?$char_traits@D@std@@V?$allocator@D@2@@std@@@2@V?$allocator@U?$pair@$$CBV?$basic_string@DU?$char_traits@D@std@@V?$allocator@D@2@@std@@V12@@std@@@2@$0A@@std@@@std@@QAE?AViterator@12@V312@@Z
  00007	64 a1 00 00 00
	00		 mov	 eax, DWORD PTR fs:0
  0000d	50		 push	 eax
  0000e	83 ec 48	 sub	 esp, 72			; 00000048H
  00011	53		 push	 ebx
  00012	55		 push	 ebp
  00013	56		 push	 esi
  00014	57		 push	 edi
  00015	a1 00 00 00 00	 mov	 eax, DWORD PTR ___security_cookie
  0001a	33 c4		 xor	 eax, esp
  0001c	50		 push	 eax
  0001d	8d 44 24 5c	 lea	 eax, DWORD PTR __$EHRec$[esp+104]
  00021	64 a3 00 00 00
	00		 mov	 DWORD PTR fs:0, eax
  00027	8b d9		 mov	 ebx, ecx
  00029	89 5c 24 14	 mov	 DWORD PTR _this$[esp+104], ebx

; 748  : 
; 749  :  #if _HAS_ITERATOR_DEBUGGING
; 750  : 		if (_Where._Mycont != this || _Isnil(_Where._Mynode()))
; 751  : 			_DEBUG_ERROR("map/set erase iterator outside range");
; 752  : 		_Nodeptr _Erasednode = _Where._Mynode();	// node to erase
; 753  : 		++_Where;	// save successor iterator for return
; 754  : 		_Orphan_ptr(*this, _Erasednode);
; 755  : 
; 756  :  #else /* _HAS_ITERATOR_DEBUGGING */
; 757  : 		if (_Isnil(_Where._Mynode()))

  0002d	8b 7c 24 74	 mov	 edi, DWORD PTR __Where$[esp+104]
  00031	80 7f 45 00	 cmp	 BYTE PTR [edi+69], 0
  00035	74 4c		 je	 SHORT $LN40@erase@2

; 758  : 			_THROW(out_of_range, "invalid map/set<T> iterator");

  00037	6a 1b		 push	 27			; 0000001bH
  00039	33 f6		 xor	 esi, esi
  0003b	68 00 00 00 00	 push	 OFFSET ??_C@_0BM@PAPJHAGI@invalid?5map?1set?$DMT?$DO?5iterator?$AA@
  00040	8d 4c 24 20	 lea	 ecx, DWORD PTR $T151558[esp+112]
  00044	c7 44 24 38 0f
	00 00 00	 mov	 DWORD PTR $T151558[esp+136], 15 ; 0000000fH
  0004c	89 74 24 34	 mov	 DWORD PTR $T151558[esp+132], esi
  00050	c6 44 24 24 00	 mov	 BYTE PTR $T151558[esp+116], 0
  00055	e8 00 00 00 00	 call	 ?assign@?$basic_string@DU?$char_traits@D@std@@V?$allocator@D@2@@std@@QAEAAV12@PBDI@Z ; std::basic_string<char,std::char_traits<char>,std::allocator<char> >::assign
  0005a	8d 44 24 18	 lea	 eax, DWORD PTR $T151558[esp+104]
  0005e	50		 push	 eax
  0005f	8d 4c 24 38	 lea	 ecx, DWORD PTR $T151557[esp+108]
  00063	89 74 24 68	 mov	 DWORD PTR __$EHRec$[esp+116], esi
  00067	e8 00 00 00 00	 call	 ??0logic_error@std@@QAE@ABV?$basic_string@DU?$char_traits@D@std@@V?$allocator@D@2@@1@@Z ; std::logic_error::logic_error
  0006c	68 00 00 00 00	 push	 OFFSET __TI3?AVout_of_range@std@@
  00071	8d 4c 24 38	 lea	 ecx, DWORD PTR $T151557[esp+108]
  00075	51		 push	 ecx
  00076	c7 44 24 3c 00
	00 00 00	 mov	 DWORD PTR $T151557[esp+112], OFFSET ??_7out_of_range@std@@6B@
  0007e	e8 00 00 00 00	 call	 __CxxThrowException@8
$LN383@erase@2:
$LN40@erase@2:

; 759  : 		_Nodeptr _Erasednode = _Where._Mynode();	// node to erase
; 760  : 		++_Where;	// save successor iterator for return

  00083	8d 4c 24 70	 lea	 ecx, DWORD PTR __Where$[esp+100]
  00087	e8 00 00 00 00	 call	 ?_Inc@const_iterator@?$_Tree@V?$_Tmap_traits@V?$basic_string@DU?$char_traits@D@std@@V?$allocator@D@2@@std@@V12@U?$less@V?$basic_string@DU?$char_traits@D@std@@V?$allocator@D@2@@std@@@2@V?$allocator@U?$pair@$$CBV?$basic_string@DU?$char_traits@D@std@@V?$allocator@D@2@@std@@V12@@std@@@2@$0A@@std@@@std@@QAEXXZ ; std::_Tree<std::_Tmap_traits<std::basic_string<char,std::char_traits<char>,std::allocator<char> >,std::basic_string<char,std::char_traits<char>,std::allocator<char> >,std::less<std::basic_string<char,std::char_traits<char>,std::allocator<char> > >,std::allocator<std::pair<std::basic_string<char,std::char_traits<char>,std::allocator<char> > const ,std::basic_string<char,std::char_traits<char>,std::allocator<char> > > >,0> >::const_iterator::_Inc

; 761  :  #endif /* _HAS_ITERATOR_DEBUGGING */
; 762  : 
; 763  : 		_Nodeptr _Fixnode;	// the node to recolor as needed
; 764  : 		_Nodeptr _Fixnodeparent;	// parent of _Fixnode (which may be nil)
; 765  : 		_Nodeptr _Pnode = _Erasednode;
; 766  : 
; 767  : 		if (_Isnil(_Left(_Pnode)))

  0008c	8b 07		 mov	 eax, DWORD PTR [edi]
  0008e	80 78 45 00	 cmp	 BYTE PTR [eax+69], 0
  00092	74 05		 je	 SHORT $LN39@erase@2

; 768  : 			_Fixnode = _Right(_Pnode);	// must stitch up right subtree

  00094	8b 6f 08	 mov	 ebp, DWORD PTR [edi+8]
  00097	eb 18		 jmp	 SHORT $LN378@erase@2
$LN39@erase@2:

; 769  : 		else if (_Isnil(_Right(_Pnode)))

  00099	8b 57 08	 mov	 edx, DWORD PTR [edi+8]
  0009c	80 7a 45 00	 cmp	 BYTE PTR [edx+69], 0
  000a0	74 04		 je	 SHORT $LN37@erase@2

; 770  : 			_Fixnode = _Left(_Pnode);	// must stitch up left subtree

  000a2	8b e8		 mov	 ebp, eax

; 771  : 		else

  000a4	eb 0b		 jmp	 SHORT $LN378@erase@2
$LN37@erase@2:

; 772  : 			{	// two subtrees, must lift successor node to replace erased
; 773  : 			_Pnode = _Where._Mynode();	// _Pnode is successor node
; 774  : 			_Fixnode = _Right(_Pnode);	// _Fixnode is its only subtree

  000a6	8b 4c 24 74	 mov	 ecx, DWORD PTR __Where$[esp+104]

; 775  : 			}
; 776  : 
; 777  : 		if (_Pnode == _Erasednode)

  000aa	3b cf		 cmp	 ecx, edi
  000ac	8b 69 08	 mov	 ebp, DWORD PTR [ecx+8]
  000af	75 67		 jne	 SHORT $LN35@erase@2
$LN378@erase@2:

; 778  : 			{	// at most one subtree, relink it
; 779  : 			_Fixnodeparent = _Parent(_Erasednode);
; 780  : 			if (!_Isnil(_Fixnode))

  000b1	80 7d 45 00	 cmp	 BYTE PTR [ebp+69], 0
  000b5	8b 77 04	 mov	 esi, DWORD PTR [edi+4]
  000b8	75 03		 jne	 SHORT $LN34@erase@2

; 781  : 				_Parent(_Fixnode) = _Fixnodeparent;	// link up

  000ba	89 75 04	 mov	 DWORD PTR [ebp+4], esi
$LN34@erase@2:

; 782  : 
; 783  : 			if (_Root() == _Erasednode)

  000bd	8b 43 04	 mov	 eax, DWORD PTR [ebx+4]
  000c0	39 78 04	 cmp	 DWORD PTR [eax+4], edi
  000c3	75 05		 jne	 SHORT $LN33@erase@2

; 784  : 				_Root() = _Fixnode;	// link down from root

  000c5	89 68 04	 mov	 DWORD PTR [eax+4], ebp
  000c8	eb 0b		 jmp	 SHORT $LN30@erase@2
$LN33@erase@2:

; 785  : 			else if (_Left(_Fixnodeparent) == _Erasednode)

  000ca	39 3e		 cmp	 DWORD PTR [esi], edi
  000cc	75 04		 jne	 SHORT $LN31@erase@2

; 786  : 				_Left(_Fixnodeparent) = _Fixnode;	// link down to left

  000ce	89 2e		 mov	 DWORD PTR [esi], ebp

; 787  : 			else

  000d0	eb 03		 jmp	 SHORT $LN30@erase@2
$LN31@erase@2:

; 788  : 				_Right(_Fixnodeparent) = _Fixnode;	// link down to right

  000d2	89 6e 08	 mov	 DWORD PTR [esi+8], ebp
$LN30@erase@2:

; 789  : 
; 790  : 			if (_Lmost() == _Erasednode)

  000d5	8b 5b 04	 mov	 ebx, DWORD PTR [ebx+4]
  000d8	39 3b		 cmp	 DWORD PTR [ebx], edi
  000da	75 15		 jne	 SHORT $LN29@erase@2

; 791  : 				_Lmost() = _Isnil(_Fixnode)
; 792  : 					? _Fixnodeparent	// smallest is parent of erased node
; 793  : 					: _Min(_Fixnode);	// smallest in relinked subtree

  000dc	80 7d 45 00	 cmp	 BYTE PTR [ebp+69], 0
  000e0	74 04		 je	 SHORT $LN43@erase@2
  000e2	8b c6		 mov	 eax, esi
  000e4	eb 09		 jmp	 SHORT $LN44@erase@2
$LN43@erase@2:
  000e6	55		 push	 ebp
  000e7	e8 00 00 00 00	 call	 ?_Min@?$_Tree@V?$_Tmap_traits@V?$basic_string@DU?$char_traits@D@std@@V?$allocator@D@2@@std@@V12@U?$less@V?$basic_string@DU?$char_traits@D@std@@V?$allocator@D@2@@std@@@2@V?$allocator@U?$pair@$$CBV?$basic_string@DU?$char_traits@D@std@@V?$allocator@D@2@@std@@V12@@std@@@2@$0A@@std@@@std@@KAPAU_Node@?$_Tree_nod@V?$_Tmap_traits@V?$basic_string@DU?$char_traits@D@std@@V?$allocator@D@2@@std@@V12@U?$less@V?$basic_string@DU?$char_traits@D@std@@V?$allocator@D@2@@std@@@2@V?$allocator@U?$pair@$$CBV?$basic_string@DU?$char_traits@D@std@@V?$allocator@D@2@@std@@V12@@std@@@2@$0A@@std@@@2@PAU342@@Z ; std::_Tree<std::_Tmap_traits<std::basic_string<char,std::char_traits<char>,std::allocator<char> >,std::basic_string<char,std::char_traits<char>,std::allocator<char> >,std::less<std::basic_string<char,std::char_traits<char>,std::allocator<char> > >,std::allocator<std::pair<std::basic_string<char,std::char_traits<char>,std::allocator<char> > const ,std::basic_string<char,std::char_traits<char>,std::allocator<char> > > >,0> >::_Min
  000ec	83 c4 04	 add	 esp, 4
$LN44@erase@2:
  000ef	89 03		 mov	 DWORD PTR [ebx], eax
$LN29@erase@2:

; 794  : 
; 795  : 			if (_Rmost() == _Erasednode)

  000f1	8b 44 24 14	 mov	 eax, DWORD PTR _this$[esp+104]
  000f5	8b 58 04	 mov	 ebx, DWORD PTR [eax+4]
  000f8	39 7b 08	 cmp	 DWORD PTR [ebx+8], edi
  000fb	75 72		 jne	 SHORT $LN207@erase@2

; 796  : 				_Rmost() = _Isnil(_Fixnode)
; 797  : 					? _Fixnodeparent	// largest is parent of erased node
; 798  : 					: _Max(_Fixnode);	// largest in relinked subtree

  000fd	80 7d 45 00	 cmp	 BYTE PTR [ebp+69], 0
  00101	74 07		 je	 SHORT $LN45@erase@2
  00103	8b c6		 mov	 eax, esi
  00105	89 43 08	 mov	 DWORD PTR [ebx+8], eax

; 799  : 			}
; 800  : 		else

  00108	eb 65		 jmp	 SHORT $LN207@erase@2
$LN45@erase@2:

; 796  : 				_Rmost() = _Isnil(_Fixnode)
; 797  : 					? _Fixnodeparent	// largest is parent of erased node
; 798  : 					: _Max(_Fixnode);	// largest in relinked subtree

  0010a	55		 push	 ebp
  0010b	e8 00 00 00 00	 call	 ?_Max@?$_Tree@V?$_Tmap_traits@V?$basic_string@DU?$char_traits@D@std@@V?$allocator@D@2@@std@@V12@U?$less@V?$basic_string@DU?$char_traits@D@std@@V?$allocator@D@2@@std@@@2@V?$allocator@U?$pair@$$CBV?$basic_string@DU?$char_traits@D@std@@V?$allocator@D@2@@std@@V12@@std@@@2@$0A@@std@@@std@@KAPAU_Node@?$_Tree_nod@V?$_Tmap_traits@V?$basic_string@DU?$char_traits@D@std@@V?$allocator@D@2@@std@@V12@U?$less@V?$basic_string@DU?$char_traits@D@std@@V?$allocator@D@2@@std@@@2@V?$allocator@U?$pair@$$CBV?$basic_string@DU?$char_traits@D@std@@V?$allocator@D@2@@std@@V12@@std@@@2@$0A@@std@@@2@PAU342@@Z ; std::_Tree<std::_Tmap_traits<std::basic_string<char,std::char_traits<char>,std::allocator<char> >,std::basic_string<char,std::char_traits<char>,std::allocator<char> >,std::less<std::basic_string<char,std::char_traits<char>,std::allocator<char> > >,std::allocator<std::pair<std::basic_string<char,std::char_traits<char>,std::allocator<char> > const ,std::basic_string<char,std::char_traits<char>,std::allocator<char> > > >,0> >::_Max
  00110	83 c4 04	 add	 esp, 4
  00113	89 43 08	 mov	 DWORD PTR [ebx+8], eax

; 799  : 			}
; 800  : 		else

  00116	eb 57		 jmp	 SHORT $LN207@erase@2
$LN35@erase@2:

; 801  : 			{	// erased has two subtrees, _Pnode is successor to erased
; 802  : 			_Parent(_Left(_Erasednode)) = _Pnode;	// link left up

  00118	89 48 04	 mov	 DWORD PTR [eax+4], ecx

; 803  : 			_Left(_Pnode) = _Left(_Erasednode);	// link successor down

  0011b	8b 17		 mov	 edx, DWORD PTR [edi]
  0011d	89 11		 mov	 DWORD PTR [ecx], edx

; 804  : 
; 805  : 			if (_Pnode == _Right(_Erasednode))

  0011f	3b 4f 08	 cmp	 ecx, DWORD PTR [edi+8]
  00122	75 04		 jne	 SHORT $LN26@erase@2

; 806  : 				_Fixnodeparent = _Pnode;	// successor is next to erased

  00124	8b f1		 mov	 esi, ecx

; 807  : 			else

  00126	eb 1a		 jmp	 SHORT $LN25@erase@2
$LN26@erase@2:

; 808  : 				{	// successor further down, link in place of erased
; 809  : 				_Fixnodeparent = _Parent(_Pnode);	// parent is successor's
; 810  : 				if (!_Isnil(_Fixnode))

  00128	80 7d 45 00	 cmp	 BYTE PTR [ebp+69], 0
  0012c	8b 71 04	 mov	 esi, DWORD PTR [ecx+4]
  0012f	75 03		 jne	 SHORT $LN24@erase@2

; 811  : 					_Parent(_Fixnode) = _Fixnodeparent;	// link fix up

  00131	89 75 04	 mov	 DWORD PTR [ebp+4], esi
$LN24@erase@2:

; 812  : 				_Left(_Fixnodeparent) = _Fixnode;	// link fix down

  00134	89 2e		 mov	 DWORD PTR [esi], ebp

; 813  : 				_Right(_Pnode) = _Right(_Erasednode);	// link successor down

  00136	8b 47 08	 mov	 eax, DWORD PTR [edi+8]
  00139	89 41 08	 mov	 DWORD PTR [ecx+8], eax

; 814  : 				_Parent(_Right(_Erasednode)) = _Pnode;	// link right up

  0013c	8b 57 08	 mov	 edx, DWORD PTR [edi+8]
  0013f	89 4a 04	 mov	 DWORD PTR [edx+4], ecx
$LN25@erase@2:

; 815  : 				}
; 816  : 
; 817  : 			if (_Root() == _Erasednode)

  00142	8b 43 04	 mov	 eax, DWORD PTR [ebx+4]
  00145	39 78 04	 cmp	 DWORD PTR [eax+4], edi
  00148	75 05		 jne	 SHORT $LN23@erase@2

; 818  : 				_Root() = _Pnode;	// link down from root

  0014a	89 48 04	 mov	 DWORD PTR [eax+4], ecx
  0014d	eb 0e		 jmp	 SHORT $LN20@erase@2
$LN23@erase@2:

; 819  : 			else if (_Left(_Parent(_Erasednode)) == _Erasednode)

  0014f	8b 47 04	 mov	 eax, DWORD PTR [edi+4]
  00152	39 38		 cmp	 DWORD PTR [eax], edi
  00154	75 04		 jne	 SHORT $LN21@erase@2

; 820  : 				_Left(_Parent(_Erasednode)) = _Pnode;	// link down to left

  00156	89 08		 mov	 DWORD PTR [eax], ecx

; 821  : 			else

  00158	eb 03		 jmp	 SHORT $LN20@erase@2
$LN21@erase@2:

; 822  : 				_Right(_Parent(_Erasednode)) = _Pnode;	// link down to right

  0015a	89 48 08	 mov	 DWORD PTR [eax+8], ecx
$LN20@erase@2:

; 823  : 
; 824  : 			_Parent(_Pnode) = _Parent(_Erasednode);	// link successor up

  0015d	8b 47 04	 mov	 eax, DWORD PTR [edi+4]
  00160	89 41 04	 mov	 DWORD PTR [ecx+4], eax

; 825  : 			std::swap(_Color(_Pnode), _Color(_Erasednode));	// recolor it

  00163	8a 57 44	 mov	 dl, BYTE PTR [edi+68]
  00166	8a 41 44	 mov	 al, BYTE PTR [ecx+68]
  00169	88 51 44	 mov	 BYTE PTR [ecx+68], dl
  0016c	88 47 44	 mov	 BYTE PTR [edi+68], al
$LN207@erase@2:

; 826  : 			}
; 827  : 
; 828  : 		if (_Color(_Erasednode) == _Black)

  0016f	b3 01		 mov	 bl, 1
  00171	38 5f 44	 cmp	 BYTE PTR [edi+68], bl
  00174	0f 85 05 01 00
	00		 jne	 $LN19@erase@2

; 829  : 			{	// erasing black link, must recolor/rebalance tree
; 830  : 			for (; _Fixnode != _Root() && _Color(_Fixnode) == _Black;
; 831  : 				_Fixnodeparent = _Parent(_Fixnode))

  0017a	8b 4c 24 14	 mov	 ecx, DWORD PTR _this$[esp+104]
  0017e	8b 41 04	 mov	 eax, DWORD PTR [ecx+4]
  00181	3b 68 04	 cmp	 ebp, DWORD PTR [eax+4]
  00184	0f 84 f2 00 00
	00		 je	 $LN16@erase@2
  0018a	8d 9b 00 00 00
	00		 npad	 6
$LL18@erase@2:
  00190	38 5d 44	 cmp	 BYTE PTR [ebp+68], bl
  00193	0f 85 e3 00 00
	00		 jne	 $LN16@erase@2

; 832  : 				if (_Fixnode == _Left(_Fixnodeparent))

  00199	8b 06		 mov	 eax, DWORD PTR [esi]
  0019b	3b e8		 cmp	 ebp, eax
  0019d	75 67		 jne	 SHORT $LN15@erase@2

; 833  : 					{	// fixup left subtree
; 834  : 					_Pnode = _Right(_Fixnodeparent);

  0019f	8b 46 08	 mov	 eax, DWORD PTR [esi+8]

; 835  : 					if (_Color(_Pnode) == _Red)

  001a2	80 78 44 00	 cmp	 BYTE PTR [eax+68], 0
  001a6	75 14		 jne	 SHORT $LN14@erase@2

; 836  : 						{	// rotate red up from right subtree
; 837  : 						_Color(_Pnode) = _Black;

  001a8	88 58 44	 mov	 BYTE PTR [eax+68], bl

; 838  : 						_Color(_Fixnodeparent) = _Red;
; 839  : 						_Lrotate(_Fixnodeparent);

  001ab	56		 push	 esi
  001ac	c6 46 44 00	 mov	 BYTE PTR [esi+68], 0
  001b0	e8 00 00 00 00	 call	 ?_Lrotate@?$_Tree@V?$_Tmap_traits@V?$basic_string@DU?$char_traits@D@std@@V?$allocator@D@2@@std@@V12@U?$less@V?$basic_string@DU?$char_traits@D@std@@V?$allocator@D@2@@std@@@2@V?$allocator@U?$pair@$$CBV?$basic_string@DU?$char_traits@D@std@@V?$allocator@D@2@@std@@V12@@std@@@2@$0A@@std@@@std@@IAEXPAU_Node@?$_Tree_nod@V?$_Tmap_traits@V?$basic_string@DU?$char_traits@D@std@@V?$allocator@D@2@@std@@V12@U?$less@V?$basic_string@DU?$char_traits@D@std@@V?$allocator@D@2@@std@@@2@V?$allocator@U?$pair@$$CBV?$basic_string@DU?$char_traits@D@std@@V?$allocator@D@2@@std@@V12@@std@@@2@$0A@@std@@@2@@Z ; std::_Tree<std::_Tmap_traits<std::basic_string<char,std::char_traits<char>,std::allocator<char> >,std::basic_string<char,std::char_traits<char>,std::allocator<char> >,std::less<std::basic_string<char,std::char_traits<char>,std::allocator<char> > >,std::allocator<std::pair<std::basic_string<char,std::char_traits<char>,std::allocator<char> > const ,std::basic_string<char,std::char_traits<char>,std::allocator<char> > > >,0> >::_Lrotate

; 840  : 						_Pnode = _Right(_Fixnodeparent);

  001b5	8b 46 08	 mov	 eax, DWORD PTR [esi+8]
  001b8	8b 4c 24 14	 mov	 ecx, DWORD PTR _this$[esp+104]
$LN14@erase@2:

; 841  : 						}
; 842  : 
; 843  : 					if (_Isnil(_Pnode))

  001bc	80 78 45 00	 cmp	 BYTE PTR [eax+69], 0

; 844  : 						_Fixnode = _Fixnodeparent;	// shouldn't happen
; 845  : 					else if (_Color(_Left(_Pnode)) == _Black

  001c0	75 76		 jne	 SHORT $LN381@erase@2

; 846  : 						&& _Color(_Right(_Pnode)) == _Black)

  001c2	8b 10		 mov	 edx, DWORD PTR [eax]
  001c4	38 5a 44	 cmp	 BYTE PTR [edx+68], bl
  001c7	75 08		 jne	 SHORT $LN11@erase@2
  001c9	8b 50 08	 mov	 edx, DWORD PTR [eax+8]
  001cc	38 5a 44	 cmp	 BYTE PTR [edx+68], bl
  001cf	74 63		 je	 SHORT $LN382@erase@2
$LN11@erase@2:

; 847  : 						{	// redden right subtree with black children
; 848  : 						_Color(_Pnode) = _Red;
; 849  : 						_Fixnode = _Fixnodeparent;
; 850  : 						}
; 851  : 					else
; 852  : 						{	// must rearrange right subtree
; 853  : 						if (_Color(_Right(_Pnode)) == _Black)

  001d1	8b 50 08	 mov	 edx, DWORD PTR [eax+8]
  001d4	38 5a 44	 cmp	 BYTE PTR [edx+68], bl
  001d7	75 16		 jne	 SHORT $LN9@erase@2

; 854  : 							{	// rotate red up from left sub-subtree
; 855  : 							_Color(_Left(_Pnode)) = _Black;

  001d9	8b 10		 mov	 edx, DWORD PTR [eax]
  001db	88 5a 44	 mov	 BYTE PTR [edx+68], bl

; 856  : 							_Color(_Pnode) = _Red;
; 857  : 							_Rrotate(_Pnode);

  001de	50		 push	 eax
  001df	c6 40 44 00	 mov	 BYTE PTR [eax+68], 0
  001e3	e8 00 00 00 00	 call	 ?_Rrotate@?$_Tree@V?$_Tmap_traits@V?$basic_string@DU?$char_traits@D@std@@V?$allocator@D@2@@std@@V12@U?$less@V?$basic_string@DU?$char_traits@D@std@@V?$allocator@D@2@@std@@@2@V?$allocator@U?$pair@$$CBV?$basic_string@DU?$char_traits@D@std@@V?$allocator@D@2@@std@@V12@@std@@@2@$0A@@std@@@std@@IAEXPAU_Node@?$_Tree_nod@V?$_Tmap_traits@V?$basic_string@DU?$char_traits@D@std@@V?$allocator@D@2@@std@@V12@U?$less@V?$basic_string@DU?$char_traits@D@std@@V?$allocator@D@2@@std@@@2@V?$allocator@U?$pair@$$CBV?$basic_string@DU?$char_traits@D@std@@V?$allocator@D@2@@std@@V12@@std@@@2@$0A@@std@@@2@@Z ; std::_Tree<std::_Tmap_traits<std::basic_string<char,std::char_traits<char>,std::allocator<char> >,std::basic_string<char,std::char_traits<char>,std::allocator<char> >,std::less<std::basic_string<char,std::char_traits<char>,std::allocator<char> > >,std::allocator<std::pair<std::basic_string<char,std::char_traits<char>,std::allocator<char> > const ,std::basic_string<char,std::char_traits<char>,std::allocator<char> > > >,0> >::_Rrotate

; 858  : 							_Pnode = _Right(_Fixnodeparent);

  001e8	8b 46 08	 mov	 eax, DWORD PTR [esi+8]
  001eb	8b 4c 24 14	 mov	 ecx, DWORD PTR _this$[esp+104]
$LN9@erase@2:

; 859  : 							}
; 860  : 
; 861  : 						_Color(_Pnode) = _Color(_Fixnodeparent);

  001ef	8a 56 44	 mov	 dl, BYTE PTR [esi+68]
  001f2	88 50 44	 mov	 BYTE PTR [eax+68], dl

; 862  : 						_Color(_Fixnodeparent) = _Black;

  001f5	88 5e 44	 mov	 BYTE PTR [esi+68], bl

; 863  : 						_Color(_Right(_Pnode)) = _Black;

  001f8	8b 40 08	 mov	 eax, DWORD PTR [eax+8]

; 864  : 						_Lrotate(_Fixnodeparent);

  001fb	56		 push	 esi
  001fc	88 58 44	 mov	 BYTE PTR [eax+68], bl
  001ff	e8 00 00 00 00	 call	 ?_Lrotate@?$_Tree@V?$_Tmap_traits@V?$basic_string@DU?$char_traits@D@std@@V?$allocator@D@2@@std@@V12@U?$less@V?$basic_string@DU?$char_traits@D@std@@V?$allocator@D@2@@std@@@2@V?$allocator@U?$pair@$$CBV?$basic_string@DU?$char_traits@D@std@@V?$allocator@D@2@@std@@V12@@std@@@2@$0A@@std@@@std@@IAEXPAU_Node@?$_Tree_nod@V?$_Tmap_traits@V?$basic_string@DU?$char_traits@D@std@@V?$allocator@D@2@@std@@V12@U?$less@V?$basic_string@DU?$char_traits@D@std@@V?$allocator@D@2@@std@@@2@V?$allocator@U?$pair@$$CBV?$basic_string@DU?$char_traits@D@std@@V?$allocator@D@2@@std@@V12@@std@@@2@$0A@@std@@@2@@Z ; std::_Tree<std::_Tmap_traits<std::basic_string<char,std::char_traits<char>,std::allocator<char> >,std::basic_string<char,std::char_traits<char>,std::allocator<char> >,std::less<std::basic_string<char,std::char_traits<char>,std::allocator<char> > >,std::allocator<std::pair<std::basic_string<char,std::char_traits<char>,std::allocator<char> > const ,std::basic_string<char,std::char_traits<char>,std::allocator<char> > > >,0> >::_Lrotate

; 865  : 						break;	// tree now recolored/rebalanced

  00204	eb 76		 jmp	 SHORT $LN16@erase@2
$LN15@erase@2:

; 866  : 						}
; 867  : 					}
; 868  : 				else
; 869  : 					{	// fixup right subtree
; 870  : 					_Pnode = _Left(_Fixnodeparent);
; 871  : 					if (_Color(_Pnode) == _Red)

  00206	80 78 44 00	 cmp	 BYTE PTR [eax+68], 0
  0020a	75 13		 jne	 SHORT $LN7@erase@2

; 872  : 						{	// rotate red up from left subtree
; 873  : 						_Color(_Pnode) = _Black;

  0020c	88 58 44	 mov	 BYTE PTR [eax+68], bl

; 874  : 						_Color(_Fixnodeparent) = _Red;
; 875  : 						_Rrotate(_Fixnodeparent);

  0020f	56		 push	 esi
  00210	c6 46 44 00	 mov	 BYTE PTR [esi+68], 0
  00214	e8 00 00 00 00	 call	 ?_Rrotate@?$_Tree@V?$_Tmap_traits@V?$basic_string@DU?$char_traits@D@std@@V?$allocator@D@2@@std@@V12@U?$less@V?$basic_string@DU?$char_traits@D@std@@V?$allocator@D@2@@std@@@2@V?$allocator@U?$pair@$$CBV?$basic_string@DU?$char_traits@D@std@@V?$allocator@D@2@@std@@V12@@std@@@2@$0A@@std@@@std@@IAEXPAU_Node@?$_Tree_nod@V?$_Tmap_traits@V?$basic_string@DU?$char_traits@D@std@@V?$allocator@D@2@@std@@V12@U?$less@V?$basic_string@DU?$char_traits@D@std@@V?$allocator@D@2@@std@@@2@V?$allocator@U?$pair@$$CBV?$basic_string@DU?$char_traits@D@std@@V?$allocator@D@2@@std@@V12@@std@@@2@$0A@@std@@@2@@Z ; std::_Tree<std::_Tmap_traits<std::basic_string<char,std::char_traits<char>,std::allocator<char> >,std::basic_string<char,std::char_traits<char>,std::allocator<char> >,std::less<std::basic_string<char,std::char_traits<char>,std::allocator<char> > >,std::allocator<std::pair<std::basic_string<char,std::char_traits<char>,std::allocator<char> > const ,std::basic_string<char,std::char_traits<char>,std::allocator<char> > > >,0> >::_Rrotate

; 876  : 						_Pnode = _Left(_Fixnodeparent);

  00219	8b 06		 mov	 eax, DWORD PTR [esi]
  0021b	8b 4c 24 14	 mov	 ecx, DWORD PTR _this$[esp+104]
$LN7@erase@2:

; 877  : 						}
; 878  : 					if (_Isnil(_Pnode))

  0021f	80 78 45 00	 cmp	 BYTE PTR [eax+69], 0

; 879  : 						_Fixnode = _Fixnodeparent;	// shouldn't happen
; 880  : 					else if (_Color(_Right(_Pnode)) == _Black

  00223	75 13		 jne	 SHORT $LN381@erase@2

; 881  : 						&& _Color(_Left(_Pnode)) == _Black)

  00225	8b 50 08	 mov	 edx, DWORD PTR [eax+8]
  00228	38 5a 44	 cmp	 BYTE PTR [edx+68], bl
  0022b	75 1e		 jne	 SHORT $LN4@erase@2
  0022d	8b 10		 mov	 edx, DWORD PTR [eax]
  0022f	38 5a 44	 cmp	 BYTE PTR [edx+68], bl
  00232	75 17		 jne	 SHORT $LN4@erase@2
$LN382@erase@2:

; 882  : 						{	// redden left subtree with black children
; 883  : 						_Color(_Pnode) = _Red;

  00234	c6 40 44 00	 mov	 BYTE PTR [eax+68], 0
$LN381@erase@2:

; 829  : 			{	// erasing black link, must recolor/rebalance tree
; 830  : 			for (; _Fixnode != _Root() && _Color(_Fixnode) == _Black;
; 831  : 				_Fixnodeparent = _Parent(_Fixnode))

  00238	8b 41 04	 mov	 eax, DWORD PTR [ecx+4]

; 884  : 						_Fixnode = _Fixnodeparent;

  0023b	8b ee		 mov	 ebp, esi
  0023d	3b 68 04	 cmp	 ebp, DWORD PTR [eax+4]
  00240	8b 76 04	 mov	 esi, DWORD PTR [esi+4]
  00243	0f 85 47 ff ff
	ff		 jne	 $LL18@erase@2

; 829  : 			{	// erasing black link, must recolor/rebalance tree
; 830  : 			for (; _Fixnode != _Root() && _Color(_Fixnode) == _Black;
; 831  : 				_Fixnodeparent = _Parent(_Fixnode))

  00249	eb 31		 jmp	 SHORT $LN16@erase@2
$LN4@erase@2:

; 885  : 						}
; 886  : 					else
; 887  : 						{	// must rearrange left subtree
; 888  : 						if (_Color(_Left(_Pnode)) == _Black)

  0024b	8b 10		 mov	 edx, DWORD PTR [eax]
  0024d	38 5a 44	 cmp	 BYTE PTR [edx+68], bl
  00250	75 16		 jne	 SHORT $LN2@erase@2

; 889  : 							{	// rotate red up from right sub-subtree
; 890  : 							_Color(_Right(_Pnode)) = _Black;

  00252	8b 50 08	 mov	 edx, DWORD PTR [eax+8]
  00255	88 5a 44	 mov	 BYTE PTR [edx+68], bl

; 891  : 							_Color(_Pnode) = _Red;
; 892  : 							_Lrotate(_Pnode);

  00258	50		 push	 eax
  00259	c6 40 44 00	 mov	 BYTE PTR [eax+68], 0
  0025d	e8 00 00 00 00	 call	 ?_Lrotate@?$_Tree@V?$_Tmap_traits@V?$basic_string@DU?$char_traits@D@std@@V?$allocator@D@2@@std@@V12@U?$less@V?$basic_string@DU?$char_traits@D@std@@V?$allocator@D@2@@std@@@2@V?$allocator@U?$pair@$$CBV?$basic_string@DU?$char_traits@D@std@@V?$allocator@D@2@@std@@V12@@std@@@2@$0A@@std@@@std@@IAEXPAU_Node@?$_Tree_nod@V?$_Tmap_traits@V?$basic_string@DU?$char_traits@D@std@@V?$allocator@D@2@@std@@V12@U?$less@V?$basic_string@DU?$char_traits@D@std@@V?$allocator@D@2@@std@@@2@V?$allocator@U?$pair@$$CBV?$basic_string@DU?$char_traits@D@std@@V?$allocator@D@2@@std@@V12@@std@@@2@$0A@@std@@@2@@Z ; std::_Tree<std::_Tmap_traits<std::basic_string<char,std::char_traits<char>,std::allocator<char> >,std::basic_string<char,std::char_traits<char>,std::allocator<char> >,std::less<std::basic_string<char,std::char_traits<char>,std::allocator<char> > >,std::allocator<std::pair<std::basic_string<char,std::char_traits<char>,std::allocator<char> > const ,std::basic_string<char,std::char_traits<char>,std::allocator<char> > > >,0> >::_Lrotate

; 893  : 							_Pnode = _Left(_Fixnodeparent);

  00262	8b 06		 mov	 eax, DWORD PTR [esi]
  00264	8b 4c 24 14	 mov	 ecx, DWORD PTR _this$[esp+104]
$LN2@erase@2:

; 894  : 							}
; 895  : 
; 896  : 						_Color(_Pnode) = _Color(_Fixnodeparent);

  00268	8a 56 44	 mov	 dl, BYTE PTR [esi+68]
  0026b	88 50 44	 mov	 BYTE PTR [eax+68], dl

; 897  : 						_Color(_Fixnodeparent) = _Black;

  0026e	88 5e 44	 mov	 BYTE PTR [esi+68], bl

; 898  : 						_Color(_Left(_Pnode)) = _Black;

  00271	8b 00		 mov	 eax, DWORD PTR [eax]

; 899  : 						_Rrotate(_Fixnodeparent);

  00273	56		 push	 esi
  00274	88 58 44	 mov	 BYTE PTR [eax+68], bl
  00277	e8 00 00 00 00	 call	 ?_Rrotate@?$_Tree@V?$_Tmap_traits@V?$basic_string@DU?$char_traits@D@std@@V?$allocator@D@2@@std@@V12@U?$less@V?$basic_string@DU?$char_traits@D@std@@V?$allocator@D@2@@std@@@2@V?$allocator@U?$pair@$$CBV?$basic_string@DU?$char_traits@D@std@@V?$allocator@D@2@@std@@V12@@std@@@2@$0A@@std@@@std@@IAEXPAU_Node@?$_Tree_nod@V?$_Tmap_traits@V?$basic_string@DU?$char_traits@D@std@@V?$allocator@D@2@@std@@V12@U?$less@V?$basic_string@DU?$char_traits@D@std@@V?$allocator@D@2@@std@@@2@V?$allocator@U?$pair@$$CBV?$basic_string@DU?$char_traits@D@std@@V?$allocator@D@2@@std@@V12@@std@@@2@$0A@@std@@@2@@Z ; std::_Tree<std::_Tmap_traits<std::basic_string<char,std::char_traits<char>,std::allocator<char> >,std::basic_string<char,std::char_traits<char>,std::allocator<char> >,std::less<std::basic_string<char,std::char_traits<char>,std::allocator<char> > >,std::allocator<std::pair<std::basic_string<char,std::char_traits<char>,std::allocator<char> > const ,std::basic_string<char,std::char_traits<char>,std::allocator<char> > > >,0> >::_Rrotate
$LN16@erase@2:

; 900  : 						break;	// tree now recolored/rebalanced
; 901  : 						}
; 902  : 					}
; 903  : 
; 904  : 			_Color(_Fixnode) = _Black;	// ensure stopping node is black

  0027c	88 5d 44	 mov	 BYTE PTR [ebp+68], bl
$LN19@erase@2:

; 905  : 			}
; 906  : 
; 907  : 		this->_Alnod.destroy(_Erasednode);	// destroy, free erased node

  0027f	bd 10 00 00 00	 mov	 ebp, 16			; 00000010H
  00284	39 6f 40	 cmp	 DWORD PTR [edi+64], ebp
  00287	72 0c		 jb	 SHORT $LN338@erase@2
  00289	8b 4f 2c	 mov	 ecx, DWORD PTR [edi+44]
  0028c	51		 push	 ecx
  0028d	e8 00 00 00 00	 call	 ??3@YAXPAX@Z		; operator delete
  00292	83 c4 04	 add	 esp, 4
$LN338@erase@2:
  00295	33 f6		 xor	 esi, esi
  00297	bb 0f 00 00 00	 mov	 ebx, 15			; 0000000fH
  0029c	89 5f 40	 mov	 DWORD PTR [edi+64], ebx
  0029f	89 77 3c	 mov	 DWORD PTR [edi+60], esi
  002a2	c6 47 2c 00	 mov	 BYTE PTR [edi+44], 0
  002a6	39 6f 24	 cmp	 DWORD PTR [edi+36], ebp
  002a9	72 0c		 jb	 SHORT $LN364@erase@2
  002ab	8b 57 10	 mov	 edx, DWORD PTR [edi+16]
  002ae	52		 push	 edx
  002af	e8 00 00 00 00	 call	 ??3@YAXPAX@Z		; operator delete
  002b4	83 c4 04	 add	 esp, 4
$LN364@erase@2:
  002b7	89 5f 24	 mov	 DWORD PTR [edi+36], ebx
  002ba	89 77 20	 mov	 DWORD PTR [edi+32], esi

; 908  : 		this->_Alnod.deallocate(_Erasednode, 1);

  002bd	57		 push	 edi
  002be	c6 47 10 00	 mov	 BYTE PTR [edi+16], 0
  002c2	e8 00 00 00 00	 call	 ??3@YAXPAX@Z		; operator delete

; 909  : 
; 910  : 		if (0 < _Mysize)

  002c7	8b 4c 24 18	 mov	 ecx, DWORD PTR _this$[esp+108]
  002cb	8b 41 08	 mov	 eax, DWORD PTR [ecx+8]
  002ce	83 c4 04	 add	 esp, 4
  002d1	3b c6		 cmp	 eax, esi
  002d3	76 06		 jbe	 SHORT $LN1@erase@2

; 911  : 			--_Mysize;

  002d5	83 c0 ff	 add	 eax, -1
  002d8	89 41 08	 mov	 DWORD PTR [ecx+8], eax
$LN1@erase@2:

; 912  : 
; 913  : 		return (_Where);	// return successor iterator

  002db	8b 44 24 6c	 mov	 eax, DWORD PTR ___$ReturnUdt$[esp+100]
  002df	8b 4c 24 70	 mov	 ecx, DWORD PTR __Where$[esp+100]
  002e3	8b 54 24 74	 mov	 edx, DWORD PTR __Where$[esp+104]
  002e7	89 08		 mov	 DWORD PTR [eax], ecx
  002e9	89 50 04	 mov	 DWORD PTR [eax+4], edx

; 914  : 		}

  002ec	8b 4c 24 5c	 mov	 ecx, DWORD PTR __$EHRec$[esp+104]
  002f0	64 89 0d 00 00
	00 00		 mov	 DWORD PTR fs:0, ecx
  002f7	59		 pop	 ecx
  002f8	5f		 pop	 edi
  002f9	5e		 pop	 esi
  002fa	5d		 pop	 ebp
  002fb	5b		 pop	 ebx
  002fc	83 c4 54	 add	 esp, 84			; 00000054H
  002ff	c2 0c 00	 ret	 12			; 0000000cH
$LN380@erase@2:
_TEXT	ENDS
;	COMDAT text$x
text$x	SEGMENT
__unwindfunclet$?erase@?$_Tree@V?$_Tmap_traits@V?$basic_string@DU?$char_traits@D@std@@V?$allocator@D@2@@std@@V12@U?$less@V?$basic_string@DU?$char_traits@D@std@@V?$allocator@D@2@@std@@@2@V?$allocator@U?$pair@$$CBV?$basic_string@DU?$char_traits@D@std@@V?$allocator@D@2@@std@@V12@@std@@@2@$0A@@std@@@std@@QAE?AViterator@12@V312@@Z$0:
  00000	8d 4d b0	 lea	 ecx, DWORD PTR $T151558[ebp]
  00003	e9 00 00 00 00	 jmp	 ??1?$basic_string@DU?$char_traits@D@std@@V?$allocator@D@2@@std@@QAE@XZ ; std::basic_string<char,std::char_traits<char>,std::allocator<char> >::~basic_string<char,std::char_traits<char>,std::allocator<char> >
__ehhandler$?erase@?$_Tree@V?$_Tmap_traits@V?$basic_string@DU?$char_traits@D@std@@V?$allocator@D@2@@std@@V12@U?$less@V?$basic_string@DU?$char_traits@D@std@@V?$allocator@D@2@@std@@@2@V?$allocator@U?$pair@$$CBV?$basic_string@DU?$char_traits@D@std@@V?$allocator@D@2@@std@@V12@@std@@@2@$0A@@std@@@std@@QAE?AViterator@12@V312@@Z:
  00008	8b 54 24 08	 mov	 edx, DWORD PTR [esp+8]
  0000c	8d 42 a8	 lea	 eax, DWORD PTR [edx-88]
  0000f	8b 4a a4	 mov	 ecx, DWORD PTR [edx-92]
  00012	33 c8		 xor	 ecx, eax
  00014	e8 00 00 00 00	 call	 @__security_check_cookie@4
  00019	b8 00 00 00 00	 mov	 eax, OFFSET __ehfuncinfo$?erase@?$_Tree@V?$_Tmap_traits@V?$basic_string@DU?$char_traits@D@std@@V?$allocator@D@2@@std@@V12@U?$less@V?$basic_string@DU?$char_traits@D@std@@V?$allocator@D@2@@std@@@2@V?$allocator@U?$pair@$$CBV?$basic_string@DU?$char_traits@D@std@@V?$allocator@D@2@@std@@V12@@std@@@2@$0A@@std@@@std@@QAE?AViterator@12@V312@@Z
  0001e	e9 00 00 00 00	 jmp	 ___CxxFrameHandler3
text$x	ENDS
?erase@?$_Tree@V?$_Tmap_traits@V?$basic_string@DU?$char_traits@D@std@@V?$allocator@D@2@@std@@V12@U?$less@V?$basic_string@DU?$char_traits@D@std@@V?$allocator@D@2@@std@@@2@V?$allocator@U?$pair@$$CBV?$basic_string@DU?$char_traits@D@std@@V?$allocator@D@2@@std@@V12@@std@@@2@$0A@@std@@@std@@QAE?AViterator@12@V312@@Z ENDP ; std::_Tree<std::_Tmap_traits<std::basic_string<char,std::char_traits<char>,std::allocator<char> >,std::basic_string<char,std::char_traits<char>,std::allocator<char> >,std::less<std::basic_string<char,std::char_traits<char>,std::allocator<char> > >,std::allocator<std::pair<std::basic_string<char,std::char_traits<char>,std::allocator<char> > const ,std::basic_string<char,std::char_traits<char>,std::allocator<char> > > >,0> >::erase
;	COMDAT xdata$x
xdata$x	SEGMENT
__unwindtable$??0logic_error@std@@QAE@ABV01@@Z DD 0ffffffffH
	DD	FLAT:__unwindfunclet$??0logic_error@std@@QAE@ABV01@@Z$0
__ehfuncinfo$??0logic_error@std@@QAE@ABV01@@Z DD 019930522H
	DD	01H
	DD	FLAT:__unwindtable$??0logic_error@std@@QAE@ABV01@@Z
	DD	2 DUP(00H)
	DD	2 DUP(00H)
	DD	00H
	DD	01H
; Function compile flags: /Ogtpy
xdata$x	ENDS
;	COMDAT ??0logic_error@std@@QAE@ABV01@@Z
_TEXT	SEGMENT
_this$ = -16						; size = 4
__$EHRec$ = -12						; size = 12
___that$ = 8						; size = 4
??0logic_error@std@@QAE@ABV01@@Z PROC			; std::logic_error::logic_error, COMDAT
; _this$ = ecx
  00000	6a ff		 push	 -1
  00002	68 00 00 00 00	 push	 __ehhandler$??0logic_error@std@@QAE@ABV01@@Z
  00007	64 a1 00 00 00
	00		 mov	 eax, DWORD PTR fs:0
  0000d	50		 push	 eax
  0000e	51		 push	 ecx
  0000f	56		 push	 esi
  00010	57		 push	 edi
  00011	a1 00 00 00 00	 mov	 eax, DWORD PTR ___security_cookie
  00016	33 c4		 xor	 eax, esp
  00018	50		 push	 eax
  00019	8d 44 24 10	 lea	 eax, DWORD PTR __$EHRec$[esp+28]
  0001d	64 a3 00 00 00
	00		 mov	 DWORD PTR fs:0, eax
  00023	8b f1		 mov	 esi, ecx
  00025	89 74 24 0c	 mov	 DWORD PTR _this$[esp+28], esi
  00029	8b 7c 24 20	 mov	 edi, DWORD PTR ___that$[esp+24]
  0002d	57		 push	 edi
  0002e	e8 00 00 00 00	 call	 ??0exception@std@@QAE@ABV01@@Z ; std::exception::exception
  00033	33 d2		 xor	 edx, edx
  00035	6a ff		 push	 -1
  00037	8d 4e 0c	 lea	 ecx, DWORD PTR [esi+12]
  0003a	c7 06 00 00 00
	00		 mov	 DWORD PTR [esi], OFFSET ??_7logic_error@std@@6B@
  00040	8d 47 0c	 lea	 eax, DWORD PTR [edi+12]
  00043	52		 push	 edx
  00044	c7 41 18 0f 00
	00 00		 mov	 DWORD PTR [ecx+24], 15	; 0000000fH
  0004b	89 51 14	 mov	 DWORD PTR [ecx+20], edx
  0004e	50		 push	 eax
  0004f	89 54 24 24	 mov	 DWORD PTR __$EHRec$[esp+48], edx
  00053	88 51 04	 mov	 BYTE PTR [ecx+4], dl
  00056	e8 00 00 00 00	 call	 ?assign@?$basic_string@DU?$char_traits@D@std@@V?$allocator@D@2@@std@@QAEAAV12@ABV12@II@Z ; std::basic_string<char,std::char_traits<char>,std::allocator<char> >::assign
  0005b	8b c6		 mov	 eax, esi
  0005d	8b 4c 24 10	 mov	 ecx, DWORD PTR __$EHRec$[esp+28]
  00061	64 89 0d 00 00
	00 00		 mov	 DWORD PTR fs:0, ecx
  00068	59		 pop	 ecx
  00069	5f		 pop	 edi
  0006a	5e		 pop	 esi
  0006b	83 c4 10	 add	 esp, 16			; 00000010H
  0006e	c2 04 00	 ret	 4
_TEXT	ENDS
;	COMDAT text$x
text$x	SEGMENT
__unwindfunclet$??0logic_error@std@@QAE@ABV01@@Z$0:
  00000	8b 4d f0	 mov	 ecx, DWORD PTR _this$[ebp]
  00003	e9 00 00 00 00	 jmp	 ??1exception@std@@UAE@XZ ; std::exception::~exception
__ehhandler$??0logic_error@std@@QAE@ABV01@@Z:
  00008	8b 54 24 08	 mov	 edx, DWORD PTR [esp+8]
  0000c	8d 42 f4	 lea	 eax, DWORD PTR [edx-12]
  0000f	8b 4a f0	 mov	 ecx, DWORD PTR [edx-16]
  00012	33 c8		 xor	 ecx, eax
  00014	e8 00 00 00 00	 call	 @__security_check_cookie@4
  00019	b8 00 00 00 00	 mov	 eax, OFFSET __ehfuncinfo$??0logic_error@std@@QAE@ABV01@@Z
  0001e	e9 00 00 00 00	 jmp	 ___CxxFrameHandler3
text$x	ENDS
??0logic_error@std@@QAE@ABV01@@Z ENDP			; std::logic_error::logic_error
; Function compile flags: /Ogtpy
;	COMDAT ??0out_of_range@std@@QAE@ABV01@@Z
_TEXT	SEGMENT
___that$ = 8						; size = 4
??0out_of_range@std@@QAE@ABV01@@Z PROC			; std::out_of_range::out_of_range, COMDAT
; _this$ = ecx
  00000	8b 44 24 04	 mov	 eax, DWORD PTR ___that$[esp-4]
  00004	56		 push	 esi
  00005	50		 push	 eax
  00006	8b f1		 mov	 esi, ecx
  00008	e8 00 00 00 00	 call	 ??0logic_error@std@@QAE@ABV01@@Z
  0000d	c7 06 00 00 00
	00		 mov	 DWORD PTR [esi], OFFSET ??_7out_of_range@std@@6B@
  00013	8b c6		 mov	 eax, esi
  00015	5e		 pop	 esi
  00016	c2 04 00	 ret	 4
??0out_of_range@std@@QAE@ABV01@@Z ENDP			; std::out_of_range::out_of_range
_TEXT	ENDS
PUBLIC	?_Erase@?$_Tree@V?$_Tmap_traits@V?$basic_string@DU?$char_traits@D@std@@V?$allocator@D@2@@std@@V12@U?$less@V?$basic_string@DU?$char_traits@D@std@@V?$allocator@D@2@@std@@@2@V?$allocator@U?$pair@$$CBV?$basic_string@DU?$char_traits@D@std@@V?$allocator@D@2@@std@@V12@@std@@@2@$0A@@std@@@std@@IAEXPAU_Node@?$_Tree_nod@V?$_Tmap_traits@V?$basic_string@DU?$char_traits@D@std@@V?$allocator@D@2@@std@@V12@U?$less@V?$basic_string@DU?$char_traits@D@std@@V?$allocator@D@2@@std@@@2@V?$allocator@U?$pair@$$CBV?$basic_string@DU?$char_traits@D@std@@V?$allocator@D@2@@std@@V12@@std@@@2@$0A@@std@@@2@@Z ; std::_Tree<std::_Tmap_traits<std::basic_string<char,std::char_traits<char>,std::allocator<char> >,std::basic_string<char,std::char_traits<char>,std::allocator<char> >,std::less<std::basic_string<char,std::char_traits<char>,std::allocator<char> > >,std::allocator<std::pair<std::basic_string<char,std::char_traits<char>,std::allocator<char> > const ,std::basic_string<char,std::char_traits<char>,std::allocator<char> > > >,0> >::_Erase
; Function compile flags: /Ogtpy
;	COMDAT ?_Erase@?$_Tree@V?$_Tmap_traits@V?$basic_string@DU?$char_traits@D@std@@V?$allocator@D@2@@std@@V12@U?$less@V?$basic_string@DU?$char_traits@D@std@@V?$allocator@D@2@@std@@@2@V?$allocator@U?$pair@$$CBV?$basic_string@DU?$char_traits@D@std@@V?$allocator@D@2@@std@@V12@@std@@@2@$0A@@std@@@std@@IAEXPAU_Node@?$_Tree_nod@V?$_Tmap_traits@V?$basic_string@DU?$char_traits@D@std@@V?$allocator@D@2@@std@@V12@U?$less@V?$basic_string@DU?$char_traits@D@std@@V?$allocator@D@2@@std@@@2@V?$allocator@U?$pair@$$CBV?$basic_string@DU?$char_traits@D@std@@V?$allocator@D@2@@std@@V12@@std@@@2@$0A@@std@@@2@@Z
_TEXT	SEGMENT
_this$ = -4						; size = 4
__Rootnode$ = 8						; size = 4
?_Erase@?$_Tree@V?$_Tmap_traits@V?$basic_string@DU?$char_traits@D@std@@V?$allocator@D@2@@std@@V12@U?$less@V?$basic_string@DU?$char_traits@D@std@@V?$allocator@D@2@@std@@@2@V?$allocator@U?$pair@$$CBV?$basic_string@DU?$char_traits@D@std@@V?$allocator@D@2@@std@@V12@@std@@@2@$0A@@std@@@std@@IAEXPAU_Node@?$_Tree_nod@V?$_Tmap_traits@V?$basic_string@DU?$char_traits@D@std@@V?$allocator@D@2@@std@@V12@U?$less@V?$basic_string@DU?$char_traits@D@std@@V?$allocator@D@2@@std@@@2@V?$allocator@U?$pair@$$CBV?$basic_string@DU?$char_traits@D@std@@V?$allocator@D@2@@std@@V12@@std@@@2@$0A@@std@@@2@@Z PROC ; std::_Tree<std::_Tmap_traits<std::basic_string<char,std::char_traits<char>,std::allocator<char> >,std::basic_string<char,std::char_traits<char>,std::allocator<char> >,std::less<std::basic_string<char,std::char_traits<char>,std::allocator<char> > >,std::allocator<std::pair<std::basic_string<char,std::char_traits<char>,std::allocator<char> > const ,std::basic_string<char,std::char_traits<char>,std::allocator<char> > > >,0> >::_Erase, COMDAT
; _this$ = ecx

; 1072 : 		{	// free entire subtree, recursively

  00000	51		 push	 ecx
  00001	53		 push	 ebx
  00002	56		 push	 esi

; 1073 : 		for (_Nodeptr _Pnode = _Rootnode; !_Isnil(_Pnode); _Rootnode = _Pnode)

  00003	8b 74 24 10	 mov	 esi, DWORD PTR __Rootnode$[esp+8]
  00007	33 db		 xor	 ebx, ebx
  00009	38 5e 45	 cmp	 BYTE PTR [esi+69], bl
  0000c	57		 push	 edi
  0000d	89 4c 24 0c	 mov	 DWORD PTR _this$[esp+16], ecx
  00011	8b fe		 mov	 edi, esi
  00013	75 61		 jne	 SHORT $LN1@Erase
  00015	55		 push	 ebp
  00016	8d 6b 0f	 lea	 ebp, DWORD PTR [ebx+15]
  00019	8d a4 24 00 00
	00 00		 npad	 7
$LL79@Erase:

; 1074 : 			{	// free subtrees, then node
; 1075 : 			_Erase(_Right(_Pnode));

  00020	8b 47 08	 mov	 eax, DWORD PTR [edi+8]
  00023	8b 4c 24 10	 mov	 ecx, DWORD PTR _this$[esp+20]
  00027	50		 push	 eax
  00028	e8 00 00 00 00	 call	 ?_Erase@?$_Tree@V?$_Tmap_traits@V?$basic_string@DU?$char_traits@D@std@@V?$allocator@D@2@@std@@V12@U?$less@V?$basic_string@DU?$char_traits@D@std@@V?$allocator@D@2@@std@@@2@V?$allocator@U?$pair@$$CBV?$basic_string@DU?$char_traits@D@std@@V?$allocator@D@2@@std@@V12@@std@@@2@$0A@@std@@@std@@IAEXPAU_Node@?$_Tree_nod@V?$_Tmap_traits@V?$basic_string@DU?$char_traits@D@std@@V?$allocator@D@2@@std@@V12@U?$less@V?$basic_string@DU?$char_traits@D@std@@V?$allocator@D@2@@std@@@2@V?$allocator@U?$pair@$$CBV?$basic_string@DU?$char_traits@D@std@@V?$allocator@D@2@@std@@V12@@std@@@2@$0A@@std@@@2@@Z ; std::_Tree<std::_Tmap_traits<std::basic_string<char,std::char_traits<char>,std::allocator<char> >,std::basic_string<char,std::char_traits<char>,std::allocator<char> >,std::less<std::basic_string<char,std::char_traits<char>,std::allocator<char> > >,std::allocator<std::pair<std::basic_string<char,std::char_traits<char>,std::allocator<char> > const ,std::basic_string<char,std::char_traits<char>,std::allocator<char> > > >,0> >::_Erase

; 1076 : 			_Pnode = _Left(_Pnode);
; 1077 : 			this->_Alnod.destroy(_Rootnode);	// destroy, free erased node

  0002d	83 7e 40 10	 cmp	 DWORD PTR [esi+64], 16	; 00000010H
  00031	8b 3f		 mov	 edi, DWORD PTR [edi]
  00033	72 0c		 jb	 SHORT $LN39@Erase
  00035	8b 4e 2c	 mov	 ecx, DWORD PTR [esi+44]
  00038	51		 push	 ecx
  00039	e8 00 00 00 00	 call	 ??3@YAXPAX@Z		; operator delete
  0003e	83 c4 04	 add	 esp, 4
$LN39@Erase:
  00041	89 6e 40	 mov	 DWORD PTR [esi+64], ebp
  00044	89 5e 3c	 mov	 DWORD PTR [esi+60], ebx
  00047	88 5e 2c	 mov	 BYTE PTR [esi+44], bl
  0004a	83 7e 24 10	 cmp	 DWORD PTR [esi+36], 16	; 00000010H
  0004e	72 0c		 jb	 SHORT $LN65@Erase
  00050	8b 56 10	 mov	 edx, DWORD PTR [esi+16]
  00053	52		 push	 edx
  00054	e8 00 00 00 00	 call	 ??3@YAXPAX@Z		; operator delete
  00059	83 c4 04	 add	 esp, 4
$LN65@Erase:
  0005c	89 6e 24	 mov	 DWORD PTR [esi+36], ebp
  0005f	89 5e 20	 mov	 DWORD PTR [esi+32], ebx

; 1078 : 			this->_Alnod.deallocate(_Rootnode, 1);

  00062	56		 push	 esi
  00063	88 5e 10	 mov	 BYTE PTR [esi+16], bl
  00066	e8 00 00 00 00	 call	 ??3@YAXPAX@Z		; operator delete
  0006b	83 c4 04	 add	 esp, 4
  0006e	38 5f 45	 cmp	 BYTE PTR [edi+69], bl
  00071	8b f7		 mov	 esi, edi
  00073	74 ab		 je	 SHORT $LL79@Erase
  00075	5d		 pop	 ebp
$LN1@Erase:
  00076	5f		 pop	 edi
  00077	5e		 pop	 esi
  00078	5b		 pop	 ebx

; 1079 : 			}
; 1080 : 		}

  00079	59		 pop	 ecx
  0007a	c2 04 00	 ret	 4
?_Erase@?$_Tree@V?$_Tmap_traits@V?$basic_string@DU?$char_traits@D@std@@V?$allocator@D@2@@std@@V12@U?$less@V?$basic_string@DU?$char_traits@D@std@@V?$allocator@D@2@@std@@@2@V?$allocator@U?$pair@$$CBV?$basic_string@DU?$char_traits@D@std@@V?$allocator@D@2@@std@@V12@@std@@@2@$0A@@std@@@std@@IAEXPAU_Node@?$_Tree_nod@V?$_Tmap_traits@V?$basic_string@DU?$char_traits@D@std@@V?$allocator@D@2@@std@@V12@U?$less@V?$basic_string@DU?$char_traits@D@std@@V?$allocator@D@2@@std@@@2@V?$allocator@U?$pair@$$CBV?$basic_string@DU?$char_traits@D@std@@V?$allocator@D@2@@std@@V12@@std@@@2@$0A@@std@@@2@@Z ENDP ; std::_Tree<std::_Tmap_traits<std::basic_string<char,std::char_traits<char>,std::allocator<char> >,std::basic_string<char,std::char_traits<char>,std::allocator<char> >,std::less<std::basic_string<char,std::char_traits<char>,std::allocator<char> > >,std::allocator<std::pair<std::basic_string<char,std::char_traits<char>,std::allocator<char> > const ,std::basic_string<char,std::char_traits<char>,std::allocator<char> > > >,0> >::_Erase
_TEXT	ENDS
PUBLIC	?clear@?$_Tree@V?$_Tmap_traits@V?$basic_string@DU?$char_traits@D@std@@V?$allocator@D@2@@std@@V12@U?$less@V?$basic_string@DU?$char_traits@D@std@@V?$allocator@D@2@@std@@@2@V?$allocator@U?$pair@$$CBV?$basic_string@DU?$char_traits@D@std@@V?$allocator@D@2@@std@@V12@@std@@@2@$0A@@std@@@std@@QAEXXZ ; std::_Tree<std::_Tmap_traits<std::basic_string<char,std::char_traits<char>,std::allocator<char> >,std::basic_string<char,std::char_traits<char>,std::allocator<char> >,std::less<std::basic_string<char,std::char_traits<char>,std::allocator<char> > >,std::allocator<std::pair<std::basic_string<char,std::char_traits<char>,std::allocator<char> > const ,std::basic_string<char,std::char_traits<char>,std::allocator<char> > > >,0> >::clear
; Function compile flags: /Ogtpy
;	COMDAT ?clear@?$_Tree@V?$_Tmap_traits@V?$basic_string@DU?$char_traits@D@std@@V?$allocator@D@2@@std@@V12@U?$less@V?$basic_string@DU?$char_traits@D@std@@V?$allocator@D@2@@std@@@2@V?$allocator@U?$pair@$$CBV?$basic_string@DU?$char_traits@D@std@@V?$allocator@D@2@@std@@V12@@std@@@2@$0A@@std@@@std@@QAEXXZ
_TEXT	SEGMENT
?clear@?$_Tree@V?$_Tmap_traits@V?$basic_string@DU?$char_traits@D@std@@V?$allocator@D@2@@std@@V12@U?$less@V?$basic_string@DU?$char_traits@D@std@@V?$allocator@D@2@@std@@@2@V?$allocator@U?$pair@$$CBV?$basic_string@DU?$char_traits@D@std@@V?$allocator@D@2@@std@@V12@@std@@@2@$0A@@std@@@std@@QAEXXZ PROC ; std::_Tree<std::_Tmap_traits<std::basic_string<char,std::char_traits<char>,std::allocator<char> >,std::basic_string<char,std::char_traits<char>,std::allocator<char> >,std::less<std::basic_string<char,std::char_traits<char>,std::allocator<char> > >,std::allocator<std::pair<std::basic_string<char,std::char_traits<char>,std::allocator<char> > const ,std::basic_string<char,std::char_traits<char>,std::allocator<char> > > >,0> >::clear, COMDAT
; _this$ = ecx

; 948  : 		{	// erase all

  00000	56		 push	 esi
  00001	8b f1		 mov	 esi, ecx

; 949  : 
; 950  :  #if _HAS_ITERATOR_DEBUGGING
; 951  : 		this->_Orphan_ptr(*this, 0);
; 952  :  #endif /* _HAS_ITERATOR_DEBUGGING */
; 953  : 
; 954  : 		_Erase(_Root());

  00003	8b 46 04	 mov	 eax, DWORD PTR [esi+4]
  00006	8b 48 04	 mov	 ecx, DWORD PTR [eax+4]
  00009	51		 push	 ecx
  0000a	8b ce		 mov	 ecx, esi
  0000c	e8 00 00 00 00	 call	 ?_Erase@?$_Tree@V?$_Tmap_traits@V?$basic_string@DU?$char_traits@D@std@@V?$allocator@D@2@@std@@V12@U?$less@V?$basic_string@DU?$char_traits@D@std@@V?$allocator@D@2@@std@@@2@V?$allocator@U?$pair@$$CBV?$basic_string@DU?$char_traits@D@std@@V?$allocator@D@2@@std@@V12@@std@@@2@$0A@@std@@@std@@IAEXPAU_Node@?$_Tree_nod@V?$_Tmap_traits@V?$basic_string@DU?$char_traits@D@std@@V?$allocator@D@2@@std@@V12@U?$less@V?$basic_string@DU?$char_traits@D@std@@V?$allocator@D@2@@std@@@2@V?$allocator@U?$pair@$$CBV?$basic_string@DU?$char_traits@D@std@@V?$allocator@D@2@@std@@V12@@std@@@2@$0A@@std@@@2@@Z ; std::_Tree<std::_Tmap_traits<std::basic_string<char,std::char_traits<char>,std::allocator<char> >,std::basic_string<char,std::char_traits<char>,std::allocator<char> >,std::less<std::basic_string<char,std::char_traits<char>,std::allocator<char> > >,std::allocator<std::pair<std::basic_string<char,std::char_traits<char>,std::allocator<char> > const ,std::basic_string<char,std::char_traits<char>,std::allocator<char> > > >,0> >::_Erase

; 955  : 		_Root() = _Myhead, _Mysize = 0;

  00011	8b 46 04	 mov	 eax, DWORD PTR [esi+4]
  00014	89 40 04	 mov	 DWORD PTR [eax+4], eax

; 956  : 		_Lmost() = _Myhead, _Rmost() = _Myhead;

  00017	8b 46 04	 mov	 eax, DWORD PTR [esi+4]
  0001a	c7 46 08 00 00
	00 00		 mov	 DWORD PTR [esi+8], 0
  00021	89 00		 mov	 DWORD PTR [eax], eax
  00023	8b 76 04	 mov	 esi, DWORD PTR [esi+4]
  00026	89 76 08	 mov	 DWORD PTR [esi+8], esi
  00029	5e		 pop	 esi

; 957  : 		}

  0002a	c3		 ret	 0
?clear@?$_Tree@V?$_Tmap_traits@V?$basic_string@DU?$char_traits@D@std@@V?$allocator@D@2@@std@@V12@U?$less@V?$basic_string@DU?$char_traits@D@std@@V?$allocator@D@2@@std@@@2@V?$allocator@U?$pair@$$CBV?$basic_string@DU?$char_traits@D@std@@V?$allocator@D@2@@std@@V12@@std@@@2@$0A@@std@@@std@@QAEXXZ ENDP ; std::_Tree<std::_Tmap_traits<std::basic_string<char,std::char_traits<char>,std::allocator<char> >,std::basic_string<char,std::char_traits<char>,std::allocator<char> >,std::less<std::basic_string<char,std::char_traits<char>,std::allocator<char> > >,std::allocator<std::pair<std::basic_string<char,std::char_traits<char>,std::allocator<char> > const ,std::basic_string<char,std::char_traits<char>,std::allocator<char> > > >,0> >::clear
_TEXT	ENDS
PUBLIC	?erase@?$_Tree@V?$_Tmap_traits@V?$basic_string@DU?$char_traits@D@std@@V?$allocator@D@2@@std@@V12@U?$less@V?$basic_string@DU?$char_traits@D@std@@V?$allocator@D@2@@std@@@2@V?$allocator@U?$pair@$$CBV?$basic_string@DU?$char_traits@D@std@@V?$allocator@D@2@@std@@V12@@std@@@2@$0A@@std@@@std@@QAE?AViterator@12@V312@0@Z ; std::_Tree<std::_Tmap_traits<std::basic_string<char,std::char_traits<char>,std::allocator<char> >,std::basic_string<char,std::char_traits<char>,std::allocator<char> >,std::less<std::basic_string<char,std::char_traits<char>,std::allocator<char> > >,std::allocator<std::pair<std::basic_string<char,std::char_traits<char>,std::allocator<char> > const ,std::basic_string<char,std::char_traits<char>,std::allocator<char> > > >,0> >::erase
; Function compile flags: /Ogtpy
;	COMDAT ?erase@?$_Tree@V?$_Tmap_traits@V?$basic_string@DU?$char_traits@D@std@@V?$allocator@D@2@@std@@V12@U?$less@V?$basic_string@DU?$char_traits@D@std@@V?$allocator@D@2@@std@@@2@V?$allocator@U?$pair@$$CBV?$basic_string@DU?$char_traits@D@std@@V?$allocator@D@2@@std@@V12@@std@@@2@$0A@@std@@@std@@QAE?AViterator@12@V312@0@Z
_TEXT	SEGMENT
$T153398 = -8						; size = 8
___$ReturnUdt$ = 8					; size = 4
__First$ = 12						; size = 8
__Last$ = 20						; size = 8
?erase@?$_Tree@V?$_Tmap_traits@V?$basic_string@DU?$char_traits@D@std@@V?$allocator@D@2@@std@@V12@U?$less@V?$basic_string@DU?$char_traits@D@std@@V?$allocator@D@2@@std@@@2@V?$allocator@U?$pair@$$CBV?$basic_string@DU?$char_traits@D@std@@V?$allocator@D@2@@std@@V12@@std@@@2@$0A@@std@@@std@@QAE?AViterator@12@V312@0@Z PROC ; std::_Tree<std::_Tmap_traits<std::basic_string<char,std::char_traits<char>,std::allocator<char> >,std::basic_string<char,std::char_traits<char>,std::allocator<char> >,std::less<std::basic_string<char,std::char_traits<char>,std::allocator<char> > >,std::allocator<std::pair<std::basic_string<char,std::char_traits<char>,std::allocator<char> > const ,std::basic_string<char,std::char_traits<char>,std::allocator<char> > > >,0> >::erase, COMDAT
; _this$ = ecx

; 917  : 		{	// erase [_First, _Last)

  00000	83 ec 08	 sub	 esp, 8
  00003	53		 push	 ebx
  00004	55		 push	 ebp
  00005	56		 push	 esi
  00006	57		 push	 edi

; 918  : 		if (_First == begin() && _Last == end())

  00007	8b 7c 24 20	 mov	 edi, DWORD PTR __First$[esp+20]
  0000b	85 ff		 test	 edi, edi
  0000d	8b f1		 mov	 esi, ecx
  0000f	8b 46 04	 mov	 eax, DWORD PTR [esi+4]
  00012	8b 28		 mov	 ebp, DWORD PTR [eax]
  00014	74 04		 je	 SHORT $LN22@erase@3
  00016	3b fe		 cmp	 edi, esi
  00018	74 05		 je	 SHORT $LN23@erase@3
$LN22@erase@3:
  0001a	e8 00 00 00 00	 call	 __invalid_parameter_noinfo
$LN23@erase@3:
  0001f	8b 5c 24 24	 mov	 ebx, DWORD PTR __First$[esp+24]
  00023	3b dd		 cmp	 ebx, ebp
  00025	75 59		 jne	 SHORT $LL2@erase@3
  00027	8b 44 24 28	 mov	 eax, DWORD PTR __Last$[esp+20]
  0002b	85 c0		 test	 eax, eax
  0002d	8b 6e 04	 mov	 ebp, DWORD PTR [esi+4]
  00030	74 04		 je	 SHORT $LN37@erase@3
  00032	3b c6		 cmp	 eax, esi
  00034	74 05		 je	 SHORT $LN38@erase@3
$LN37@erase@3:
  00036	e8 00 00 00 00	 call	 __invalid_parameter_noinfo
$LN38@erase@3:
  0003b	39 6c 24 2c	 cmp	 DWORD PTR __Last$[esp+24], ebp
  0003f	75 3f		 jne	 SHORT $LL2@erase@3

; 919  : 			{	// erase all
; 920  : 			clear();

  00041	8b 4e 04	 mov	 ecx, DWORD PTR [esi+4]
  00044	8b 51 04	 mov	 edx, DWORD PTR [ecx+4]
  00047	52		 push	 edx
  00048	8b ce		 mov	 ecx, esi
  0004a	e8 00 00 00 00	 call	 ?_Erase@?$_Tree@V?$_Tmap_traits@V?$basic_string@DU?$char_traits@D@std@@V?$allocator@D@2@@std@@V12@U?$less@V?$basic_string@DU?$char_traits@D@std@@V?$allocator@D@2@@std@@@2@V?$allocator@U?$pair@$$CBV?$basic_string@DU?$char_traits@D@std@@V?$allocator@D@2@@std@@V12@@std@@@2@$0A@@std@@@std@@IAEXPAU_Node@?$_Tree_nod@V?$_Tmap_traits@V?$basic_string@DU?$char_traits@D@std@@V?$allocator@D@2@@std@@V12@U?$less@V?$basic_string@DU?$char_traits@D@std@@V?$allocator@D@2@@std@@@2@V?$allocator@U?$pair@$$CBV?$basic_string@DU?$char_traits@D@std@@V?$allocator@D@2@@std@@V12@@std@@@2@$0A@@std@@@2@@Z ; std::_Tree<std::_Tmap_traits<std::basic_string<char,std::char_traits<char>,std::allocator<char> >,std::basic_string<char,std::char_traits<char>,std::allocator<char> >,std::less<std::basic_string<char,std::char_traits<char>,std::allocator<char> > >,std::allocator<std::pair<std::basic_string<char,std::char_traits<char>,std::allocator<char> > const ,std::basic_string<char,std::char_traits<char>,std::allocator<char> > > >,0> >::_Erase
  0004f	8b 46 04	 mov	 eax, DWORD PTR [esi+4]
  00052	89 40 04	 mov	 DWORD PTR [eax+4], eax
  00055	8b 46 04	 mov	 eax, DWORD PTR [esi+4]
  00058	c7 46 08 00 00
	00 00		 mov	 DWORD PTR [esi+8], 0
  0005f	89 00		 mov	 DWORD PTR [eax], eax
  00061	8b 46 04	 mov	 eax, DWORD PTR [esi+4]
  00064	89 40 08	 mov	 DWORD PTR [eax+8], eax

; 921  : 			return (begin());

  00067	8b 46 04	 mov	 eax, DWORD PTR [esi+4]
  0006a	8b 08		 mov	 ecx, DWORD PTR [eax]
  0006c	8b 44 24 1c	 mov	 eax, DWORD PTR ___$ReturnUdt$[esp+20]
  00070	5f		 pop	 edi
  00071	89 30		 mov	 DWORD PTR [eax], esi
  00073	5e		 pop	 esi
  00074	5d		 pop	 ebp
  00075	89 48 04	 mov	 DWORD PTR [eax+4], ecx
  00078	5b		 pop	 ebx

; 928  : 			}
; 929  : 		}

  00079	83 c4 08	 add	 esp, 8
  0007c	c2 14 00	 ret	 20			; 00000014H
  0007f	90		 npad	 1
$LL2@erase@3:

; 922  : 			}
; 923  : 		else
; 924  : 			{	// partial erase, one at a time
; 925  : 			while (_First != _Last)

  00080	85 ff		 test	 edi, edi
  00082	74 06		 je	 SHORT $LN76@erase@3
  00084	3b 7c 24 28	 cmp	 edi, DWORD PTR __Last$[esp+20]
  00088	74 05		 je	 SHORT $LN77@erase@3
$LN76@erase@3:
  0008a	e8 00 00 00 00	 call	 __invalid_parameter_noinfo
$LN77@erase@3:
  0008f	3b 5c 24 2c	 cmp	 ebx, DWORD PTR __Last$[esp+24]
  00093	74 21		 je	 SHORT $LN1@erase@3

; 926  : 				erase(_First++);

  00095	8d 4c 24 20	 lea	 ecx, DWORD PTR __First$[esp+20]
  00099	e8 00 00 00 00	 call	 ?_Inc@const_iterator@?$_Tree@V?$_Tmap_traits@V?$basic_string@DU?$char_traits@D@std@@V?$allocator@D@2@@std@@V12@U?$less@V?$basic_string@DU?$char_traits@D@std@@V?$allocator@D@2@@std@@@2@V?$allocator@U?$pair@$$CBV?$basic_string@DU?$char_traits@D@std@@V?$allocator@D@2@@std@@V12@@std@@@2@$0A@@std@@@std@@QAEXXZ ; std::_Tree<std::_Tmap_traits<std::basic_string<char,std::char_traits<char>,std::allocator<char> >,std::basic_string<char,std::char_traits<char>,std::allocator<char> >,std::less<std::basic_string<char,std::char_traits<char>,std::allocator<char> > >,std::allocator<std::pair<std::basic_string<char,std::char_traits<char>,std::allocator<char> > const ,std::basic_string<char,std::char_traits<char>,std::allocator<char> > > >,0> >::const_iterator::_Inc
  0009e	53		 push	 ebx
  0009f	57		 push	 edi
  000a0	8d 54 24 18	 lea	 edx, DWORD PTR $T153398[esp+32]
  000a4	52		 push	 edx
  000a5	8b ce		 mov	 ecx, esi
  000a7	e8 00 00 00 00	 call	 ?erase@?$_Tree@V?$_Tmap_traits@V?$basic_string@DU?$char_traits@D@std@@V?$allocator@D@2@@std@@V12@U?$less@V?$basic_string@DU?$char_traits@D@std@@V?$allocator@D@2@@std@@@2@V?$allocator@U?$pair@$$CBV?$basic_string@DU?$char_traits@D@std@@V?$allocator@D@2@@std@@V12@@std@@@2@$0A@@std@@@std@@QAE?AViterator@12@V312@@Z ; std::_Tree<std::_Tmap_traits<std::basic_string<char,std::char_traits<char>,std::allocator<char> >,std::basic_string<char,std::char_traits<char>,std::allocator<char> >,std::less<std::basic_string<char,std::char_traits<char>,std::allocator<char> > >,std::allocator<std::pair<std::basic_string<char,std::char_traits<char>,std::allocator<char> > const ,std::basic_string<char,std::char_traits<char>,std::allocator<char> > > >,0> >::erase
  000ac	8b 5c 24 24	 mov	 ebx, DWORD PTR __First$[esp+24]
  000b0	8b 7c 24 20	 mov	 edi, DWORD PTR __First$[esp+20]
  000b4	eb ca		 jmp	 SHORT $LL2@erase@3
$LN1@erase@3:

; 927  : 			return (_First);

  000b6	8b 44 24 1c	 mov	 eax, DWORD PTR ___$ReturnUdt$[esp+20]
  000ba	89 38		 mov	 DWORD PTR [eax], edi
  000bc	5f		 pop	 edi
  000bd	5e		 pop	 esi
  000be	5d		 pop	 ebp
  000bf	89 58 04	 mov	 DWORD PTR [eax+4], ebx
  000c2	5b		 pop	 ebx

; 928  : 			}
; 929  : 		}

  000c3	83 c4 08	 add	 esp, 8
  000c6	c2 14 00	 ret	 20			; 00000014H
?erase@?$_Tree@V?$_Tmap_traits@V?$basic_string@DU?$char_traits@D@std@@V?$allocator@D@2@@std@@V12@U?$less@V?$basic_string@DU?$char_traits@D@std@@V?$allocator@D@2@@std@@@2@V?$allocator@U?$pair@$$CBV?$basic_string@DU?$char_traits@D@std@@V?$allocator@D@2@@std@@V12@@std@@@2@$0A@@std@@@std@@QAE?AViterator@12@V312@0@Z ENDP ; std::_Tree<std::_Tmap_traits<std::basic_string<char,std::char_traits<char>,std::allocator<char> >,std::basic_string<char,std::char_traits<char>,std::allocator<char> >,std::less<std::basic_string<char,std::char_traits<char>,std::allocator<char> > >,std::allocator<std::pair<std::basic_string<char,std::char_traits<char>,std::allocator<char> > const ,std::basic_string<char,std::char_traits<char>,std::allocator<char> > > >,0> >::erase
_TEXT	ENDS
PUBLIC	?_Tidy@?$_Tree@V?$_Tmap_traits@V?$basic_string@DU?$char_traits@D@std@@V?$allocator@D@2@@std@@V12@U?$less@V?$basic_string@DU?$char_traits@D@std@@V?$allocator@D@2@@std@@@2@V?$allocator@U?$pair@$$CBV?$basic_string@DU?$char_traits@D@std@@V?$allocator@D@2@@std@@V12@@std@@@2@$0A@@std@@@std@@IAEXXZ ; std::_Tree<std::_Tmap_traits<std::basic_string<char,std::char_traits<char>,std::allocator<char> >,std::basic_string<char,std::char_traits<char>,std::allocator<char> >,std::less<std::basic_string<char,std::char_traits<char>,std::allocator<char> > >,std::allocator<std::pair<std::basic_string<char,std::char_traits<char>,std::allocator<char> > const ,std::basic_string<char,std::char_traits<char>,std::allocator<char> > > >,0> >::_Tidy
; Function compile flags: /Ogtpy
;	COMDAT ?_Tidy@?$_Tree@V?$_Tmap_traits@V?$basic_string@DU?$char_traits@D@std@@V?$allocator@D@2@@std@@V12@U?$less@V?$basic_string@DU?$char_traits@D@std@@V?$allocator@D@2@@std@@@2@V?$allocator@U?$pair@$$CBV?$basic_string@DU?$char_traits@D@std@@V?$allocator@D@2@@std@@V12@@std@@@2@$0A@@std@@@std@@IAEXXZ
_TEXT	SEGMENT
$T153642 = -8						; size = 8
?_Tidy@?$_Tree@V?$_Tmap_traits@V?$basic_string@DU?$char_traits@D@std@@V?$allocator@D@2@@std@@V12@U?$less@V?$basic_string@DU?$char_traits@D@std@@V?$allocator@D@2@@std@@@2@V?$allocator@U?$pair@$$CBV?$basic_string@DU?$char_traits@D@std@@V?$allocator@D@2@@std@@V12@@std@@@2@$0A@@std@@@std@@IAEXXZ PROC ; std::_Tree<std::_Tmap_traits<std::basic_string<char,std::char_traits<char>,std::allocator<char> >,std::basic_string<char,std::char_traits<char>,std::allocator<char> >,std::less<std::basic_string<char,std::char_traits<char>,std::allocator<char> > >,std::allocator<std::pair<std::basic_string<char,std::char_traits<char>,std::allocator<char> > const ,std::basic_string<char,std::char_traits<char>,std::allocator<char> > > >,0> >::_Tidy, COMDAT
; _this$ = ecx

; 1326 : 		{	// free all storage

  00000	83 ec 08	 sub	 esp, 8
  00003	56		 push	 esi
  00004	8b f1		 mov	 esi, ecx

; 1327 : 		erase(begin(), end());

  00006	8b 46 04	 mov	 eax, DWORD PTR [esi+4]
  00009	8b 08		 mov	 ecx, DWORD PTR [eax]
  0000b	50		 push	 eax
  0000c	56		 push	 esi
  0000d	51		 push	 ecx
  0000e	56		 push	 esi
  0000f	8d 44 24 14	 lea	 eax, DWORD PTR $T153642[esp+28]
  00013	50		 push	 eax
  00014	8b ce		 mov	 ecx, esi
  00016	e8 00 00 00 00	 call	 ?erase@?$_Tree@V?$_Tmap_traits@V?$basic_string@DU?$char_traits@D@std@@V?$allocator@D@2@@std@@V12@U?$less@V?$basic_string@DU?$char_traits@D@std@@V?$allocator@D@2@@std@@@2@V?$allocator@U?$pair@$$CBV?$basic_string@DU?$char_traits@D@std@@V?$allocator@D@2@@std@@V12@@std@@@2@$0A@@std@@@std@@QAE?AViterator@12@V312@0@Z ; std::_Tree<std::_Tmap_traits<std::basic_string<char,std::char_traits<char>,std::allocator<char> >,std::basic_string<char,std::char_traits<char>,std::allocator<char> >,std::less<std::basic_string<char,std::char_traits<char>,std::allocator<char> > >,std::allocator<std::pair<std::basic_string<char,std::char_traits<char>,std::allocator<char> > const ,std::basic_string<char,std::char_traits<char>,std::allocator<char> > > >,0> >::erase

; 1328 : 		this->_Alptr.destroy(&_Left(_Myhead));
; 1329 : 		this->_Alptr.destroy(&_Parent(_Myhead));
; 1330 : 		this->_Alptr.destroy(&_Right(_Myhead));
; 1331 : 		this->_Alnod.deallocate(_Myhead, 1);

  0001b	8b 4e 04	 mov	 ecx, DWORD PTR [esi+4]
  0001e	51		 push	 ecx
  0001f	e8 00 00 00 00	 call	 ??3@YAXPAX@Z		; operator delete
  00024	83 c4 04	 add	 esp, 4

; 1332 : 		_Myhead = 0, _Mysize = 0;

  00027	33 c0		 xor	 eax, eax
  00029	89 46 04	 mov	 DWORD PTR [esi+4], eax
  0002c	89 46 08	 mov	 DWORD PTR [esi+8], eax
  0002f	5e		 pop	 esi

; 1333 : 		}

  00030	83 c4 08	 add	 esp, 8
  00033	c3		 ret	 0
?_Tidy@?$_Tree@V?$_Tmap_traits@V?$basic_string@DU?$char_traits@D@std@@V?$allocator@D@2@@std@@V12@U?$less@V?$basic_string@DU?$char_traits@D@std@@V?$allocator@D@2@@std@@@2@V?$allocator@U?$pair@$$CBV?$basic_string@DU?$char_traits@D@std@@V?$allocator@D@2@@std@@V12@@std@@@2@$0A@@std@@@std@@IAEXXZ ENDP ; std::_Tree<std::_Tmap_traits<std::basic_string<char,std::char_traits<char>,std::allocator<char> >,std::basic_string<char,std::char_traits<char>,std::allocator<char> >,std::less<std::basic_string<char,std::char_traits<char>,std::allocator<char> > >,std::allocator<std::pair<std::basic_string<char,std::char_traits<char>,std::allocator<char> > const ,std::basic_string<char,std::char_traits<char>,std::allocator<char> > > >,0> >::_Tidy
_TEXT	ENDS
PUBLIC	??1?$_Tree@V?$_Tmap_traits@V?$basic_string@DU?$char_traits@D@std@@V?$allocator@D@2@@std@@V12@U?$less@V?$basic_string@DU?$char_traits@D@std@@V?$allocator@D@2@@std@@@2@V?$allocator@U?$pair@$$CBV?$basic_string@DU?$char_traits@D@std@@V?$allocator@D@2@@std@@V12@@std@@@2@$0A@@std@@@std@@QAE@XZ ; std::_Tree<std::_Tmap_traits<std::basic_string<char,std::char_traits<char>,std::allocator<char> >,std::basic_string<char,std::char_traits<char>,std::allocator<char> >,std::less<std::basic_string<char,std::char_traits<char>,std::allocator<char> > >,std::allocator<std::pair<std::basic_string<char,std::char_traits<char>,std::allocator<char> > const ,std::basic_string<char,std::char_traits<char>,std::allocator<char> > > >,0> >::~_Tree<std::_Tmap_traits<std::basic_string<char,std::char_traits<char>,std::allocator<char> >,std::basic_string<char,std::char_traits<char>,std::allocator<char> >,std::less<std::basic_string<char,std::char_traits<char>,std::allocator<char> > >,std::allocator<std::pair<std::basic_string<char,std::char_traits<char>,std::allocator<char> > const ,std::basic_string<char,std::char_traits<char>,std::allocator<char> > > >,0> >
; Function compile flags: /Ogtpy
;	COMDAT ??1?$_Tree@V?$_Tmap_traits@V?$basic_string@DU?$char_traits@D@std@@V?$allocator@D@2@@std@@V12@U?$less@V?$basic_string@DU?$char_traits@D@std@@V?$allocator@D@2@@std@@@2@V?$allocator@U?$pair@$$CBV?$basic_string@DU?$char_traits@D@std@@V?$allocator@D@2@@std@@V12@@std@@@2@$0A@@std@@@std@@QAE@XZ
_TEXT	SEGMENT
$T153863 = -8						; size = 8
??1?$_Tree@V?$_Tmap_traits@V?$basic_string@DU?$char_traits@D@std@@V?$allocator@D@2@@std@@V12@U?$less@V?$basic_string@DU?$char_traits@D@std@@V?$allocator@D@2@@std@@@2@V?$allocator@U?$pair@$$CBV?$basic_string@DU?$char_traits@D@std@@V?$allocator@D@2@@std@@V12@@std@@@2@$0A@@std@@@std@@QAE@XZ PROC ; std::_Tree<std::_Tmap_traits<std::basic_string<char,std::char_traits<char>,std::allocator<char> >,std::basic_string<char,std::char_traits<char>,std::allocator<char> >,std::less<std::basic_string<char,std::char_traits<char>,std::allocator<char> > >,std::allocator<std::pair<std::basic_string<char,std::char_traits<char>,std::allocator<char> > const ,std::basic_string<char,std::char_traits<char>,std::allocator<char> > > >,0> >::~_Tree<std::_Tmap_traits<std::basic_string<char,std::char_traits<char>,std::allocator<char> >,std::basic_string<char,std::char_traits<char>,std::allocator<char> >,std::less<std::basic_string<char,std::char_traits<char>,std::allocator<char> > >,std::allocator<std::pair<std::basic_string<char,std::char_traits<char>,std::allocator<char> > const ,std::basic_string<char,std::char_traits<char>,std::allocator<char> > > >,0> >, COMDAT
; _this$ = ecx

; 525  : 		{	// destroy tree

  00000	83 ec 08	 sub	 esp, 8
  00003	56		 push	 esi
  00004	8b f1		 mov	 esi, ecx

; 526  : 		_Tidy();

  00006	8b 46 04	 mov	 eax, DWORD PTR [esi+4]
  00009	8b 08		 mov	 ecx, DWORD PTR [eax]
  0000b	50		 push	 eax
  0000c	56		 push	 esi
  0000d	51		 push	 ecx
  0000e	56		 push	 esi
  0000f	8d 44 24 14	 lea	 eax, DWORD PTR $T153863[esp+28]
  00013	50		 push	 eax
  00014	8b ce		 mov	 ecx, esi
  00016	e8 00 00 00 00	 call	 ?erase@?$_Tree@V?$_Tmap_traits@V?$basic_string@DU?$char_traits@D@std@@V?$allocator@D@2@@std@@V12@U?$less@V?$basic_string@DU?$char_traits@D@std@@V?$allocator@D@2@@std@@@2@V?$allocator@U?$pair@$$CBV?$basic_string@DU?$char_traits@D@std@@V?$allocator@D@2@@std@@V12@@std@@@2@$0A@@std@@@std@@QAE?AViterator@12@V312@0@Z ; std::_Tree<std::_Tmap_traits<std::basic_string<char,std::char_traits<char>,std::allocator<char> >,std::basic_string<char,std::char_traits<char>,std::allocator<char> >,std::less<std::basic_string<char,std::char_traits<char>,std::allocator<char> > >,std::allocator<std::pair<std::basic_string<char,std::char_traits<char>,std::allocator<char> > const ,std::basic_string<char,std::char_traits<char>,std::allocator<char> > > >,0> >::erase
  0001b	8b 4e 04	 mov	 ecx, DWORD PTR [esi+4]
  0001e	51		 push	 ecx
  0001f	e8 00 00 00 00	 call	 ??3@YAXPAX@Z		; operator delete
  00024	83 c4 04	 add	 esp, 4
  00027	33 c0		 xor	 eax, eax
  00029	89 46 04	 mov	 DWORD PTR [esi+4], eax
  0002c	89 46 08	 mov	 DWORD PTR [esi+8], eax
  0002f	5e		 pop	 esi

; 527  : 		}

  00030	83 c4 08	 add	 esp, 8
  00033	c3		 ret	 0
??1?$_Tree@V?$_Tmap_traits@V?$basic_string@DU?$char_traits@D@std@@V?$allocator@D@2@@std@@V12@U?$less@V?$basic_string@DU?$char_traits@D@std@@V?$allocator@D@2@@std@@@2@V?$allocator@U?$pair@$$CBV?$basic_string@DU?$char_traits@D@std@@V?$allocator@D@2@@std@@V12@@std@@@2@$0A@@std@@@std@@QAE@XZ ENDP ; std::_Tree<std::_Tmap_traits<std::basic_string<char,std::char_traits<char>,std::allocator<char> >,std::basic_string<char,std::char_traits<char>,std::allocator<char> >,std::less<std::basic_string<char,std::char_traits<char>,std::allocator<char> > >,std::allocator<std::pair<std::basic_string<char,std::char_traits<char>,std::allocator<char> > const ,std::basic_string<char,std::char_traits<char>,std::allocator<char> > > >,0> >::~_Tree<std::_Tmap_traits<std::basic_string<char,std::char_traits<char>,std::allocator<char> >,std::basic_string<char,std::char_traits<char>,std::allocator<char> >,std::less<std::basic_string<char,std::char_traits<char>,std::allocator<char> > >,std::allocator<std::pair<std::basic_string<char,std::char_traits<char>,std::allocator<char> > const ,std::basic_string<char,std::char_traits<char>,std::allocator<char> > > >,0> >
_TEXT	ENDS
PUBLIC	??1?$map@V?$basic_string@DU?$char_traits@D@std@@V?$allocator@D@2@@std@@V12@U?$less@V?$basic_string@DU?$char_traits@D@std@@V?$allocator@D@2@@std@@@2@V?$allocator@U?$pair@$$CBV?$basic_string@DU?$char_traits@D@std@@V?$allocator@D@2@@std@@V12@@std@@@2@@std@@QAE@XZ ; std::map<std::basic_string<char,std::char_traits<char>,std::allocator<char> >,std::basic_string<char,std::char_traits<char>,std::allocator<char> >,std::less<std::basic_string<char,std::char_traits<char>,std::allocator<char> > >,std::allocator<std::pair<std::basic_string<char,std::char_traits<char>,std::allocator<char> > const ,std::basic_string<char,std::char_traits<char>,std::allocator<char> > > > >::~map<std::basic_string<char,std::char_traits<char>,std::allocator<char> >,std::basic_string<char,std::char_traits<char>,std::allocator<char> >,std::less<std::basic_string<char,std::char_traits<char>,std::allocator<char> > >,std::allocator<std::pair<std::basic_string<char,std::char_traits<char>,std::allocator<char> > const ,std::basic_string<char,std::char_traits<char>,std::allocator<char> > > > >
; Function compile flags: /Ogtpy
;	COMDAT ??1?$map@V?$basic_string@DU?$char_traits@D@std@@V?$allocator@D@2@@std@@V12@U?$less@V?$basic_string@DU?$char_traits@D@std@@V?$allocator@D@2@@std@@@2@V?$allocator@U?$pair@$$CBV?$basic_string@DU?$char_traits@D@std@@V?$allocator@D@2@@std@@V12@@std@@@2@@std@@QAE@XZ
_TEXT	SEGMENT
$T154056 = -8						; size = 8
??1?$map@V?$basic_string@DU?$char_traits@D@std@@V?$allocator@D@2@@std@@V12@U?$less@V?$basic_string@DU?$char_traits@D@std@@V?$allocator@D@2@@std@@@2@V?$allocator@U?$pair@$$CBV?$basic_string@DU?$char_traits@D@std@@V?$allocator@D@2@@std@@V12@@std@@@2@@std@@QAE@XZ PROC ; std::map<std::basic_string<char,std::char_traits<char>,std::allocator<char> >,std::basic_string<char,std::char_traits<char>,std::allocator<char> >,std::less<std::basic_string<char,std::char_traits<char>,std::allocator<char> > >,std::allocator<std::pair<std::basic_string<char,std::char_traits<char>,std::allocator<char> > const ,std::basic_string<char,std::char_traits<char>,std::allocator<char> > > > >::~map<std::basic_string<char,std::char_traits<char>,std::allocator<char> >,std::basic_string<char,std::char_traits<char>,std::allocator<char> >,std::less<std::basic_string<char,std::char_traits<char>,std::allocator<char> > >,std::allocator<std::pair<std::basic_string<char,std::char_traits<char>,std::allocator<char> > const ,std::basic_string<char,std::char_traits<char>,std::allocator<char> > > > >, COMDAT
; _this$ = ecx
  00000	83 ec 08	 sub	 esp, 8
  00003	56		 push	 esi
  00004	8b f1		 mov	 esi, ecx
  00006	8b 46 04	 mov	 eax, DWORD PTR [esi+4]
  00009	8b 08		 mov	 ecx, DWORD PTR [eax]
  0000b	50		 push	 eax
  0000c	56		 push	 esi
  0000d	51		 push	 ecx
  0000e	56		 push	 esi
  0000f	8d 44 24 14	 lea	 eax, DWORD PTR $T154056[esp+28]
  00013	50		 push	 eax
  00014	8b ce		 mov	 ecx, esi
  00016	e8 00 00 00 00	 call	 ?erase@?$_Tree@V?$_Tmap_traits@V?$basic_string@DU?$char_traits@D@std@@V?$allocator@D@2@@std@@V12@U?$less@V?$basic_string@DU?$char_traits@D@std@@V?$allocator@D@2@@std@@@2@V?$allocator@U?$pair@$$CBV?$basic_string@DU?$char_traits@D@std@@V?$allocator@D@2@@std@@V12@@std@@@2@$0A@@std@@@std@@QAE?AViterator@12@V312@0@Z ; std::_Tree<std::_Tmap_traits<std::basic_string<char,std::char_traits<char>,std::allocator<char> >,std::basic_string<char,std::char_traits<char>,std::allocator<char> >,std::less<std::basic_string<char,std::char_traits<char>,std::allocator<char> > >,std::allocator<std::pair<std::basic_string<char,std::char_traits<char>,std::allocator<char> > const ,std::basic_string<char,std::char_traits<char>,std::allocator<char> > > >,0> >::erase
  0001b	8b 4e 04	 mov	 ecx, DWORD PTR [esi+4]
  0001e	51		 push	 ecx
  0001f	e8 00 00 00 00	 call	 ??3@YAXPAX@Z		; operator delete
  00024	83 c4 04	 add	 esp, 4
  00027	33 c0		 xor	 eax, eax
  00029	89 46 04	 mov	 DWORD PTR [esi+4], eax
  0002c	89 46 08	 mov	 DWORD PTR [esi+8], eax
  0002f	5e		 pop	 esi
  00030	83 c4 08	 add	 esp, 8
  00033	c3		 ret	 0
??1?$map@V?$basic_string@DU?$char_traits@D@std@@V?$allocator@D@2@@std@@V12@U?$less@V?$basic_string@DU?$char_traits@D@std@@V?$allocator@D@2@@std@@@2@V?$allocator@U?$pair@$$CBV?$basic_string@DU?$char_traits@D@std@@V?$allocator@D@2@@std@@V12@@std@@@2@@std@@QAE@XZ ENDP ; std::map<std::basic_string<char,std::char_traits<char>,std::allocator<char> >,std::basic_string<char,std::char_traits<char>,std::allocator<char> >,std::less<std::basic_string<char,std::char_traits<char>,std::allocator<char> > >,std::allocator<std::pair<std::basic_string<char,std::char_traits<char>,std::allocator<char> > const ,std::basic_string<char,std::char_traits<char>,std::allocator<char> > > > >::~map<std::basic_string<char,std::char_traits<char>,std::allocator<char> >,std::basic_string<char,std::char_traits<char>,std::allocator<char> >,std::less<std::basic_string<char,std::char_traits<char>,std::allocator<char> > >,std::allocator<std::pair<std::basic_string<char,std::char_traits<char>,std::allocator<char> > const ,std::basic_string<char,std::char_traits<char>,std::allocator<char> > > > >
_TEXT	ENDS
PUBLIC	??0?$map@V?$basic_string@DU?$char_traits@D@std@@V?$allocator@D@2@@std@@V12@U?$less@V?$basic_string@DU?$char_traits@D@std@@V?$allocator@D@2@@std@@@2@V?$allocator@U?$pair@$$CBV?$basic_string@DU?$char_traits@D@std@@V?$allocator@D@2@@std@@V12@@std@@@2@@std@@QAE@XZ ; std::map<std::basic_string<char,std::char_traits<char>,std::allocator<char> >,std::basic_string<char,std::char_traits<char>,std::allocator<char> >,std::less<std::basic_string<char,std::char_traits<char>,std::allocator<char> > >,std::allocator<std::pair<std::basic_string<char,std::char_traits<char>,std::allocator<char> > const ,std::basic_string<char,std::char_traits<char>,std::allocator<char> > > > >::map<std::basic_string<char,std::char_traits<char>,std::allocator<char> >,std::basic_string<char,std::char_traits<char>,std::allocator<char> >,std::less<std::basic_string<char,std::char_traits<char>,std::allocator<char> > >,std::allocator<std::pair<std::basic_string<char,std::char_traits<char>,std::allocator<char> > const ,std::basic_string<char,std::char_traits<char>,std::allocator<char> > > > >
; Function compile flags: /Ogtpy
; File d:\program files\microsoft visual studio 8\vc\include\map
;	COMDAT ??0?$map@V?$basic_string@DU?$char_traits@D@std@@V?$allocator@D@2@@std@@V12@U?$less@V?$basic_string@DU?$char_traits@D@std@@V?$allocator@D@2@@std@@@2@V?$allocator@U?$pair@$$CBV?$basic_string@DU?$char_traits@D@std@@V?$allocator@D@2@@std@@V12@@std@@@2@@std@@QAE@XZ
_TEXT	SEGMENT
??0?$map@V?$basic_string@DU?$char_traits@D@std@@V?$allocator@D@2@@std@@V12@U?$less@V?$basic_string@DU?$char_traits@D@std@@V?$allocator@D@2@@std@@@2@V?$allocator@U?$pair@$$CBV?$basic_string@DU?$char_traits@D@std@@V?$allocator@D@2@@std@@V12@@std@@@2@@std@@QAE@XZ PROC ; std::map<std::basic_string<char,std::char_traits<char>,std::allocator<char> >,std::basic_string<char,std::char_traits<char>,std::allocator<char> >,std::less<std::basic_string<char,std::char_traits<char>,std::allocator<char> > >,std::allocator<std::pair<std::basic_string<char,std::char_traits<char>,std::allocator<char> > const ,std::basic_string<char,std::char_traits<char>,std::allocator<char> > > > >::map<std::basic_string<char,std::char_traits<char>,std::allocator<char> >,std::basic_string<char,std::char_traits<char>,std::allocator<char> >,std::less<std::basic_string<char,std::char_traits<char>,std::allocator<char> > >,std::allocator<std::pair<std::basic_string<char,std::char_traits<char>,std::allocator<char> > const ,std::basic_string<char,std::char_traits<char>,std::allocator<char> > > > >, COMDAT
; _this$ = ecx

; 107  : 		{	// construct empty map from defaults

  00000	56		 push	 esi
  00001	8b f1		 mov	 esi, ecx
  00003	e8 00 00 00 00	 call	 ?_Buynode@?$_Tree@V?$_Tmap_traits@V?$basic_string@DU?$char_traits@D@std@@V?$allocator@D@2@@std@@V12@U?$less@V?$basic_string@DU?$char_traits@D@std@@V?$allocator@D@2@@std@@@2@V?$allocator@U?$pair@$$CBV?$basic_string@DU?$char_traits@D@std@@V?$allocator@D@2@@std@@V12@@std@@@2@$0A@@std@@@std@@IAEPAU_Node@?$_Tree_nod@V?$_Tmap_traits@V?$basic_string@DU?$char_traits@D@std@@V?$allocator@D@2@@std@@V12@U?$less@V?$basic_string@DU?$char_traits@D@std@@V?$allocator@D@2@@std@@@2@V?$allocator@U?$pair@$$CBV?$basic_string@DU?$char_traits@D@std@@V?$allocator@D@2@@std@@V12@@std@@@2@$0A@@std@@@2@XZ ; std::_Tree<std::_Tmap_traits<std::basic_string<char,std::char_traits<char>,std::allocator<char> >,std::basic_string<char,std::char_traits<char>,std::allocator<char> >,std::less<std::basic_string<char,std::char_traits<char>,std::allocator<char> > >,std::allocator<std::pair<std::basic_string<char,std::char_traits<char>,std::allocator<char> > const ,std::basic_string<char,std::char_traits<char>,std::allocator<char> > > >,0> >::_Buynode
  00008	89 46 04	 mov	 DWORD PTR [esi+4], eax
  0000b	c6 40 45 01	 mov	 BYTE PTR [eax+69], 1
  0000f	8b 46 04	 mov	 eax, DWORD PTR [esi+4]
  00012	89 40 04	 mov	 DWORD PTR [eax+4], eax
  00015	8b 46 04	 mov	 eax, DWORD PTR [esi+4]
  00018	89 00		 mov	 DWORD PTR [eax], eax
  0001a	8b 46 04	 mov	 eax, DWORD PTR [esi+4]
  0001d	89 40 08	 mov	 DWORD PTR [eax+8], eax
  00020	c7 46 08 00 00
	00 00		 mov	 DWORD PTR [esi+8], 0

; 108  : 		}

  00027	8b c6		 mov	 eax, esi
  00029	5e		 pop	 esi
  0002a	c3		 ret	 0
??0?$map@V?$basic_string@DU?$char_traits@D@std@@V?$allocator@D@2@@std@@V12@U?$less@V?$basic_string@DU?$char_traits@D@std@@V?$allocator@D@2@@std@@@2@V?$allocator@U?$pair@$$CBV?$basic_string@DU?$char_traits@D@std@@V?$allocator@D@2@@std@@V12@@std@@@2@@std@@QAE@XZ ENDP ; std::map<std::basic_string<char,std::char_traits<char>,std::allocator<char> >,std::basic_string<char,std::char_traits<char>,std::allocator<char> >,std::less<std::basic_string<char,std::char_traits<char>,std::allocator<char> > >,std::allocator<std::pair<std::basic_string<char,std::char_traits<char>,std::allocator<char> > const ,std::basic_string<char,std::char_traits<char>,std::allocator<char> > > > >::map<std::basic_string<char,std::char_traits<char>,std::allocator<char> >,std::basic_string<char,std::char_traits<char>,std::allocator<char> >,std::less<std::basic_string<char,std::char_traits<char>,std::allocator<char> > >,std::allocator<std::pair<std::basic_string<char,std::char_traits<char>,std::allocator<char> > const ,std::basic_string<char,std::char_traits<char>,std::allocator<char> > > > >
_TEXT	ENDS
EXTRN	_atexit:PROC
EXTRN	?GUID_INVALID@CGUID@@2V1@A:BYTE			; CGUID::GUID_INVALID
; Function compile flags: /Ogtpy
; File d:\project_p6\trunk\public\module\guid.h
;	COMDAT ??__ENULL_GUID@@YAXXZ
text$yc	SEGMENT
??__ENULL_GUID@@YAXXZ PROC				; `dynamic initializer for 'NULL_GUID'', COMDAT

; 140  : const CGUID NULL_GUID = CGUID::GUID_INVALID;

  00000	f3 0f 7e 05 00
	00 00 00	 movq	 xmm0, QWORD PTR ?GUID_INVALID@CGUID@@2V1@A
  00008	66 0f d6 05 00
	00 00 00	 movq	 QWORD PTR _NULL_GUID, xmm0
  00010	f3 0f 7e 05 08
	00 00 00	 movq	 xmm0, QWORD PTR ?GUID_INVALID@CGUID@@2V1@A+8
  00018	68 00 00 00 00	 push	 OFFSET ??__FNULL_GUID@@YAXXZ ; `dynamic atexit destructor for 'NULL_GUID''
  0001d	66 0f d6 05 08
	00 00 00	 movq	 QWORD PTR _NULL_GUID+8, xmm0
  00025	e8 00 00 00 00	 call	 _atexit
  0002a	59		 pop	 ecx
  0002b	c3		 ret	 0
??__ENULL_GUID@@YAXXZ ENDP				; `dynamic initializer for 'NULL_GUID''
; Function compile flags: /Ogtpy
; File d:\project_p6\trunk\public\appframe\textres.h
text$yc	ENDS
;	COMDAT ??__Es_texts@AppFrame@@YAXXZ
text$yc	SEGMENT
??__Es_texts@AppFrame@@YAXXZ PROC			; AppFrame::`dynamic initializer for 's_texts'', COMDAT

; 22   :     static map<string, string> s_texts;

  00000	b9 00 00 00 00	 mov	 ecx, OFFSET _s_texts
  00005	e8 00 00 00 00	 call	 ?_Buynode@?$_Tree@V?$_Tmap_traits@V?$basic_string@DU?$char_traits@D@std@@V?$allocator@D@2@@std@@V12@U?$less@V?$basic_string@DU?$char_traits@D@std@@V?$allocator@D@2@@std@@@2@V?$allocator@U?$pair@$$CBV?$basic_string@DU?$char_traits@D@std@@V?$allocator@D@2@@std@@V12@@std@@@2@$0A@@std@@@std@@IAEPAU_Node@?$_Tree_nod@V?$_Tmap_traits@V?$basic_string@DU?$char_traits@D@std@@V?$allocator@D@2@@std@@V12@U?$less@V?$basic_string@DU?$char_traits@D@std@@V?$allocator@D@2@@std@@@2@V?$allocator@U?$pair@$$CBV?$basic_string@DU?$char_traits@D@std@@V?$allocator@D@2@@std@@V12@@std@@@2@$0A@@std@@@2@XZ ; std::_Tree<std::_Tmap_traits<std::basic_string<char,std::char_traits<char>,std::allocator<char> >,std::basic_string<char,std::char_traits<char>,std::allocator<char> >,std::less<std::basic_string<char,std::char_traits<char>,std::allocator<char> > >,std::allocator<std::pair<std::basic_string<char,std::char_traits<char>,std::allocator<char> > const ,std::basic_string<char,std::char_traits<char>,std::allocator<char> > > >,0> >::_Buynode
  0000a	a3 04 00 00 00	 mov	 DWORD PTR _s_texts+4, eax
  0000f	c6 40 45 01	 mov	 BYTE PTR [eax+69], 1
  00013	a1 04 00 00 00	 mov	 eax, DWORD PTR _s_texts+4
  00018	89 40 04	 mov	 DWORD PTR [eax+4], eax
  0001b	a1 04 00 00 00	 mov	 eax, DWORD PTR _s_texts+4
  00020	89 00		 mov	 DWORD PTR [eax], eax
  00022	a1 04 00 00 00	 mov	 eax, DWORD PTR _s_texts+4
  00027	89 40 08	 mov	 DWORD PTR [eax+8], eax
  0002a	68 00 00 00 00	 push	 OFFSET ??__Fs_texts@AppFrame@@YAXXZ ; AppFrame::`dynamic atexit destructor for 's_texts''
  0002f	c7 05 08 00 00
	00 00 00 00 00	 mov	 DWORD PTR _s_texts+8, 0
  00039	e8 00 00 00 00	 call	 _atexit
  0003e	59		 pop	 ecx
  0003f	c3		 ret	 0
??__Es_texts@AppFrame@@YAXXZ ENDP			; AppFrame::`dynamic initializer for 's_texts''
; Function compile flags: /Ogtpy
text$yc	ENDS
;	COMDAT ??__FNULL_GUID@@YAXXZ
text$yd	SEGMENT
??__FNULL_GUID@@YAXXZ PROC				; `dynamic atexit destructor for 'NULL_GUID'', COMDAT
  00000	c3		 ret	 0
??__FNULL_GUID@@YAXXZ ENDP				; `dynamic atexit destructor for 'NULL_GUID''
; Function compile flags: /Ogtpy
text$yd	ENDS
;	COMDAT ??__Fs_texts@AppFrame@@YAXXZ
text$yd	SEGMENT
$T154711 = -8						; size = 8
??__Fs_texts@AppFrame@@YAXXZ PROC			; AppFrame::`dynamic atexit destructor for 's_texts'', COMDAT
  00000	a1 04 00 00 00	 mov	 eax, DWORD PTR _s_texts+4
  00005	8b 10		 mov	 edx, DWORD PTR [eax]
  00007	83 ec 08	 sub	 esp, 8
  0000a	56		 push	 esi
  0000b	50		 push	 eax
  0000c	b9 00 00 00 00	 mov	 ecx, OFFSET _s_texts
  00011	51		 push	 ecx
  00012	52		 push	 edx
  00013	8b f1		 mov	 esi, ecx
  00015	56		 push	 esi
  00016	8d 44 24 14	 lea	 eax, DWORD PTR $T154711[esp+28]
  0001a	50		 push	 eax
  0001b	e8 00 00 00 00	 call	 ?erase@?$_Tree@V?$_Tmap_traits@V?$basic_string@DU?$char_traits@D@std@@V?$allocator@D@2@@std@@V12@U?$less@V?$basic_string@DU?$char_traits@D@std@@V?$allocator@D@2@@std@@@2@V?$allocator@U?$pair@$$CBV?$basic_string@DU?$char_traits@D@std@@V?$allocator@D@2@@std@@V12@@std@@@2@$0A@@std@@@std@@QAE?AViterator@12@V312@0@Z ; std::_Tree<std::_Tmap_traits<std::basic_string<char,std::char_traits<char>,std::allocator<char> >,std::basic_string<char,std::char_traits<char>,std::allocator<char> >,std::less<std::basic_string<char,std::char_traits<char>,std::allocator<char> > >,std::allocator<std::pair<std::basic_string<char,std::char_traits<char>,std::allocator<char> > const ,std::basic_string<char,std::char_traits<char>,std::allocator<char> > > >,0> >::erase
  00020	8b 0d 04 00 00
	00		 mov	 ecx, DWORD PTR _s_texts+4
  00026	51		 push	 ecx
  00027	e8 00 00 00 00	 call	 ??3@YAXPAX@Z		; operator delete
  0002c	83 c4 04	 add	 esp, 4
  0002f	33 c0		 xor	 eax, eax
  00031	a3 04 00 00 00	 mov	 DWORD PTR _s_texts+4, eax
  00036	a3 08 00 00 00	 mov	 DWORD PTR _s_texts+8, eax
  0003b	5e		 pop	 esi
  0003c	83 c4 08	 add	 esp, 8
  0003f	c3		 ret	 0
??__Fs_texts@AppFrame@@YAXXZ ENDP			; AppFrame::`dynamic atexit destructor for 's_texts''
text$yd	ENDS
PUBLIC	?id@?$codecvt@DDH@std@@2V0locale@2@A		; std::codecvt<char,char,int>::id
_BSS	SEGMENT
_s_texts DB	0cH DUP (?)
_NULL_GUID DB	010H DUP (?)
_BSS	ENDS
;	COMDAT ?id@?$codecvt@DDH@std@@2V0locale@2@A
_BSS	SEGMENT
?id@?$codecvt@DDH@std@@2V0locale@2@A DD 01H DUP (?)	; std::codecvt<char,char,int>::id
_BSS	ENDS
CRT$XCU	SEGMENT
_NULL_GUID$initializer$ DD FLAT:??__ENULL_GUID@@YAXXZ
_s_texts$initializer$ DD FLAT:??__Es_texts@AppFrame@@YAXXZ
CRT$XCU	ENDS
END
