; Listing generated by Microsoft (R) Optimizing Compiler Version 14.00.50727.762 

	TITLE	D:\Project_P6\trunk\Server\GameServer\Server\GameManager.cpp
	.686P
	.XMM
	include listing.inc
	.model	flat

INCLUDELIB LIBCMT
INCLUDELIB OLDNAMES

PUBLIC	??_C@_07HHAEFFJO@CLS?9RGN?$AA@			; `string'
PUBLIC	?SUBPACK_NUM@CSubpackContainer@@2HB		; CSubpackContainer::SUBPACK_NUM
PUBLIC	?instance@GameManager@@0PAV1@A			; GameManager::instance
_BSS	SEGMENT
?instance@GameManager@@0PAV1@A DD 01H DUP (?)		; GameManager::instance
_BSS	ENDS
;	COMDAT ?SUBPACK_NUM@CSubpackContainer@@2HB
CONST	SEGMENT
?SUBPACK_NUM@CSubpackContainer@@2HB DD 05H		; CSubpackContainer::SUBPACK_NUM
CONST	ENDS
;	COMDAT ??_C@_07HHAEFFJO@CLS?9RGN?$AA@
CONST	SEGMENT
??_C@_07HHAEFFJO@CLS?9RGN?$AA@ DB 'CLS-RGN', 00H	; `string'
CONST	ENDS
_DATA	SEGMENT
__area	DD	00H
	DD	00H
	DD	0ffffffffH
	DD	0ffffffffH
	DD	00H
	DD	0ffffffffH
	DD	01H
	DD	0ffffffffH
	DD	0ffffffffH
	DD	00H
	DD	01H
	DD	00H
	DD	0ffffffffH
	DD	01H
	DD	00H
	DD	01H
	DD	01H
	DD	01H
_g_strRegionHead DD FLAT:??_C@_07HHAEFFJO@CLS?9RGN?$AA@
_DATA	ENDS
CONST	SEGMENT
_MIN_VAL DD	00H
	DD	00H
	DD	00H
	DD	00H
	DD	080000001H
	DD	0ffff8001H
	DD	00H
_MAX_VAL DD	0100H
	DD	010000H
	DD	07fffffffH
	DD	05f5e100H
	DD	07fffffffH
	DD	07fffH
	DD	01H
_PI	DD	040490fdbr			; 3.14159
CONST	ENDS
PUBLIC	?GetType@CBaseObject@@QBEJXZ			; CBaseObject::GetType
; Function compile flags: /Ogtpy
; File d:\project_p6\trunk\server\gameserver\app\baseobject.h
;	COMDAT ?GetType@CBaseObject@@QBEJXZ
_TEXT	SEGMENT
?GetType@CBaseObject@@QBEJXZ PROC			; CBaseObject::GetType, COMDAT
; _this$ = ecx

; 66   : 	long GetType() const								{ return m_lType;					};

  00000	8b 41 04	 mov	 eax, DWORD PTR [ecx+4]
  00003	c3		 ret	 0
?GetType@CBaseObject@@QBEJXZ ENDP			; CBaseObject::GetType
_TEXT	ENDS
PUBLIC	?assign@?$char_traits@D@std@@SAXAADABD@Z	; std::char_traits<char>::assign
; Function compile flags: /Ogtpy
; File d:\program files\microsoft visual studio 8\vc\include\iosfwd
;	COMDAT ?assign@?$char_traits@D@std@@SAXAADABD@Z
_TEXT	SEGMENT
__Left$ = 8						; size = 4
__Right$ = 12						; size = 4
?assign@?$char_traits@D@std@@SAXAADABD@Z PROC		; std::char_traits<char>::assign, COMDAT

; 418  : 		_Left = _Right;

  00000	8b 44 24 08	 mov	 eax, DWORD PTR __Right$[esp-4]
  00004	8a 08		 mov	 cl, BYTE PTR [eax]
  00006	8b 54 24 04	 mov	 edx, DWORD PTR __Left$[esp-4]
  0000a	88 0a		 mov	 BYTE PTR [edx], cl

; 419  : 		}

  0000c	c3		 ret	 0
?assign@?$char_traits@D@std@@SAXAADABD@Z ENDP		; std::char_traits<char>::assign
_TEXT	ENDS
PUBLIC	?length@?$char_traits@D@std@@SAIPBD@Z		; std::char_traits<char>::length
; Function compile flags: /Ogtpy
;	COMDAT ?length@?$char_traits@D@std@@SAIPBD@Z
_TEXT	SEGMENT
__First$ = 8						; size = 4
?length@?$char_traits@D@std@@SAIPBD@Z PROC		; std::char_traits<char>::length, COMDAT

; 441  : //		_DEBUG_POINTER(_First);
; 442  : 		return (::strlen(_First));

  00000	8b 44 24 04	 mov	 eax, DWORD PTR __First$[esp-4]
  00004	8d 50 01	 lea	 edx, DWORD PTR [eax+1]
$LL3@length:
  00007	8a 08		 mov	 cl, BYTE PTR [eax]
  00009	83 c0 01	 add	 eax, 1
  0000c	84 c9		 test	 cl, cl
  0000e	75 f7		 jne	 SHORT $LL3@length
  00010	2b c2		 sub	 eax, edx

; 443  : 		}

  00012	c3		 ret	 0
?length@?$char_traits@D@std@@SAIPBD@Z ENDP		; std::char_traits<char>::length
_TEXT	ENDS
PUBLIC	?_Copy_s@?$char_traits@D@std@@SAPADPADIPBDI@Z	; std::char_traits<char>::_Copy_s
EXTRN	_memcpy_s:PROC
; Function compile flags: /Ogtpy
;	COMDAT ?_Copy_s@?$char_traits@D@std@@SAPADPADIPBDI@Z
_TEXT	SEGMENT
__First1$ = 8						; size = 4
__Size_in_bytes$ = 12					; size = 4
__First2$ = 16						; size = 4
__Count$ = 20						; size = 4
?_Copy_s@?$char_traits@D@std@@SAPADPADIPBDI@Z PROC	; std::char_traits<char>::_Copy_s, COMDAT

; 456  : //		_DEBUG_POINTER(_First1);
; 457  : //		_DEBUG_POINTER(_First2);
; 458  : 		_CRT_SECURE_MEMCPY(_First1, _Size_in_bytes, _First2, _Count);

  00000	8b 44 24 10	 mov	 eax, DWORD PTR __Count$[esp-4]
  00004	8b 4c 24 0c	 mov	 ecx, DWORD PTR __First2$[esp-4]
  00008	8b 54 24 08	 mov	 edx, DWORD PTR __Size_in_bytes$[esp-4]
  0000c	56		 push	 esi
  0000d	8b 74 24 08	 mov	 esi, DWORD PTR __First1$[esp]
  00011	50		 push	 eax
  00012	51		 push	 ecx
  00013	52		 push	 edx
  00014	56		 push	 esi
  00015	e8 00 00 00 00	 call	 _memcpy_s
  0001a	83 c4 10	 add	 esp, 16			; 00000010H

; 459  : 		return _First1;

  0001d	8b c6		 mov	 eax, esi
  0001f	5e		 pop	 esi

; 460  : 		}

  00020	c3		 ret	 0
?_Copy_s@?$char_traits@D@std@@SAPADPADIPBDI@Z ENDP	; std::char_traits<char>::_Copy_s
_TEXT	ENDS
PUBLIC	?_Move_s@?$char_traits@D@std@@SAPADPADIPBDI@Z	; std::char_traits<char>::_Move_s
EXTRN	_memmove_s:PROC
; Function compile flags: /Ogtpy
;	COMDAT ?_Move_s@?$char_traits@D@std@@SAPADPADIPBDI@Z
_TEXT	SEGMENT
__First1$ = 8						; size = 4
__Size_in_bytes$ = 12					; size = 4
__First2$ = 16						; size = 4
__Count$ = 20						; size = 4
?_Move_s@?$char_traits@D@std@@SAPADPADIPBDI@Z PROC	; std::char_traits<char>::_Move_s, COMDAT

; 480  : //		_DEBUG_POINTER(_First1);
; 481  : //		_DEBUG_POINTER(_First2);
; 482  : 		_CRT_SECURE_MEMMOVE(_First1, _Size_in_bytes, _First2, _Count);

  00000	8b 44 24 10	 mov	 eax, DWORD PTR __Count$[esp-4]
  00004	8b 4c 24 0c	 mov	 ecx, DWORD PTR __First2$[esp-4]
  00008	8b 54 24 08	 mov	 edx, DWORD PTR __Size_in_bytes$[esp-4]
  0000c	56		 push	 esi
  0000d	8b 74 24 08	 mov	 esi, DWORD PTR __First1$[esp]
  00011	50		 push	 eax
  00012	51		 push	 ecx
  00013	52		 push	 edx
  00014	56		 push	 esi
  00015	e8 00 00 00 00	 call	 _memmove_s
  0001a	83 c4 10	 add	 esp, 16			; 00000010H

; 483  : 		return _First1;

  0001d	8b c6		 mov	 eax, esi
  0001f	5e		 pop	 esi

; 484  : 		}

  00020	c3		 ret	 0
?_Move_s@?$char_traits@D@std@@SAPADPADIPBDI@Z ENDP	; std::char_traits<char>::_Move_s
_TEXT	ENDS
PUBLIC	??0_Iterator_base@std@@QAE@XZ			; std::_Iterator_base::_Iterator_base
; Function compile flags: /Ogtpy
; File d:\program files\microsoft visual studio 8\vc\include\xutility
;	COMDAT ??0_Iterator_base@std@@QAE@XZ
_TEXT	SEGMENT
??0_Iterator_base@std@@QAE@XZ PROC			; std::_Iterator_base::_Iterator_base, COMDAT
; _this$ = ecx

; 441  : 		{

  00000	8b c1		 mov	 eax, ecx
  00002	c7 00 00 00 00
	00		 mov	 DWORD PTR [eax], 0

; 442  : 		}

  00008	c3		 ret	 0
??0_Iterator_base@std@@QAE@XZ ENDP			; std::_Iterator_base::_Iterator_base
_TEXT	ENDS
PUBLIC	??_7bad_alloc@std@@6B@				; std::bad_alloc::`vftable'
PUBLIC	??0bad_alloc@std@@QAE@PBD@Z			; std::bad_alloc::bad_alloc
PUBLIC	??_R4bad_alloc@std@@6B@				; std::bad_alloc::`RTTI Complete Object Locator'
PUBLIC	??_R0?AVbad_alloc@std@@@8			; std::bad_alloc `RTTI Type Descriptor'
PUBLIC	??_R3bad_alloc@std@@8				; std::bad_alloc::`RTTI Class Hierarchy Descriptor'
PUBLIC	??_R2bad_alloc@std@@8				; std::bad_alloc::`RTTI Base Class Array'
PUBLIC	??_R1A@?0A@EA@bad_alloc@std@@8			; std::bad_alloc::`RTTI Base Class Descriptor at (0,-1,0,64)'
PUBLIC	??_R1A@?0A@EA@exception@std@@8			; std::exception::`RTTI Base Class Descriptor at (0,-1,0,64)'
PUBLIC	??_R0?AVexception@std@@@8			; std::exception `RTTI Type Descriptor'
PUBLIC	??_R3exception@std@@8				; std::exception::`RTTI Class Hierarchy Descriptor'
PUBLIC	??_R2exception@std@@8				; std::exception::`RTTI Base Class Array'
EXTRN	??0exception@std@@QAE@ABQBD@Z:PROC		; std::exception::exception
EXTRN	??_7type_info@@6B@:QWORD			; type_info::`vftable'
EXTRN	??_Ebad_alloc@std@@UAEPAXI@Z:PROC		; std::bad_alloc::`vector deleting destructor'
EXTRN	?what@exception@std@@UBEPBDXZ:PROC		; std::exception::what
;	COMDAT ??_R2exception@std@@8
; File d:\program files\microsoft visual studio 8\vc\include\exception
rdata$r	SEGMENT
??_R2exception@std@@8 DD FLAT:??_R1A@?0A@EA@exception@std@@8 ; std::exception::`RTTI Base Class Array'
rdata$r	ENDS
;	COMDAT ??_R3exception@std@@8
rdata$r	SEGMENT
??_R3exception@std@@8 DD 00H				; std::exception::`RTTI Class Hierarchy Descriptor'
	DD	00H
	DD	01H
	DD	FLAT:??_R2exception@std@@8
rdata$r	ENDS
;	COMDAT ??_R0?AVexception@std@@@8
_DATA	SEGMENT
??_R0?AVexception@std@@@8 DD FLAT:??_7type_info@@6B@	; std::exception `RTTI Type Descriptor'
	DD	00H
	DB	'.?AVexception@std@@', 00H
_DATA	ENDS
;	COMDAT ??_R1A@?0A@EA@exception@std@@8
rdata$r	SEGMENT
??_R1A@?0A@EA@exception@std@@8 DD FLAT:??_R0?AVexception@std@@@8 ; std::exception::`RTTI Base Class Descriptor at (0,-1,0,64)'
	DD	00H
	DD	00H
	DD	0ffffffffH
	DD	00H
	DD	040H
	DD	FLAT:??_R3exception@std@@8
rdata$r	ENDS
;	COMDAT ??_R1A@?0A@EA@bad_alloc@std@@8
rdata$r	SEGMENT
??_R1A@?0A@EA@bad_alloc@std@@8 DD FLAT:??_R0?AVbad_alloc@std@@@8 ; std::bad_alloc::`RTTI Base Class Descriptor at (0,-1,0,64)'
	DD	01H
	DD	00H
	DD	0ffffffffH
	DD	00H
	DD	040H
	DD	FLAT:??_R3bad_alloc@std@@8
rdata$r	ENDS
;	COMDAT ??_R2bad_alloc@std@@8
rdata$r	SEGMENT
??_R2bad_alloc@std@@8 DD FLAT:??_R1A@?0A@EA@bad_alloc@std@@8 ; std::bad_alloc::`RTTI Base Class Array'
	DD	FLAT:??_R1A@?0A@EA@exception@std@@8
rdata$r	ENDS
;	COMDAT ??_R3bad_alloc@std@@8
rdata$r	SEGMENT
??_R3bad_alloc@std@@8 DD 00H				; std::bad_alloc::`RTTI Class Hierarchy Descriptor'
	DD	00H
	DD	02H
	DD	FLAT:??_R2bad_alloc@std@@8
rdata$r	ENDS
;	COMDAT ??_R0?AVbad_alloc@std@@@8
_DATA	SEGMENT
??_R0?AVbad_alloc@std@@@8 DD FLAT:??_7type_info@@6B@	; std::bad_alloc `RTTI Type Descriptor'
	DD	00H
	DB	'.?AVbad_alloc@std@@', 00H
_DATA	ENDS
;	COMDAT ??_R4bad_alloc@std@@6B@
rdata$r	SEGMENT
??_R4bad_alloc@std@@6B@ DD 00H				; std::bad_alloc::`RTTI Complete Object Locator'
	DD	00H
	DD	00H
	DD	FLAT:??_R0?AVbad_alloc@std@@@8
	DD	FLAT:??_R3bad_alloc@std@@8
rdata$r	ENDS
;	COMDAT ??_7bad_alloc@std@@6B@
CONST	SEGMENT
??_7bad_alloc@std@@6B@ DD FLAT:??_R4bad_alloc@std@@6B@	; std::bad_alloc::`vftable'
	DD	FLAT:??_Ebad_alloc@std@@UAEPAXI@Z
	DD	FLAT:?what@exception@std@@UBEPBDXZ
; Function compile flags: /Ogtpy
CONST	ENDS
;	COMDAT ??0bad_alloc@std@@QAE@PBD@Z
_TEXT	SEGMENT
__Message$ = 8						; size = 4
??0bad_alloc@std@@QAE@PBD@Z PROC			; std::bad_alloc::bad_alloc, COMDAT
; _this$ = ecx

; 371  : 		{	// construct from message string

  00000	56		 push	 esi
  00001	8d 44 24 08	 lea	 eax, DWORD PTR __Message$[esp]
  00005	50		 push	 eax
  00006	8b f1		 mov	 esi, ecx
  00008	e8 00 00 00 00	 call	 ??0exception@std@@QAE@ABQBD@Z ; std::exception::exception
  0000d	c7 06 00 00 00
	00		 mov	 DWORD PTR [esi], OFFSET ??_7bad_alloc@std@@6B@

; 372  : 		}

  00013	8b c6		 mov	 eax, esi
  00015	5e		 pop	 esi
  00016	c2 04 00	 ret	 4
??0bad_alloc@std@@QAE@PBD@Z ENDP			; std::bad_alloc::bad_alloc
_TEXT	ENDS
PUBLIC	??1bad_alloc@std@@UAE@XZ			; std::bad_alloc::~bad_alloc
EXTRN	??1exception@std@@UAE@XZ:PROC			; std::exception::~exception
; Function compile flags: /Ogtpy
;	COMDAT ??1bad_alloc@std@@UAE@XZ
_TEXT	SEGMENT
??1bad_alloc@std@@UAE@XZ PROC				; std::bad_alloc::~bad_alloc, COMDAT
; _this$ = ecx

; 380  : 		{	// destroy the object

  00000	c7 01 00 00 00
	00		 mov	 DWORD PTR [ecx], OFFSET ??_7bad_alloc@std@@6B@

; 381  : 		}

  00006	e9 00 00 00 00	 jmp	 ??1exception@std@@UAE@XZ ; std::exception::~exception
??1bad_alloc@std@@UAE@XZ ENDP				; std::bad_alloc::~bad_alloc
_TEXT	ENDS
EXTRN	??3@YAXPAX@Z:PROC				; operator delete
; Function compile flags: /Ogtpy
;	COMDAT ??_Gbad_alloc@std@@UAEPAXI@Z
_TEXT	SEGMENT
___flags$ = 8						; size = 4
??_Gbad_alloc@std@@UAEPAXI@Z PROC			; std::bad_alloc::`scalar deleting destructor', COMDAT
; _this$ = ecx
  00000	56		 push	 esi
  00001	8b f1		 mov	 esi, ecx
  00003	c7 06 00 00 00
	00		 mov	 DWORD PTR [esi], OFFSET ??_7bad_alloc@std@@6B@
  00009	e8 00 00 00 00	 call	 ??1exception@std@@UAE@XZ ; std::exception::~exception
  0000e	f6 44 24 08 01	 test	 BYTE PTR ___flags$[esp], 1
  00013	74 09		 je	 SHORT $LN6@scalar
  00015	56		 push	 esi
  00016	e8 00 00 00 00	 call	 ??3@YAXPAX@Z		; operator delete
  0001b	83 c4 04	 add	 esp, 4
$LN6@scalar:
  0001e	8b c6		 mov	 eax, esi
  00020	5e		 pop	 esi
  00021	c2 04 00	 ret	 4
??_Gbad_alloc@std@@UAEPAXI@Z ENDP			; std::bad_alloc::`scalar deleting destructor'
_TEXT	ENDS
PUBLIC	??2@YAPAXIPAX@Z					; operator new
; Function compile flags: /Ogtpy
; File d:\program files\microsoft visual studio 8\vc\include\new
;	COMDAT ??2@YAPAXIPAX@Z
_TEXT	SEGMENT
___formal$ = 8						; size = 4
__Where$ = 12						; size = 4
??2@YAPAXIPAX@Z PROC					; operator new, COMDAT

; 60   : 	return (_Where);

  00000	8b 44 24 08	 mov	 eax, DWORD PTR __Where$[esp-4]

; 61   : 	}

  00004	c3		 ret	 0
??2@YAPAXIPAX@Z ENDP					; operator new
_TEXT	ENDS
PUBLIC	??3@YAXPAX0@Z					; operator delete
; Function compile flags: /Ogtpy
;	COMDAT ??3@YAXPAX0@Z
_TEXT	SEGMENT
___formal$ = 8						; size = 4
___formal$ = 12						; size = 4
??3@YAXPAX0@Z PROC					; operator delete, COMDAT

; 65   : 	}

  00000	c3		 ret	 0
??3@YAXPAX0@Z ENDP					; operator delete
_TEXT	ENDS
PUBLIC	??0id@locale@std@@QAE@I@Z			; std::locale::id::id
; Function compile flags: /Ogtpy
; File d:\program files\microsoft visual studio 8\vc\include\xlocale
;	COMDAT ??0id@locale@std@@QAE@I@Z
_TEXT	SEGMENT
__Val$ = 8						; size = 4
??0id@locale@std@@QAE@I@Z PROC				; std::locale::id::id, COMDAT
; _this$ = ecx

; 73   : 			{	// construct with specified stamp value

  00000	8b c1		 mov	 eax, ecx
  00002	8b 4c 24 04	 mov	 ecx, DWORD PTR __Val$[esp-4]
  00006	89 08		 mov	 DWORD PTR [eax], ecx

; 74   : 			}

  00008	c2 04 00	 ret	 4
??0id@locale@std@@QAE@I@Z ENDP				; std::locale::id::id
_TEXT	ENDS
PUBLIC	??_7CGameEvent@@6B@				; CGameEvent::`vftable'
PUBLIC	??0CGameEvent@@QAE@XZ				; CGameEvent::CGameEvent
PUBLIC	??_R4CGameEvent@@6B@				; CGameEvent::`RTTI Complete Object Locator'
PUBLIC	??_R0?AVCGameEvent@@@8				; CGameEvent `RTTI Type Descriptor'
PUBLIC	??_R3CGameEvent@@8				; CGameEvent::`RTTI Class Hierarchy Descriptor'
PUBLIC	??_R2CGameEvent@@8				; CGameEvent::`RTTI Base Class Array'
PUBLIC	??_R1A@?0A@EA@CGameEvent@@8			; CGameEvent::`RTTI Base Class Descriptor at (0,-1,0,64)'
EXTRN	__purecall:PROC
;	COMDAT ??_R1A@?0A@EA@CGameEvent@@8
rdata$r	SEGMENT
??_R1A@?0A@EA@CGameEvent@@8 DD FLAT:??_R0?AVCGameEvent@@@8 ; CGameEvent::`RTTI Base Class Descriptor at (0,-1,0,64)'
	DD	00H
	DD	00H
	DD	0ffffffffH
	DD	00H
	DD	040H
	DD	FLAT:??_R3CGameEvent@@8
rdata$r	ENDS
;	COMDAT ??_R2CGameEvent@@8
rdata$r	SEGMENT
??_R2CGameEvent@@8 DD FLAT:??_R1A@?0A@EA@CGameEvent@@8	; CGameEvent::`RTTI Base Class Array'
rdata$r	ENDS
;	COMDAT ??_R3CGameEvent@@8
rdata$r	SEGMENT
??_R3CGameEvent@@8 DD 00H				; CGameEvent::`RTTI Class Hierarchy Descriptor'
	DD	00H
	DD	01H
	DD	FLAT:??_R2CGameEvent@@8
rdata$r	ENDS
;	COMDAT ??_R0?AVCGameEvent@@@8
_DATA	SEGMENT
??_R0?AVCGameEvent@@@8 DD FLAT:??_7type_info@@6B@	; CGameEvent `RTTI Type Descriptor'
	DD	00H
	DB	'.?AVCGameEvent@@', 00H
_DATA	ENDS
;	COMDAT ??_R4CGameEvent@@6B@
rdata$r	SEGMENT
??_R4CGameEvent@@6B@ DD 00H				; CGameEvent::`RTTI Complete Object Locator'
	DD	00H
	DD	00H
	DD	FLAT:??_R0?AVCGameEvent@@@8
	DD	FLAT:??_R3CGameEvent@@8
rdata$r	ENDS
;	COMDAT ??_7CGameEvent@@6B@
CONST	SEGMENT
??_7CGameEvent@@6B@ DD FLAT:??_R4CGameEvent@@6B@	; CGameEvent::`vftable'
	DD	FLAT:__purecall
	DD	FLAT:__purecall
	DD	FLAT:__purecall
	DD	FLAT:__purecall
; Function compile flags: /Ogtpy
CONST	ENDS
;	COMDAT ??0CGameEvent@@QAE@XZ
_TEXT	SEGMENT
??0CGameEvent@@QAE@XZ PROC				; CGameEvent::CGameEvent, COMDAT
; _this$ = ecx
  00000	8b c1		 mov	 eax, ecx
  00002	c7 00 00 00 00
	00		 mov	 DWORD PTR [eax], OFFSET ??_7CGameEvent@@6B@
  00008	c3		 ret	 0
??0CGameEvent@@QAE@XZ ENDP				; CGameEvent::CGameEvent
_TEXT	ENDS
PUBLIC	??1CGUID@@QAE@XZ				; CGUID::~CGUID
; Function compile flags: /Ogtpy
; File d:\project_p6\trunk\public\module\guid.h
;	COMDAT ??1CGUID@@QAE@XZ
_TEXT	SEGMENT
??1CGUID@@QAE@XZ PROC					; CGUID::~CGUID, COMDAT
; _this$ = ecx

; 45   : 	}

  00000	c3		 ret	 0
??1CGUID@@QAE@XZ ENDP					; CGUID::~CGUID
_TEXT	ENDS
PUBLIC	??4CGUID@@QAEAAV0@ABV0@@Z			; CGUID::operator=
; Function compile flags: /Ogtpy
;	COMDAT ??4CGUID@@QAEAAV0@ABV0@@Z
_TEXT	SEGMENT
_guid$ = 8						; size = 4
??4CGUID@@QAEAAV0@ABV0@@Z PROC				; CGUID::operator=, COMDAT
; _this$ = ecx

; 48   : 	{

  00000	8b c1		 mov	 eax, ecx

; 49   : 		if( &guid != this )

  00002	8b 4c 24 04	 mov	 ecx, DWORD PTR _guid$[esp-4]
  00006	3b c8		 cmp	 ecx, eax
  00008	74 12		 je	 SHORT $LN1@operator

; 50   : 			memcpy(this, &guid, sizeof(CGUID));

  0000a	f3 0f 7e 01	 movq	 xmm0, QWORD PTR [ecx]
  0000e	66 0f d6 00	 movq	 QWORD PTR [eax], xmm0
  00012	f3 0f 7e 41 08	 movq	 xmm0, QWORD PTR [ecx+8]
  00017	66 0f d6 40 08	 movq	 QWORD PTR [eax+8], xmm0
$LN1@operator:

; 51   : 		return *this;
; 52   : 	}

  0001c	c2 04 00	 ret	 4
??4CGUID@@QAEAAV0@ABV0@@Z ENDP				; CGUID::operator=
_TEXT	ENDS
PUBLIC	??MCGUID@@QBE_NABV0@@Z				; CGUID::operator<
; Function compile flags: /Ogtpy
;	COMDAT ??MCGUID@@QBE_NABV0@@Z
_TEXT	SEGMENT
_guid$ = 8						; size = 4
??MCGUID@@QBE_NABV0@@Z PROC				; CGUID::operator<, COMDAT
; _this$ = ecx

; 69   : 		if( ((ulong *)this)[0] < ((ulong *)&guid)[0] )

  00000	8b 44 24 04	 mov	 eax, DWORD PTR _guid$[esp-4]
  00004	8b 11		 mov	 edx, DWORD PTR [ecx]
  00006	56		 push	 esi
  00007	8b 30		 mov	 esi, DWORD PTR [eax]
  00009	3b d6		 cmp	 edx, esi
  0000b	73 06		 jae	 SHORT $LN13@operator@2
$LN16@operator@2:

; 70   : 			return true;

  0000d	b0 01		 mov	 al, 1
  0000f	5e		 pop	 esi

; 85   : 	}

  00010	c2 04 00	 ret	 4
$LN13@operator@2:

; 71   : 		else if( ((ulong *)this)[0] == ((ulong *)&guid)[0] )

  00013	75 20		 jne	 SHORT $LN1@operator@2

; 72   : 		{
; 73   : 			if(( (ulong *)this)[1] < ((ulong *)&guid)[1] )

  00015	8b 51 04	 mov	 edx, DWORD PTR [ecx+4]
  00018	8b 70 04	 mov	 esi, DWORD PTR [eax+4]
  0001b	3b d6		 cmp	 edx, esi

; 74   : 				return true;

  0001d	72 ee		 jb	 SHORT $LN16@operator@2

; 75   : 			else if( ((ulong *)this)[1] == ((ulong *)&guid)[1])

  0001f	75 14		 jne	 SHORT $LN1@operator@2

; 76   : 			{
; 77   : 				if( ((ulong *)this)[2] < ((ulong *)&guid)[2] )

  00021	8b 51 08	 mov	 edx, DWORD PTR [ecx+8]
  00024	8b 70 08	 mov	 esi, DWORD PTR [eax+8]
  00027	3b d6		 cmp	 edx, esi

; 78   : 					return true;

  00029	72 e2		 jb	 SHORT $LN16@operator@2

; 79   : 				else if( ((ulong *)this)[2] == ((ulong *)&guid)[2])

  0002b	75 08		 jne	 SHORT $LN1@operator@2

; 80   : 					if( ((ulong *)this)[3] < ((ulong *)&guid)[3] )

  0002d	8b 49 0c	 mov	 ecx, DWORD PTR [ecx+12]
  00030	3b 48 0c	 cmp	 ecx, DWORD PTR [eax+12]

; 81   : 						return true;

  00033	72 d8		 jb	 SHORT $LN16@operator@2
$LN1@operator@2:

; 82   : 			}
; 83   : 		}
; 84   : 		return false;

  00035	32 c0		 xor	 al, al
  00037	5e		 pop	 esi

; 85   : 	}

  00038	c2 04 00	 ret	 4
??MCGUID@@QBE_NABV0@@Z ENDP				; CGUID::operator<
_TEXT	ENDS
PUBLIC	??Rguid_compare@@QBE_NABVCGUID@@0@Z		; guid_compare::operator()
; Function compile flags: /Ogtpy
;	COMDAT ??Rguid_compare@@QBE_NABVCGUID@@0@Z
_TEXT	SEGMENT
_Key1$ = 8						; size = 4
_Key2$ = 12						; size = 4
??Rguid_compare@@QBE_NABVCGUID@@0@Z PROC		; guid_compare::operator(), COMDAT
; _this$ = ecx

; 115  : 		if(Key1 < Key2)

  00000	8b 44 24 04	 mov	 eax, DWORD PTR _Key1$[esp-4]
  00004	8b 4c 24 08	 mov	 ecx, DWORD PTR _Key2$[esp-4]
  00008	8b 10		 mov	 edx, DWORD PTR [eax]
  0000a	56		 push	 esi
  0000b	8b 31		 mov	 esi, DWORD PTR [ecx]
  0000d	3b d6		 cmp	 edx, esi
  0000f	72 22		 jb	 SHORT $LN16@operator@3
  00011	75 26		 jne	 SHORT $LN1@operator@3
  00013	8b 50 04	 mov	 edx, DWORD PTR [eax+4]
  00016	8b 71 04	 mov	 esi, DWORD PTR [ecx+4]
  00019	3b d6		 cmp	 edx, esi
  0001b	72 16		 jb	 SHORT $LN16@operator@3
  0001d	75 1a		 jne	 SHORT $LN1@operator@3
  0001f	8b 50 08	 mov	 edx, DWORD PTR [eax+8]
  00022	8b 71 08	 mov	 esi, DWORD PTR [ecx+8]
  00025	3b d6		 cmp	 edx, esi
  00027	72 0a		 jb	 SHORT $LN16@operator@3
  00029	75 0e		 jne	 SHORT $LN1@operator@3
  0002b	8b 40 0c	 mov	 eax, DWORD PTR [eax+12]
  0002e	3b 41 0c	 cmp	 eax, DWORD PTR [ecx+12]
  00031	73 06		 jae	 SHORT $LN1@operator@3
$LN16@operator@3:

; 116  : 			return true;

  00033	b0 01		 mov	 al, 1
  00035	5e		 pop	 esi

; 118  : 	}

  00036	c2 08 00	 ret	 8
$LN1@operator@3:

; 117  : 		return false;

  00039	32 c0		 xor	 al, al
  0003b	5e		 pop	 esi

; 118  : 	}

  0003c	c2 08 00	 ret	 8
??Rguid_compare@@QBE_NABVCGUID@@0@Z ENDP		; guid_compare::operator()
_TEXT	ENDS
PUBLIC	??Rhash_guid_compare@@QBEIABVCGUID@@@Z		; hash_guid_compare::operator()
; Function compile flags: /Ogtpy
;	COMDAT ??Rhash_guid_compare@@QBEIABVCGUID@@@Z
_TEXT	SEGMENT
_Key$ = 8						; size = 4
??Rhash_guid_compare@@QBEIABVCGUID@@@Z PROC		; hash_guid_compare::operator(), COMDAT
; _this$ = ecx

; 130  : 		return ((ulong *) &Key)[0] + ((ulong *) &Key)[1] +
; 131  : 			((ulong *) &Key)[2] + ((ulong *) &Key)[3];

  00000	8b 4c 24 04	 mov	 ecx, DWORD PTR _Key$[esp-4]
  00004	8b 41 0c	 mov	 eax, DWORD PTR [ecx+12]
  00007	03 41 08	 add	 eax, DWORD PTR [ecx+8]
  0000a	03 41 04	 add	 eax, DWORD PTR [ecx+4]
  0000d	03 01		 add	 eax, DWORD PTR [ecx]

; 132  : 	}

  0000f	c2 04 00	 ret	 4
??Rhash_guid_compare@@QBEIABVCGUID@@@Z ENDP		; hash_guid_compare::operator()
_TEXT	ENDS
PUBLIC	??Rhash_guid_compare@@QBE_NABVCGUID@@0@Z	; hash_guid_compare::operator()
; Function compile flags: /Ogtpy
;	COMDAT ??Rhash_guid_compare@@QBE_NABVCGUID@@0@Z
_TEXT	SEGMENT
__Key1$ = 8						; size = 4
__Key2$ = 12						; size = 4
??Rhash_guid_compare@@QBE_NABVCGUID@@0@Z PROC		; hash_guid_compare::operator(), COMDAT
; _this$ = ecx

; 136  : 		return comp(_Key1,_Key2);

  00000	8b 44 24 04	 mov	 eax, DWORD PTR __Key1$[esp-4]
  00004	8b 4c 24 08	 mov	 ecx, DWORD PTR __Key2$[esp-4]
  00008	8b 10		 mov	 edx, DWORD PTR [eax]
  0000a	56		 push	 esi
  0000b	8b 31		 mov	 esi, DWORD PTR [ecx]
  0000d	3b d6		 cmp	 edx, esi
  0000f	72 22		 jb	 SHORT $LN18@operator@4
  00011	75 26		 jne	 SHORT $LN3@operator@4
  00013	8b 50 04	 mov	 edx, DWORD PTR [eax+4]
  00016	8b 71 04	 mov	 esi, DWORD PTR [ecx+4]
  00019	3b d6		 cmp	 edx, esi
  0001b	72 16		 jb	 SHORT $LN18@operator@4
  0001d	75 1a		 jne	 SHORT $LN3@operator@4
  0001f	8b 50 08	 mov	 edx, DWORD PTR [eax+8]
  00022	8b 71 08	 mov	 esi, DWORD PTR [ecx+8]
  00025	3b d6		 cmp	 edx, esi
  00027	72 0a		 jb	 SHORT $LN18@operator@4
  00029	75 0e		 jne	 SHORT $LN3@operator@4
  0002b	8b 40 0c	 mov	 eax, DWORD PTR [eax+12]
  0002e	3b 41 0c	 cmp	 eax, DWORD PTR [ecx+12]
  00031	73 06		 jae	 SHORT $LN3@operator@4
$LN18@operator@4:
  00033	b0 01		 mov	 al, 1
  00035	5e		 pop	 esi

; 137  : 	}

  00036	c2 08 00	 ret	 8

; 136  : 		return comp(_Key1,_Key2);

$LN3@operator@4:
  00039	32 c0		 xor	 al, al
  0003b	5e		 pop	 esi

; 137  : 	}

  0003c	c2 08 00	 ret	 8
??Rhash_guid_compare@@QBE_NABVCGUID@@0@Z ENDP		; hash_guid_compare::operator()
_TEXT	ENDS
PUBLIC	?GetSetup@GlobalSetup@@SAPAUtagSetup@1@XZ	; GlobalSetup::GetSetup
EXTRN	?m_stSetup@GlobalSetup@@0UtagSetup@1@A:BYTE	; GlobalSetup::m_stSetup
; Function compile flags: /Ogtpy
; File d:\project_p6\trunk\public\setup\globalsetup.h
;	COMDAT ?GetSetup@GlobalSetup@@SAPAUtagSetup@1@XZ
_TEXT	SEGMENT
?GetSetup@GlobalSetup@@SAPAUtagSetup@1@XZ PROC		; GlobalSetup::GetSetup, COMDAT

; 599  : 	static tagSetup* GetSetup()	{return &m_stSetup;}

  00000	b8 00 00 00 00	 mov	 eax, OFFSET ?m_stSetup@GlobalSetup@@0UtagSetup@1@A ; GlobalSetup::m_stSetup
  00005	c3		 ret	 0
?GetSetup@GlobalSetup@@SAPAUtagSetup@1@XZ ENDP		; GlobalSetup::GetSetup
_TEXT	ENDS
PUBLIC	??0LockOfWinWhileSleep@XM_Tools@@QAE@XZ		; XM_Tools::LockOfWinWhileSleep::LockOfWinWhileSleep
; Function compile flags: /Ogtpy
; File d:\project_p6\trunk\public\memmanage\lock.h
;	COMDAT ??0LockOfWinWhileSleep@XM_Tools@@QAE@XZ
_TEXT	SEGMENT
??0LockOfWinWhileSleep@XM_Tools@@QAE@XZ PROC		; XM_Tools::LockOfWinWhileSleep::LockOfWinWhileSleep, COMDAT
; _this$ = ecx

; 73   : 		LockOfWinWhileSleep(void):m_lLockFlag(0), m_lWaitCount(0){}

  00000	8b c1		 mov	 eax, ecx
  00002	33 c9		 xor	 ecx, ecx
  00004	89 48 20	 mov	 DWORD PTR [eax+32], ecx
  00007	89 48 24	 mov	 DWORD PTR [eax+36], ecx
  0000a	c3		 ret	 0
??0LockOfWinWhileSleep@XM_Tools@@QAE@XZ ENDP		; XM_Tools::LockOfWinWhileSleep::LockOfWinWhileSleep
_TEXT	ENDS
PUBLIC	??1LockOfWinWhileSleep@XM_Tools@@QAE@XZ		; XM_Tools::LockOfWinWhileSleep::~LockOfWinWhileSleep
; Function compile flags: /Ogtpy
;	COMDAT ??1LockOfWinWhileSleep@XM_Tools@@QAE@XZ
_TEXT	SEGMENT
??1LockOfWinWhileSleep@XM_Tools@@QAE@XZ PROC		; XM_Tools::LockOfWinWhileSleep::~LockOfWinWhileSleep, COMDAT
; _this$ = ecx

; 74   : 		~LockOfWinWhileSleep(void)	{}

  00000	c3		 ret	 0
??1LockOfWinWhileSleep@XM_Tools@@QAE@XZ ENDP		; XM_Tools::LockOfWinWhileSleep::~LockOfWinWhileSleep
_TEXT	ENDS
PUBLIC	?Lock@LockOfWinWhileSleep@XM_Tools@@QAEXXZ	; XM_Tools::LockOfWinWhileSleep::Lock
EXTRN	__imp__InterlockedDecrement@4:PROC
EXTRN	__imp__InterlockedIncrement@4:PROC
EXTRN	__imp__Sleep@4:PROC
EXTRN	__imp__InterlockedCompareExchange@12:PROC
; Function compile flags: /Ogtpy
;	COMDAT ?Lock@LockOfWinWhileSleep@XM_Tools@@QAEXXZ
_TEXT	SEGMENT
?Lock@LockOfWinWhileSleep@XM_Tools@@QAEXXZ PROC		; XM_Tools::LockOfWinWhileSleep::Lock, COMDAT
; _this$ = ecx

; 78   : 		{

  00000	53		 push	 ebx
  00001	55		 push	 ebp

; 79   : 			bool bIncrement = false;
; 80   : 			while(1 == InterlockedCompareExchange(&m_lLockFlag, 1, 0))

  00002	8b 2d 00 00 00
	00		 mov	 ebp, DWORD PTR __imp__InterlockedCompareExchange@12
  00008	56		 push	 esi
  00009	57		 push	 edi
  0000a	6a 00		 push	 0
  0000c	8b f9		 mov	 edi, ecx
  0000e	6a 01		 push	 1
  00010	8d 77 20	 lea	 esi, DWORD PTR [edi+32]
  00013	56		 push	 esi
  00014	32 db		 xor	 bl, bl
  00016	ff d5		 call	 ebp
  00018	83 f8 01	 cmp	 eax, 1
  0001b	75 3f		 jne	 SHORT $LN1@Lock
  0001d	8d 49 00	 npad	 3
$LL7@Lock:

; 81   : 			{
; 82   : 				if(bIncrement || 2 > m_lWaitCount)

  00020	84 db		 test	 bl, bl
  00022	75 1c		 jne	 SHORT $LN3@Lock
  00024	83 7f 24 02	 cmp	 DWORD PTR [edi+36], 2
  00028	8d 47 24	 lea	 eax, DWORD PTR [edi+36]
  0002b	7c 0a		 jl	 SHORT $LN11@Lock

; 90   : 				}
; 91   : 				else
; 92   : 					Sleep(1);

  0002d	6a 01		 push	 1
  0002f	ff 15 00 00 00
	00		 call	 DWORD PTR __imp__Sleep@4
  00035	eb 0b		 jmp	 SHORT $LN2@Lock
$LN11@Lock:

; 83   : 				{
; 84   : 					if(!bIncrement)
; 85   : 					{
; 86   : 						InterlockedIncrement(&m_lWaitCount);

  00037	50		 push	 eax
  00038	ff 15 00 00 00
	00		 call	 DWORD PTR __imp__InterlockedIncrement@4

; 87   : 						bIncrement = true;

  0003e	b3 01		 mov	 bl, 1
$LN3@Lock:

; 88   : 					}
; 89   : 					__asm rep nop

  00040	f3 90		 rep	  npad	 1
$LN2@Lock:

; 79   : 			bool bIncrement = false;
; 80   : 			while(1 == InterlockedCompareExchange(&m_lLockFlag, 1, 0))

  00042	6a 00		 push	 0
  00044	6a 01		 push	 1
  00046	56		 push	 esi
  00047	ff d5		 call	 ebp
  00049	83 f8 01	 cmp	 eax, 1
  0004c	74 d2		 je	 SHORT $LL7@Lock

; 93   : 			}
; 94   : 
; 95   : 			if(bIncrement)

  0004e	84 db		 test	 bl, bl
  00050	74 0a		 je	 SHORT $LN1@Lock

; 96   : 				InterlockedDecrement(&m_lWaitCount);

  00052	83 c7 24	 add	 edi, 36			; 00000024H
  00055	57		 push	 edi
  00056	ff 15 00 00 00
	00		 call	 DWORD PTR __imp__InterlockedDecrement@4
$LN1@Lock:
  0005c	5f		 pop	 edi
  0005d	5e		 pop	 esi
  0005e	5d		 pop	 ebp
  0005f	5b		 pop	 ebx

; 97   : 		}

  00060	c3		 ret	 0
?Lock@LockOfWinWhileSleep@XM_Tools@@QAEXXZ ENDP		; XM_Tools::LockOfWinWhileSleep::Lock
_TEXT	ENDS
PUBLIC	?UnLock@LockOfWinWhileSleep@XM_Tools@@QAEXXZ	; XM_Tools::LockOfWinWhileSleep::UnLock
; Function compile flags: /Ogtpy
;	COMDAT ?UnLock@LockOfWinWhileSleep@XM_Tools@@QAEXXZ
_TEXT	SEGMENT
?UnLock@LockOfWinWhileSleep@XM_Tools@@QAEXXZ PROC	; XM_Tools::LockOfWinWhileSleep::UnLock, COMDAT
; _this$ = ecx

; 101  : 			if(0 == InterlockedCompareExchange(&m_lLockFlag, 0, 1))

  00000	6a 01		 push	 1
  00002	6a 00		 push	 0
  00004	83 c1 20	 add	 ecx, 32			; 00000020H
  00007	51		 push	 ecx
  00008	ff 15 00 00 00
	00		 call	 DWORD PTR __imp__InterlockedCompareExchange@12

; 102  : 			{
; 103  : 				assert(false);
; 104  : 			}
; 105  : 		}

  0000e	c3		 ret	 0
?UnLock@LockOfWinWhileSleep@XM_Tools@@QAEXXZ ENDP	; XM_Tools::LockOfWinWhileSleep::UnLock
_TEXT	ENDS
PUBLIC	?SNAP_TO_GRID@XM_Tools@@YAKKK@Z			; XM_Tools::SNAP_TO_GRID
; Function compile flags: /Ogtpy
; File d:\project_p6\trunk\public\memmanage\include\mmdef.h
;	COMDAT ?SNAP_TO_GRID@XM_Tools@@YAKKK@Z
_TEXT	SEGMENT
_uSrcNum$ = 8						; size = 4
_uGrid$ = 12						; size = 4
?SNAP_TO_GRID@XM_Tools@@YAKKK@Z PROC			; XM_Tools::SNAP_TO_GRID, COMDAT

; 108  : 		return (uSrcNum / uGrid + ((uSrcNum % uGrid) ? 1 : 0)) * uGrid;

  00000	8b 4c 24 08	 mov	 ecx, DWORD PTR _uGrid$[esp-4]
  00004	8b 44 24 04	 mov	 eax, DWORD PTR _uSrcNum$[esp-4]
  00008	33 d2		 xor	 edx, edx
  0000a	f7 f1		 div	 ecx
  0000c	56		 push	 esi
  0000d	8b f0		 mov	 esi, eax
  0000f	33 c0		 xor	 eax, eax
  00011	85 d2		 test	 edx, edx
  00013	0f 95 c0	 setne	 al
  00016	03 c6		 add	 eax, esi
  00018	0f af c1	 imul	 eax, ecx
  0001b	5e		 pop	 esi

; 109  : 	}

  0001c	c3		 ret	 0
?SNAP_TO_GRID@XM_Tools@@YAKKK@Z ENDP			; XM_Tools::SNAP_TO_GRID
_TEXT	ENDS
PUBLIC	?GetNext@?$CListNode@X@XM_Tools@@QAEPAV12@XZ	; XM_Tools::CListNode<void>::GetNext
; Function compile flags: /Ogtpy
; File d:\project_p6\trunk\public\memmanage\include\memlist.h
;	COMDAT ?GetNext@?$CListNode@X@XM_Tools@@QAEPAV12@XZ
_TEXT	SEGMENT
?GetNext@?$CListNode@X@XM_Tools@@QAEPAV12@XZ PROC	; XM_Tools::CListNode<void>::GetNext, COMDAT
; _this$ = ecx

; 62   : 		inline CListNode*		GetNext(void)					{return m_pNext;}

  00000	8b 01		 mov	 eax, DWORD PTR [ecx]
  00002	c3		 ret	 0
?GetNext@?$CListNode@X@XM_Tools@@QAEPAV12@XZ ENDP	; XM_Tools::CListNode<void>::GetNext
_TEXT	ENDS
PUBLIC	?SetNext@?$CListNode@X@XM_Tools@@QAEXPAV12@@Z	; XM_Tools::CListNode<void>::SetNext
; Function compile flags: /Ogtpy
;	COMDAT ?SetNext@?$CListNode@X@XM_Tools@@QAEXPAV12@@Z
_TEXT	SEGMENT
_pNext$ = 8						; size = 4
?SetNext@?$CListNode@X@XM_Tools@@QAEXPAV12@@Z PROC	; XM_Tools::CListNode<void>::SetNext, COMDAT
; _this$ = ecx

; 63   : 		inline void				SetNext(CListNode<void> *pNext)	{m_pNext = pNext;}

  00000	8b 44 24 04	 mov	 eax, DWORD PTR _pNext$[esp-4]
  00004	89 01		 mov	 DWORD PTR [ecx], eax
  00006	c2 04 00	 ret	 4
?SetNext@?$CListNode@X@XM_Tools@@QAEXPAV12@@Z ENDP	; XM_Tools::CListNode<void>::SetNext
_TEXT	ENDS
PUBLIC	?GetStatckFileName@CGame@@QAEPBDXZ		; CGame::GetStatckFileName
; Function compile flags: /Ogtpy
; File d:\project_p6\trunk\server\gameserver\server\game.h
;	COMDAT ?GetStatckFileName@CGame@@QAEPBDXZ
_TEXT	SEGMENT
?GetStatckFileName@CGame@@QAEPBDXZ PROC			; CGame::GetStatckFileName, COMDAT
; _this$ = ecx

; 248  :     const char* GetStatckFileName()	{return m_pszRunStackFile;}

  00000	8d 81 91 00 00
	00		 lea	 eax, DWORD PTR [ecx+145]
  00006	c3		 ret	 0
?GetStatckFileName@CGame@@QAEPBDXZ ENDP			; CGame::GetStatckFileName
_TEXT	ENDS
PUBLIC	?size@?$basic_string@DU?$char_traits@D@std@@V?$allocator@D@2@@std@@QBEIXZ ; std::basic_string<char,std::char_traits<char>,std::allocator<char> >::size
; Function compile flags: /Ogtpy
; File d:\program files\microsoft visual studio 8\vc\include\xstring
;	COMDAT ?size@?$basic_string@DU?$char_traits@D@std@@V?$allocator@D@2@@std@@QBEIXZ
_TEXT	SEGMENT
?size@?$basic_string@DU?$char_traits@D@std@@V?$allocator@D@2@@std@@QBEIXZ PROC ; std::basic_string<char,std::char_traits<char>,std::allocator<char> >::size, COMDAT
; _this$ = ecx

; 1637 : 		return (_Mysize);

  00000	8b 41 14	 mov	 eax, DWORD PTR [ecx+20]

; 1638 : 		}

  00003	c3		 ret	 0
?size@?$basic_string@DU?$char_traits@D@std@@V?$allocator@D@2@@std@@QBEIXZ ENDP ; std::basic_string<char,std::char_traits<char>,std::allocator<char> >::size
_TEXT	ENDS
PUBLIC	?GetRgnManager@GameManager@@QAEPAVCRgnManager@@XZ ; GameManager::GetRgnManager
; Function compile flags: /Ogtpy
; File d:\project_p6\trunk\server\gameserver\server\gamemanager.cpp
;	COMDAT ?GetRgnManager@GameManager@@QAEPAVCRgnManager@@XZ
_TEXT	SEGMENT
?GetRgnManager@GameManager@@QAEPAVCRgnManager@@XZ PROC	; GameManager::GetRgnManager, COMDAT
; _this$ = ecx

; 110  : 	return g_RgnManager;

  00000	8b 41 48	 mov	 eax, DWORD PTR [ecx+72]

; 111  : }

  00003	c3		 ret	 0
?GetRgnManager@GameManager@@QAEPAVCRgnManager@@XZ ENDP	; GameManager::GetRgnManager
_TEXT	ENDS
PUBLIC	?GetMailManager@GameManager@@QAEPAVCMailManager@@XZ ; GameManager::GetMailManager
; Function compile flags: /Ogtpy
;	COMDAT ?GetMailManager@GameManager@@QAEPAVCMailManager@@XZ
_TEXT	SEGMENT
?GetMailManager@GameManager@@QAEPAVCMailManager@@XZ PROC ; GameManager::GetMailManager, COMDAT
; _this$ = ecx

; 114  : 	return g_MailManager;

  00000	8b 41 4c	 mov	 eax, DWORD PTR [ecx+76]

; 115  : }

  00003	c3		 ret	 0
?GetMailManager@GameManager@@QAEPAVCMailManager@@XZ ENDP ; GameManager::GetMailManager
_TEXT	ENDS
PUBLIC	?SetPolicy@GameManager@@QAEXXZ			; GameManager::SetPolicy
; Function compile flags: /Ogtpy
;	COMDAT ?SetPolicy@GameManager@@QAEXXZ
_TEXT	SEGMENT
?SetPolicy@GameManager@@QAEXXZ PROC			; GameManager::SetPolicy, COMDAT
; _this$ = ecx

; 142  : 	GlobalSetup::tagSetup *pSetup = GlobalSetup::GetSetup();
; 143  : 	//m_MultiMemPool.SetInitialTileNum(sizeof(CMonster),			pSetup->Monster_Policy.ObjNum * pSetup->Monster_Policy.blockNum);
; 144  : 	//m_MultiMemPool.SetInitialTileNum(sizeof(CPlayer),			pSetup->Player_Policy.ObjNum * pSetup->Player_Policy.blockNum);
; 145  : }

  00000	c3		 ret	 0
?SetPolicy@GameManager@@QAEXXZ ENDP			; GameManager::SetPolicy
_TEXT	ENDS
PUBLIC	?CreateBlock@GameManager@@QAEPAXJ@Z		; GameManager::CreateBlock
; Function compile flags: /Ogtpy
;	COMDAT ?CreateBlock@GameManager@@QAEPAXJ@Z
_TEXT	SEGMENT
_lSize$ = 8						; size = 4
?CreateBlock@GameManager@@QAEPAXJ@Z PROC		; GameManager::CreateBlock, COMDAT
; _this$ = ecx

; 288  : 	//if (0 < lSize)
; 289  : 	//	return m_MultiMemPool.Multi_Alloc(lSize, _FILE_AND_LINE_);
; 290  : 	return NULL;

  00000	33 c0		 xor	 eax, eax

; 291  : }

  00002	c2 04 00	 ret	 4
?CreateBlock@GameManager@@QAEPAXJ@Z ENDP		; GameManager::CreateBlock
_TEXT	ENDS
PUBLIC	?FreeBlock@GameManager@@QAEXPAXJ@Z		; GameManager::FreeBlock
; Function compile flags: /Ogtpy
;	COMDAT ?FreeBlock@GameManager@@QAEXPAXJ@Z
_TEXT	SEGMENT
_pBlock$ = 8						; size = 4
_lSize$ = 12						; size = 4
?FreeBlock@GameManager@@QAEXPAXJ@Z PROC			; GameManager::FreeBlock, COMDAT
; _this$ = ecx

; 297  : 	//m_MultiMemPool.Multi_Free(pBlock, lSize);
; 298  : }

  00000	c2 08 00	 ret	 8
?FreeBlock@GameManager@@QAEXPAXJ@Z ENDP			; GameManager::FreeBlock
_TEXT	ENDS
PUBLIC	?AllocMonster@@YAPAVCMonster@@XZ		; AllocMonster
; Function compile flags: /Ogtpy
;	COMDAT ?AllocMonster@@YAPAVCMonster@@XZ
_TEXT	SEGMENT
?AllocMonster@@YAPAVCMonster@@XZ PROC			; AllocMonster, COMDAT

; 302  : 
; 303  : 	return 0;

  00000	33 c0		 xor	 eax, eax

; 304  : }

  00002	c3		 ret	 0
?AllocMonster@@YAPAVCMonster@@XZ ENDP			; AllocMonster
_TEXT	ENDS
PUBLIC	?FreeMoster@@YAXPAVCMonster@@@Z			; FreeMoster
; Function compile flags: /Ogtpy
;	COMDAT ?FreeMoster@@YAXPAVCMonster@@@Z
_TEXT	SEGMENT
___formal$ = 8						; size = 4
?FreeMoster@@YAXPAVCMonster@@@Z PROC			; FreeMoster, COMDAT

; 308  : 
; 309  : }

  00000	c3		 ret	 0
?FreeMoster@@YAXPAVCMonster@@@Z ENDP			; FreeMoster
_TEXT	ENDS
PUBLIC	?AllocGoods@@YAPAVCGoods@@XZ			; AllocGoods
; Function compile flags: /Ogtpy
;	COMDAT ?AllocGoods@@YAPAVCGoods@@XZ
_TEXT	SEGMENT
?AllocGoods@@YAPAVCGoods@@XZ PROC			; AllocGoods, COMDAT

; 314  : 	return 0;

  00000	33 c0		 xor	 eax, eax

; 315  : }

  00002	c3		 ret	 0
?AllocGoods@@YAPAVCGoods@@XZ ENDP			; AllocGoods
_TEXT	ENDS
PUBLIC	?FreeGoods@@YAXPAVCGoods@@@Z			; FreeGoods
; Function compile flags: /Ogtpy
;	COMDAT ?FreeGoods@@YAXPAVCGoods@@@Z
_TEXT	SEGMENT
___formal$ = 8						; size = 4
?FreeGoods@@YAXPAVCGoods@@@Z PROC			; FreeGoods, COMDAT

; 319  : 
; 320  : }

  00000	c3		 ret	 0
?FreeGoods@@YAXPAVCGoods@@@Z ENDP			; FreeGoods
_TEXT	ENDS
PUBLIC	?SendMessageA@GameManager@@AAEXPAVCGameEvent@@KPBX1@Z ; GameManager::SendMessageA
; Function compile flags: /Ogtpy
;	COMDAT ?SendMessageA@GameManager@@AAEXPAVCGameEvent@@KPBX1@Z
_TEXT	SEGMENT
_pGameEvent$ = 8					; size = 4
_type$ = 12						; size = 4
_var1$ = 16						; size = 4
_var2$ = 20						; size = 4
?SendMessageA@GameManager@@AAEXPAVCGameEvent@@KPBX1@Z PROC ; GameManager::SendMessageA, COMDAT
; _this$ = ecx

; 445  : 	if(pGameEvent)
; 446  : 	{
; 447  : 		//pGameEvent->Proc(type,var1,var2);
; 448  : 	}
; 449  : }

  00000	c2 10 00	 ret	 16			; 00000010H
?SendMessageA@GameManager@@AAEXPAVCGameEvent@@KPBX1@Z ENDP ; GameManager::SendMessageA
_TEXT	ENDS
PUBLIC	?_Myptr@?$basic_string@DU?$char_traits@D@std@@V?$allocator@D@2@@std@@IBEPBDXZ ; std::basic_string<char,std::char_traits<char>,std::allocator<char> >::_Myptr
; Function compile flags: /Ogtpy
; File d:\program files\microsoft visual studio 8\vc\include\xstring
;	COMDAT ?_Myptr@?$basic_string@DU?$char_traits@D@std@@V?$allocator@D@2@@std@@IBEPBDXZ
_TEXT	SEGMENT
?_Myptr@?$basic_string@DU?$char_traits@D@std@@V?$allocator@D@2@@std@@IBEPBDXZ PROC ; std::basic_string<char,std::char_traits<char>,std::allocator<char> >::_Myptr, COMDAT
; _this$ = ecx

; 2093 : 		return (_BUF_SIZE <= _Myres ? _Bx._Ptr : _Bx._Buf);

  00000	83 79 18 10	 cmp	 DWORD PTR [ecx+24], 16	; 00000010H
  00004	72 04		 jb	 SHORT $LN3@Myptr
  00006	8b 41 04	 mov	 eax, DWORD PTR [ecx+4]

; 2094 : 		}

  00009	c3		 ret	 0
$LN3@Myptr:

; 2093 : 		return (_BUF_SIZE <= _Myres ? _Bx._Ptr : _Bx._Buf);

  0000a	8d 41 04	 lea	 eax, DWORD PTR [ecx+4]

; 2094 : 		}

  0000d	c3		 ret	 0
?_Myptr@?$basic_string@DU?$char_traits@D@std@@V?$allocator@D@2@@std@@IBEPBDXZ ENDP ; std::basic_string<char,std::char_traits<char>,std::allocator<char> >::_Myptr
_TEXT	ENDS
PUBLIC	??0?$allocator@D@std@@QAE@XZ			; std::allocator<char>::allocator<char>
; Function compile flags: /Ogtpy
; File d:\program files\microsoft visual studio 8\vc\include\xmemory
;	COMDAT ??0?$allocator@D@std@@QAE@XZ
_TEXT	SEGMENT
??0?$allocator@D@std@@QAE@XZ PROC			; std::allocator<char>::allocator<char>, COMDAT
; _this$ = ecx

; 120  : 	allocator() _THROW0()

  00000	8b c1		 mov	 eax, ecx

; 121  : 		{	// construct default allocator (do nothing)
; 122  : 		}

  00002	c3		 ret	 0
??0?$allocator@D@std@@QAE@XZ ENDP			; std::allocator<char>::allocator<char>
_TEXT	ENDS
PUBLIC	?deallocate@?$allocator@D@std@@QAEXPADI@Z	; std::allocator<char>::deallocate
; Function compile flags: /Ogtpy
;	COMDAT ?deallocate@?$allocator@D@std@@QAEXPADI@Z
_TEXT	SEGMENT
__Ptr$ = 8						; size = 4
___formal$ = 12						; size = 4
?deallocate@?$allocator@D@std@@QAEXPADI@Z PROC		; std::allocator<char>::deallocate, COMDAT
; _this$ = ecx

; 141  : 		::operator delete(_Ptr);

  00000	8b 44 24 04	 mov	 eax, DWORD PTR __Ptr$[esp-4]
  00004	50		 push	 eax
  00005	e8 00 00 00 00	 call	 ??3@YAXPAX@Z		; operator delete
  0000a	59		 pop	 ecx

; 142  : 		}

  0000b	c2 08 00	 ret	 8
?deallocate@?$allocator@D@std@@QAEXPADI@Z ENDP		; std::allocator<char>::deallocate
_TEXT	ENDS
PUBLIC	??R?$less@J@std@@QBE_NABJ0@Z			; std::less<long>::operator()
; Function compile flags: /Ogtpy
; File d:\program files\microsoft visual studio 8\vc\include\functional
;	COMDAT ??R?$less@J@std@@QBE_NABJ0@Z
_TEXT	SEGMENT
__Left$ = 8						; size = 4
__Right$ = 12						; size = 4
??R?$less@J@std@@QBE_NABJ0@Z PROC			; std::less<long>::operator(), COMDAT
; _this$ = ecx

; 143  : 		return (_Left < _Right);

  00000	8b 44 24 04	 mov	 eax, DWORD PTR __Left$[esp-4]
  00004	8b 08		 mov	 ecx, DWORD PTR [eax]
  00006	8b 54 24 08	 mov	 edx, DWORD PTR __Right$[esp-4]
  0000a	33 c0		 xor	 eax, eax
  0000c	3b 0a		 cmp	 ecx, DWORD PTR [edx]
  0000e	0f 9c c0	 setl	 al

; 144  : 		}

  00011	c2 08 00	 ret	 8
??R?$less@J@std@@QBE_NABJ0@Z ENDP			; std::less<long>::operator()
_TEXT	ENDS
PUBLIC	?size@?$list@PAVCGUIDEvent@GameManager@@V?$allocator@PAVCGUIDEvent@GameManager@@@std@@@std@@QBEIXZ ; std::list<GameManager::CGUIDEvent *,std::allocator<GameManager::CGUIDEvent *> >::size
; Function compile flags: /Ogtpy
; File d:\program files\microsoft visual studio 8\vc\include\list
;	COMDAT ?size@?$list@PAVCGUIDEvent@GameManager@@V?$allocator@PAVCGUIDEvent@GameManager@@@std@@@std@@QBEIXZ
_TEXT	SEGMENT
?size@?$list@PAVCGUIDEvent@GameManager@@V?$allocator@PAVCGUIDEvent@GameManager@@@std@@@std@@QBEIXZ PROC ; std::list<GameManager::CGUIDEvent *,std::allocator<GameManager::CGUIDEvent *> >::size, COMDAT
; _this$ = ecx

; 604  : 		return (_Mysize);

  00000	8b 41 08	 mov	 eax, DWORD PTR [ecx+8]

; 605  : 		}

  00003	c3		 ret	 0
?size@?$list@PAVCGUIDEvent@GameManager@@V?$allocator@PAVCGUIDEvent@GameManager@@@std@@@std@@QBEIXZ ENDP ; std::list<GameManager::CGUIDEvent *,std::allocator<GameManager::CGUIDEvent *> >::size
_TEXT	ENDS
PUBLIC	??8const_iterator@?$_Tree@V?$_Tmap_traits@JJU?$less@J@std@@V?$allocator@U?$pair@$$CBJJ@std@@@2@$0A@@std@@@std@@QBE_NABV012@@Z ; std::_Tree<std::_Tmap_traits<long,long,std::less<long>,std::allocator<std::pair<long const ,long> >,0> >::const_iterator::operator==
EXTRN	__invalid_parameter_noinfo:PROC
; Function compile flags: /Ogtpy
; File d:\program files\microsoft visual studio 8\vc\include\xtree
;	COMDAT ??8const_iterator@?$_Tree@V?$_Tmap_traits@JJU?$less@J@std@@V?$allocator@U?$pair@$$CBJJ@std@@@2@$0A@@std@@@std@@QBE_NABV012@@Z
_TEXT	SEGMENT
__Right$ = 8						; size = 4
??8const_iterator@?$_Tree@V?$_Tmap_traits@JJU?$less@J@std@@V?$allocator@U?$pair@$$CBJJ@std@@@2@$0A@@std@@@std@@QBE_NABV012@@Z PROC ; std::_Tree<std::_Tmap_traits<long,long,std::less<long>,std::allocator<std::pair<long const ,long> >,0> >::const_iterator::operator==, COMDAT
; _this$ = ecx

; 288  : 			{	// test for iterator equality

  00000	56		 push	 esi
  00001	8b f1		 mov	 esi, ecx

; 289  : 
; 290  :  #if _HAS_ITERATOR_DEBUGGING
; 291  : 			if (this->_Mycont == 0 || this->_Mycont != _Right._Mycont)
; 292  : 				{
; 293  : 				_DEBUG_ERROR("map/set iterators incompatible");
; 294  : 				_SCL_SECURE_INVALID_ARGUMENT;
; 295  : 				}
; 296  :  #else
; 297  : 			_SCL_SECURE_VALIDATE(this->_Mycont != NULL && this->_Mycont == _Right._Mycont);

  00003	8b 06		 mov	 eax, DWORD PTR [esi]
  00005	85 c0		 test	 eax, eax
  00007	57		 push	 edi
  00008	8b 7c 24 0c	 mov	 edi, DWORD PTR __Right$[esp+4]
  0000c	74 04		 je	 SHORT $LN1@operator@5
  0000e	3b 07		 cmp	 eax, DWORD PTR [edi]
  00010	74 05		 je	 SHORT $LN2@operator@5
$LN1@operator@5:
  00012	e8 00 00 00 00	 call	 __invalid_parameter_noinfo
$LN2@operator@5:

; 298  :  #endif /* _HAS_ITERATOR_DEBUGGING */
; 299  : 
; 300  : 			return (_Ptr == _Right._Ptr);

  00017	8b 46 04	 mov	 eax, DWORD PTR [esi+4]
  0001a	33 c9		 xor	 ecx, ecx
  0001c	3b 47 04	 cmp	 eax, DWORD PTR [edi+4]
  0001f	5f		 pop	 edi
  00020	0f 94 c1	 sete	 cl
  00023	8a c1		 mov	 al, cl
  00025	5e		 pop	 esi

; 301  : 			}

  00026	c2 04 00	 ret	 4
??8const_iterator@?$_Tree@V?$_Tmap_traits@JJU?$less@J@std@@V?$allocator@U?$pair@$$CBJJ@std@@@2@$0A@@std@@@std@@QBE_NABV012@@Z ENDP ; std::_Tree<std::_Tmap_traits<long,long,std::less<long>,std::allocator<std::pair<long const ,long> >,0> >::const_iterator::operator==
_TEXT	ENDS
PUBLIC	?_Mynode@const_iterator@?$_Tree@V?$_Tmap_traits@JJU?$less@J@std@@V?$allocator@U?$pair@$$CBJJ@std@@@2@$0A@@std@@@std@@QBEPAU_Node@?$_Tree_nod@V?$_Tmap_traits@JJU?$less@J@std@@V?$allocator@U?$pair@$$CBJJ@std@@@2@$0A@@std@@@3@XZ ; std::_Tree<std::_Tmap_traits<long,long,std::less<long>,std::allocator<std::pair<long const ,long> >,0> >::const_iterator::_Mynode
; Function compile flags: /Ogtpy
;	COMDAT ?_Mynode@const_iterator@?$_Tree@V?$_Tmap_traits@JJU?$less@J@std@@V?$allocator@U?$pair@$$CBJJ@std@@@2@$0A@@std@@@std@@QBEPAU_Node@?$_Tree_nod@V?$_Tmap_traits@JJU?$less@J@std@@V?$allocator@U?$pair@$$CBJJ@std@@@2@$0A@@std@@@3@XZ
_TEXT	SEGMENT
?_Mynode@const_iterator@?$_Tree@V?$_Tmap_traits@JJU?$less@J@std@@V?$allocator@U?$pair@$$CBJJ@std@@@2@$0A@@std@@@std@@QBEPAU_Node@?$_Tree_nod@V?$_Tmap_traits@JJU?$less@J@std@@V?$allocator@U?$pair@$$CBJJ@std@@@2@$0A@@std@@@3@XZ PROC ; std::_Tree<std::_Tmap_traits<long,long,std::less<long>,std::allocator<std::pair<long const ,long> >,0> >::const_iterator::_Mynode, COMDAT
; _this$ = ecx

; 396  : 			return (_Ptr);

  00000	8b 41 04	 mov	 eax, DWORD PTR [ecx+4]

; 397  : 			}

  00003	c3		 ret	 0
?_Mynode@const_iterator@?$_Tree@V?$_Tmap_traits@JJU?$less@J@std@@V?$allocator@U?$pair@$$CBJJ@std@@@2@$0A@@std@@@std@@QBEPAU_Node@?$_Tree_nod@V?$_Tmap_traits@JJU?$less@J@std@@V?$allocator@U?$pair@$$CBJJ@std@@@2@$0A@@std@@@3@XZ ENDP ; std::_Tree<std::_Tmap_traits<long,long,std::less<long>,std::allocator<std::pair<long const ,long> >,0> >::const_iterator::_Mynode
_TEXT	ENDS
PUBLIC	??0?$pair@$$CBJJ@std@@QAE@ABJ0@Z		; std::pair<long const ,long>::pair<long const ,long>
; Function compile flags: /Ogtpy
; File d:\program files\microsoft visual studio 8\vc\include\utility
;	COMDAT ??0?$pair@$$CBJJ@std@@QAE@ABJ0@Z
_TEXT	SEGMENT
__Val1$ = 8						; size = 4
__Val2$ = 12						; size = 4
??0?$pair@$$CBJJ@std@@QAE@ABJ0@Z PROC			; std::pair<long const ,long>::pair<long const ,long>, COMDAT
; _this$ = ecx

; 37   : 		{	// construct from specified values

  00000	8b c1		 mov	 eax, ecx
  00002	8b 4c 24 04	 mov	 ecx, DWORD PTR __Val1$[esp-4]
  00006	8b 11		 mov	 edx, DWORD PTR [ecx]
  00008	8b 4c 24 08	 mov	 ecx, DWORD PTR __Val2$[esp-4]
  0000c	89 10		 mov	 DWORD PTR [eax], edx
  0000e	8b 11		 mov	 edx, DWORD PTR [ecx]
  00010	89 50 04	 mov	 DWORD PTR [eax+4], edx

; 38   : 		}

  00013	c2 08 00	 ret	 8
??0?$pair@$$CBJJ@std@@QAE@ABJ0@Z ENDP			; std::pair<long const ,long>::pair<long const ,long>
_TEXT	ENDS
PUBLIC	?_Myptr@?$basic_string@DU?$char_traits@D@std@@V?$allocator@D@2@@std@@IAEPADXZ ; std::basic_string<char,std::char_traits<char>,std::allocator<char> >::_Myptr
; Function compile flags: /Ogtpy
; File d:\program files\microsoft visual studio 8\vc\include\xstring
;	COMDAT ?_Myptr@?$basic_string@DU?$char_traits@D@std@@V?$allocator@D@2@@std@@IAEPADXZ
_TEXT	SEGMENT
?_Myptr@?$basic_string@DU?$char_traits@D@std@@V?$allocator@D@2@@std@@IAEPADXZ PROC ; std::basic_string<char,std::char_traits<char>,std::allocator<char> >::_Myptr, COMDAT
; _this$ = ecx

; 2088 : 		return (_BUF_SIZE <= _Myres ? _Bx._Ptr : _Bx._Buf);

  00000	83 79 18 10	 cmp	 DWORD PTR [ecx+24], 16	; 00000010H
  00004	72 04		 jb	 SHORT $LN3@Myptr@2
  00006	8b 41 04	 mov	 eax, DWORD PTR [ecx+4]

; 2089 : 		}

  00009	c3		 ret	 0
$LN3@Myptr@2:

; 2088 : 		return (_BUF_SIZE <= _Myres ? _Bx._Ptr : _Bx._Buf);

  0000a	8d 41 04	 lea	 eax, DWORD PTR [ecx+4]

; 2089 : 		}

  0000d	c3		 ret	 0
?_Myptr@?$basic_string@DU?$char_traits@D@std@@V?$allocator@D@2@@std@@IAEPADXZ ENDP ; std::basic_string<char,std::char_traits<char>,std::allocator<char> >::_Myptr
_TEXT	ENDS
PUBLIC	??0?$allocator@D@std@@QAE@ABV01@@Z		; std::allocator<char>::allocator<char>
; Function compile flags: /Ogtpy
; File d:\program files\microsoft visual studio 8\vc\include\xmemory
;	COMDAT ??0?$allocator@D@std@@QAE@ABV01@@Z
_TEXT	SEGMENT
___formal$ = 8						; size = 4
??0?$allocator@D@std@@QAE@ABV01@@Z PROC			; std::allocator<char>::allocator<char>, COMDAT
; _this$ = ecx

; 124  : 	allocator(const allocator<_Ty>&) _THROW0()

  00000	8b c1		 mov	 eax, ecx

; 125  : 		{	// construct by copying (do nothing)
; 126  : 		}

  00002	c2 04 00	 ret	 4
??0?$allocator@D@std@@QAE@ABV01@@Z ENDP			; std::allocator<char>::allocator<char>
_TEXT	ENDS
PUBLIC	?_Isnil@?$_Tree@V?$_Tmap_traits@JJU?$less@J@std@@V?$allocator@U?$pair@$$CBJJ@std@@@2@$0A@@std@@@std@@KAAADPAU_Node@?$_Tree_nod@V?$_Tmap_traits@JJU?$less@J@std@@V?$allocator@U?$pair@$$CBJJ@std@@@2@$0A@@std@@@2@@Z ; std::_Tree<std::_Tmap_traits<long,long,std::less<long>,std::allocator<std::pair<long const ,long> >,0> >::_Isnil
; Function compile flags: /Ogtpy
; File d:\program files\microsoft visual studio 8\vc\include\xtree
;	COMDAT ?_Isnil@?$_Tree@V?$_Tmap_traits@JJU?$less@J@std@@V?$allocator@U?$pair@$$CBJJ@std@@@2@$0A@@std@@@std@@KAAADPAU_Node@?$_Tree_nod@V?$_Tmap_traits@JJU?$less@J@std@@V?$allocator@U?$pair@$$CBJJ@std@@@2@$0A@@std@@@2@@Z
_TEXT	SEGMENT
__Pnode$ = 8						; size = 4
?_Isnil@?$_Tree@V?$_Tmap_traits@JJU?$less@J@std@@V?$allocator@U?$pair@$$CBJJ@std@@@2@$0A@@std@@@std@@KAAADPAU_Node@?$_Tree_nod@V?$_Tmap_traits@JJU?$less@J@std@@V?$allocator@U?$pair@$$CBJJ@std@@@2@$0A@@std@@@2@@Z PROC ; std::_Tree<std::_Tmap_traits<long,long,std::less<long>,std::allocator<std::pair<long const ,long> >,0> >::_Isnil, COMDAT

; 146  : 		return ((_Charref)(*_Pnode)._Isnil);

  00000	8b 44 24 04	 mov	 eax, DWORD PTR __Pnode$[esp-4]
  00004	83 c0 15	 add	 eax, 21			; 00000015H

; 147  : 		}

  00007	c3		 ret	 0
?_Isnil@?$_Tree@V?$_Tmap_traits@JJU?$less@J@std@@V?$allocator@U?$pair@$$CBJJ@std@@@2@$0A@@std@@@std@@KAAADPAU_Node@?$_Tree_nod@V?$_Tmap_traits@JJU?$less@J@std@@V?$allocator@U?$pair@$$CBJJ@std@@@2@$0A@@std@@@2@@Z ENDP ; std::_Tree<std::_Tmap_traits<long,long,std::less<long>,std::allocator<std::pair<long const ,long> >,0> >::_Isnil
_TEXT	ENDS
PUBLIC	?_Right@?$_Tree@V?$_Tmap_traits@JJU?$less@J@std@@V?$allocator@U?$pair@$$CBJJ@std@@@2@$0A@@std@@@std@@KAAAPAU_Node@?$_Tree_nod@V?$_Tmap_traits@JJU?$less@J@std@@V?$allocator@U?$pair@$$CBJJ@std@@@2@$0A@@std@@@2@PAU342@@Z ; std::_Tree<std::_Tmap_traits<long,long,std::less<long>,std::allocator<std::pair<long const ,long> >,0> >::_Right
; Function compile flags: /Ogtpy
;	COMDAT ?_Right@?$_Tree@V?$_Tmap_traits@JJU?$less@J@std@@V?$allocator@U?$pair@$$CBJJ@std@@@2@$0A@@std@@@std@@KAAAPAU_Node@?$_Tree_nod@V?$_Tmap_traits@JJU?$less@J@std@@V?$allocator@U?$pair@$$CBJJ@std@@@2@$0A@@std@@@2@PAU342@@Z
_TEXT	SEGMENT
__Pnode$ = 8						; size = 4
?_Right@?$_Tree@V?$_Tmap_traits@JJU?$less@J@std@@V?$allocator@U?$pair@$$CBJJ@std@@@2@$0A@@std@@@std@@KAAAPAU_Node@?$_Tree_nod@V?$_Tmap_traits@JJU?$less@J@std@@V?$allocator@U?$pair@$$CBJJ@std@@@2@$0A@@std@@@2@PAU342@@Z PROC ; std::_Tree<std::_Tmap_traits<long,long,std::less<long>,std::allocator<std::pair<long const ,long> >,0> >::_Right, COMDAT

; 166  : 		return ((_Nodepref)(*_Pnode)._Right);

  00000	8b 44 24 04	 mov	 eax, DWORD PTR __Pnode$[esp-4]
  00004	83 c0 08	 add	 eax, 8

; 167  : 		}

  00007	c3		 ret	 0
?_Right@?$_Tree@V?$_Tmap_traits@JJU?$less@J@std@@V?$allocator@U?$pair@$$CBJJ@std@@@2@$0A@@std@@@std@@KAAAPAU_Node@?$_Tree_nod@V?$_Tmap_traits@JJU?$less@J@std@@V?$allocator@U?$pair@$$CBJJ@std@@@2@$0A@@std@@@2@PAU342@@Z ENDP ; std::_Tree<std::_Tmap_traits<long,long,std::less<long>,std::allocator<std::pair<long const ,long> >,0> >::_Right
_TEXT	ENDS
PUBLIC	?_Myval@?$_Tree@V?$_Tmap_traits@JJU?$less@J@std@@V?$allocator@U?$pair@$$CBJJ@std@@@2@$0A@@std@@@std@@KAAAU?$pair@$$CBJJ@2@PAU_Node@?$_Tree_nod@V?$_Tmap_traits@JJU?$less@J@std@@V?$allocator@U?$pair@$$CBJJ@std@@@2@$0A@@std@@@2@@Z ; std::_Tree<std::_Tmap_traits<long,long,std::less<long>,std::allocator<std::pair<long const ,long> >,0> >::_Myval
; Function compile flags: /Ogtpy
;	COMDAT ?_Myval@?$_Tree@V?$_Tmap_traits@JJU?$less@J@std@@V?$allocator@U?$pair@$$CBJJ@std@@@2@$0A@@std@@@std@@KAAAU?$pair@$$CBJJ@2@PAU_Node@?$_Tree_nod@V?$_Tmap_traits@JJU?$less@J@std@@V?$allocator@U?$pair@$$CBJJ@std@@@2@$0A@@std@@@2@@Z
_TEXT	SEGMENT
__Pnode$ = 8						; size = 4
?_Myval@?$_Tree@V?$_Tmap_traits@JJU?$less@J@std@@V?$allocator@U?$pair@$$CBJJ@std@@@2@$0A@@std@@@std@@KAAAU?$pair@$$CBJJ@2@PAU_Node@?$_Tree_nod@V?$_Tmap_traits@JJU?$less@J@std@@V?$allocator@U?$pair@$$CBJJ@std@@@2@$0A@@std@@@2@@Z PROC ; std::_Tree<std::_Tmap_traits<long,long,std::less<long>,std::allocator<std::pair<long const ,long> >,0> >::_Myval, COMDAT

; 171  : 		return ((_Vref)(*_Pnode)._Myval);

  00000	8b 44 24 04	 mov	 eax, DWORD PTR __Pnode$[esp-4]
  00004	83 c0 0c	 add	 eax, 12			; 0000000cH

; 172  : 		}

  00007	c3		 ret	 0
?_Myval@?$_Tree@V?$_Tmap_traits@JJU?$less@J@std@@V?$allocator@U?$pair@$$CBJJ@std@@@2@$0A@@std@@@std@@KAAAU?$pair@$$CBJJ@2@PAU_Node@?$_Tree_nod@V?$_Tmap_traits@JJU?$less@J@std@@V?$allocator@U?$pair@$$CBJJ@std@@@2@$0A@@std@@@2@@Z ENDP ; std::_Tree<std::_Tmap_traits<long,long,std::less<long>,std::allocator<std::pair<long const ,long> >,0> >::_Myval
_TEXT	ENDS
PUBLIC	?size@?$_Tree@V?$_Tmap_traits@JJU?$less@J@std@@V?$allocator@U?$pair@$$CBJJ@std@@@2@$0A@@std@@@std@@QBEIXZ ; std::_Tree<std::_Tmap_traits<long,long,std::less<long>,std::allocator<std::pair<long const ,long> >,0> >::size
; Function compile flags: /Ogtpy
;	COMDAT ?size@?$_Tree@V?$_Tmap_traits@JJU?$less@J@std@@V?$allocator@U?$pair@$$CBJJ@std@@@2@$0A@@std@@@std@@QBEIXZ
_TEXT	SEGMENT
?size@?$_Tree@V?$_Tmap_traits@JJU?$less@J@std@@V?$allocator@U?$pair@$$CBJJ@std@@@2@$0A@@std@@@std@@QBEIXZ PROC ; std::_Tree<std::_Tmap_traits<long,long,std::less<long>,std::allocator<std::pair<long const ,long> >,0> >::size, COMDAT
; _this$ = ecx

; 582  : 		return (_Mysize);

  00000	8b 41 08	 mov	 eax, DWORD PTR [ecx+8]

; 583  : 		}

  00003	c3		 ret	 0
?size@?$_Tree@V?$_Tmap_traits@JJU?$less@J@std@@V?$allocator@U?$pair@$$CBJJ@std@@@2@$0A@@std@@@std@@QBEIXZ ENDP ; std::_Tree<std::_Tmap_traits<long,long,std::less<long>,std::allocator<std::pair<long const ,long> >,0> >::size
_TEXT	ENDS
PUBLIC	?_Rmost@?$_Tree@V?$_Tmap_traits@JJU?$less@J@std@@V?$allocator@U?$pair@$$CBJJ@std@@@2@$0A@@std@@@std@@IBEAAPAU_Node@?$_Tree_nod@V?$_Tmap_traits@JJU?$less@J@std@@V?$allocator@U?$pair@$$CBJJ@std@@@2@$0A@@std@@@2@XZ ; std::_Tree<std::_Tmap_traits<long,long,std::less<long>,std::allocator<std::pair<long const ,long> >,0> >::_Rmost
; Function compile flags: /Ogtpy
;	COMDAT ?_Rmost@?$_Tree@V?$_Tmap_traits@JJU?$less@J@std@@V?$allocator@U?$pair@$$CBJJ@std@@@2@$0A@@std@@@std@@IBEAAPAU_Node@?$_Tree_nod@V?$_Tmap_traits@JJU?$less@J@std@@V?$allocator@U?$pair@$$CBJJ@std@@@2@$0A@@std@@@2@XZ
_TEXT	SEGMENT
?_Rmost@?$_Tree@V?$_Tmap_traits@JJU?$less@J@std@@V?$allocator@U?$pair@$$CBJJ@std@@@2@$0A@@std@@@std@@IBEAAPAU_Node@?$_Tree_nod@V?$_Tmap_traits@JJU?$less@J@std@@V?$allocator@U?$pair@$$CBJJ@std@@@2@$0A@@std@@@2@XZ PROC ; std::_Tree<std::_Tmap_traits<long,long,std::less<long>,std::allocator<std::pair<long const ,long> >,0> >::_Rmost, COMDAT
; _this$ = ecx

; 1226 : 		return (_Right(_Myhead));

  00000	8b 41 04	 mov	 eax, DWORD PTR [ecx+4]
  00003	83 c0 08	 add	 eax, 8

; 1227 : 		}

  00006	c3		 ret	 0
?_Rmost@?$_Tree@V?$_Tmap_traits@JJU?$less@J@std@@V?$allocator@U?$pair@$$CBJJ@std@@@2@$0A@@std@@@std@@IBEAAPAU_Node@?$_Tree_nod@V?$_Tmap_traits@JJU?$less@J@std@@V?$allocator@U?$pair@$$CBJJ@std@@@2@$0A@@std@@@2@XZ ENDP ; std::_Tree<std::_Tmap_traits<long,long,std::less<long>,std::allocator<std::pair<long const ,long> >,0> >::_Rmost
_TEXT	ENDS
PUBLIC	?_Kfn@?$_Tmap_traits@JJU?$less@J@std@@V?$allocator@U?$pair@$$CBJJ@std@@@2@$0A@@std@@SAABJABU?$pair@$$CBJJ@2@@Z ; std::_Tmap_traits<long,long,std::less<long>,std::allocator<std::pair<long const ,long> >,0>::_Kfn
; Function compile flags: /Ogtpy
; File d:\program files\microsoft visual studio 8\vc\include\map
;	COMDAT ?_Kfn@?$_Tmap_traits@JJU?$less@J@std@@V?$allocator@U?$pair@$$CBJJ@std@@@2@$0A@@std@@SAABJABU?$pair@$$CBJJ@2@@Z
_TEXT	SEGMENT
__Val$ = 8						; size = 4
?_Kfn@?$_Tmap_traits@JJU?$less@J@std@@V?$allocator@U?$pair@$$CBJJ@std@@@2@$0A@@std@@SAABJABU?$pair@$$CBJJ@2@@Z PROC ; std::_Tmap_traits<long,long,std::less<long>,std::allocator<std::pair<long const ,long> >,0>::_Kfn, COMDAT

; 69   : 		return (_Val.first);

  00000	8b 44 24 04	 mov	 eax, DWORD PTR __Val$[esp-4]

; 70   : 		}

  00004	c3		 ret	 0
?_Kfn@?$_Tmap_traits@JJU?$less@J@std@@V?$allocator@U?$pair@$$CBJJ@std@@@2@$0A@@std@@SAABJABU?$pair@$$CBJJ@2@@Z ENDP ; std::_Tmap_traits<long,long,std::less<long>,std::allocator<std::pair<long const ,long> >,0>::_Kfn
_TEXT	ENDS
PUBLIC	??1?$pair@$$CBVCGUID@@PAVCGUIDEvent@GameManager@@@std@@QAE@XZ ; std::pair<CGUID const ,GameManager::CGUIDEvent *>::~pair<CGUID const ,GameManager::CGUIDEvent *>
; Function compile flags: /Ogtpy
;	COMDAT ??1?$pair@$$CBVCGUID@@PAVCGUIDEvent@GameManager@@@std@@QAE@XZ
_TEXT	SEGMENT
??1?$pair@$$CBVCGUID@@PAVCGUIDEvent@GameManager@@@std@@QAE@XZ PROC ; std::pair<CGUID const ,GameManager::CGUIDEvent *>::~pair<CGUID const ,GameManager::CGUIDEvent *>, COMDAT
; _this$ = ecx
  00000	c3		 ret	 0
??1?$pair@$$CBVCGUID@@PAVCGUIDEvent@GameManager@@@std@@QAE@XZ ENDP ; std::pair<CGUID const ,GameManager::CGUIDEvent *>::~pair<CGUID const ,GameManager::CGUIDEvent *>
_TEXT	ENDS
PUBLIC	??0?$hash_compare@VCGUID@@Vguid_compare@@@stdext@@QAE@XZ ; stdext::hash_compare<CGUID,guid_compare>::hash_compare<CGUID,guid_compare>
; Function compile flags: /Ogtpy
; File d:\program files\microsoft visual studio 8\vc\include\xhash
;	COMDAT ??0?$hash_compare@VCGUID@@Vguid_compare@@@stdext@@QAE@XZ
_TEXT	SEGMENT
??0?$hash_compare@VCGUID@@Vguid_compare@@@stdext@@QAE@XZ PROC ; stdext::hash_compare<CGUID,guid_compare>::hash_compare<CGUID,guid_compare>, COMDAT
; _this$ = ecx

; 89   : 		{	// construct with default comparator

  00000	8b c1		 mov	 eax, ecx
  00002	c6 00 00	 mov	 BYTE PTR [eax], 0

; 90   : 		}

  00005	c3		 ret	 0
??0?$hash_compare@VCGUID@@Vguid_compare@@@stdext@@QAE@XZ ENDP ; stdext::hash_compare<CGUID,guid_compare>::hash_compare<CGUID,guid_compare>
_TEXT	ENDS
PUBLIC	??0?$allocator@U?$pair@$$CBJJ@std@@@std@@QAE@XZ	; std::allocator<std::pair<long const ,long> >::allocator<std::pair<long const ,long> >
; Function compile flags: /Ogtpy
; File d:\program files\microsoft visual studio 8\vc\include\xmemory
;	COMDAT ??0?$allocator@U?$pair@$$CBJJ@std@@@std@@QAE@XZ
_TEXT	SEGMENT
??0?$allocator@U?$pair@$$CBJJ@std@@@std@@QAE@XZ PROC	; std::allocator<std::pair<long const ,long> >::allocator<std::pair<long const ,long> >, COMDAT
; _this$ = ecx

; 120  : 	allocator() _THROW0()

  00000	8b c1		 mov	 eax, ecx

; 121  : 		{	// construct default allocator (do nothing)
; 122  : 		}

  00002	c3		 ret	 0
??0?$allocator@U?$pair@$$CBJJ@std@@@std@@QAE@XZ ENDP	; std::allocator<std::pair<long const ,long> >::allocator<std::pair<long const ,long> >
_TEXT	ENDS
PUBLIC	??R?$less@K@std@@QBE_NABK0@Z			; std::less<unsigned long>::operator()
; Function compile flags: /Ogtpy
; File d:\program files\microsoft visual studio 8\vc\include\functional
;	COMDAT ??R?$less@K@std@@QBE_NABK0@Z
_TEXT	SEGMENT
__Left$ = 8						; size = 4
__Right$ = 12						; size = 4
??R?$less@K@std@@QBE_NABK0@Z PROC			; std::less<unsigned long>::operator(), COMDAT
; _this$ = ecx

; 143  : 		return (_Left < _Right);

  00000	8b 44 24 04	 mov	 eax, DWORD PTR __Left$[esp-4]
  00004	8b 08		 mov	 ecx, DWORD PTR [eax]
  00006	8b 54 24 08	 mov	 edx, DWORD PTR __Right$[esp-4]
  0000a	3b 0a		 cmp	 ecx, DWORD PTR [edx]
  0000c	1b c0		 sbb	 eax, eax
  0000e	f7 d8		 neg	 eax

; 144  : 		}

  00010	c2 08 00	 ret	 8
??R?$less@K@std@@QBE_NABK0@Z ENDP			; std::less<unsigned long>::operator()
_TEXT	ENDS
PUBLIC	??0?$allocator@K@std@@QAE@XZ			; std::allocator<unsigned long>::allocator<unsigned long>
; Function compile flags: /Ogtpy
; File d:\program files\microsoft visual studio 8\vc\include\xmemory
;	COMDAT ??0?$allocator@K@std@@QAE@XZ
_TEXT	SEGMENT
??0?$allocator@K@std@@QAE@XZ PROC			; std::allocator<unsigned long>::allocator<unsigned long>, COMDAT
; _this$ = ecx

; 120  : 	allocator() _THROW0()

  00000	8b c1		 mov	 eax, ecx

; 121  : 		{	// construct default allocator (do nothing)
; 122  : 		}

  00002	c3		 ret	 0
??0?$allocator@K@std@@QAE@XZ ENDP			; std::allocator<unsigned long>::allocator<unsigned long>
_TEXT	ENDS
PUBLIC	??Dconst_iterator@?$_Tree@V?$_Tmap_traits@JJU?$less@J@std@@V?$allocator@U?$pair@$$CBJJ@std@@@2@$0A@@std@@@std@@QBEABU?$pair@$$CBJJ@2@XZ ; std::_Tree<std::_Tmap_traits<long,long,std::less<long>,std::allocator<std::pair<long const ,long> >,0> >::const_iterator::operator*
; Function compile flags: /Ogtpy
; File d:\program files\microsoft visual studio 8\vc\include\xtree
;	COMDAT ??Dconst_iterator@?$_Tree@V?$_Tmap_traits@JJU?$less@J@std@@V?$allocator@U?$pair@$$CBJJ@std@@@2@$0A@@std@@@std@@QBEABU?$pair@$$CBJJ@2@XZ
_TEXT	SEGMENT
??Dconst_iterator@?$_Tree@V?$_Tmap_traits@JJU?$less@J@std@@V?$allocator@U?$pair@$$CBJJ@std@@@2@$0A@@std@@@std@@QBEABU?$pair@$$CBJJ@2@XZ PROC ; std::_Tree<std::_Tmap_traits<long,long,std::less<long>,std::allocator<std::pair<long const ,long> >,0> >::const_iterator::operator*, COMDAT
; _this$ = ecx

; 239  : 			{	// return designated value

  00000	56		 push	 esi
  00001	8b f1		 mov	 esi, ecx

; 240  : 
; 241  :  #if _HAS_ITERATOR_DEBUGGING
; 242  : 			if (this->_Mycont == 0
; 243  : 				|| _Ptr == ((_Myt *)this->_Mycont)->_Myhead)
; 244  : 				{
; 245  : 				_DEBUG_ERROR("map/set iterator not dereferencable");
; 246  : 				_SCL_SECURE_OUT_OF_RANGE;
; 247  : 				}
; 248  :  #else
; 249  : 			_SCL_SECURE_VALIDATE(this->_Mycont != NULL);

  00003	83 3e 00	 cmp	 DWORD PTR [esi], 0
  00006	75 05		 jne	 SHORT $LN2@operator@6
  00008	e8 00 00 00 00	 call	 __invalid_parameter_noinfo
$LN2@operator@6:

; 250  : 			_SCL_SECURE_VALIDATE_RANGE(_Ptr != ((_Myt *)(this->_Mycont))->_Myhead);

  0000d	8b 06		 mov	 eax, DWORD PTR [esi]
  0000f	8b 4e 04	 mov	 ecx, DWORD PTR [esi+4]
  00012	3b 48 04	 cmp	 ecx, DWORD PTR [eax+4]
  00015	75 05		 jne	 SHORT $LN1@operator@6
  00017	e8 00 00 00 00	 call	 __invalid_parameter_noinfo
$LN1@operator@6:

; 251  :  #endif /* _HAS_ITERATOR_DEBUGGING */
; 252  : 
; 253  : 			return (_Myval(_Ptr));

  0001c	8b 46 04	 mov	 eax, DWORD PTR [esi+4]
  0001f	83 c0 0c	 add	 eax, 12			; 0000000cH
  00022	5e		 pop	 esi

; 254  : 			}

  00023	c3		 ret	 0
??Dconst_iterator@?$_Tree@V?$_Tmap_traits@JJU?$less@J@std@@V?$allocator@U?$pair@$$CBJJ@std@@@2@$0A@@std@@@std@@QBEABU?$pair@$$CBJJ@2@XZ ENDP ; std::_Tree<std::_Tmap_traits<long,long,std::less<long>,std::allocator<std::pair<long const ,long> >,0> >::const_iterator::operator*
_TEXT	ENDS
PUBLIC	?_Color@?$_Tree@V?$_Tmap_traits@JJU?$less@J@std@@V?$allocator@U?$pair@$$CBJJ@std@@@2@$0A@@std@@@std@@KAAADPAU_Node@?$_Tree_nod@V?$_Tmap_traits@JJU?$less@J@std@@V?$allocator@U?$pair@$$CBJJ@std@@@2@$0A@@std@@@2@@Z ; std::_Tree<std::_Tmap_traits<long,long,std::less<long>,std::allocator<std::pair<long const ,long> >,0> >::_Color
; Function compile flags: /Ogtpy
;	COMDAT ?_Color@?$_Tree@V?$_Tmap_traits@JJU?$less@J@std@@V?$allocator@U?$pair@$$CBJJ@std@@@2@$0A@@std@@@std@@KAAADPAU_Node@?$_Tree_nod@V?$_Tmap_traits@JJU?$less@J@std@@V?$allocator@U?$pair@$$CBJJ@std@@@2@$0A@@std@@@2@@Z
_TEXT	SEGMENT
__Pnode$ = 8						; size = 4
?_Color@?$_Tree@V?$_Tmap_traits@JJU?$less@J@std@@V?$allocator@U?$pair@$$CBJJ@std@@@2@$0A@@std@@@std@@KAAADPAU_Node@?$_Tree_nod@V?$_Tmap_traits@JJU?$less@J@std@@V?$allocator@U?$pair@$$CBJJ@std@@@2@$0A@@std@@@2@@Z PROC ; std::_Tree<std::_Tmap_traits<long,long,std::less<long>,std::allocator<std::pair<long const ,long> >,0> >::_Color, COMDAT

; 141  : 		return ((_Charref)(*_Pnode)._Color);

  00000	8b 44 24 04	 mov	 eax, DWORD PTR __Pnode$[esp-4]
  00004	83 c0 14	 add	 eax, 20			; 00000014H

; 142  : 		}

  00007	c3		 ret	 0
?_Color@?$_Tree@V?$_Tmap_traits@JJU?$less@J@std@@V?$allocator@U?$pair@$$CBJJ@std@@@2@$0A@@std@@@std@@KAAADPAU_Node@?$_Tree_nod@V?$_Tmap_traits@JJU?$less@J@std@@V?$allocator@U?$pair@$$CBJJ@std@@@2@$0A@@std@@@2@@Z ENDP ; std::_Tree<std::_Tmap_traits<long,long,std::less<long>,std::allocator<std::pair<long const ,long> >,0> >::_Color
_TEXT	ENDS
PUBLIC	?_Left@?$_Tree@V?$_Tmap_traits@JJU?$less@J@std@@V?$allocator@U?$pair@$$CBJJ@std@@@2@$0A@@std@@@std@@KAAAPAU_Node@?$_Tree_nod@V?$_Tmap_traits@JJU?$less@J@std@@V?$allocator@U?$pair@$$CBJJ@std@@@2@$0A@@std@@@2@PAU342@@Z ; std::_Tree<std::_Tmap_traits<long,long,std::less<long>,std::allocator<std::pair<long const ,long> >,0> >::_Left
; Function compile flags: /Ogtpy
;	COMDAT ?_Left@?$_Tree@V?$_Tmap_traits@JJU?$less@J@std@@V?$allocator@U?$pair@$$CBJJ@std@@@2@$0A@@std@@@std@@KAAAPAU_Node@?$_Tree_nod@V?$_Tmap_traits@JJU?$less@J@std@@V?$allocator@U?$pair@$$CBJJ@std@@@2@$0A@@std@@@2@PAU342@@Z
_TEXT	SEGMENT
__Pnode$ = 8						; size = 4
?_Left@?$_Tree@V?$_Tmap_traits@JJU?$less@J@std@@V?$allocator@U?$pair@$$CBJJ@std@@@2@$0A@@std@@@std@@KAAAPAU_Node@?$_Tree_nod@V?$_Tmap_traits@JJU?$less@J@std@@V?$allocator@U?$pair@$$CBJJ@std@@@2@$0A@@std@@@2@PAU342@@Z PROC ; std::_Tree<std::_Tmap_traits<long,long,std::less<long>,std::allocator<std::pair<long const ,long> >,0> >::_Left, COMDAT

; 156  : 		return ((_Nodepref)(*_Pnode)._Left);

  00000	8b 44 24 04	 mov	 eax, DWORD PTR __Pnode$[esp-4]

; 157  : 		}

  00004	c3		 ret	 0
?_Left@?$_Tree@V?$_Tmap_traits@JJU?$less@J@std@@V?$allocator@U?$pair@$$CBJJ@std@@@2@$0A@@std@@@std@@KAAAPAU_Node@?$_Tree_nod@V?$_Tmap_traits@JJU?$less@J@std@@V?$allocator@U?$pair@$$CBJJ@std@@@2@$0A@@std@@@2@PAU342@@Z ENDP ; std::_Tree<std::_Tmap_traits<long,long,std::less<long>,std::allocator<std::pair<long const ,long> >,0> >::_Left
_TEXT	ENDS
PUBLIC	?_Parent@?$_Tree@V?$_Tmap_traits@JJU?$less@J@std@@V?$allocator@U?$pair@$$CBJJ@std@@@2@$0A@@std@@@std@@KAAAPAU_Node@?$_Tree_nod@V?$_Tmap_traits@JJU?$less@J@std@@V?$allocator@U?$pair@$$CBJJ@std@@@2@$0A@@std@@@2@PAU342@@Z ; std::_Tree<std::_Tmap_traits<long,long,std::less<long>,std::allocator<std::pair<long const ,long> >,0> >::_Parent
; Function compile flags: /Ogtpy
;	COMDAT ?_Parent@?$_Tree@V?$_Tmap_traits@JJU?$less@J@std@@V?$allocator@U?$pair@$$CBJJ@std@@@2@$0A@@std@@@std@@KAAAPAU_Node@?$_Tree_nod@V?$_Tmap_traits@JJU?$less@J@std@@V?$allocator@U?$pair@$$CBJJ@std@@@2@$0A@@std@@@2@PAU342@@Z
_TEXT	SEGMENT
__Pnode$ = 8						; size = 4
?_Parent@?$_Tree@V?$_Tmap_traits@JJU?$less@J@std@@V?$allocator@U?$pair@$$CBJJ@std@@@2@$0A@@std@@@std@@KAAAPAU_Node@?$_Tree_nod@V?$_Tmap_traits@JJU?$less@J@std@@V?$allocator@U?$pair@$$CBJJ@std@@@2@$0A@@std@@@2@PAU342@@Z PROC ; std::_Tree<std::_Tmap_traits<long,long,std::less<long>,std::allocator<std::pair<long const ,long> >,0> >::_Parent, COMDAT

; 161  : 		return ((_Nodepref)(*_Pnode)._Parent);

  00000	8b 44 24 04	 mov	 eax, DWORD PTR __Pnode$[esp-4]
  00004	83 c0 04	 add	 eax, 4

; 162  : 		}

  00007	c3		 ret	 0
?_Parent@?$_Tree@V?$_Tmap_traits@JJU?$less@J@std@@V?$allocator@U?$pair@$$CBJJ@std@@@2@$0A@@std@@@std@@KAAAPAU_Node@?$_Tree_nod@V?$_Tmap_traits@JJU?$less@J@std@@V?$allocator@U?$pair@$$CBJJ@std@@@2@$0A@@std@@@2@PAU342@@Z ENDP ; std::_Tree<std::_Tmap_traits<long,long,std::less<long>,std::allocator<std::pair<long const ,long> >,0> >::_Parent
_TEXT	ENDS
PUBLIC	?_Lmost@?$_Tree@V?$_Tmap_traits@JJU?$less@J@std@@V?$allocator@U?$pair@$$CBJJ@std@@@2@$0A@@std@@@std@@IBEAAPAU_Node@?$_Tree_nod@V?$_Tmap_traits@JJU?$less@J@std@@V?$allocator@U?$pair@$$CBJJ@std@@@2@$0A@@std@@@2@XZ ; std::_Tree<std::_Tmap_traits<long,long,std::less<long>,std::allocator<std::pair<long const ,long> >,0> >::_Lmost
; Function compile flags: /Ogtpy
;	COMDAT ?_Lmost@?$_Tree@V?$_Tmap_traits@JJU?$less@J@std@@V?$allocator@U?$pair@$$CBJJ@std@@@2@$0A@@std@@@std@@IBEAAPAU_Node@?$_Tree_nod@V?$_Tmap_traits@JJU?$less@J@std@@V?$allocator@U?$pair@$$CBJJ@std@@@2@$0A@@std@@@2@XZ
_TEXT	SEGMENT
?_Lmost@?$_Tree@V?$_Tmap_traits@JJU?$less@J@std@@V?$allocator@U?$pair@$$CBJJ@std@@@2@$0A@@std@@@std@@IBEAAPAU_Node@?$_Tree_nod@V?$_Tmap_traits@JJU?$less@J@std@@V?$allocator@U?$pair@$$CBJJ@std@@@2@$0A@@std@@@2@XZ PROC ; std::_Tree<std::_Tmap_traits<long,long,std::less<long>,std::allocator<std::pair<long const ,long> >,0> >::_Lmost, COMDAT
; _this$ = ecx

; 1187 : 		return (_Left(_Myhead));

  00000	8b 41 04	 mov	 eax, DWORD PTR [ecx+4]

; 1188 : 		}

  00003	c3		 ret	 0
?_Lmost@?$_Tree@V?$_Tmap_traits@JJU?$less@J@std@@V?$allocator@U?$pair@$$CBJJ@std@@@2@$0A@@std@@@std@@IBEAAPAU_Node@?$_Tree_nod@V?$_Tmap_traits@JJU?$less@J@std@@V?$allocator@U?$pair@$$CBJJ@std@@@2@$0A@@std@@@2@XZ ENDP ; std::_Tree<std::_Tmap_traits<long,long,std::less<long>,std::allocator<std::pair<long const ,long> >,0> >::_Lmost
_TEXT	ENDS
PUBLIC	?_Root@?$_Tree@V?$_Tmap_traits@JJU?$less@J@std@@V?$allocator@U?$pair@$$CBJJ@std@@@2@$0A@@std@@@std@@IBEAAPAU_Node@?$_Tree_nod@V?$_Tmap_traits@JJU?$less@J@std@@V?$allocator@U?$pair@$$CBJJ@std@@@2@$0A@@std@@@2@XZ ; std::_Tree<std::_Tmap_traits<long,long,std::less<long>,std::allocator<std::pair<long const ,long> >,0> >::_Root
; Function compile flags: /Ogtpy
;	COMDAT ?_Root@?$_Tree@V?$_Tmap_traits@JJU?$less@J@std@@V?$allocator@U?$pair@$$CBJJ@std@@@2@$0A@@std@@@std@@IBEAAPAU_Node@?$_Tree_nod@V?$_Tmap_traits@JJU?$less@J@std@@V?$allocator@U?$pair@$$CBJJ@std@@@2@$0A@@std@@@2@XZ
_TEXT	SEGMENT
?_Root@?$_Tree@V?$_Tmap_traits@JJU?$less@J@std@@V?$allocator@U?$pair@$$CBJJ@std@@@2@$0A@@std@@@std@@IBEAAPAU_Node@?$_Tree_nod@V?$_Tmap_traits@JJU?$less@J@std@@V?$allocator@U?$pair@$$CBJJ@std@@@2@$0A@@std@@@2@XZ PROC ; std::_Tree<std::_Tmap_traits<long,long,std::less<long>,std::allocator<std::pair<long const ,long> >,0> >::_Root, COMDAT
; _this$ = ecx

; 1231 : 		return (_Parent(_Myhead));

  00000	8b 41 04	 mov	 eax, DWORD PTR [ecx+4]
  00003	83 c0 04	 add	 eax, 4

; 1232 : 		}

  00006	c3		 ret	 0
?_Root@?$_Tree@V?$_Tmap_traits@JJU?$less@J@std@@V?$allocator@U?$pair@$$CBJJ@std@@@2@$0A@@std@@@std@@IBEAAPAU_Node@?$_Tree_nod@V?$_Tmap_traits@JJU?$less@J@std@@V?$allocator@U?$pair@$$CBJJ@std@@@2@$0A@@std@@@2@XZ ENDP ; std::_Tree<std::_Tmap_traits<long,long,std::less<long>,std::allocator<std::pair<long const ,long> >,0> >::_Root
_TEXT	ENDS
PUBLIC	?_Rrotate@?$_Tree@V?$_Tmap_traits@JJU?$less@J@std@@V?$allocator@U?$pair@$$CBJJ@std@@@2@$0A@@std@@@std@@IAEXPAU_Node@?$_Tree_nod@V?$_Tmap_traits@JJU?$less@J@std@@V?$allocator@U?$pair@$$CBJJ@std@@@2@$0A@@std@@@2@@Z ; std::_Tree<std::_Tmap_traits<long,long,std::less<long>,std::allocator<std::pair<long const ,long> >,0> >::_Rrotate
; Function compile flags: /Ogtpy
;	COMDAT ?_Rrotate@?$_Tree@V?$_Tmap_traits@JJU?$less@J@std@@V?$allocator@U?$pair@$$CBJJ@std@@@2@$0A@@std@@@std@@IAEXPAU_Node@?$_Tree_nod@V?$_Tmap_traits@JJU?$less@J@std@@V?$allocator@U?$pair@$$CBJJ@std@@@2@$0A@@std@@@2@@Z
_TEXT	SEGMENT
__Wherenode$ = 8					; size = 4
?_Rrotate@?$_Tree@V?$_Tmap_traits@JJU?$less@J@std@@V?$allocator@U?$pair@$$CBJJ@std@@@2@$0A@@std@@@std@@IAEXPAU_Node@?$_Tree_nod@V?$_Tmap_traits@JJU?$less@J@std@@V?$allocator@U?$pair@$$CBJJ@std@@@2@$0A@@std@@@2@@Z PROC ; std::_Tree<std::_Tmap_traits<long,long,std::less<long>,std::allocator<std::pair<long const ,long> >,0> >::_Rrotate, COMDAT
; _this$ = ecx

; 1236 : 		_Nodeptr _Pnode = _Left(_Wherenode);

  00000	8b 54 24 04	 mov	 edx, DWORD PTR __Wherenode$[esp-4]
  00004	8b 02		 mov	 eax, DWORD PTR [edx]
  00006	56		 push	 esi

; 1237 : 		_Left(_Wherenode) = _Right(_Pnode);

  00007	8b 70 08	 mov	 esi, DWORD PTR [eax+8]
  0000a	89 32		 mov	 DWORD PTR [edx], esi

; 1238 : 
; 1239 : 		if (!_Isnil(_Right(_Pnode)))

  0000c	8b 70 08	 mov	 esi, DWORD PTR [eax+8]
  0000f	80 7e 15 00	 cmp	 BYTE PTR [esi+21], 0
  00013	75 03		 jne	 SHORT $LN5@Rrotate

; 1240 : 			_Parent(_Right(_Pnode)) = _Wherenode;

  00015	89 56 04	 mov	 DWORD PTR [esi+4], edx
$LN5@Rrotate:

; 1241 : 		_Parent(_Pnode) = _Parent(_Wherenode);

  00018	8b 72 04	 mov	 esi, DWORD PTR [edx+4]
  0001b	89 70 04	 mov	 DWORD PTR [eax+4], esi

; 1242 : 
; 1243 : 		if (_Wherenode == _Root())

  0001e	8b 49 04	 mov	 ecx, DWORD PTR [ecx+4]
  00021	3b 51 04	 cmp	 edx, DWORD PTR [ecx+4]
  00024	5e		 pop	 esi
  00025	75 0c		 jne	 SHORT $LN4@Rrotate

; 1244 : 			_Root() = _Pnode;

  00027	89 41 04	 mov	 DWORD PTR [ecx+4], eax

; 1249 : 
; 1250 : 		_Right(_Pnode) = _Wherenode;

  0002a	89 50 08	 mov	 DWORD PTR [eax+8], edx

; 1251 : 		_Parent(_Wherenode) = _Pnode;

  0002d	89 42 04	 mov	 DWORD PTR [edx+4], eax

; 1252 : 		}

  00030	c2 04 00	 ret	 4
$LN4@Rrotate:

; 1245 : 		else if (_Wherenode == _Right(_Parent(_Wherenode)))

  00033	8b 4a 04	 mov	 ecx, DWORD PTR [edx+4]
  00036	3b 51 08	 cmp	 edx, DWORD PTR [ecx+8]
  00039	75 0c		 jne	 SHORT $LN2@Rrotate

; 1246 : 			_Right(_Parent(_Wherenode)) = _Pnode;

  0003b	89 41 08	 mov	 DWORD PTR [ecx+8], eax

; 1249 : 
; 1250 : 		_Right(_Pnode) = _Wherenode;

  0003e	89 50 08	 mov	 DWORD PTR [eax+8], edx

; 1251 : 		_Parent(_Wherenode) = _Pnode;

  00041	89 42 04	 mov	 DWORD PTR [edx+4], eax

; 1252 : 		}

  00044	c2 04 00	 ret	 4
$LN2@Rrotate:

; 1247 : 		else
; 1248 : 			_Left(_Parent(_Wherenode)) = _Pnode;

  00047	89 01		 mov	 DWORD PTR [ecx], eax

; 1249 : 
; 1250 : 		_Right(_Pnode) = _Wherenode;

  00049	89 50 08	 mov	 DWORD PTR [eax+8], edx

; 1251 : 		_Parent(_Wherenode) = _Pnode;

  0004c	89 42 04	 mov	 DWORD PTR [edx+4], eax

; 1252 : 		}

  0004f	c2 04 00	 ret	 4
?_Rrotate@?$_Tree@V?$_Tmap_traits@JJU?$less@J@std@@V?$allocator@U?$pair@$$CBJJ@std@@@2@$0A@@std@@@std@@IAEXPAU_Node@?$_Tree_nod@V?$_Tmap_traits@JJU?$less@J@std@@V?$allocator@U?$pair@$$CBJJ@std@@@2@$0A@@std@@@2@@Z ENDP ; std::_Tree<std::_Tmap_traits<long,long,std::less<long>,std::allocator<std::pair<long const ,long> >,0> >::_Rrotate
_TEXT	ENDS
PUBLIC	??0?$pair@Viterator@?$_Tree@V?$_Tmap_traits@JJU?$less@J@std@@V?$allocator@U?$pair@$$CBJJ@std@@@2@$0A@@std@@@std@@_N@std@@QAE@ABViterator@?$_Tree@V?$_Tmap_traits@JJU?$less@J@std@@V?$allocator@U?$pair@$$CBJJ@std@@@2@$0A@@std@@@1@AB_N@Z ; std::pair<std::_Tree<std::_Tmap_traits<long,long,std::less<long>,std::allocator<std::pair<long const ,long> >,0> >::iterator,bool>::pair<std::_Tree<std::_Tmap_traits<long,long,std::less<long>,std::allocator<std::pair<long const ,long> >,0> >::iterator,bool>
; Function compile flags: /Ogtpy
; File d:\program files\microsoft visual studio 8\vc\include\utility
;	COMDAT ??0?$pair@Viterator@?$_Tree@V?$_Tmap_traits@JJU?$less@J@std@@V?$allocator@U?$pair@$$CBJJ@std@@@2@$0A@@std@@@std@@_N@std@@QAE@ABViterator@?$_Tree@V?$_Tmap_traits@JJU?$less@J@std@@V?$allocator@U?$pair@$$CBJJ@std@@@2@$0A@@std@@@1@AB_N@Z
_TEXT	SEGMENT
__Val1$ = 8						; size = 4
__Val2$ = 12						; size = 4
??0?$pair@Viterator@?$_Tree@V?$_Tmap_traits@JJU?$less@J@std@@V?$allocator@U?$pair@$$CBJJ@std@@@2@$0A@@std@@@std@@_N@std@@QAE@ABViterator@?$_Tree@V?$_Tmap_traits@JJU?$less@J@std@@V?$allocator@U?$pair@$$CBJJ@std@@@2@$0A@@std@@@1@AB_N@Z PROC ; std::pair<std::_Tree<std::_Tmap_traits<long,long,std::less<long>,std::allocator<std::pair<long const ,long> >,0> >::iterator,bool>::pair<std::_Tree<std::_Tmap_traits<long,long,std::less<long>,std::allocator<std::pair<long const ,long> >,0> >::iterator,bool>, COMDAT
; _this$ = ecx

; 37   : 		{	// construct from specified values

  00000	8b c1		 mov	 eax, ecx
  00002	8b 4c 24 04	 mov	 ecx, DWORD PTR __Val1$[esp-4]
  00006	8b 11		 mov	 edx, DWORD PTR [ecx]
  00008	89 10		 mov	 DWORD PTR [eax], edx
  0000a	8b 49 04	 mov	 ecx, DWORD PTR [ecx+4]
  0000d	8b 54 24 08	 mov	 edx, DWORD PTR __Val2$[esp-4]
  00011	89 48 04	 mov	 DWORD PTR [eax+4], ecx
  00014	8a 0a		 mov	 cl, BYTE PTR [edx]
  00016	88 48 08	 mov	 BYTE PTR [eax+8], cl

; 38   : 		}

  00019	c2 08 00	 ret	 8
??0?$pair@Viterator@?$_Tree@V?$_Tmap_traits@JJU?$less@J@std@@V?$allocator@U?$pair@$$CBJJ@std@@@2@$0A@@std@@@std@@_N@std@@QAE@ABViterator@?$_Tree@V?$_Tmap_traits@JJU?$less@J@std@@V?$allocator@U?$pair@$$CBJJ@std@@@2@$0A@@std@@@1@AB_N@Z ENDP ; std::pair<std::_Tree<std::_Tmap_traits<long,long,std::less<long>,std::allocator<std::pair<long const ,long> >,0> >::iterator,bool>::pair<std::_Tree<std::_Tmap_traits<long,long,std::less<long>,std::allocator<std::pair<long const ,long> >,0> >::iterator,bool>
_TEXT	ENDS
PUBLIC	??0?$_Bidit@U?$pair@$$CBJJ@std@@HPBU12@ABU12@@std@@QAE@XZ ; std::_Bidit<std::pair<long const ,long>,int,std::pair<long const ,long> const *,std::pair<long const ,long> const &>::_Bidit<std::pair<long const ,long>,int,std::pair<long const ,long> const *,std::pair<long const ,long> const &>
; Function compile flags: /Ogtpy
;	COMDAT ??0?$_Bidit@U?$pair@$$CBJJ@std@@HPBU12@ABU12@@std@@QAE@XZ
_TEXT	SEGMENT
??0?$_Bidit@U?$pair@$$CBJJ@std@@HPBU12@ABU12@@std@@QAE@XZ PROC ; std::_Bidit<std::pair<long const ,long>,int,std::pair<long const ,long> const *,std::pair<long const ,long> const &>::_Bidit<std::pair<long const ,long>,int,std::pair<long const ,long> const *,std::pair<long const ,long> const &>, COMDAT
; _this$ = ecx
  00000	8b c1		 mov	 eax, ecx
  00002	c7 00 00 00 00
	00		 mov	 DWORD PTR [eax], 0
  00008	c3		 ret	 0
??0?$_Bidit@U?$pair@$$CBJJ@std@@HPBU12@ABU12@@std@@QAE@XZ ENDP ; std::_Bidit<std::pair<long const ,long>,int,std::pair<long const ,long> const *,std::pair<long const ,long> const &>::_Bidit<std::pair<long const ,long>,int,std::pair<long const ,long> const *,std::pair<long const ,long> const &>
_TEXT	ENDS
PUBLIC	?max_size@?$allocator@D@std@@QBEIXZ		; std::allocator<char>::max_size
; Function compile flags: /Ogtpy
; File d:\program files\microsoft visual studio 8\vc\include\xmemory
;	COMDAT ?max_size@?$allocator@D@std@@QBEIXZ
_TEXT	SEGMENT
?max_size@?$allocator@D@std@@QBEIXZ PROC		; std::allocator<char>::max_size, COMDAT
; _this$ = ecx

; 166  : 		_SIZT _Count = (_SIZT)(-1) / sizeof (_Ty);
; 167  : 		return (0 < _Count ? _Count : 1);

  00000	83 c8 ff	 or	 eax, -1

; 168  : 		}

  00003	c3		 ret	 0
?max_size@?$allocator@D@std@@QBEIXZ ENDP		; std::allocator<char>::max_size
_TEXT	ENDS
PUBLIC	?max_size@?$allocator@U?$pair@$$CBJJ@std@@@std@@QBEIXZ ; std::allocator<std::pair<long const ,long> >::max_size
; Function compile flags: /Ogtpy
;	COMDAT ?max_size@?$allocator@U?$pair@$$CBJJ@std@@@std@@QBEIXZ
_TEXT	SEGMENT
?max_size@?$allocator@U?$pair@$$CBJJ@std@@@std@@QBEIXZ PROC ; std::allocator<std::pair<long const ,long> >::max_size, COMDAT
; _this$ = ecx

; 166  : 		_SIZT _Count = (_SIZT)(-1) / sizeof (_Ty);
; 167  : 		return (0 < _Count ? _Count : 1);

  00000	b8 ff ff ff 1f	 mov	 eax, 536870911		; 1fffffffH

; 168  : 		}

  00005	c3		 ret	 0
?max_size@?$allocator@U?$pair@$$CBJJ@std@@@std@@QBEIXZ ENDP ; std::allocator<std::pair<long const ,long> >::max_size
_TEXT	ENDS
PUBLIC	?deallocate@?$allocator@U_Node@?$_Tree_nod@V?$_Tmap_traits@JJU?$less@J@std@@V?$allocator@U?$pair@$$CBJJ@std@@@2@$0A@@std@@@std@@@std@@QAEXPAU_Node@?$_Tree_nod@V?$_Tmap_traits@JJU?$less@J@std@@V?$allocator@U?$pair@$$CBJJ@std@@@2@$0A@@std@@@2@I@Z ; std::allocator<std::_Tree_nod<std::_Tmap_traits<long,long,std::less<long>,std::allocator<std::pair<long const ,long> >,0> >::_Node>::deallocate
; Function compile flags: /Ogtpy
;	COMDAT ?deallocate@?$allocator@U_Node@?$_Tree_nod@V?$_Tmap_traits@JJU?$less@J@std@@V?$allocator@U?$pair@$$CBJJ@std@@@2@$0A@@std@@@std@@@std@@QAEXPAU_Node@?$_Tree_nod@V?$_Tmap_traits@JJU?$less@J@std@@V?$allocator@U?$pair@$$CBJJ@std@@@2@$0A@@std@@@2@I@Z
_TEXT	SEGMENT
__Ptr$ = 8						; size = 4
___formal$ = 12						; size = 4
?deallocate@?$allocator@U_Node@?$_Tree_nod@V?$_Tmap_traits@JJU?$less@J@std@@V?$allocator@U?$pair@$$CBJJ@std@@@2@$0A@@std@@@std@@@std@@QAEXPAU_Node@?$_Tree_nod@V?$_Tmap_traits@JJU?$less@J@std@@V?$allocator@U?$pair@$$CBJJ@std@@@2@$0A@@std@@@2@I@Z PROC ; std::allocator<std::_Tree_nod<std::_Tmap_traits<long,long,std::less<long>,std::allocator<std::pair<long const ,long> >,0> >::_Node>::deallocate, COMDAT
; _this$ = ecx

; 141  : 		::operator delete(_Ptr);

  00000	8b 44 24 04	 mov	 eax, DWORD PTR __Ptr$[esp-4]
  00004	50		 push	 eax
  00005	e8 00 00 00 00	 call	 ??3@YAXPAX@Z		; operator delete
  0000a	59		 pop	 ecx

; 142  : 		}

  0000b	c2 08 00	 ret	 8
?deallocate@?$allocator@U_Node@?$_Tree_nod@V?$_Tmap_traits@JJU?$less@J@std@@V?$allocator@U?$pair@$$CBJJ@std@@@2@$0A@@std@@@std@@@std@@QAEXPAU_Node@?$_Tree_nod@V?$_Tmap_traits@JJU?$less@J@std@@V?$allocator@U?$pair@$$CBJJ@std@@@2@$0A@@std@@@2@I@Z ENDP ; std::allocator<std::_Tree_nod<std::_Tmap_traits<long,long,std::less<long>,std::allocator<std::pair<long const ,long> >,0> >::_Node>::deallocate
_TEXT	ENDS
PUBLIC	?_Isnil@?$_Tree@V?$_Tset_traits@KU?$less@K@std@@V?$allocator@K@2@$0A@@std@@@std@@KAAADPAU_Node@?$_Tree_nod@V?$_Tset_traits@KU?$less@K@std@@V?$allocator@K@2@$0A@@std@@@2@@Z ; std::_Tree<std::_Tset_traits<unsigned long,std::less<unsigned long>,std::allocator<unsigned long>,0> >::_Isnil
; Function compile flags: /Ogtpy
; File d:\program files\microsoft visual studio 8\vc\include\xtree
;	COMDAT ?_Isnil@?$_Tree@V?$_Tset_traits@KU?$less@K@std@@V?$allocator@K@2@$0A@@std@@@std@@KAAADPAU_Node@?$_Tree_nod@V?$_Tset_traits@KU?$less@K@std@@V?$allocator@K@2@$0A@@std@@@2@@Z
_TEXT	SEGMENT
__Pnode$ = 8						; size = 4
?_Isnil@?$_Tree@V?$_Tset_traits@KU?$less@K@std@@V?$allocator@K@2@$0A@@std@@@std@@KAAADPAU_Node@?$_Tree_nod@V?$_Tset_traits@KU?$less@K@std@@V?$allocator@K@2@$0A@@std@@@2@@Z PROC ; std::_Tree<std::_Tset_traits<unsigned long,std::less<unsigned long>,std::allocator<unsigned long>,0> >::_Isnil, COMDAT

; 146  : 		return ((_Charref)(*_Pnode)._Isnil);

  00000	8b 44 24 04	 mov	 eax, DWORD PTR __Pnode$[esp-4]
  00004	83 c0 11	 add	 eax, 17			; 00000011H

; 147  : 		}

  00007	c3		 ret	 0
?_Isnil@?$_Tree@V?$_Tset_traits@KU?$less@K@std@@V?$allocator@K@2@$0A@@std@@@std@@KAAADPAU_Node@?$_Tree_nod@V?$_Tset_traits@KU?$less@K@std@@V?$allocator@K@2@$0A@@std@@@2@@Z ENDP ; std::_Tree<std::_Tset_traits<unsigned long,std::less<unsigned long>,std::allocator<unsigned long>,0> >::_Isnil
_TEXT	ENDS
PUBLIC	?_Left@?$_Tree@V?$_Tset_traits@KU?$less@K@std@@V?$allocator@K@2@$0A@@std@@@std@@KAAAPAU_Node@?$_Tree_nod@V?$_Tset_traits@KU?$less@K@std@@V?$allocator@K@2@$0A@@std@@@2@PAU342@@Z ; std::_Tree<std::_Tset_traits<unsigned long,std::less<unsigned long>,std::allocator<unsigned long>,0> >::_Left
; Function compile flags: /Ogtpy
;	COMDAT ?_Left@?$_Tree@V?$_Tset_traits@KU?$less@K@std@@V?$allocator@K@2@$0A@@std@@@std@@KAAAPAU_Node@?$_Tree_nod@V?$_Tset_traits@KU?$less@K@std@@V?$allocator@K@2@$0A@@std@@@2@PAU342@@Z
_TEXT	SEGMENT
__Pnode$ = 8						; size = 4
?_Left@?$_Tree@V?$_Tset_traits@KU?$less@K@std@@V?$allocator@K@2@$0A@@std@@@std@@KAAAPAU_Node@?$_Tree_nod@V?$_Tset_traits@KU?$less@K@std@@V?$allocator@K@2@$0A@@std@@@2@PAU342@@Z PROC ; std::_Tree<std::_Tset_traits<unsigned long,std::less<unsigned long>,std::allocator<unsigned long>,0> >::_Left, COMDAT

; 156  : 		return ((_Nodepref)(*_Pnode)._Left);

  00000	8b 44 24 04	 mov	 eax, DWORD PTR __Pnode$[esp-4]

; 157  : 		}

  00004	c3		 ret	 0
?_Left@?$_Tree@V?$_Tset_traits@KU?$less@K@std@@V?$allocator@K@2@$0A@@std@@@std@@KAAAPAU_Node@?$_Tree_nod@V?$_Tset_traits@KU?$less@K@std@@V?$allocator@K@2@$0A@@std@@@2@PAU342@@Z ENDP ; std::_Tree<std::_Tset_traits<unsigned long,std::less<unsigned long>,std::allocator<unsigned long>,0> >::_Left
_TEXT	ENDS
PUBLIC	?_Right@?$_Tree@V?$_Tset_traits@KU?$less@K@std@@V?$allocator@K@2@$0A@@std@@@std@@KAAAPAU_Node@?$_Tree_nod@V?$_Tset_traits@KU?$less@K@std@@V?$allocator@K@2@$0A@@std@@@2@PAU342@@Z ; std::_Tree<std::_Tset_traits<unsigned long,std::less<unsigned long>,std::allocator<unsigned long>,0> >::_Right
; Function compile flags: /Ogtpy
;	COMDAT ?_Right@?$_Tree@V?$_Tset_traits@KU?$less@K@std@@V?$allocator@K@2@$0A@@std@@@std@@KAAAPAU_Node@?$_Tree_nod@V?$_Tset_traits@KU?$less@K@std@@V?$allocator@K@2@$0A@@std@@@2@PAU342@@Z
_TEXT	SEGMENT
__Pnode$ = 8						; size = 4
?_Right@?$_Tree@V?$_Tset_traits@KU?$less@K@std@@V?$allocator@K@2@$0A@@std@@@std@@KAAAPAU_Node@?$_Tree_nod@V?$_Tset_traits@KU?$less@K@std@@V?$allocator@K@2@$0A@@std@@@2@PAU342@@Z PROC ; std::_Tree<std::_Tset_traits<unsigned long,std::less<unsigned long>,std::allocator<unsigned long>,0> >::_Right, COMDAT

; 166  : 		return ((_Nodepref)(*_Pnode)._Right);

  00000	8b 44 24 04	 mov	 eax, DWORD PTR __Pnode$[esp-4]
  00004	83 c0 08	 add	 eax, 8

; 167  : 		}

  00007	c3		 ret	 0
?_Right@?$_Tree@V?$_Tset_traits@KU?$less@K@std@@V?$allocator@K@2@$0A@@std@@@std@@KAAAPAU_Node@?$_Tree_nod@V?$_Tset_traits@KU?$less@K@std@@V?$allocator@K@2@$0A@@std@@@2@PAU342@@Z ENDP ; std::_Tree<std::_Tset_traits<unsigned long,std::less<unsigned long>,std::allocator<unsigned long>,0> >::_Right
_TEXT	ENDS
PUBLIC	?_Lmost@?$_Tree@V?$_Tset_traits@KU?$less@K@std@@V?$allocator@K@2@$0A@@std@@@std@@IBEAAPAU_Node@?$_Tree_nod@V?$_Tset_traits@KU?$less@K@std@@V?$allocator@K@2@$0A@@std@@@2@XZ ; std::_Tree<std::_Tset_traits<unsigned long,std::less<unsigned long>,std::allocator<unsigned long>,0> >::_Lmost
; Function compile flags: /Ogtpy
;	COMDAT ?_Lmost@?$_Tree@V?$_Tset_traits@KU?$less@K@std@@V?$allocator@K@2@$0A@@std@@@std@@IBEAAPAU_Node@?$_Tree_nod@V?$_Tset_traits@KU?$less@K@std@@V?$allocator@K@2@$0A@@std@@@2@XZ
_TEXT	SEGMENT
?_Lmost@?$_Tree@V?$_Tset_traits@KU?$less@K@std@@V?$allocator@K@2@$0A@@std@@@std@@IBEAAPAU_Node@?$_Tree_nod@V?$_Tset_traits@KU?$less@K@std@@V?$allocator@K@2@$0A@@std@@@2@XZ PROC ; std::_Tree<std::_Tset_traits<unsigned long,std::less<unsigned long>,std::allocator<unsigned long>,0> >::_Lmost, COMDAT
; _this$ = ecx

; 1187 : 		return (_Left(_Myhead));

  00000	8b 41 04	 mov	 eax, DWORD PTR [ecx+4]

; 1188 : 		}

  00003	c3		 ret	 0
?_Lmost@?$_Tree@V?$_Tset_traits@KU?$less@K@std@@V?$allocator@K@2@$0A@@std@@@std@@IBEAAPAU_Node@?$_Tree_nod@V?$_Tset_traits@KU?$less@K@std@@V?$allocator@K@2@$0A@@std@@@2@XZ ENDP ; std::_Tree<std::_Tset_traits<unsigned long,std::less<unsigned long>,std::allocator<unsigned long>,0> >::_Lmost
_TEXT	ENDS
PUBLIC	?_Rmost@?$_Tree@V?$_Tset_traits@KU?$less@K@std@@V?$allocator@K@2@$0A@@std@@@std@@IBEAAPAU_Node@?$_Tree_nod@V?$_Tset_traits@KU?$less@K@std@@V?$allocator@K@2@$0A@@std@@@2@XZ ; std::_Tree<std::_Tset_traits<unsigned long,std::less<unsigned long>,std::allocator<unsigned long>,0> >::_Rmost
; Function compile flags: /Ogtpy
;	COMDAT ?_Rmost@?$_Tree@V?$_Tset_traits@KU?$less@K@std@@V?$allocator@K@2@$0A@@std@@@std@@IBEAAPAU_Node@?$_Tree_nod@V?$_Tset_traits@KU?$less@K@std@@V?$allocator@K@2@$0A@@std@@@2@XZ
_TEXT	SEGMENT
?_Rmost@?$_Tree@V?$_Tset_traits@KU?$less@K@std@@V?$allocator@K@2@$0A@@std@@@std@@IBEAAPAU_Node@?$_Tree_nod@V?$_Tset_traits@KU?$less@K@std@@V?$allocator@K@2@$0A@@std@@@2@XZ PROC ; std::_Tree<std::_Tset_traits<unsigned long,std::less<unsigned long>,std::allocator<unsigned long>,0> >::_Rmost, COMDAT
; _this$ = ecx

; 1226 : 		return (_Right(_Myhead));

  00000	8b 41 04	 mov	 eax, DWORD PTR [ecx+4]
  00003	83 c0 08	 add	 eax, 8

; 1227 : 		}

  00006	c3		 ret	 0
?_Rmost@?$_Tree@V?$_Tset_traits@KU?$less@K@std@@V?$allocator@K@2@$0A@@std@@@std@@IBEAAPAU_Node@?$_Tree_nod@V?$_Tset_traits@KU?$less@K@std@@V?$allocator@K@2@$0A@@std@@@2@XZ ENDP ; std::_Tree<std::_Tset_traits<unsigned long,std::less<unsigned long>,std::allocator<unsigned long>,0> >::_Rmost
_TEXT	ENDS
PUBLIC	?_Kfn@?$_Tset_traits@KU?$less@K@std@@V?$allocator@K@2@$0A@@std@@SAABKABK@Z ; std::_Tset_traits<unsigned long,std::less<unsigned long>,std::allocator<unsigned long>,0>::_Kfn
; Function compile flags: /Ogtpy
; File d:\program files\microsoft visual studio 8\vc\include\set
;	COMDAT ?_Kfn@?$_Tset_traits@KU?$less@K@std@@V?$allocator@K@2@$0A@@std@@SAABKABK@Z
_TEXT	SEGMENT
__Val$ = 8						; size = 4
?_Kfn@?$_Tset_traits@KU?$less@K@std@@V?$allocator@K@2@$0A@@std@@SAABKABK@Z PROC ; std::_Tset_traits<unsigned long,std::less<unsigned long>,std::allocator<unsigned long>,0>::_Kfn, COMDAT

; 57   : 		return (_Val);

  00000	8b 44 24 04	 mov	 eax, DWORD PTR __Val$[esp-4]

; 58   : 		}

  00004	c3		 ret	 0
?_Kfn@?$_Tset_traits@KU?$less@K@std@@V?$allocator@K@2@$0A@@std@@SAABKABK@Z ENDP ; std::_Tset_traits<unsigned long,std::less<unsigned long>,std::allocator<unsigned long>,0>::_Kfn
_TEXT	ENDS
PUBLIC	??0_Node@?$_Tree_nod@V?$_Tmap_traits@JJU?$less@J@std@@V?$allocator@U?$pair@$$CBJJ@std@@@2@$0A@@std@@@std@@QAE@PAU012@00ABU?$pair@$$CBJJ@2@D@Z ; std::_Tree_nod<std::_Tmap_traits<long,long,std::less<long>,std::allocator<std::pair<long const ,long> >,0> >::_Node::_Node
; Function compile flags: /Ogtpy
; File d:\program files\microsoft visual studio 8\vc\include\xtree
;	COMDAT ??0_Node@?$_Tree_nod@V?$_Tmap_traits@JJU?$less@J@std@@V?$allocator@U?$pair@$$CBJJ@std@@@2@$0A@@std@@@std@@QAE@PAU012@00ABU?$pair@$$CBJJ@2@D@Z
_TEXT	SEGMENT
__Larg$ = 8						; size = 4
__Parg$ = 12						; size = 4
__Rarg$ = 16						; size = 4
__Val$ = 20						; size = 4
__Carg$ = 24						; size = 1
??0_Node@?$_Tree_nod@V?$_Tmap_traits@JJU?$less@J@std@@V?$allocator@U?$pair@$$CBJJ@std@@@2@$0A@@std@@@std@@QAE@PAU012@00ABU?$pair@$$CBJJ@2@D@Z PROC ; std::_Tree_nod<std::_Tmap_traits<long,long,std::less<long>,std::allocator<std::pair<long const ,long> >,0> >::_Node::_Node, COMDAT
; _this$ = ecx

; 43   : 			{	// construct a node with value

  00000	8b 54 24 08	 mov	 edx, DWORD PTR __Parg$[esp-4]
  00004	8b c1		 mov	 eax, ecx
  00006	8b 4c 24 04	 mov	 ecx, DWORD PTR __Larg$[esp-4]
  0000a	89 08		 mov	 DWORD PTR [eax], ecx
  0000c	8b 4c 24 0c	 mov	 ecx, DWORD PTR __Rarg$[esp-4]
  00010	89 48 08	 mov	 DWORD PTR [eax+8], ecx
  00013	8b 4c 24 10	 mov	 ecx, DWORD PTR __Val$[esp-4]
  00017	89 50 04	 mov	 DWORD PTR [eax+4], edx
  0001a	8b 11		 mov	 edx, DWORD PTR [ecx]
  0001c	89 50 0c	 mov	 DWORD PTR [eax+12], edx
  0001f	8b 49 04	 mov	 ecx, DWORD PTR [ecx+4]
  00022	8a 54 24 14	 mov	 dl, BYTE PTR __Carg$[esp-4]
  00026	89 48 10	 mov	 DWORD PTR [eax+16], ecx
  00029	88 50 14	 mov	 BYTE PTR [eax+20], dl
  0002c	c6 40 15 00	 mov	 BYTE PTR [eax+21], 0

; 44   : 			}

  00030	c2 14 00	 ret	 20			; 00000014H
??0_Node@?$_Tree_nod@V?$_Tmap_traits@JJU?$less@J@std@@V?$allocator@U?$pair@$$CBJJ@std@@@2@$0A@@std@@@std@@QAE@PAU012@00ABU?$pair@$$CBJJ@2@D@Z ENDP ; std::_Tree_nod<std::_Tmap_traits<long,long,std::less<long>,std::allocator<std::pair<long const ,long> >,0> >::_Node::_Node
_TEXT	ENDS
PUBLIC	?_Max@?$_Tree@V?$_Tmap_traits@JJU?$less@J@std@@V?$allocator@U?$pair@$$CBJJ@std@@@2@$0A@@std@@@std@@KAPAU_Node@?$_Tree_nod@V?$_Tmap_traits@JJU?$less@J@std@@V?$allocator@U?$pair@$$CBJJ@std@@@2@$0A@@std@@@2@PAU342@@Z ; std::_Tree<std::_Tmap_traits<long,long,std::less<long>,std::allocator<std::pair<long const ,long> >,0> >::_Max
; Function compile flags: /Ogtpy
;	COMDAT ?_Max@?$_Tree@V?$_Tmap_traits@JJU?$less@J@std@@V?$allocator@U?$pair@$$CBJJ@std@@@2@$0A@@std@@@std@@KAPAU_Node@?$_Tree_nod@V?$_Tmap_traits@JJU?$less@J@std@@V?$allocator@U?$pair@$$CBJJ@std@@@2@$0A@@std@@@2@PAU342@@Z
_TEXT	SEGMENT
__Pnode$ = 8						; size = 4
?_Max@?$_Tree@V?$_Tmap_traits@JJU?$less@J@std@@V?$allocator@U?$pair@$$CBJJ@std@@@2@$0A@@std@@@std@@KAPAU_Node@?$_Tree_nod@V?$_Tmap_traits@JJU?$less@J@std@@V?$allocator@U?$pair@$$CBJJ@std@@@2@$0A@@std@@@2@PAU342@@Z PROC ; std::_Tree<std::_Tmap_traits<long,long,std::less<long>,std::allocator<std::pair<long const ,long> >,0> >::_Max, COMDAT

; 1212 : 		while (!_Isnil(_Right(_Pnode)))

  00000	8b 44 24 04	 mov	 eax, DWORD PTR __Pnode$[esp-4]
  00004	8b 48 08	 mov	 ecx, DWORD PTR [eax+8]
  00007	80 79 15 00	 cmp	 BYTE PTR [ecx+21], 0
  0000b	75 0e		 jne	 SHORT $LN1@Max
  0000d	8d 49 00	 npad	 3
$LL2@Max:

; 1213 : 			_Pnode = _Right(_Pnode);

  00010	8b c1		 mov	 eax, ecx
  00012	8b 48 08	 mov	 ecx, DWORD PTR [eax+8]
  00015	80 79 15 00	 cmp	 BYTE PTR [ecx+21], 0
  00019	74 f5		 je	 SHORT $LL2@Max
$LN1@Max:

; 1214 : 		return (_Pnode);
; 1215 : 		}

  0001b	c3		 ret	 0
?_Max@?$_Tree@V?$_Tmap_traits@JJU?$less@J@std@@V?$allocator@U?$pair@$$CBJJ@std@@@2@$0A@@std@@@std@@KAPAU_Node@?$_Tree_nod@V?$_Tmap_traits@JJU?$less@J@std@@V?$allocator@U?$pair@$$CBJJ@std@@@2@$0A@@std@@@2@PAU342@@Z ENDP ; std::_Tree<std::_Tmap_traits<long,long,std::less<long>,std::allocator<std::pair<long const ,long> >,0> >::_Max
_TEXT	ENDS
PUBLIC	?_Min@?$_Tree@V?$_Tmap_traits@JJU?$less@J@std@@V?$allocator@U?$pair@$$CBJJ@std@@@2@$0A@@std@@@std@@KAPAU_Node@?$_Tree_nod@V?$_Tmap_traits@JJU?$less@J@std@@V?$allocator@U?$pair@$$CBJJ@std@@@2@$0A@@std@@@2@PAU342@@Z ; std::_Tree<std::_Tmap_traits<long,long,std::less<long>,std::allocator<std::pair<long const ,long> >,0> >::_Min
; Function compile flags: /Ogtpy
;	COMDAT ?_Min@?$_Tree@V?$_Tmap_traits@JJU?$less@J@std@@V?$allocator@U?$pair@$$CBJJ@std@@@2@$0A@@std@@@std@@KAPAU_Node@?$_Tree_nod@V?$_Tmap_traits@JJU?$less@J@std@@V?$allocator@U?$pair@$$CBJJ@std@@@2@$0A@@std@@@2@PAU342@@Z
_TEXT	SEGMENT
__Pnode$ = 8						; size = 4
?_Min@?$_Tree@V?$_Tmap_traits@JJU?$less@J@std@@V?$allocator@U?$pair@$$CBJJ@std@@@2@$0A@@std@@@std@@KAPAU_Node@?$_Tree_nod@V?$_Tmap_traits@JJU?$less@J@std@@V?$allocator@U?$pair@$$CBJJ@std@@@2@$0A@@std@@@2@PAU342@@Z PROC ; std::_Tree<std::_Tmap_traits<long,long,std::less<long>,std::allocator<std::pair<long const ,long> >,0> >::_Min, COMDAT

; 1219 : 		while (!_Isnil(_Left(_Pnode)))

  00000	8b 44 24 04	 mov	 eax, DWORD PTR __Pnode$[esp-4]
  00004	8b 08		 mov	 ecx, DWORD PTR [eax]
  00006	80 79 15 00	 cmp	 BYTE PTR [ecx+21], 0
  0000a	75 0e		 jne	 SHORT $LN1@Min
  0000c	8d 64 24 00	 npad	 4
$LL2@Min:

; 1220 : 			_Pnode = _Left(_Pnode);

  00010	8b c1		 mov	 eax, ecx
  00012	8b 08		 mov	 ecx, DWORD PTR [eax]
  00014	80 79 15 00	 cmp	 BYTE PTR [ecx+21], 0
  00018	74 f6		 je	 SHORT $LL2@Min
$LN1@Min:

; 1221 : 		return (_Pnode);
; 1222 : 		}

  0001a	c3		 ret	 0
?_Min@?$_Tree@V?$_Tmap_traits@JJU?$less@J@std@@V?$allocator@U?$pair@$$CBJJ@std@@@2@$0A@@std@@@std@@KAPAU_Node@?$_Tree_nod@V?$_Tmap_traits@JJU?$less@J@std@@V?$allocator@U?$pair@$$CBJJ@std@@@2@$0A@@std@@@2@PAU342@@Z ENDP ; std::_Tree<std::_Tmap_traits<long,long,std::less<long>,std::allocator<std::pair<long const ,long> >,0> >::_Min
_TEXT	ENDS
PUBLIC	??0?$allocator@U?$pair@$$CBVCGUID@@PAVCGUIDEvent@GameManager@@@std@@@std@@QAE@XZ ; std::allocator<std::pair<CGUID const ,GameManager::CGUIDEvent *> >::allocator<std::pair<CGUID const ,GameManager::CGUIDEvent *> >
; Function compile flags: /Ogtpy
; File d:\program files\microsoft visual studio 8\vc\include\xmemory
;	COMDAT ??0?$allocator@U?$pair@$$CBVCGUID@@PAVCGUIDEvent@GameManager@@@std@@@std@@QAE@XZ
_TEXT	SEGMENT
??0?$allocator@U?$pair@$$CBVCGUID@@PAVCGUIDEvent@GameManager@@@std@@@std@@QAE@XZ PROC ; std::allocator<std::pair<CGUID const ,GameManager::CGUIDEvent *> >::allocator<std::pair<CGUID const ,GameManager::CGUIDEvent *> >, COMDAT
; _this$ = ecx

; 120  : 	allocator() _THROW0()

  00000	8b c1		 mov	 eax, ecx

; 121  : 		{	// construct default allocator (do nothing)
; 122  : 		}

  00002	c3		 ret	 0
??0?$allocator@U?$pair@$$CBVCGUID@@PAVCGUIDEvent@GameManager@@@std@@@std@@QAE@XZ ENDP ; std::allocator<std::pair<CGUID const ,GameManager::CGUIDEvent *> >::allocator<std::pair<CGUID const ,GameManager::CGUIDEvent *> >
_TEXT	ENDS
PUBLIC	?_Nextnode@?$list@PAVCGUIDEvent@GameManager@@V?$allocator@PAVCGUIDEvent@GameManager@@@std@@@std@@KAAAPAU_Node@?$_List_nod@PAVCGUIDEvent@GameManager@@V?$allocator@PAVCGUIDEvent@GameManager@@@std@@@2@PAU342@@Z ; std::list<GameManager::CGUIDEvent *,std::allocator<GameManager::CGUIDEvent *> >::_Nextnode
; Function compile flags: /Ogtpy
; File d:\program files\microsoft visual studio 8\vc\include\list
;	COMDAT ?_Nextnode@?$list@PAVCGUIDEvent@GameManager@@V?$allocator@PAVCGUIDEvent@GameManager@@@std@@@std@@KAAAPAU_Node@?$_List_nod@PAVCGUIDEvent@GameManager@@V?$allocator@PAVCGUIDEvent@GameManager@@@std@@@2@PAU342@@Z
_TEXT	SEGMENT
__Pnode$ = 8						; size = 4
?_Nextnode@?$list@PAVCGUIDEvent@GameManager@@V?$allocator@PAVCGUIDEvent@GameManager@@@std@@@std@@KAAAPAU_Node@?$_List_nod@PAVCGUIDEvent@GameManager@@V?$allocator@PAVCGUIDEvent@GameManager@@@std@@@2@PAU342@@Z PROC ; std::list<GameManager::CGUIDEvent *,std::allocator<GameManager::CGUIDEvent *> >::_Nextnode, COMDAT

; 111  : 		return ((_Nodepref)(*_Pnode)._Next);

  00000	8b 44 24 04	 mov	 eax, DWORD PTR __Pnode$[esp-4]

; 112  : 		}

  00004	c3		 ret	 0
?_Nextnode@?$list@PAVCGUIDEvent@GameManager@@V?$allocator@PAVCGUIDEvent@GameManager@@@std@@@std@@KAAAPAU_Node@?$_List_nod@PAVCGUIDEvent@GameManager@@V?$allocator@PAVCGUIDEvent@GameManager@@@std@@@2@PAU342@@Z ENDP ; std::list<GameManager::CGUIDEvent *,std::allocator<GameManager::CGUIDEvent *> >::_Nextnode
_TEXT	ENDS
PUBLIC	??0?$allocator@PAVCGUIDEvent@GameManager@@@std@@QAE@XZ ; std::allocator<GameManager::CGUIDEvent *>::allocator<GameManager::CGUIDEvent *>
; Function compile flags: /Ogtpy
; File d:\program files\microsoft visual studio 8\vc\include\xmemory
;	COMDAT ??0?$allocator@PAVCGUIDEvent@GameManager@@@std@@QAE@XZ
_TEXT	SEGMENT
??0?$allocator@PAVCGUIDEvent@GameManager@@@std@@QAE@XZ PROC ; std::allocator<GameManager::CGUIDEvent *>::allocator<GameManager::CGUIDEvent *>, COMDAT
; _this$ = ecx

; 120  : 	allocator() _THROW0()

  00000	8b c1		 mov	 eax, ecx

; 121  : 		{	// construct default allocator (do nothing)
; 122  : 		}

  00002	c3		 ret	 0
??0?$allocator@PAVCGUIDEvent@GameManager@@@std@@QAE@XZ ENDP ; std::allocator<GameManager::CGUIDEvent *>::allocator<GameManager::CGUIDEvent *>
_TEXT	ENDS
PUBLIC	??0?$allocator@U?$pair@$$CBVCGUID@@PAVCBaseObject@@@std@@@std@@QAE@XZ ; std::allocator<std::pair<CGUID const ,CBaseObject *> >::allocator<std::pair<CGUID const ,CBaseObject *> >
; Function compile flags: /Ogtpy
;	COMDAT ??0?$allocator@U?$pair@$$CBVCGUID@@PAVCBaseObject@@@std@@@std@@QAE@XZ
_TEXT	SEGMENT
??0?$allocator@U?$pair@$$CBVCGUID@@PAVCBaseObject@@@std@@@std@@QAE@XZ PROC ; std::allocator<std::pair<CGUID const ,CBaseObject *> >::allocator<std::pair<CGUID const ,CBaseObject *> >, COMDAT
; _this$ = ecx

; 120  : 	allocator() _THROW0()

  00000	8b c1		 mov	 eax, ecx

; 121  : 		{	// construct default allocator (do nothing)
; 122  : 		}

  00002	c3		 ret	 0
??0?$allocator@U?$pair@$$CBVCGUID@@PAVCBaseObject@@@std@@@std@@QAE@XZ ENDP ; std::allocator<std::pair<CGUID const ,CBaseObject *> >::allocator<std::pair<CGUID const ,CBaseObject *> >
_TEXT	ENDS
PUBLIC	?size@?$list@U?$pair@$$CBVCGUID@@PAVCBaseObject@@@std@@V?$allocator@U?$pair@$$CBVCGUID@@PAVCBaseObject@@@std@@@2@@std@@QBEIXZ ; std::list<std::pair<CGUID const ,CBaseObject *>,std::allocator<std::pair<CGUID const ,CBaseObject *> > >::size
; Function compile flags: /Ogtpy
; File d:\program files\microsoft visual studio 8\vc\include\list
;	COMDAT ?size@?$list@U?$pair@$$CBVCGUID@@PAVCBaseObject@@@std@@V?$allocator@U?$pair@$$CBVCGUID@@PAVCBaseObject@@@std@@@2@@std@@QBEIXZ
_TEXT	SEGMENT
?size@?$list@U?$pair@$$CBVCGUID@@PAVCBaseObject@@@std@@V?$allocator@U?$pair@$$CBVCGUID@@PAVCBaseObject@@@std@@@2@@std@@QBEIXZ PROC ; std::list<std::pair<CGUID const ,CBaseObject *>,std::allocator<std::pair<CGUID const ,CBaseObject *> > >::size, COMDAT
; _this$ = ecx

; 604  : 		return (_Mysize);

  00000	8b 41 08	 mov	 eax, DWORD PTR [ecx+8]

; 605  : 		}

  00003	c3		 ret	 0
?size@?$list@U?$pair@$$CBVCGUID@@PAVCBaseObject@@@std@@V?$allocator@U?$pair@$$CBVCGUID@@PAVCBaseObject@@@std@@@2@@std@@QBEIXZ ENDP ; std::list<std::pair<CGUID const ,CBaseObject *>,std::allocator<std::pair<CGUID const ,CBaseObject *> > >::size
_TEXT	ENDS
PUBLIC	__TI2?AVbad_alloc@std@@
PUBLIC	??$_Allocate@D@std@@YAPADIPAD@Z			; std::_Allocate<char>
PUBLIC	__CTA2?AVbad_alloc@std@@
PUBLIC	__CT??_R0?AVbad_alloc@std@@@8??0bad_alloc@std@@QAE@ABV01@@Z12
PUBLIC	??0bad_alloc@std@@QAE@ABV01@@Z			; std::bad_alloc::bad_alloc
PUBLIC	__CT??_R0?AVexception@std@@@8??0exception@std@@QAE@ABV01@@Z12
EXTRN	??2@YAPAXI@Z:PROC				; operator new
EXTRN	__CxxThrowException@8:PROC
EXTRN	??0exception@std@@QAE@ABV01@@Z:PROC		; std::exception::exception
;	COMDAT __CT??_R0?AVexception@std@@@8??0exception@std@@QAE@ABV01@@Z12
; File d:\program files\microsoft visual studio 8\vc\include\exception
xdata$x	SEGMENT
__CT??_R0?AVexception@std@@@8??0exception@std@@QAE@ABV01@@Z12 DD 00H
	DD	FLAT:??_R0?AVexception@std@@@8
	DD	00H
	DD	0ffffffffH
	ORG $+4
	DD	0cH
	DD	FLAT:??0exception@std@@QAE@ABV01@@Z
xdata$x	ENDS
;	COMDAT __CT??_R0?AVbad_alloc@std@@@8??0bad_alloc@std@@QAE@ABV01@@Z12
xdata$x	SEGMENT
__CT??_R0?AVbad_alloc@std@@@8??0bad_alloc@std@@QAE@ABV01@@Z12 DD 00H
	DD	FLAT:??_R0?AVbad_alloc@std@@@8
	DD	00H
	DD	0ffffffffH
	ORG $+4
	DD	0cH
	DD	FLAT:??0bad_alloc@std@@QAE@ABV01@@Z
xdata$x	ENDS
;	COMDAT __CTA2?AVbad_alloc@std@@
xdata$x	SEGMENT
__CTA2?AVbad_alloc@std@@ DD 02H
	DD	FLAT:__CT??_R0?AVbad_alloc@std@@@8??0bad_alloc@std@@QAE@ABV01@@Z12
	DD	FLAT:__CT??_R0?AVexception@std@@@8??0exception@std@@QAE@ABV01@@Z12
xdata$x	ENDS
;	COMDAT __TI2?AVbad_alloc@std@@
xdata$x	SEGMENT
__TI2?AVbad_alloc@std@@ DD 00H
	DD	FLAT:??1bad_alloc@std@@UAE@XZ
	DD	00H
	DD	FLAT:__CTA2?AVbad_alloc@std@@
; Function compile flags: /Ogtpy
; File d:\program files\microsoft visual studio 8\vc\include\xmemory
xdata$x	ENDS
;	COMDAT ??$_Allocate@D@std@@YAPADIPAD@Z
_TEXT	SEGMENT
$T310164 = -12						; size = 12
$T310169 = 8						; size = 4
__Count$ = 8						; size = 4
___formal$ = 12						; size = 4
??$_Allocate@D@std@@YAPADIPAD@Z PROC			; std::_Allocate<char>, COMDAT

; 38   : 	if (_Count <= 0)

  00000	8b 4c 24 04	 mov	 ecx, DWORD PTR __Count$[esp-4]
  00004	83 ec 0c	 sub	 esp, 12			; 0000000cH
  00007	85 c9		 test	 ecx, ecx
  00009	77 0f		 ja	 SHORT $LN3@Allocate

; 39   : 		_Count = 0;

  0000b	33 c9		 xor	 ecx, ecx
$LN1@Allocate:

; 42   : 
; 43   : 		// allocate storage for _Count elements of type _Ty
; 44   : 	return ((_Ty _FARQ *)::operator new(_Count * sizeof (_Ty)));

  0000d	51		 push	 ecx
  0000e	e8 00 00 00 00	 call	 ??2@YAPAXI@Z		; operator new
  00013	83 c4 04	 add	 esp, 4

; 45   : 	}

  00016	83 c4 0c	 add	 esp, 12			; 0000000cH
  00019	c3		 ret	 0
$LN3@Allocate:

; 40   : 	else if (((_SIZT)(-1) / _Count) < sizeof (_Ty))

  0001a	83 c8 ff	 or	 eax, -1
  0001d	33 d2		 xor	 edx, edx
  0001f	f7 f1		 div	 ecx
  00021	83 f8 01	 cmp	 eax, 1
  00024	73 e7		 jae	 SHORT $LN1@Allocate

; 41   : 		_THROW_NCEE(std::bad_alloc, NULL);

  00026	8d 44 24 10	 lea	 eax, DWORD PTR $T310169[esp+8]
  0002a	50		 push	 eax
  0002b	8d 4c 24 04	 lea	 ecx, DWORD PTR $T310164[esp+16]
  0002f	c7 44 24 14 00
	00 00 00	 mov	 DWORD PTR $T310169[esp+12], 0
  00037	e8 00 00 00 00	 call	 ??0exception@std@@QAE@ABQBD@Z ; std::exception::exception
  0003c	68 00 00 00 00	 push	 OFFSET __TI2?AVbad_alloc@std@@
  00041	8d 4c 24 04	 lea	 ecx, DWORD PTR $T310164[esp+16]
  00045	51		 push	 ecx
  00046	c7 44 24 08 00
	00 00 00	 mov	 DWORD PTR $T310164[esp+20], OFFSET ??_7bad_alloc@std@@6B@
  0004e	e8 00 00 00 00	 call	 __CxxThrowException@8
$LN9@Allocate:
$LN8@Allocate:
  00053	cc		 int	 3
??$_Allocate@D@std@@YAPADIPAD@Z ENDP			; std::_Allocate<char>
_TEXT	ENDS
PUBLIC	??0?$allocator@U?$pair@$$CBHPAVCTradeArea@Business@@@std@@@std@@QAE@XZ ; std::allocator<std::pair<int const ,Business::CTradeArea *> >::allocator<std::pair<int const ,Business::CTradeArea *> >
; Function compile flags: /Ogtpy
;	COMDAT ??0?$allocator@U?$pair@$$CBHPAVCTradeArea@Business@@@std@@@std@@QAE@XZ
_TEXT	SEGMENT
??0?$allocator@U?$pair@$$CBHPAVCTradeArea@Business@@@std@@@std@@QAE@XZ PROC ; std::allocator<std::pair<int const ,Business::CTradeArea *> >::allocator<std::pair<int const ,Business::CTradeArea *> >, COMDAT
; _this$ = ecx

; 120  : 	allocator() _THROW0()

  00000	8b c1		 mov	 eax, ecx

; 121  : 		{	// construct default allocator (do nothing)
; 122  : 		}

  00002	c3		 ret	 0
??0?$allocator@U?$pair@$$CBHPAVCTradeArea@Business@@@std@@@std@@QAE@XZ ENDP ; std::allocator<std::pair<int const ,Business::CTradeArea *> >::allocator<std::pair<int const ,Business::CTradeArea *> >
_TEXT	ENDS
PUBLIC	??$swap@D@std@@YAXAAD0@Z			; std::swap<char>
; Function compile flags: /Ogtpy
; File d:\program files\microsoft visual studio 8\vc\include\utility
;	COMDAT ??$swap@D@std@@YAXAAD0@Z
_TEXT	SEGMENT
__Left$ = 8						; size = 4
__Right$ = 12						; size = 4
??$swap@D@std@@YAXAAD0@Z PROC				; std::swap<char>, COMDAT

; 18   : 	_Ty _Tmp = _Left;

  00000	8b 44 24 04	 mov	 eax, DWORD PTR __Left$[esp-4]
  00004	8a 08		 mov	 cl, BYTE PTR [eax]
  00006	56		 push	 esi

; 19   : 	_Left = _Right, _Right = _Tmp;

  00007	8b 74 24 0c	 mov	 esi, DWORD PTR __Right$[esp]
  0000b	8a 16		 mov	 dl, BYTE PTR [esi]
  0000d	88 10		 mov	 BYTE PTR [eax], dl
  0000f	88 0e		 mov	 BYTE PTR [esi], cl
  00011	5e		 pop	 esi

; 20   : 	}

  00012	c3		 ret	 0
??$swap@D@std@@YAXAAD0@Z ENDP				; std::swap<char>
_TEXT	ENDS
PUBLIC	??$_Allocate@U_Node@?$_Tree_nod@V?$_Tmap_traits@JJU?$less@J@std@@V?$allocator@U?$pair@$$CBJJ@std@@@2@$0A@@std@@@std@@@std@@YAPAU_Node@?$_Tree_nod@V?$_Tmap_traits@JJU?$less@J@std@@V?$allocator@U?$pair@$$CBJJ@std@@@2@$0A@@std@@@0@IPAU120@@Z ; std::_Allocate<std::_Tree_nod<std::_Tmap_traits<long,long,std::less<long>,std::allocator<std::pair<long const ,long> >,0> >::_Node>
; Function compile flags: /Ogtpy
; File d:\program files\microsoft visual studio 8\vc\include\xmemory
;	COMDAT ??$_Allocate@U_Node@?$_Tree_nod@V?$_Tmap_traits@JJU?$less@J@std@@V?$allocator@U?$pair@$$CBJJ@std@@@2@$0A@@std@@@std@@@std@@YAPAU_Node@?$_Tree_nod@V?$_Tmap_traits@JJU?$less@J@std@@V?$allocator@U?$pair@$$CBJJ@std@@@2@$0A@@std@@@0@IPAU120@@Z
_TEXT	SEGMENT
$T310181 = -12						; size = 12
$T310185 = 8						; size = 4
__Count$ = 8						; size = 4
___formal$ = 12						; size = 4
??$_Allocate@U_Node@?$_Tree_nod@V?$_Tmap_traits@JJU?$less@J@std@@V?$allocator@U?$pair@$$CBJJ@std@@@2@$0A@@std@@@std@@@std@@YAPAU_Node@?$_Tree_nod@V?$_Tmap_traits@JJU?$less@J@std@@V?$allocator@U?$pair@$$CBJJ@std@@@2@$0A@@std@@@0@IPAU120@@Z PROC ; std::_Allocate<std::_Tree_nod<std::_Tmap_traits<long,long,std::less<long>,std::allocator<std::pair<long const ,long> >,0> >::_Node>, COMDAT

; 38   : 	if (_Count <= 0)

  00000	8b 4c 24 04	 mov	 ecx, DWORD PTR __Count$[esp-4]
  00004	83 ec 0c	 sub	 esp, 12			; 0000000cH
  00007	85 c9		 test	 ecx, ecx
  00009	77 18		 ja	 SHORT $LN3@Allocate@2

; 39   : 		_Count = 0;

  0000b	33 c9		 xor	 ecx, ecx
$LN1@Allocate@2:

; 42   : 
; 43   : 		// allocate storage for _Count elements of type _Ty
; 44   : 	return ((_Ty _FARQ *)::operator new(_Count * sizeof (_Ty)));

  0000d	8d 14 49	 lea	 edx, DWORD PTR [ecx+ecx*2]
  00010	03 d2		 add	 edx, edx
  00012	03 d2		 add	 edx, edx
  00014	03 d2		 add	 edx, edx
  00016	52		 push	 edx
  00017	e8 00 00 00 00	 call	 ??2@YAPAXI@Z		; operator new
  0001c	83 c4 04	 add	 esp, 4

; 45   : 	}

  0001f	83 c4 0c	 add	 esp, 12			; 0000000cH
  00022	c3		 ret	 0
$LN3@Allocate@2:

; 40   : 	else if (((_SIZT)(-1) / _Count) < sizeof (_Ty))

  00023	83 c8 ff	 or	 eax, -1
  00026	33 d2		 xor	 edx, edx
  00028	f7 f1		 div	 ecx
  0002a	83 f8 18	 cmp	 eax, 24			; 00000018H
  0002d	73 de		 jae	 SHORT $LN1@Allocate@2

; 41   : 		_THROW_NCEE(std::bad_alloc, NULL);

  0002f	8d 44 24 10	 lea	 eax, DWORD PTR $T310185[esp+8]
  00033	50		 push	 eax
  00034	8d 4c 24 04	 lea	 ecx, DWORD PTR $T310181[esp+16]
  00038	c7 44 24 14 00
	00 00 00	 mov	 DWORD PTR $T310185[esp+12], 0
  00040	e8 00 00 00 00	 call	 ??0exception@std@@QAE@ABQBD@Z ; std::exception::exception
  00045	68 00 00 00 00	 push	 OFFSET __TI2?AVbad_alloc@std@@
  0004a	8d 4c 24 04	 lea	 ecx, DWORD PTR $T310181[esp+16]
  0004e	51		 push	 ecx
  0004f	c7 44 24 08 00
	00 00 00	 mov	 DWORD PTR $T310181[esp+20], OFFSET ??_7bad_alloc@std@@6B@
  00057	e8 00 00 00 00	 call	 __CxxThrowException@8
$LN9@Allocate@2:
$LN8@Allocate@2:
  0005c	cc		 int	 3
??$_Allocate@U_Node@?$_Tree_nod@V?$_Tmap_traits@JJU?$less@J@std@@V?$allocator@U?$pair@$$CBJJ@std@@@2@$0A@@std@@@std@@@std@@YAPAU_Node@?$_Tree_nod@V?$_Tmap_traits@JJU?$less@J@std@@V?$allocator@U?$pair@$$CBJJ@std@@@2@$0A@@std@@@0@IPAU120@@Z ENDP ; std::_Allocate<std::_Tree_nod<std::_Tmap_traits<long,long,std::less<long>,std::allocator<std::pair<long const ,long> >,0> >::_Node>
_TEXT	ENDS
PUBLIC	??0?$allocator@U?$pair@$$CBHPAVCTradeSpot@Business@@@std@@@std@@QAE@XZ ; std::allocator<std::pair<int const ,Business::CTradeSpot *> >::allocator<std::pair<int const ,Business::CTradeSpot *> >
; Function compile flags: /Ogtpy
;	COMDAT ??0?$allocator@U?$pair@$$CBHPAVCTradeSpot@Business@@@std@@@std@@QAE@XZ
_TEXT	SEGMENT
??0?$allocator@U?$pair@$$CBHPAVCTradeSpot@Business@@@std@@@std@@QAE@XZ PROC ; std::allocator<std::pair<int const ,Business::CTradeSpot *> >::allocator<std::pair<int const ,Business::CTradeSpot *> >, COMDAT
; _this$ = ecx

; 120  : 	allocator() _THROW0()

  00000	8b c1		 mov	 eax, ecx

; 121  : 		{	// construct default allocator (do nothing)
; 122  : 		}

  00002	c3		 ret	 0
??0?$allocator@U?$pair@$$CBHPAVCTradeSpot@Business@@@std@@@std@@QAE@XZ ENDP ; std::allocator<std::pair<int const ,Business::CTradeSpot *> >::allocator<std::pair<int const ,Business::CTradeSpot *> >
_TEXT	ENDS
PUBLIC	??0?$allocator@UtagCreditDesc@Business@@@std@@QAE@XZ ; std::allocator<Business::tagCreditDesc>::allocator<Business::tagCreditDesc>
; Function compile flags: /Ogtpy
;	COMDAT ??0?$allocator@UtagCreditDesc@Business@@@std@@QAE@XZ
_TEXT	SEGMENT
??0?$allocator@UtagCreditDesc@Business@@@std@@QAE@XZ PROC ; std::allocator<Business::tagCreditDesc>::allocator<Business::tagCreditDesc>, COMDAT
; _this$ = ecx

; 120  : 	allocator() _THROW0()

  00000	8b c1		 mov	 eax, ecx

; 121  : 		{	// construct default allocator (do nothing)
; 122  : 		}

  00002	c3		 ret	 0
??0?$allocator@UtagCreditDesc@Business@@@std@@QAE@XZ ENDP ; std::allocator<Business::tagCreditDesc>::allocator<Business::tagCreditDesc>
; Function compile flags: /Ogtpy
_TEXT	ENDS
;	COMDAT ??0bad_alloc@std@@QAE@ABV01@@Z
_TEXT	SEGMENT
___that$ = 8						; size = 4
??0bad_alloc@std@@QAE@ABV01@@Z PROC			; std::bad_alloc::bad_alloc, COMDAT
; _this$ = ecx
  00000	8b 44 24 04	 mov	 eax, DWORD PTR ___that$[esp-4]
  00004	56		 push	 esi
  00005	50		 push	 eax
  00006	8b f1		 mov	 esi, ecx
  00008	e8 00 00 00 00	 call	 ??0exception@std@@QAE@ABV01@@Z ; std::exception::exception
  0000d	c7 06 00 00 00
	00		 mov	 DWORD PTR [esi], OFFSET ??_7bad_alloc@std@@6B@
  00013	8b c6		 mov	 eax, esi
  00015	5e		 pop	 esi
  00016	c2 04 00	 ret	 4
??0bad_alloc@std@@QAE@ABV01@@Z ENDP			; std::bad_alloc::bad_alloc
_TEXT	ENDS
PUBLIC	??0?$allocator@U?$pair@$$CBVCGUID@@H@std@@@std@@QAE@XZ ; std::allocator<std::pair<CGUID const ,int> >::allocator<std::pair<CGUID const ,int> >
; Function compile flags: /Ogtpy
;	COMDAT ??0?$allocator@U?$pair@$$CBVCGUID@@H@std@@@std@@QAE@XZ
_TEXT	SEGMENT
??0?$allocator@U?$pair@$$CBVCGUID@@H@std@@@std@@QAE@XZ PROC ; std::allocator<std::pair<CGUID const ,int> >::allocator<std::pair<CGUID const ,int> >, COMDAT
; _this$ = ecx

; 120  : 	allocator() _THROW0()

  00000	8b c1		 mov	 eax, ecx

; 121  : 		{	// construct default allocator (do nothing)
; 122  : 		}

  00002	c3		 ret	 0
??0?$allocator@U?$pair@$$CBVCGUID@@H@std@@@std@@QAE@XZ ENDP ; std::allocator<std::pair<CGUID const ,int> >::allocator<std::pair<CGUID const ,int> >
_TEXT	ENDS
PUBLIC	??8const_iterator@?$_Tree@V?$_Tset_traits@KU?$less@K@std@@V?$allocator@K@2@$0A@@std@@@std@@QBE_NABV012@@Z ; std::_Tree<std::_Tset_traits<unsigned long,std::less<unsigned long>,std::allocator<unsigned long>,0> >::const_iterator::operator==
; Function compile flags: /Ogtpy
; File d:\program files\microsoft visual studio 8\vc\include\xtree
;	COMDAT ??8const_iterator@?$_Tree@V?$_Tset_traits@KU?$less@K@std@@V?$allocator@K@2@$0A@@std@@@std@@QBE_NABV012@@Z
_TEXT	SEGMENT
__Right$ = 8						; size = 4
??8const_iterator@?$_Tree@V?$_Tset_traits@KU?$less@K@std@@V?$allocator@K@2@$0A@@std@@@std@@QBE_NABV012@@Z PROC ; std::_Tree<std::_Tset_traits<unsigned long,std::less<unsigned long>,std::allocator<unsigned long>,0> >::const_iterator::operator==, COMDAT
; _this$ = ecx

; 288  : 			{	// test for iterator equality

  00000	56		 push	 esi
  00001	8b f1		 mov	 esi, ecx

; 289  : 
; 290  :  #if _HAS_ITERATOR_DEBUGGING
; 291  : 			if (this->_Mycont == 0 || this->_Mycont != _Right._Mycont)
; 292  : 				{
; 293  : 				_DEBUG_ERROR("map/set iterators incompatible");
; 294  : 				_SCL_SECURE_INVALID_ARGUMENT;
; 295  : 				}
; 296  :  #else
; 297  : 			_SCL_SECURE_VALIDATE(this->_Mycont != NULL && this->_Mycont == _Right._Mycont);

  00003	8b 06		 mov	 eax, DWORD PTR [esi]
  00005	85 c0		 test	 eax, eax
  00007	57		 push	 edi
  00008	8b 7c 24 0c	 mov	 edi, DWORD PTR __Right$[esp+4]
  0000c	74 04		 je	 SHORT $LN1@operator@7
  0000e	3b 07		 cmp	 eax, DWORD PTR [edi]
  00010	74 05		 je	 SHORT $LN2@operator@7
$LN1@operator@7:
  00012	e8 00 00 00 00	 call	 __invalid_parameter_noinfo
$LN2@operator@7:

; 298  :  #endif /* _HAS_ITERATOR_DEBUGGING */
; 299  : 
; 300  : 			return (_Ptr == _Right._Ptr);

  00017	8b 46 04	 mov	 eax, DWORD PTR [esi+4]
  0001a	33 c9		 xor	 ecx, ecx
  0001c	3b 47 04	 cmp	 eax, DWORD PTR [edi+4]
  0001f	5f		 pop	 edi
  00020	0f 94 c1	 sete	 cl
  00023	8a c1		 mov	 al, cl
  00025	5e		 pop	 esi

; 301  : 			}

  00026	c2 04 00	 ret	 4
??8const_iterator@?$_Tree@V?$_Tset_traits@KU?$less@K@std@@V?$allocator@K@2@$0A@@std@@@std@@QBE_NABV012@@Z ENDP ; std::_Tree<std::_Tset_traits<unsigned long,std::less<unsigned long>,std::allocator<unsigned long>,0> >::const_iterator::operator==
_TEXT	ENDS
PUBLIC	?_Mynode@const_iterator@?$_Tree@V?$_Tset_traits@KU?$less@K@std@@V?$allocator@K@2@$0A@@std@@@std@@QBEPAU_Node@?$_Tree_nod@V?$_Tset_traits@KU?$less@K@std@@V?$allocator@K@2@$0A@@std@@@3@XZ ; std::_Tree<std::_Tset_traits<unsigned long,std::less<unsigned long>,std::allocator<unsigned long>,0> >::const_iterator::_Mynode
; Function compile flags: /Ogtpy
;	COMDAT ?_Mynode@const_iterator@?$_Tree@V?$_Tset_traits@KU?$less@K@std@@V?$allocator@K@2@$0A@@std@@@std@@QBEPAU_Node@?$_Tree_nod@V?$_Tset_traits@KU?$less@K@std@@V?$allocator@K@2@$0A@@std@@@3@XZ
_TEXT	SEGMENT
?_Mynode@const_iterator@?$_Tree@V?$_Tset_traits@KU?$less@K@std@@V?$allocator@K@2@$0A@@std@@@std@@QBEPAU_Node@?$_Tree_nod@V?$_Tset_traits@KU?$less@K@std@@V?$allocator@K@2@$0A@@std@@@3@XZ PROC ; std::_Tree<std::_Tset_traits<unsigned long,std::less<unsigned long>,std::allocator<unsigned long>,0> >::const_iterator::_Mynode, COMDAT
; _this$ = ecx

; 396  : 			return (_Ptr);

  00000	8b 41 04	 mov	 eax, DWORD PTR [ecx+4]

; 397  : 			}

  00003	c3		 ret	 0
?_Mynode@const_iterator@?$_Tree@V?$_Tset_traits@KU?$less@K@std@@V?$allocator@K@2@$0A@@std@@@std@@QBEPAU_Node@?$_Tree_nod@V?$_Tset_traits@KU?$less@K@std@@V?$allocator@K@2@$0A@@std@@@3@XZ ENDP ; std::_Tree<std::_Tset_traits<unsigned long,std::less<unsigned long>,std::allocator<unsigned long>,0> >::const_iterator::_Mynode
_TEXT	ENDS
PUBLIC	??8?$_Const_iterator@$00@?$list@U?$pair@$$CBVCGUID@@PAVCGUIDEvent@GameManager@@@std@@V?$allocator@U?$pair@$$CBVCGUID@@PAVCGUIDEvent@GameManager@@@std@@@2@@std@@QBE_NABV012@@Z ; std::list<std::pair<CGUID const ,GameManager::CGUIDEvent *>,std::allocator<std::pair<CGUID const ,GameManager::CGUIDEvent *> > >::_Const_iterator<1>::operator==
; Function compile flags: /Ogtpy
; File d:\program files\microsoft visual studio 8\vc\include\list
;	COMDAT ??8?$_Const_iterator@$00@?$list@U?$pair@$$CBVCGUID@@PAVCGUIDEvent@GameManager@@@std@@V?$allocator@U?$pair@$$CBVCGUID@@PAVCGUIDEvent@GameManager@@@std@@@2@@std@@QBE_NABV012@@Z
_TEXT	SEGMENT
__Right$ = 8						; size = 4
??8?$_Const_iterator@$00@?$list@U?$pair@$$CBVCGUID@@PAVCGUIDEvent@GameManager@@@std@@V?$allocator@U?$pair@$$CBVCGUID@@PAVCGUIDEvent@GameManager@@@std@@@2@@std@@QBE_NABV012@@Z PROC ; std::list<std::pair<CGUID const ,GameManager::CGUIDEvent *>,std::allocator<std::pair<CGUID const ,GameManager::CGUIDEvent *> > >::_Const_iterator<1>::operator==, COMDAT
; _this$ = ecx

; 282  : 			{	// test for iterator equality

  00000	56		 push	 esi
  00001	8b f1		 mov	 esi, ecx

; 283  : 
; 284  :  #if _HAS_ITERATOR_DEBUGGING
; 285  : 			_Compat(_Right);
; 286  :  #else
; 287  : 			_SCL_SECURE_TRAITS_VALIDATE(this->_Mycont != NULL && this->_Mycont == _Right._Mycont);

  00003	8b 06		 mov	 eax, DWORD PTR [esi]
  00005	85 c0		 test	 eax, eax
  00007	57		 push	 edi
  00008	8b 7c 24 0c	 mov	 edi, DWORD PTR __Right$[esp+4]
  0000c	74 04		 je	 SHORT $LN1@operator@8
  0000e	3b 07		 cmp	 eax, DWORD PTR [edi]
  00010	74 05		 je	 SHORT $LN2@operator@8
$LN1@operator@8:
  00012	e8 00 00 00 00	 call	 __invalid_parameter_noinfo
$LN2@operator@8:

; 288  :  #endif /* _HAS_ITERATOR_DEBUGGING */
; 289  : 
; 290  : 			return (_Ptr == _Right._Ptr);

  00017	8b 46 04	 mov	 eax, DWORD PTR [esi+4]
  0001a	33 c9		 xor	 ecx, ecx
  0001c	3b 47 04	 cmp	 eax, DWORD PTR [edi+4]
  0001f	5f		 pop	 edi
  00020	0f 94 c1	 sete	 cl
  00023	8a c1		 mov	 al, cl
  00025	5e		 pop	 esi

; 291  : 			}

  00026	c2 04 00	 ret	 4
??8?$_Const_iterator@$00@?$list@U?$pair@$$CBVCGUID@@PAVCGUIDEvent@GameManager@@@std@@V?$allocator@U?$pair@$$CBVCGUID@@PAVCGUIDEvent@GameManager@@@std@@@2@@std@@QBE_NABV012@@Z ENDP ; std::list<std::pair<CGUID const ,GameManager::CGUIDEvent *>,std::allocator<std::pair<CGUID const ,GameManager::CGUIDEvent *> > >::_Const_iterator<1>::operator==
_TEXT	ENDS
PUBLIC	??0?$pair@$$CBVCGUID@@PAVCGUIDEvent@GameManager@@@std@@QAE@ABVCGUID@@ABQAVCGUIDEvent@GameManager@@@Z ; std::pair<CGUID const ,GameManager::CGUIDEvent *>::pair<CGUID const ,GameManager::CGUIDEvent *>
; Function compile flags: /Ogtpy
; File d:\program files\microsoft visual studio 8\vc\include\utility
;	COMDAT ??0?$pair@$$CBVCGUID@@PAVCGUIDEvent@GameManager@@@std@@QAE@ABVCGUID@@ABQAVCGUIDEvent@GameManager@@@Z
_TEXT	SEGMENT
__Val1$ = 8						; size = 4
__Val2$ = 12						; size = 4
??0?$pair@$$CBVCGUID@@PAVCGUIDEvent@GameManager@@@std@@QAE@ABVCGUID@@ABQAVCGUIDEvent@GameManager@@@Z PROC ; std::pair<CGUID const ,GameManager::CGUIDEvent *>::pair<CGUID const ,GameManager::CGUIDEvent *>, COMDAT
; _this$ = ecx

; 37   : 		{	// construct from specified values

  00000	8b c1		 mov	 eax, ecx
  00002	8b 4c 24 04	 mov	 ecx, DWORD PTR __Val1$[esp-4]
  00006	f3 0f 7e 01	 movq	 xmm0, QWORD PTR [ecx]
  0000a	66 0f d6 00	 movq	 QWORD PTR [eax], xmm0
  0000e	f3 0f 7e 41 08	 movq	 xmm0, QWORD PTR [ecx+8]
  00013	8b 4c 24 08	 mov	 ecx, DWORD PTR __Val2$[esp-4]
  00017	66 0f d6 40 08	 movq	 QWORD PTR [eax+8], xmm0
  0001c	8b 11		 mov	 edx, DWORD PTR [ecx]
  0001e	89 50 10	 mov	 DWORD PTR [eax+16], edx

; 38   : 		}

  00021	c2 08 00	 ret	 8
??0?$pair@$$CBVCGUID@@PAVCGUIDEvent@GameManager@@@std@@QAE@ABVCGUID@@ABQAVCGUIDEvent@GameManager@@@Z ENDP ; std::pair<CGUID const ,GameManager::CGUIDEvent *>::pair<CGUID const ,GameManager::CGUIDEvent *>
_TEXT	ENDS
PUBLIC	??8?$_Const_iterator@$00@?$list@PAVCGUIDEvent@GameManager@@V?$allocator@PAVCGUIDEvent@GameManager@@@std@@@std@@QBE_NABV012@@Z ; std::list<GameManager::CGUIDEvent *,std::allocator<GameManager::CGUIDEvent *> >::_Const_iterator<1>::operator==
; Function compile flags: /Ogtpy
; File d:\program files\microsoft visual studio 8\vc\include\list
;	COMDAT ??8?$_Const_iterator@$00@?$list@PAVCGUIDEvent@GameManager@@V?$allocator@PAVCGUIDEvent@GameManager@@@std@@@std@@QBE_NABV012@@Z
_TEXT	SEGMENT
__Right$ = 8						; size = 4
??8?$_Const_iterator@$00@?$list@PAVCGUIDEvent@GameManager@@V?$allocator@PAVCGUIDEvent@GameManager@@@std@@@std@@QBE_NABV012@@Z PROC ; std::list<GameManager::CGUIDEvent *,std::allocator<GameManager::CGUIDEvent *> >::_Const_iterator<1>::operator==, COMDAT
; _this$ = ecx

; 282  : 			{	// test for iterator equality

  00000	56		 push	 esi
  00001	8b f1		 mov	 esi, ecx

; 283  : 
; 284  :  #if _HAS_ITERATOR_DEBUGGING
; 285  : 			_Compat(_Right);
; 286  :  #else
; 287  : 			_SCL_SECURE_TRAITS_VALIDATE(this->_Mycont != NULL && this->_Mycont == _Right._Mycont);

  00003	8b 06		 mov	 eax, DWORD PTR [esi]
  00005	85 c0		 test	 eax, eax
  00007	57		 push	 edi
  00008	8b 7c 24 0c	 mov	 edi, DWORD PTR __Right$[esp+4]
  0000c	74 04		 je	 SHORT $LN1@operator@9
  0000e	3b 07		 cmp	 eax, DWORD PTR [edi]
  00010	74 05		 je	 SHORT $LN2@operator@9
$LN1@operator@9:
  00012	e8 00 00 00 00	 call	 __invalid_parameter_noinfo
$LN2@operator@9:

; 288  :  #endif /* _HAS_ITERATOR_DEBUGGING */
; 289  : 
; 290  : 			return (_Ptr == _Right._Ptr);

  00017	8b 46 04	 mov	 eax, DWORD PTR [esi+4]
  0001a	33 c9		 xor	 ecx, ecx
  0001c	3b 47 04	 cmp	 eax, DWORD PTR [edi+4]
  0001f	5f		 pop	 edi
  00020	0f 94 c1	 sete	 cl
  00023	8a c1		 mov	 al, cl
  00025	5e		 pop	 esi

; 291  : 			}

  00026	c2 04 00	 ret	 4
??8?$_Const_iterator@$00@?$list@PAVCGUIDEvent@GameManager@@V?$allocator@PAVCGUIDEvent@GameManager@@@std@@@std@@QBE_NABV012@@Z ENDP ; std::list<GameManager::CGUIDEvent *,std::allocator<GameManager::CGUIDEvent *> >::_Const_iterator<1>::operator==
_TEXT	ENDS
PUBLIC	??0?$pair@Viterator@?$_Tree@V?$_Tset_traits@KU?$less@K@std@@V?$allocator@K@2@$0A@@std@@@std@@_N@std@@QAE@ABViterator@?$_Tree@V?$_Tset_traits@KU?$less@K@std@@V?$allocator@K@2@$0A@@std@@@1@AB_N@Z ; std::pair<std::_Tree<std::_Tset_traits<unsigned long,std::less<unsigned long>,std::allocator<unsigned long>,0> >::iterator,bool>::pair<std::_Tree<std::_Tset_traits<unsigned long,std::less<unsigned long>,std::allocator<unsigned long>,0> >::iterator,bool>
; Function compile flags: /Ogtpy
; File d:\program files\microsoft visual studio 8\vc\include\utility
;	COMDAT ??0?$pair@Viterator@?$_Tree@V?$_Tset_traits@KU?$less@K@std@@V?$allocator@K@2@$0A@@std@@@std@@_N@std@@QAE@ABViterator@?$_Tree@V?$_Tset_traits@KU?$less@K@std@@V?$allocator@K@2@$0A@@std@@@1@AB_N@Z
_TEXT	SEGMENT
__Val1$ = 8						; size = 4
__Val2$ = 12						; size = 4
??0?$pair@Viterator@?$_Tree@V?$_Tset_traits@KU?$less@K@std@@V?$allocator@K@2@$0A@@std@@@std@@_N@std@@QAE@ABViterator@?$_Tree@V?$_Tset_traits@KU?$less@K@std@@V?$allocator@K@2@$0A@@std@@@1@AB_N@Z PROC ; std::pair<std::_Tree<std::_Tset_traits<unsigned long,std::less<unsigned long>,std::allocator<unsigned long>,0> >::iterator,bool>::pair<std::_Tree<std::_Tset_traits<unsigned long,std::less<unsigned long>,std::allocator<unsigned long>,0> >::iterator,bool>, COMDAT
; _this$ = ecx

; 37   : 		{	// construct from specified values

  00000	8b c1		 mov	 eax, ecx
  00002	8b 4c 24 04	 mov	 ecx, DWORD PTR __Val1$[esp-4]
  00006	8b 11		 mov	 edx, DWORD PTR [ecx]
  00008	89 10		 mov	 DWORD PTR [eax], edx
  0000a	8b 49 04	 mov	 ecx, DWORD PTR [ecx+4]
  0000d	8b 54 24 08	 mov	 edx, DWORD PTR __Val2$[esp-4]
  00011	89 48 04	 mov	 DWORD PTR [eax+4], ecx
  00014	8a 0a		 mov	 cl, BYTE PTR [edx]
  00016	88 48 08	 mov	 BYTE PTR [eax+8], cl

; 38   : 		}

  00019	c2 08 00	 ret	 8
??0?$pair@Viterator@?$_Tree@V?$_Tset_traits@KU?$less@K@std@@V?$allocator@K@2@$0A@@std@@@std@@_N@std@@QAE@ABViterator@?$_Tree@V?$_Tset_traits@KU?$less@K@std@@V?$allocator@K@2@$0A@@std@@@1@AB_N@Z ENDP ; std::pair<std::_Tree<std::_Tset_traits<unsigned long,std::less<unsigned long>,std::allocator<unsigned long>,0> >::iterator,bool>::pair<std::_Tree<std::_Tset_traits<unsigned long,std::less<unsigned long>,std::allocator<unsigned long>,0> >::iterator,bool>
_TEXT	ENDS
PUBLIC	??8?$_Const_iterator@$00@?$list@U?$pair@$$CBVCGUID@@PAVCBaseObject@@@std@@V?$allocator@U?$pair@$$CBVCGUID@@PAVCBaseObject@@@std@@@2@@std@@QBE_NABV012@@Z ; std::list<std::pair<CGUID const ,CBaseObject *>,std::allocator<std::pair<CGUID const ,CBaseObject *> > >::_Const_iterator<1>::operator==
; Function compile flags: /Ogtpy
; File d:\program files\microsoft visual studio 8\vc\include\list
;	COMDAT ??8?$_Const_iterator@$00@?$list@U?$pair@$$CBVCGUID@@PAVCBaseObject@@@std@@V?$allocator@U?$pair@$$CBVCGUID@@PAVCBaseObject@@@std@@@2@@std@@QBE_NABV012@@Z
_TEXT	SEGMENT
__Right$ = 8						; size = 4
??8?$_Const_iterator@$00@?$list@U?$pair@$$CBVCGUID@@PAVCBaseObject@@@std@@V?$allocator@U?$pair@$$CBVCGUID@@PAVCBaseObject@@@std@@@2@@std@@QBE_NABV012@@Z PROC ; std::list<std::pair<CGUID const ,CBaseObject *>,std::allocator<std::pair<CGUID const ,CBaseObject *> > >::_Const_iterator<1>::operator==, COMDAT
; _this$ = ecx

; 282  : 			{	// test for iterator equality

  00000	56		 push	 esi
  00001	8b f1		 mov	 esi, ecx

; 283  : 
; 284  :  #if _HAS_ITERATOR_DEBUGGING
; 285  : 			_Compat(_Right);
; 286  :  #else
; 287  : 			_SCL_SECURE_TRAITS_VALIDATE(this->_Mycont != NULL && this->_Mycont == _Right._Mycont);

  00003	8b 06		 mov	 eax, DWORD PTR [esi]
  00005	85 c0		 test	 eax, eax
  00007	57		 push	 edi
  00008	8b 7c 24 0c	 mov	 edi, DWORD PTR __Right$[esp+4]
  0000c	74 04		 je	 SHORT $LN1@operator@10
  0000e	3b 07		 cmp	 eax, DWORD PTR [edi]
  00010	74 05		 je	 SHORT $LN2@operator@10
$LN1@operator@10:
  00012	e8 00 00 00 00	 call	 __invalid_parameter_noinfo
$LN2@operator@10:

; 288  :  #endif /* _HAS_ITERATOR_DEBUGGING */
; 289  : 
; 290  : 			return (_Ptr == _Right._Ptr);

  00017	8b 46 04	 mov	 eax, DWORD PTR [esi+4]
  0001a	33 c9		 xor	 ecx, ecx
  0001c	3b 47 04	 cmp	 eax, DWORD PTR [edi+4]
  0001f	5f		 pop	 edi
  00020	0f 94 c1	 sete	 cl
  00023	8a c1		 mov	 al, cl
  00025	5e		 pop	 esi

; 291  : 			}

  00026	c2 04 00	 ret	 4
??8?$_Const_iterator@$00@?$list@U?$pair@$$CBVCGUID@@PAVCBaseObject@@@std@@V?$allocator@U?$pair@$$CBVCGUID@@PAVCBaseObject@@@std@@@2@@std@@QBE_NABV012@@Z ENDP ; std::list<std::pair<CGUID const ,CBaseObject *>,std::allocator<std::pair<CGUID const ,CBaseObject *> > >::_Const_iterator<1>::operator==
_TEXT	ENDS
PUBLIC	??0?$allocator@U?$pair@$$CBJJ@std@@@std@@QAE@ABV01@@Z ; std::allocator<std::pair<long const ,long> >::allocator<std::pair<long const ,long> >
; Function compile flags: /Ogtpy
; File d:\program files\microsoft visual studio 8\vc\include\xmemory
;	COMDAT ??0?$allocator@U?$pair@$$CBJJ@std@@@std@@QAE@ABV01@@Z
_TEXT	SEGMENT
___formal$ = 8						; size = 4
??0?$allocator@U?$pair@$$CBJJ@std@@@std@@QAE@ABV01@@Z PROC ; std::allocator<std::pair<long const ,long> >::allocator<std::pair<long const ,long> >, COMDAT
; _this$ = ecx

; 124  : 	allocator(const allocator<_Ty>&) _THROW0()

  00000	8b c1		 mov	 eax, ecx

; 125  : 		{	// construct by copying (do nothing)
; 126  : 		}

  00002	c2 04 00	 ret	 4
??0?$allocator@U?$pair@$$CBJJ@std@@@std@@QAE@ABV01@@Z ENDP ; std::allocator<std::pair<long const ,long> >::allocator<std::pair<long const ,long> >
_TEXT	ENDS
PUBLIC	??0?$allocator@K@std@@QAE@ABV01@@Z		; std::allocator<unsigned long>::allocator<unsigned long>
; Function compile flags: /Ogtpy
;	COMDAT ??0?$allocator@K@std@@QAE@ABV01@@Z
_TEXT	SEGMENT
___formal$ = 8						; size = 4
??0?$allocator@K@std@@QAE@ABV01@@Z PROC			; std::allocator<unsigned long>::allocator<unsigned long>, COMDAT
; _this$ = ecx

; 124  : 	allocator(const allocator<_Ty>&) _THROW0()

  00000	8b c1		 mov	 eax, ecx

; 125  : 		{	// construct by copying (do nothing)
; 126  : 		}

  00002	c2 04 00	 ret	 4
??0?$allocator@K@std@@QAE@ABV01@@Z ENDP			; std::allocator<unsigned long>::allocator<unsigned long>
_TEXT	ENDS
PUBLIC	?_Color@?$_Tree@V?$_Tset_traits@KU?$less@K@std@@V?$allocator@K@2@$0A@@std@@@std@@KAAADPAU_Node@?$_Tree_nod@V?$_Tset_traits@KU?$less@K@std@@V?$allocator@K@2@$0A@@std@@@2@@Z ; std::_Tree<std::_Tset_traits<unsigned long,std::less<unsigned long>,std::allocator<unsigned long>,0> >::_Color
; Function compile flags: /Ogtpy
; File d:\program files\microsoft visual studio 8\vc\include\xtree
;	COMDAT ?_Color@?$_Tree@V?$_Tset_traits@KU?$less@K@std@@V?$allocator@K@2@$0A@@std@@@std@@KAAADPAU_Node@?$_Tree_nod@V?$_Tset_traits@KU?$less@K@std@@V?$allocator@K@2@$0A@@std@@@2@@Z
_TEXT	SEGMENT
__Pnode$ = 8						; size = 4
?_Color@?$_Tree@V?$_Tset_traits@KU?$less@K@std@@V?$allocator@K@2@$0A@@std@@@std@@KAAADPAU_Node@?$_Tree_nod@V?$_Tset_traits@KU?$less@K@std@@V?$allocator@K@2@$0A@@std@@@2@@Z PROC ; std::_Tree<std::_Tset_traits<unsigned long,std::less<unsigned long>,std::allocator<unsigned long>,0> >::_Color, COMDAT

; 141  : 		return ((_Charref)(*_Pnode)._Color);

  00000	8b 44 24 04	 mov	 eax, DWORD PTR __Pnode$[esp-4]
  00004	83 c0 10	 add	 eax, 16			; 00000010H

; 142  : 		}

  00007	c3		 ret	 0
?_Color@?$_Tree@V?$_Tset_traits@KU?$less@K@std@@V?$allocator@K@2@$0A@@std@@@std@@KAAADPAU_Node@?$_Tree_nod@V?$_Tset_traits@KU?$less@K@std@@V?$allocator@K@2@$0A@@std@@@2@@Z ENDP ; std::_Tree<std::_Tset_traits<unsigned long,std::less<unsigned long>,std::allocator<unsigned long>,0> >::_Color
_TEXT	ENDS
PUBLIC	?_Parent@?$_Tree@V?$_Tset_traits@KU?$less@K@std@@V?$allocator@K@2@$0A@@std@@@std@@KAAAPAU_Node@?$_Tree_nod@V?$_Tset_traits@KU?$less@K@std@@V?$allocator@K@2@$0A@@std@@@2@PAU342@@Z ; std::_Tree<std::_Tset_traits<unsigned long,std::less<unsigned long>,std::allocator<unsigned long>,0> >::_Parent
; Function compile flags: /Ogtpy
;	COMDAT ?_Parent@?$_Tree@V?$_Tset_traits@KU?$less@K@std@@V?$allocator@K@2@$0A@@std@@@std@@KAAAPAU_Node@?$_Tree_nod@V?$_Tset_traits@KU?$less@K@std@@V?$allocator@K@2@$0A@@std@@@2@PAU342@@Z
_TEXT	SEGMENT
__Pnode$ = 8						; size = 4
?_Parent@?$_Tree@V?$_Tset_traits@KU?$less@K@std@@V?$allocator@K@2@$0A@@std@@@std@@KAAAPAU_Node@?$_Tree_nod@V?$_Tset_traits@KU?$less@K@std@@V?$allocator@K@2@$0A@@std@@@2@PAU342@@Z PROC ; std::_Tree<std::_Tset_traits<unsigned long,std::less<unsigned long>,std::allocator<unsigned long>,0> >::_Parent, COMDAT

; 161  : 		return ((_Nodepref)(*_Pnode)._Parent);

  00000	8b 44 24 04	 mov	 eax, DWORD PTR __Pnode$[esp-4]
  00004	83 c0 04	 add	 eax, 4

; 162  : 		}

  00007	c3		 ret	 0
?_Parent@?$_Tree@V?$_Tset_traits@KU?$less@K@std@@V?$allocator@K@2@$0A@@std@@@std@@KAAAPAU_Node@?$_Tree_nod@V?$_Tset_traits@KU?$less@K@std@@V?$allocator@K@2@$0A@@std@@@2@PAU342@@Z ENDP ; std::_Tree<std::_Tset_traits<unsigned long,std::less<unsigned long>,std::allocator<unsigned long>,0> >::_Parent
_TEXT	ENDS
PUBLIC	?_Myval@?$_Tree@V?$_Tset_traits@KU?$less@K@std@@V?$allocator@K@2@$0A@@std@@@std@@KAAAKPAU_Node@?$_Tree_nod@V?$_Tset_traits@KU?$less@K@std@@V?$allocator@K@2@$0A@@std@@@2@@Z ; std::_Tree<std::_Tset_traits<unsigned long,std::less<unsigned long>,std::allocator<unsigned long>,0> >::_Myval
; Function compile flags: /Ogtpy
;	COMDAT ?_Myval@?$_Tree@V?$_Tset_traits@KU?$less@K@std@@V?$allocator@K@2@$0A@@std@@@std@@KAAAKPAU_Node@?$_Tree_nod@V?$_Tset_traits@KU?$less@K@std@@V?$allocator@K@2@$0A@@std@@@2@@Z
_TEXT	SEGMENT
__Pnode$ = 8						; size = 4
?_Myval@?$_Tree@V?$_Tset_traits@KU?$less@K@std@@V?$allocator@K@2@$0A@@std@@@std@@KAAAKPAU_Node@?$_Tree_nod@V?$_Tset_traits@KU?$less@K@std@@V?$allocator@K@2@$0A@@std@@@2@@Z PROC ; std::_Tree<std::_Tset_traits<unsigned long,std::less<unsigned long>,std::allocator<unsigned long>,0> >::_Myval, COMDAT

; 171  : 		return ((_Vref)(*_Pnode)._Myval);

  00000	8b 44 24 04	 mov	 eax, DWORD PTR __Pnode$[esp-4]
  00004	83 c0 0c	 add	 eax, 12			; 0000000cH

; 172  : 		}

  00007	c3		 ret	 0
?_Myval@?$_Tree@V?$_Tset_traits@KU?$less@K@std@@V?$allocator@K@2@$0A@@std@@@std@@KAAAKPAU_Node@?$_Tree_nod@V?$_Tset_traits@KU?$less@K@std@@V?$allocator@K@2@$0A@@std@@@2@@Z ENDP ; std::_Tree<std::_Tset_traits<unsigned long,std::less<unsigned long>,std::allocator<unsigned long>,0> >::_Myval
_TEXT	ENDS
PUBLIC	?deallocate@?$allocator@U_Node@?$_Tree_nod@V?$_Tset_traits@KU?$less@K@std@@V?$allocator@K@2@$0A@@std@@@std@@@std@@QAEXPAU_Node@?$_Tree_nod@V?$_Tset_traits@KU?$less@K@std@@V?$allocator@K@2@$0A@@std@@@2@I@Z ; std::allocator<std::_Tree_nod<std::_Tset_traits<unsigned long,std::less<unsigned long>,std::allocator<unsigned long>,0> >::_Node>::deallocate
; Function compile flags: /Ogtpy
; File d:\program files\microsoft visual studio 8\vc\include\xmemory
;	COMDAT ?deallocate@?$allocator@U_Node@?$_Tree_nod@V?$_Tset_traits@KU?$less@K@std@@V?$allocator@K@2@$0A@@std@@@std@@@std@@QAEXPAU_Node@?$_Tree_nod@V?$_Tset_traits@KU?$less@K@std@@V?$allocator@K@2@$0A@@std@@@2@I@Z
_TEXT	SEGMENT
__Ptr$ = 8						; size = 4
___formal$ = 12						; size = 4
?deallocate@?$allocator@U_Node@?$_Tree_nod@V?$_Tset_traits@KU?$less@K@std@@V?$allocator@K@2@$0A@@std@@@std@@@std@@QAEXPAU_Node@?$_Tree_nod@V?$_Tset_traits@KU?$less@K@std@@V?$allocator@K@2@$0A@@std@@@2@I@Z PROC ; std::allocator<std::_Tree_nod<std::_Tset_traits<unsigned long,std::less<unsigned long>,std::allocator<unsigned long>,0> >::_Node>::deallocate, COMDAT
; _this$ = ecx

; 141  : 		::operator delete(_Ptr);

  00000	8b 44 24 04	 mov	 eax, DWORD PTR __Ptr$[esp-4]
  00004	50		 push	 eax
  00005	e8 00 00 00 00	 call	 ??3@YAXPAX@Z		; operator delete
  0000a	59		 pop	 ecx

; 142  : 		}

  0000b	c2 08 00	 ret	 8
?deallocate@?$allocator@U_Node@?$_Tree_nod@V?$_Tset_traits@KU?$less@K@std@@V?$allocator@K@2@$0A@@std@@@std@@@std@@QAEXPAU_Node@?$_Tree_nod@V?$_Tset_traits@KU?$less@K@std@@V?$allocator@K@2@$0A@@std@@@2@I@Z ENDP ; std::allocator<std::_Tree_nod<std::_Tset_traits<unsigned long,std::less<unsigned long>,std::allocator<unsigned long>,0> >::_Node>::deallocate
_TEXT	ENDS
PUBLIC	?_Hashval@?$_Hash@V?$_Hmap_traits@VCGUID@@PAVCGUIDEvent@GameManager@@Vhash_guid_compare@@V?$allocator@U?$pair@$$CBVCGUID@@PAVCGUIDEvent@GameManager@@@std@@@std@@$0A@@stdext@@@stdext@@IBEIABVCGUID@@@Z ; stdext::_Hash<stdext::_Hmap_traits<CGUID,GameManager::CGUIDEvent *,hash_guid_compare,std::allocator<std::pair<CGUID const ,GameManager::CGUIDEvent *> >,0> >::_Hashval
; Function compile flags: /Ogtpy
; File d:\program files\microsoft visual studio 8\vc\include\xhash
;	COMDAT ?_Hashval@?$_Hash@V?$_Hmap_traits@VCGUID@@PAVCGUIDEvent@GameManager@@Vhash_guid_compare@@V?$allocator@U?$pair@$$CBVCGUID@@PAVCGUIDEvent@GameManager@@@std@@@std@@$0A@@stdext@@@stdext@@IBEIABVCGUID@@@Z
_TEXT	SEGMENT
__Keyval$ = 8						; size = 4
?_Hashval@?$_Hash@V?$_Hmap_traits@VCGUID@@PAVCGUIDEvent@GameManager@@Vhash_guid_compare@@V?$allocator@U?$pair@$$CBVCGUID@@PAVCGUIDEvent@GameManager@@@std@@@std@@$0A@@stdext@@@stdext@@IBEIABVCGUID@@@Z PROC ; stdext::_Hash<stdext::_Hmap_traits<CGUID,GameManager::CGUIDEvent *,hash_guid_compare,std::allocator<std::pair<CGUID const ,GameManager::CGUIDEvent *> >,0> >::_Hashval, COMDAT
; _this$ = ecx

; 683  : 		size_type _Num = this->comp(_Keyval) & _Mask;

  00000	8b 54 24 04	 mov	 edx, DWORD PTR __Keyval$[esp-4]
  00004	8b 42 0c	 mov	 eax, DWORD PTR [edx+12]
  00007	03 42 08	 add	 eax, DWORD PTR [edx+8]
  0000a	56		 push	 esi
  0000b	03 42 04	 add	 eax, DWORD PTR [edx+4]
  0000e	8b 71 20	 mov	 esi, DWORD PTR [ecx+32]
  00011	03 02		 add	 eax, DWORD PTR [edx]
  00013	23 c6		 and	 eax, esi

; 684  : 		if (_Maxidx <= _Num)

  00015	39 41 24	 cmp	 DWORD PTR [ecx+36], eax
  00018	77 09		 ja	 SHORT $LN1@Hashval

; 685  : 			_Num -= (_Mask >> 1) + 1;

  0001a	d1 ee		 shr	 esi, 1
  0001c	83 c9 ff	 or	 ecx, -1
  0001f	2b ce		 sub	 ecx, esi
  00021	03 c1		 add	 eax, ecx
$LN1@Hashval:
  00023	5e		 pop	 esi

; 686  : 		return (_Num);
; 687  : 		}

  00024	c2 04 00	 ret	 4
?_Hashval@?$_Hash@V?$_Hmap_traits@VCGUID@@PAVCGUIDEvent@GameManager@@Vhash_guid_compare@@V?$allocator@U?$pair@$$CBVCGUID@@PAVCGUIDEvent@GameManager@@@std@@@std@@$0A@@stdext@@@stdext@@IBEIABVCGUID@@@Z ENDP ; stdext::_Hash<stdext::_Hmap_traits<CGUID,GameManager::CGUIDEvent *,hash_guid_compare,std::allocator<std::pair<CGUID const ,GameManager::CGUIDEvent *> >,0> >::_Hashval
_TEXT	ENDS
PUBLIC	??0?$_Hmap_traits@VCGUID@@PAVCGUIDEvent@GameManager@@Vhash_guid_compare@@V?$allocator@U?$pair@$$CBVCGUID@@PAVCGUIDEvent@GameManager@@@std@@@std@@$0A@@stdext@@QAE@ABVhash_guid_compare@@@Z ; stdext::_Hmap_traits<CGUID,GameManager::CGUIDEvent *,hash_guid_compare,std::allocator<std::pair<CGUID const ,GameManager::CGUIDEvent *> >,0>::_Hmap_traits<CGUID,GameManager::CGUIDEvent *,hash_guid_compare,std::allocator<std::pair<CGUID const ,GameManager::CGUIDEvent *> >,0>
; Function compile flags: /Ogtpy
; File d:\program files\microsoft visual studio 8\vc\include\hash_map
;	COMDAT ??0?$_Hmap_traits@VCGUID@@PAVCGUIDEvent@GameManager@@Vhash_guid_compare@@V?$allocator@U?$pair@$$CBVCGUID@@PAVCGUIDEvent@GameManager@@@std@@@std@@$0A@@stdext@@QAE@ABVhash_guid_compare@@@Z
_TEXT	SEGMENT
__Traits$ = 8						; size = 4
??0?$_Hmap_traits@VCGUID@@PAVCGUIDEvent@GameManager@@Vhash_guid_compare@@V?$allocator@U?$pair@$$CBVCGUID@@PAVCGUIDEvent@GameManager@@@std@@@std@@$0A@@stdext@@QAE@ABVhash_guid_compare@@@Z PROC ; stdext::_Hmap_traits<CGUID,GameManager::CGUIDEvent *,hash_guid_compare,std::allocator<std::pair<CGUID const ,GameManager::CGUIDEvent *> >,0>::_Hmap_traits<CGUID,GameManager::CGUIDEvent *,hash_guid_compare,std::allocator<std::pair<CGUID const ,GameManager::CGUIDEvent *> >,0>, COMDAT
; _this$ = ecx

; 51   : 		{	// construct with specified comparator

  00000	8b c1		 mov	 eax, ecx
  00002	8b 4c 24 04	 mov	 ecx, DWORD PTR __Traits$[esp-4]
  00006	66 8b 11	 mov	 dx, WORD PTR [ecx]
  00009	66 89 10	 mov	 WORD PTR [eax], dx

; 52   : 		}

  0000c	c2 04 00	 ret	 4
??0?$_Hmap_traits@VCGUID@@PAVCGUIDEvent@GameManager@@Vhash_guid_compare@@V?$allocator@U?$pair@$$CBVCGUID@@PAVCGUIDEvent@GameManager@@@std@@@std@@$0A@@stdext@@QAE@ABVhash_guid_compare@@@Z ENDP ; stdext::_Hmap_traits<CGUID,GameManager::CGUIDEvent *,hash_guid_compare,std::allocator<std::pair<CGUID const ,GameManager::CGUIDEvent *> >,0>::_Hmap_traits<CGUID,GameManager::CGUIDEvent *,hash_guid_compare,std::allocator<std::pair<CGUID const ,GameManager::CGUIDEvent *> >,0>
_TEXT	ENDS
PUBLIC	?_Kfn@?$_Hmap_traits@VCGUID@@PAVCGUIDEvent@GameManager@@Vhash_guid_compare@@V?$allocator@U?$pair@$$CBVCGUID@@PAVCGUIDEvent@GameManager@@@std@@@std@@$0A@@stdext@@SAABVCGUID@@ABU?$pair@$$CBVCGUID@@PAVCGUIDEvent@GameManager@@@std@@@Z ; stdext::_Hmap_traits<CGUID,GameManager::CGUIDEvent *,hash_guid_compare,std::allocator<std::pair<CGUID const ,GameManager::CGUIDEvent *> >,0>::_Kfn
; Function compile flags: /Ogtpy
;	COMDAT ?_Kfn@?$_Hmap_traits@VCGUID@@PAVCGUIDEvent@GameManager@@Vhash_guid_compare@@V?$allocator@U?$pair@$$CBVCGUID@@PAVCGUIDEvent@GameManager@@@std@@@std@@$0A@@stdext@@SAABVCGUID@@ABU?$pair@$$CBVCGUID@@PAVCGUIDEvent@GameManager@@@std@@@Z
_TEXT	SEGMENT
__Val$ = 8						; size = 4
?_Kfn@?$_Hmap_traits@VCGUID@@PAVCGUIDEvent@GameManager@@Vhash_guid_compare@@V?$allocator@U?$pair@$$CBVCGUID@@PAVCGUIDEvent@GameManager@@@std@@@std@@$0A@@stdext@@SAABVCGUID@@ABU?$pair@$$CBVCGUID@@PAVCGUIDEvent@GameManager@@@std@@@Z PROC ; stdext::_Hmap_traits<CGUID,GameManager::CGUIDEvent *,hash_guid_compare,std::allocator<std::pair<CGUID const ,GameManager::CGUIDEvent *> >,0>::_Kfn, COMDAT

; 77   : 		return (_Val.first);

  00000	8b 44 24 04	 mov	 eax, DWORD PTR __Val$[esp-4]

; 78   : 		}

  00004	c3		 ret	 0
?_Kfn@?$_Hmap_traits@VCGUID@@PAVCGUIDEvent@GameManager@@Vhash_guid_compare@@V?$allocator@U?$pair@$$CBVCGUID@@PAVCGUIDEvent@GameManager@@@std@@@std@@$0A@@stdext@@SAABVCGUID@@ABU?$pair@$$CBVCGUID@@PAVCGUIDEvent@GameManager@@@std@@@Z ENDP ; stdext::_Hmap_traits<CGUID,GameManager::CGUIDEvent *,hash_guid_compare,std::allocator<std::pair<CGUID const ,GameManager::CGUIDEvent *> >,0>::_Kfn
_TEXT	ENDS
PUBLIC	?_Nextnode@?$list@U?$pair@$$CBVCGUID@@PAVCGUIDEvent@GameManager@@@std@@V?$allocator@U?$pair@$$CBVCGUID@@PAVCGUIDEvent@GameManager@@@std@@@2@@std@@KAAAPAU_Node@?$_List_nod@U?$pair@$$CBVCGUID@@PAVCGUIDEvent@GameManager@@@std@@V?$allocator@U?$pair@$$CBVCGUID@@PAVCGUIDEvent@GameManager@@@std@@@2@@2@PAU342@@Z ; std::list<std::pair<CGUID const ,GameManager::CGUIDEvent *>,std::allocator<std::pair<CGUID const ,GameManager::CGUIDEvent *> > >::_Nextnode
; Function compile flags: /Ogtpy
; File d:\program files\microsoft visual studio 8\vc\include\list
;	COMDAT ?_Nextnode@?$list@U?$pair@$$CBVCGUID@@PAVCGUIDEvent@GameManager@@@std@@V?$allocator@U?$pair@$$CBVCGUID@@PAVCGUIDEvent@GameManager@@@std@@@2@@std@@KAAAPAU_Node@?$_List_nod@U?$pair@$$CBVCGUID@@PAVCGUIDEvent@GameManager@@@std@@V?$allocator@U?$pair@$$CBVCGUID@@PAVCGUIDEvent@GameManager@@@std@@@2@@2@PAU342@@Z
_TEXT	SEGMENT
__Pnode$ = 8						; size = 4
?_Nextnode@?$list@U?$pair@$$CBVCGUID@@PAVCGUIDEvent@GameManager@@@std@@V?$allocator@U?$pair@$$CBVCGUID@@PAVCGUIDEvent@GameManager@@@std@@@2@@std@@KAAAPAU_Node@?$_List_nod@U?$pair@$$CBVCGUID@@PAVCGUIDEvent@GameManager@@@std@@V?$allocator@U?$pair@$$CBVCGUID@@PAVCGUIDEvent@GameManager@@@std@@@2@@2@PAU342@@Z PROC ; std::list<std::pair<CGUID const ,GameManager::CGUIDEvent *>,std::allocator<std::pair<CGUID const ,GameManager::CGUIDEvent *> > >::_Nextnode, COMDAT

; 111  : 		return ((_Nodepref)(*_Pnode)._Next);

  00000	8b 44 24 04	 mov	 eax, DWORD PTR __Pnode$[esp-4]

; 112  : 		}

  00004	c3		 ret	 0
?_Nextnode@?$list@U?$pair@$$CBVCGUID@@PAVCGUIDEvent@GameManager@@@std@@V?$allocator@U?$pair@$$CBVCGUID@@PAVCGUIDEvent@GameManager@@@std@@@2@@std@@KAAAPAU_Node@?$_List_nod@U?$pair@$$CBVCGUID@@PAVCGUIDEvent@GameManager@@@std@@V?$allocator@U?$pair@$$CBVCGUID@@PAVCGUIDEvent@GameManager@@@std@@@2@@2@PAU342@@Z ENDP ; std::list<std::pair<CGUID const ,GameManager::CGUIDEvent *>,std::allocator<std::pair<CGUID const ,GameManager::CGUIDEvent *> > >::_Nextnode
_TEXT	ENDS
PUBLIC	?_Myval@?$list@U?$pair@$$CBVCGUID@@PAVCGUIDEvent@GameManager@@@std@@V?$allocator@U?$pair@$$CBVCGUID@@PAVCGUIDEvent@GameManager@@@std@@@2@@std@@KAAAU?$pair@$$CBVCGUID@@PAVCGUIDEvent@GameManager@@@2@PAU_Node@?$_List_nod@U?$pair@$$CBVCGUID@@PAVCGUIDEvent@GameManager@@@std@@V?$allocator@U?$pair@$$CBVCGUID@@PAVCGUIDEvent@GameManager@@@std@@@2@@2@@Z ; std::list<std::pair<CGUID const ,GameManager::CGUIDEvent *>,std::allocator<std::pair<CGUID const ,GameManager::CGUIDEvent *> > >::_Myval
; Function compile flags: /Ogtpy
;	COMDAT ?_Myval@?$list@U?$pair@$$CBVCGUID@@PAVCGUIDEvent@GameManager@@@std@@V?$allocator@U?$pair@$$CBVCGUID@@PAVCGUIDEvent@GameManager@@@std@@@2@@std@@KAAAU?$pair@$$CBVCGUID@@PAVCGUIDEvent@GameManager@@@2@PAU_Node@?$_List_nod@U?$pair@$$CBVCGUID@@PAVCGUIDEvent@GameManager@@@std@@V?$allocator@U?$pair@$$CBVCGUID@@PAVCGUIDEvent@GameManager@@@std@@@2@@2@@Z
_TEXT	SEGMENT
__Pnode$ = 8						; size = 4
?_Myval@?$list@U?$pair@$$CBVCGUID@@PAVCGUIDEvent@GameManager@@@std@@V?$allocator@U?$pair@$$CBVCGUID@@PAVCGUIDEvent@GameManager@@@std@@@2@@std@@KAAAU?$pair@$$CBVCGUID@@PAVCGUIDEvent@GameManager@@@2@PAU_Node@?$_List_nod@U?$pair@$$CBVCGUID@@PAVCGUIDEvent@GameManager@@@std@@V?$allocator@U?$pair@$$CBVCGUID@@PAVCGUIDEvent@GameManager@@@std@@@2@@2@@Z PROC ; std::list<std::pair<CGUID const ,GameManager::CGUIDEvent *>,std::allocator<std::pair<CGUID const ,GameManager::CGUIDEvent *> > >::_Myval, COMDAT

; 121  : 		return ((_Vref)(*_Pnode)._Myval);

  00000	8b 44 24 04	 mov	 eax, DWORD PTR __Pnode$[esp-4]
  00004	83 c0 08	 add	 eax, 8

; 122  : 		}

  00007	c3		 ret	 0
?_Myval@?$list@U?$pair@$$CBVCGUID@@PAVCGUIDEvent@GameManager@@@std@@V?$allocator@U?$pair@$$CBVCGUID@@PAVCGUIDEvent@GameManager@@@std@@@2@@std@@KAAAU?$pair@$$CBVCGUID@@PAVCGUIDEvent@GameManager@@@2@PAU_Node@?$_List_nod@U?$pair@$$CBVCGUID@@PAVCGUIDEvent@GameManager@@@std@@V?$allocator@U?$pair@$$CBVCGUID@@PAVCGUIDEvent@GameManager@@@std@@@2@@2@@Z ENDP ; std::list<std::pair<CGUID const ,GameManager::CGUIDEvent *>,std::allocator<std::pair<CGUID const ,GameManager::CGUIDEvent *> > >::_Myval
_TEXT	ENDS
PUBLIC	?size@?$vector@U_List_position@?$_Hash@V?$_Hmap_traits@VCGUID@@PAVCGUIDEvent@GameManager@@Vhash_guid_compare@@V?$allocator@U?$pair@$$CBVCGUID@@PAVCGUIDEvent@GameManager@@@std@@@std@@$0A@@stdext@@@stdext@@V?$allocator@U_List_position@?$_Hash@V?$_Hmap_traits@VCGUID@@PAVCGUIDEvent@GameManager@@Vhash_guid_compare@@V?$allocator@U?$pair@$$CBVCGUID@@PAVCGUIDEvent@GameManager@@@std@@@std@@$0A@@stdext@@@stdext@@@std@@@std@@QBEIXZ ; std::vector<stdext::_Hash<stdext::_Hmap_traits<CGUID,GameManager::CGUIDEvent *,hash_guid_compare,std::allocator<std::pair<CGUID const ,GameManager::CGUIDEvent *> >,0> >::_List_position,std::allocator<stdext::_Hash<stdext::_Hmap_traits<CGUID,GameManager::CGUIDEvent *,hash_guid_compare,std::allocator<std::pair<CGUID const ,GameManager::CGUIDEvent *> >,0> >::_List_position> >::size
; Function compile flags: /Ogtpy
; File d:\program files\microsoft visual studio 8\vc\include\vector
;	COMDAT ?size@?$vector@U_List_position@?$_Hash@V?$_Hmap_traits@VCGUID@@PAVCGUIDEvent@GameManager@@Vhash_guid_compare@@V?$allocator@U?$pair@$$CBVCGUID@@PAVCGUIDEvent@GameManager@@@std@@@std@@$0A@@stdext@@@stdext@@V?$allocator@U_List_position@?$_Hash@V?$_Hmap_traits@VCGUID@@PAVCGUIDEvent@GameManager@@Vhash_guid_compare@@V?$allocator@U?$pair@$$CBVCGUID@@PAVCGUIDEvent@GameManager@@@std@@@std@@$0A@@stdext@@@stdext@@@std@@@std@@QBEIXZ
_TEXT	SEGMENT
?size@?$vector@U_List_position@?$_Hash@V?$_Hmap_traits@VCGUID@@PAVCGUIDEvent@GameManager@@Vhash_guid_compare@@V?$allocator@U?$pair@$$CBVCGUID@@PAVCGUIDEvent@GameManager@@@std@@@std@@$0A@@stdext@@@stdext@@V?$allocator@U_List_position@?$_Hash@V?$_Hmap_traits@VCGUID@@PAVCGUIDEvent@GameManager@@Vhash_guid_compare@@V?$allocator@U?$pair@$$CBVCGUID@@PAVCGUIDEvent@GameManager@@@std@@@std@@$0A@@stdext@@@stdext@@@std@@@std@@QBEIXZ PROC ; std::vector<stdext::_Hash<stdext::_Hmap_traits<CGUID,GameManager::CGUIDEvent *,hash_guid_compare,std::allocator<std::pair<CGUID const ,GameManager::CGUIDEvent *> >,0> >::_List_position,std::allocator<stdext::_Hash<stdext::_Hmap_traits<CGUID,GameManager::CGUIDEvent *,hash_guid_compare,std::allocator<std::pair<CGUID const ,GameManager::CGUIDEvent *> >,0> >::_List_position> >::size, COMDAT
; _this$ = ecx

; 703  : 		return (_Myfirst == 0 ? 0 : _Mylast - _Myfirst);

  00000	8b 51 04	 mov	 edx, DWORD PTR [ecx+4]
  00003	85 d2		 test	 edx, edx
  00005	75 03		 jne	 SHORT $LN3@size
  00007	33 c0		 xor	 eax, eax

; 704  : 		}

  00009	c3		 ret	 0
$LN3@size:

; 703  : 		return (_Myfirst == 0 ? 0 : _Mylast - _Myfirst);

  0000a	8b 41 08	 mov	 eax, DWORD PTR [ecx+8]
  0000d	2b c2		 sub	 eax, edx
  0000f	c1 f8 03	 sar	 eax, 3

; 704  : 		}

  00012	c3		 ret	 0
?size@?$vector@U_List_position@?$_Hash@V?$_Hmap_traits@VCGUID@@PAVCGUIDEvent@GameManager@@Vhash_guid_compare@@V?$allocator@U?$pair@$$CBVCGUID@@PAVCGUIDEvent@GameManager@@@std@@@std@@$0A@@stdext@@@stdext@@V?$allocator@U_List_position@?$_Hash@V?$_Hmap_traits@VCGUID@@PAVCGUIDEvent@GameManager@@Vhash_guid_compare@@V?$allocator@U?$pair@$$CBVCGUID@@PAVCGUIDEvent@GameManager@@@std@@@std@@$0A@@stdext@@@stdext@@@std@@@std@@QBEIXZ ENDP ; std::vector<stdext::_Hash<stdext::_Hmap_traits<CGUID,GameManager::CGUIDEvent *,hash_guid_compare,std::allocator<std::pair<CGUID const ,GameManager::CGUIDEvent *> >,0> >::_List_position,std::allocator<stdext::_Hash<stdext::_Hmap_traits<CGUID,GameManager::CGUIDEvent *,hash_guid_compare,std::allocator<std::pair<CGUID const ,GameManager::CGUIDEvent *> >,0> >::_List_position> >::size
_TEXT	ENDS
PUBLIC	??A?$vector@U_List_position@?$_Hash@V?$_Hmap_traits@VCGUID@@PAVCGUIDEvent@GameManager@@Vhash_guid_compare@@V?$allocator@U?$pair@$$CBVCGUID@@PAVCGUIDEvent@GameManager@@@std@@@std@@$0A@@stdext@@@stdext@@V?$allocator@U_List_position@?$_Hash@V?$_Hmap_traits@VCGUID@@PAVCGUIDEvent@GameManager@@Vhash_guid_compare@@V?$allocator@U?$pair@$$CBVCGUID@@PAVCGUIDEvent@GameManager@@@std@@@std@@$0A@@stdext@@@stdext@@@std@@@std@@QAEAAU_List_position@?$_Hash@V?$_Hmap_traits@VCGUID@@PAVCGUIDEvent@GameManager@@Vhash_guid_compare@@V?$allocator@U?$pair@$$CBVCGUID@@PAVCGUIDEvent@GameManager@@@std@@@std@@$0A@@stdext@@@stdext@@I@Z ; std::vector<stdext::_Hash<stdext::_Hmap_traits<CGUID,GameManager::CGUIDEvent *,hash_guid_compare,std::allocator<std::pair<CGUID const ,GameManager::CGUIDEvent *> >,0> >::_List_position,std::allocator<stdext::_Hash<stdext::_Hmap_traits<CGUID,GameManager::CGUIDEvent *,hash_guid_compare,std::allocator<std::pair<CGUID const ,GameManager::CGUIDEvent *> >,0> >::_List_position> >::operator[]
; Function compile flags: /Ogtpy
;	COMDAT ??A?$vector@U_List_position@?$_Hash@V?$_Hmap_traits@VCGUID@@PAVCGUIDEvent@GameManager@@Vhash_guid_compare@@V?$allocator@U?$pair@$$CBVCGUID@@PAVCGUIDEvent@GameManager@@@std@@@std@@$0A@@stdext@@@stdext@@V?$allocator@U_List_position@?$_Hash@V?$_Hmap_traits@VCGUID@@PAVCGUIDEvent@GameManager@@Vhash_guid_compare@@V?$allocator@U?$pair@$$CBVCGUID@@PAVCGUIDEvent@GameManager@@@std@@@std@@$0A@@stdext@@@stdext@@@std@@@std@@QAEAAU_List_position@?$_Hash@V?$_Hmap_traits@VCGUID@@PAVCGUIDEvent@GameManager@@Vhash_guid_compare@@V?$allocator@U?$pair@$$CBVCGUID@@PAVCGUIDEvent@GameManager@@@std@@@std@@$0A@@stdext@@@stdext@@I@Z
_TEXT	SEGMENT
__Pos$ = 8						; size = 4
??A?$vector@U_List_position@?$_Hash@V?$_Hmap_traits@VCGUID@@PAVCGUIDEvent@GameManager@@Vhash_guid_compare@@V?$allocator@U?$pair@$$CBVCGUID@@PAVCGUIDEvent@GameManager@@@std@@@std@@$0A@@stdext@@@stdext@@V?$allocator@U_List_position@?$_Hash@V?$_Hmap_traits@VCGUID@@PAVCGUIDEvent@GameManager@@Vhash_guid_compare@@V?$allocator@U?$pair@$$CBVCGUID@@PAVCGUIDEvent@GameManager@@@std@@@std@@$0A@@stdext@@@stdext@@@std@@@std@@QAEAAU_List_position@?$_Hash@V?$_Hmap_traits@VCGUID@@PAVCGUIDEvent@GameManager@@Vhash_guid_compare@@V?$allocator@U?$pair@$$CBVCGUID@@PAVCGUIDEvent@GameManager@@@std@@@std@@$0A@@stdext@@@stdext@@I@Z PROC ; std::vector<stdext::_Hash<stdext::_Hmap_traits<CGUID,GameManager::CGUIDEvent *,hash_guid_compare,std::allocator<std::pair<CGUID const ,GameManager::CGUIDEvent *> >,0> >::_List_position,std::allocator<stdext::_Hash<stdext::_Hmap_traits<CGUID,GameManager::CGUIDEvent *,hash_guid_compare,std::allocator<std::pair<CGUID const ,GameManager::CGUIDEvent *> >,0> >::_List_position> >::operator[], COMDAT
; _this$ = ecx

; 751  : 		{	// subscript mutable sequence

  00000	56		 push	 esi
  00001	8b f1		 mov	 esi, ecx

; 752  : 
; 753  :  #if _HAS_ITERATOR_DEBUGGING
; 754  : 		if (size() <= _Pos)
; 755  : 			{
; 756  : 			_DEBUG_ERROR("vector subscript out of range");
; 757  : 			_SCL_SECURE_OUT_OF_RANGE;
; 758  : 			}
; 759  :  #endif /* _HAS_ITERATOR_DEBUGGING */
; 760  : 		_SCL_SECURE_VALIDATE_RANGE(_Pos < size());

  00003	8b 4e 04	 mov	 ecx, DWORD PTR [esi+4]
  00006	85 c9		 test	 ecx, ecx
  00008	57		 push	 edi
  00009	8b 7c 24 0c	 mov	 edi, DWORD PTR __Pos$[esp+4]
  0000d	74 0c		 je	 SHORT $LN8@operator@11
  0000f	8b 46 08	 mov	 eax, DWORD PTR [esi+8]
  00012	2b c1		 sub	 eax, ecx
  00014	c1 f8 03	 sar	 eax, 3
  00017	3b f8		 cmp	 edi, eax
  00019	72 05		 jb	 SHORT $LN1@operator@11
$LN8@operator@11:
  0001b	e8 00 00 00 00	 call	 __invalid_parameter_noinfo
$LN1@operator@11:

; 761  : 
; 762  : 		return (*(_Myfirst + _Pos));

  00020	8b 46 04	 mov	 eax, DWORD PTR [esi+4]
  00023	8d 04 f8	 lea	 eax, DWORD PTR [eax+edi*8]
  00026	5f		 pop	 edi
  00027	5e		 pop	 esi

; 763  : 		}

  00028	c2 04 00	 ret	 4
??A?$vector@U_List_position@?$_Hash@V?$_Hmap_traits@VCGUID@@PAVCGUIDEvent@GameManager@@Vhash_guid_compare@@V?$allocator@U?$pair@$$CBVCGUID@@PAVCGUIDEvent@GameManager@@@std@@@std@@$0A@@stdext@@@stdext@@V?$allocator@U_List_position@?$_Hash@V?$_Hmap_traits@VCGUID@@PAVCGUIDEvent@GameManager@@Vhash_guid_compare@@V?$allocator@U?$pair@$$CBVCGUID@@PAVCGUIDEvent@GameManager@@@std@@@std@@$0A@@stdext@@@stdext@@@std@@@std@@QAEAAU_List_position@?$_Hash@V?$_Hmap_traits@VCGUID@@PAVCGUIDEvent@GameManager@@Vhash_guid_compare@@V?$allocator@U?$pair@$$CBVCGUID@@PAVCGUIDEvent@GameManager@@@std@@@std@@$0A@@stdext@@@stdext@@I@Z ENDP ; std::vector<stdext::_Hash<stdext::_Hmap_traits<CGUID,GameManager::CGUIDEvent *,hash_guid_compare,std::allocator<std::pair<CGUID const ,GameManager::CGUIDEvent *> >,0> >::_List_position,std::allocator<stdext::_Hash<stdext::_Hmap_traits<CGUID,GameManager::CGUIDEvent *,hash_guid_compare,std::allocator<std::pair<CGUID const ,GameManager::CGUIDEvent *> >,0> >::_List_position> >::operator[]
_TEXT	ENDS
PUBLIC	?_Prevnode@?$list@PAVCGUIDEvent@GameManager@@V?$allocator@PAVCGUIDEvent@GameManager@@@std@@@std@@KAAAPAU_Node@?$_List_nod@PAVCGUIDEvent@GameManager@@V?$allocator@PAVCGUIDEvent@GameManager@@@std@@@2@PAU342@@Z ; std::list<GameManager::CGUIDEvent *,std::allocator<GameManager::CGUIDEvent *> >::_Prevnode
; Function compile flags: /Ogtpy
; File d:\program files\microsoft visual studio 8\vc\include\list
;	COMDAT ?_Prevnode@?$list@PAVCGUIDEvent@GameManager@@V?$allocator@PAVCGUIDEvent@GameManager@@@std@@@std@@KAAAPAU_Node@?$_List_nod@PAVCGUIDEvent@GameManager@@V?$allocator@PAVCGUIDEvent@GameManager@@@std@@@2@PAU342@@Z
_TEXT	SEGMENT
__Pnode$ = 8						; size = 4
?_Prevnode@?$list@PAVCGUIDEvent@GameManager@@V?$allocator@PAVCGUIDEvent@GameManager@@@std@@@std@@KAAAPAU_Node@?$_List_nod@PAVCGUIDEvent@GameManager@@V?$allocator@PAVCGUIDEvent@GameManager@@@std@@@2@PAU342@@Z PROC ; std::list<GameManager::CGUIDEvent *,std::allocator<GameManager::CGUIDEvent *> >::_Prevnode, COMDAT

; 116  : 		return ((_Nodepref)(*_Pnode)._Prev);

  00000	8b 44 24 04	 mov	 eax, DWORD PTR __Pnode$[esp-4]
  00004	83 c0 04	 add	 eax, 4

; 117  : 		}

  00007	c3		 ret	 0
?_Prevnode@?$list@PAVCGUIDEvent@GameManager@@V?$allocator@PAVCGUIDEvent@GameManager@@@std@@@std@@KAAAPAU_Node@?$_List_nod@PAVCGUIDEvent@GameManager@@V?$allocator@PAVCGUIDEvent@GameManager@@@std@@@2@PAU342@@Z ENDP ; std::list<GameManager::CGUIDEvent *,std::allocator<GameManager::CGUIDEvent *> >::_Prevnode
_TEXT	ENDS
PUBLIC	?_Myval@?$list@PAVCGUIDEvent@GameManager@@V?$allocator@PAVCGUIDEvent@GameManager@@@std@@@std@@KAAAPAVCGUIDEvent@GameManager@@PAU_Node@?$_List_nod@PAVCGUIDEvent@GameManager@@V?$allocator@PAVCGUIDEvent@GameManager@@@std@@@2@@Z ; std::list<GameManager::CGUIDEvent *,std::allocator<GameManager::CGUIDEvent *> >::_Myval
; Function compile flags: /Ogtpy
;	COMDAT ?_Myval@?$list@PAVCGUIDEvent@GameManager@@V?$allocator@PAVCGUIDEvent@GameManager@@@std@@@std@@KAAAPAVCGUIDEvent@GameManager@@PAU_Node@?$_List_nod@PAVCGUIDEvent@GameManager@@V?$allocator@PAVCGUIDEvent@GameManager@@@std@@@2@@Z
_TEXT	SEGMENT
__Pnode$ = 8						; size = 4
?_Myval@?$list@PAVCGUIDEvent@GameManager@@V?$allocator@PAVCGUIDEvent@GameManager@@@std@@@std@@KAAAPAVCGUIDEvent@GameManager@@PAU_Node@?$_List_nod@PAVCGUIDEvent@GameManager@@V?$allocator@PAVCGUIDEvent@GameManager@@@std@@@2@@Z PROC ; std::list<GameManager::CGUIDEvent *,std::allocator<GameManager::CGUIDEvent *> >::_Myval, COMDAT

; 121  : 		return ((_Vref)(*_Pnode)._Myval);

  00000	8b 44 24 04	 mov	 eax, DWORD PTR __Pnode$[esp-4]
  00004	83 c0 08	 add	 eax, 8

; 122  : 		}

  00007	c3		 ret	 0
?_Myval@?$list@PAVCGUIDEvent@GameManager@@V?$allocator@PAVCGUIDEvent@GameManager@@@std@@@std@@KAAAPAVCGUIDEvent@GameManager@@PAU_Node@?$_List_nod@PAVCGUIDEvent@GameManager@@V?$allocator@PAVCGUIDEvent@GameManager@@@std@@@2@@Z ENDP ; std::list<GameManager::CGUIDEvent *,std::allocator<GameManager::CGUIDEvent *> >::_Myval
_TEXT	ENDS
PUBLIC	??0?$allocator@PAVCGUIDEvent@GameManager@@@std@@QAE@ABV01@@Z ; std::allocator<GameManager::CGUIDEvent *>::allocator<GameManager::CGUIDEvent *>
; Function compile flags: /Ogtpy
; File d:\program files\microsoft visual studio 8\vc\include\xmemory
;	COMDAT ??0?$allocator@PAVCGUIDEvent@GameManager@@@std@@QAE@ABV01@@Z
_TEXT	SEGMENT
___formal$ = 8						; size = 4
??0?$allocator@PAVCGUIDEvent@GameManager@@@std@@QAE@ABV01@@Z PROC ; std::allocator<GameManager::CGUIDEvent *>::allocator<GameManager::CGUIDEvent *>, COMDAT
; _this$ = ecx

; 124  : 	allocator(const allocator<_Ty>&) _THROW0()

  00000	8b c1		 mov	 eax, ecx

; 125  : 		{	// construct by copying (do nothing)
; 126  : 		}

  00002	c2 04 00	 ret	 4
??0?$allocator@PAVCGUIDEvent@GameManager@@@std@@QAE@ABV01@@Z ENDP ; std::allocator<GameManager::CGUIDEvent *>::allocator<GameManager::CGUIDEvent *>
_TEXT	ENDS
PUBLIC	?deallocate@?$allocator@U_Node@?$_List_nod@PAVCGUIDEvent@GameManager@@V?$allocator@PAVCGUIDEvent@GameManager@@@std@@@std@@@std@@QAEXPAU_Node@?$_List_nod@PAVCGUIDEvent@GameManager@@V?$allocator@PAVCGUIDEvent@GameManager@@@std@@@2@I@Z ; std::allocator<std::_List_nod<GameManager::CGUIDEvent *,std::allocator<GameManager::CGUIDEvent *> >::_Node>::deallocate
; Function compile flags: /Ogtpy
;	COMDAT ?deallocate@?$allocator@U_Node@?$_List_nod@PAVCGUIDEvent@GameManager@@V?$allocator@PAVCGUIDEvent@GameManager@@@std@@@std@@@std@@QAEXPAU_Node@?$_List_nod@PAVCGUIDEvent@GameManager@@V?$allocator@PAVCGUIDEvent@GameManager@@@std@@@2@I@Z
_TEXT	SEGMENT
__Ptr$ = 8						; size = 4
___formal$ = 12						; size = 4
?deallocate@?$allocator@U_Node@?$_List_nod@PAVCGUIDEvent@GameManager@@V?$allocator@PAVCGUIDEvent@GameManager@@@std@@@std@@@std@@QAEXPAU_Node@?$_List_nod@PAVCGUIDEvent@GameManager@@V?$allocator@PAVCGUIDEvent@GameManager@@@std@@@2@I@Z PROC ; std::allocator<std::_List_nod<GameManager::CGUIDEvent *,std::allocator<GameManager::CGUIDEvent *> >::_Node>::deallocate, COMDAT
; _this$ = ecx

; 141  : 		::operator delete(_Ptr);

  00000	8b 44 24 04	 mov	 eax, DWORD PTR __Ptr$[esp-4]
  00004	50		 push	 eax
  00005	e8 00 00 00 00	 call	 ??3@YAXPAX@Z		; operator delete
  0000a	59		 pop	 ecx

; 142  : 		}

  0000b	c2 08 00	 ret	 8
?deallocate@?$allocator@U_Node@?$_List_nod@PAVCGUIDEvent@GameManager@@V?$allocator@PAVCGUIDEvent@GameManager@@@std@@@std@@@std@@QAEXPAU_Node@?$_List_nod@PAVCGUIDEvent@GameManager@@V?$allocator@PAVCGUIDEvent@GameManager@@@std@@@2@I@Z ENDP ; std::allocator<std::_List_nod<GameManager::CGUIDEvent *,std::allocator<GameManager::CGUIDEvent *> >::_Node>::deallocate
_TEXT	ENDS
PUBLIC	?_Hashval@?$_Hash@V?$_Hmap_traits@VCGUID@@PAVCBaseObject@@Vhash_guid_compare@@V?$allocator@U?$pair@$$CBVCGUID@@PAVCBaseObject@@@std@@@std@@$0A@@stdext@@@stdext@@IBEIABVCGUID@@@Z ; stdext::_Hash<stdext::_Hmap_traits<CGUID,CBaseObject *,hash_guid_compare,std::allocator<std::pair<CGUID const ,CBaseObject *> >,0> >::_Hashval
; Function compile flags: /Ogtpy
; File d:\program files\microsoft visual studio 8\vc\include\xhash
;	COMDAT ?_Hashval@?$_Hash@V?$_Hmap_traits@VCGUID@@PAVCBaseObject@@Vhash_guid_compare@@V?$allocator@U?$pair@$$CBVCGUID@@PAVCBaseObject@@@std@@@std@@$0A@@stdext@@@stdext@@IBEIABVCGUID@@@Z
_TEXT	SEGMENT
__Keyval$ = 8						; size = 4
?_Hashval@?$_Hash@V?$_Hmap_traits@VCGUID@@PAVCBaseObject@@Vhash_guid_compare@@V?$allocator@U?$pair@$$CBVCGUID@@PAVCBaseObject@@@std@@@std@@$0A@@stdext@@@stdext@@IBEIABVCGUID@@@Z PROC ; stdext::_Hash<stdext::_Hmap_traits<CGUID,CBaseObject *,hash_guid_compare,std::allocator<std::pair<CGUID const ,CBaseObject *> >,0> >::_Hashval, COMDAT
; _this$ = ecx

; 683  : 		size_type _Num = this->comp(_Keyval) & _Mask;

  00000	8b 54 24 04	 mov	 edx, DWORD PTR __Keyval$[esp-4]
  00004	8b 42 0c	 mov	 eax, DWORD PTR [edx+12]
  00007	03 42 08	 add	 eax, DWORD PTR [edx+8]
  0000a	56		 push	 esi
  0000b	03 42 04	 add	 eax, DWORD PTR [edx+4]
  0000e	8b 71 20	 mov	 esi, DWORD PTR [ecx+32]
  00011	03 02		 add	 eax, DWORD PTR [edx]
  00013	23 c6		 and	 eax, esi

; 684  : 		if (_Maxidx <= _Num)

  00015	39 41 24	 cmp	 DWORD PTR [ecx+36], eax
  00018	77 09		 ja	 SHORT $LN1@Hashval@2

; 685  : 			_Num -= (_Mask >> 1) + 1;

  0001a	d1 ee		 shr	 esi, 1
  0001c	83 c9 ff	 or	 ecx, -1
  0001f	2b ce		 sub	 ecx, esi
  00021	03 c1		 add	 eax, ecx
$LN1@Hashval@2:
  00023	5e		 pop	 esi

; 686  : 		return (_Num);
; 687  : 		}

  00024	c2 04 00	 ret	 4
?_Hashval@?$_Hash@V?$_Hmap_traits@VCGUID@@PAVCBaseObject@@Vhash_guid_compare@@V?$allocator@U?$pair@$$CBVCGUID@@PAVCBaseObject@@@std@@@std@@$0A@@stdext@@@stdext@@IBEIABVCGUID@@@Z ENDP ; stdext::_Hash<stdext::_Hmap_traits<CGUID,CBaseObject *,hash_guid_compare,std::allocator<std::pair<CGUID const ,CBaseObject *> >,0> >::_Hashval
_TEXT	ENDS
PUBLIC	??0?$_Hmap_traits@VCGUID@@PAVCBaseObject@@Vhash_guid_compare@@V?$allocator@U?$pair@$$CBVCGUID@@PAVCBaseObject@@@std@@@std@@$0A@@stdext@@QAE@ABVhash_guid_compare@@@Z ; stdext::_Hmap_traits<CGUID,CBaseObject *,hash_guid_compare,std::allocator<std::pair<CGUID const ,CBaseObject *> >,0>::_Hmap_traits<CGUID,CBaseObject *,hash_guid_compare,std::allocator<std::pair<CGUID const ,CBaseObject *> >,0>
; Function compile flags: /Ogtpy
; File d:\program files\microsoft visual studio 8\vc\include\hash_map
;	COMDAT ??0?$_Hmap_traits@VCGUID@@PAVCBaseObject@@Vhash_guid_compare@@V?$allocator@U?$pair@$$CBVCGUID@@PAVCBaseObject@@@std@@@std@@$0A@@stdext@@QAE@ABVhash_guid_compare@@@Z
_TEXT	SEGMENT
__Traits$ = 8						; size = 4
??0?$_Hmap_traits@VCGUID@@PAVCBaseObject@@Vhash_guid_compare@@V?$allocator@U?$pair@$$CBVCGUID@@PAVCBaseObject@@@std@@@std@@$0A@@stdext@@QAE@ABVhash_guid_compare@@@Z PROC ; stdext::_Hmap_traits<CGUID,CBaseObject *,hash_guid_compare,std::allocator<std::pair<CGUID const ,CBaseObject *> >,0>::_Hmap_traits<CGUID,CBaseObject *,hash_guid_compare,std::allocator<std::pair<CGUID const ,CBaseObject *> >,0>, COMDAT
; _this$ = ecx

; 51   : 		{	// construct with specified comparator

  00000	8b c1		 mov	 eax, ecx
  00002	8b 4c 24 04	 mov	 ecx, DWORD PTR __Traits$[esp-4]
  00006	66 8b 11	 mov	 dx, WORD PTR [ecx]
  00009	66 89 10	 mov	 WORD PTR [eax], dx

; 52   : 		}

  0000c	c2 04 00	 ret	 4
??0?$_Hmap_traits@VCGUID@@PAVCBaseObject@@Vhash_guid_compare@@V?$allocator@U?$pair@$$CBVCGUID@@PAVCBaseObject@@@std@@@std@@$0A@@stdext@@QAE@ABVhash_guid_compare@@@Z ENDP ; stdext::_Hmap_traits<CGUID,CBaseObject *,hash_guid_compare,std::allocator<std::pair<CGUID const ,CBaseObject *> >,0>::_Hmap_traits<CGUID,CBaseObject *,hash_guid_compare,std::allocator<std::pair<CGUID const ,CBaseObject *> >,0>
_TEXT	ENDS
PUBLIC	?_Kfn@?$_Hmap_traits@VCGUID@@PAVCBaseObject@@Vhash_guid_compare@@V?$allocator@U?$pair@$$CBVCGUID@@PAVCBaseObject@@@std@@@std@@$0A@@stdext@@SAABVCGUID@@ABU?$pair@$$CBVCGUID@@PAVCBaseObject@@@std@@@Z ; stdext::_Hmap_traits<CGUID,CBaseObject *,hash_guid_compare,std::allocator<std::pair<CGUID const ,CBaseObject *> >,0>::_Kfn
; Function compile flags: /Ogtpy
;	COMDAT ?_Kfn@?$_Hmap_traits@VCGUID@@PAVCBaseObject@@Vhash_guid_compare@@V?$allocator@U?$pair@$$CBVCGUID@@PAVCBaseObject@@@std@@@std@@$0A@@stdext@@SAABVCGUID@@ABU?$pair@$$CBVCGUID@@PAVCBaseObject@@@std@@@Z
_TEXT	SEGMENT
__Val$ = 8						; size = 4
?_Kfn@?$_Hmap_traits@VCGUID@@PAVCBaseObject@@Vhash_guid_compare@@V?$allocator@U?$pair@$$CBVCGUID@@PAVCBaseObject@@@std@@@std@@$0A@@stdext@@SAABVCGUID@@ABU?$pair@$$CBVCGUID@@PAVCBaseObject@@@std@@@Z PROC ; stdext::_Hmap_traits<CGUID,CBaseObject *,hash_guid_compare,std::allocator<std::pair<CGUID const ,CBaseObject *> >,0>::_Kfn, COMDAT

; 77   : 		return (_Val.first);

  00000	8b 44 24 04	 mov	 eax, DWORD PTR __Val$[esp-4]

; 78   : 		}

  00004	c3		 ret	 0
?_Kfn@?$_Hmap_traits@VCGUID@@PAVCBaseObject@@Vhash_guid_compare@@V?$allocator@U?$pair@$$CBVCGUID@@PAVCBaseObject@@@std@@@std@@$0A@@stdext@@SAABVCGUID@@ABU?$pair@$$CBVCGUID@@PAVCBaseObject@@@std@@@Z ENDP ; stdext::_Hmap_traits<CGUID,CBaseObject *,hash_guid_compare,std::allocator<std::pair<CGUID const ,CBaseObject *> >,0>::_Kfn
_TEXT	ENDS
PUBLIC	?_Left@?$_Tree@V?$_Tmap_traits@HPAVCTradeArea@Business@@U?$less@H@std@@V?$allocator@U?$pair@$$CBHPAVCTradeArea@Business@@@std@@@4@$0A@@std@@@std@@KAAAPAU_Node@?$_Tree_nod@V?$_Tmap_traits@HPAVCTradeArea@Business@@U?$less@H@std@@V?$allocator@U?$pair@$$CBHPAVCTradeArea@Business@@@std@@@4@$0A@@std@@@2@PAU342@@Z ; std::_Tree<std::_Tmap_traits<int,Business::CTradeArea *,std::less<int>,std::allocator<std::pair<int const ,Business::CTradeArea *> >,0> >::_Left
; Function compile flags: /Ogtpy
; File d:\program files\microsoft visual studio 8\vc\include\xtree
;	COMDAT ?_Left@?$_Tree@V?$_Tmap_traits@HPAVCTradeArea@Business@@U?$less@H@std@@V?$allocator@U?$pair@$$CBHPAVCTradeArea@Business@@@std@@@4@$0A@@std@@@std@@KAAAPAU_Node@?$_Tree_nod@V?$_Tmap_traits@HPAVCTradeArea@Business@@U?$less@H@std@@V?$allocator@U?$pair@$$CBHPAVCTradeArea@Business@@@std@@@4@$0A@@std@@@2@PAU342@@Z
_TEXT	SEGMENT
__Pnode$ = 8						; size = 4
?_Left@?$_Tree@V?$_Tmap_traits@HPAVCTradeArea@Business@@U?$less@H@std@@V?$allocator@U?$pair@$$CBHPAVCTradeArea@Business@@@std@@@4@$0A@@std@@@std@@KAAAPAU_Node@?$_Tree_nod@V?$_Tmap_traits@HPAVCTradeArea@Business@@U?$less@H@std@@V?$allocator@U?$pair@$$CBHPAVCTradeArea@Business@@@std@@@4@$0A@@std@@@2@PAU342@@Z PROC ; std::_Tree<std::_Tmap_traits<int,Business::CTradeArea *,std::less<int>,std::allocator<std::pair<int const ,Business::CTradeArea *> >,0> >::_Left, COMDAT

; 156  : 		return ((_Nodepref)(*_Pnode)._Left);

  00000	8b 44 24 04	 mov	 eax, DWORD PTR __Pnode$[esp-4]

; 157  : 		}

  00004	c3		 ret	 0
?_Left@?$_Tree@V?$_Tmap_traits@HPAVCTradeArea@Business@@U?$less@H@std@@V?$allocator@U?$pair@$$CBHPAVCTradeArea@Business@@@std@@@4@$0A@@std@@@std@@KAAAPAU_Node@?$_Tree_nod@V?$_Tmap_traits@HPAVCTradeArea@Business@@U?$less@H@std@@V?$allocator@U?$pair@$$CBHPAVCTradeArea@Business@@@std@@@4@$0A@@std@@@2@PAU342@@Z ENDP ; std::_Tree<std::_Tmap_traits<int,Business::CTradeArea *,std::less<int>,std::allocator<std::pair<int const ,Business::CTradeArea *> >,0> >::_Left
_TEXT	ENDS
PUBLIC	?_Parent@?$_Tree@V?$_Tmap_traits@HPAVCTradeArea@Business@@U?$less@H@std@@V?$allocator@U?$pair@$$CBHPAVCTradeArea@Business@@@std@@@4@$0A@@std@@@std@@KAAAPAU_Node@?$_Tree_nod@V?$_Tmap_traits@HPAVCTradeArea@Business@@U?$less@H@std@@V?$allocator@U?$pair@$$CBHPAVCTradeArea@Business@@@std@@@4@$0A@@std@@@2@PAU342@@Z ; std::_Tree<std::_Tmap_traits<int,Business::CTradeArea *,std::less<int>,std::allocator<std::pair<int const ,Business::CTradeArea *> >,0> >::_Parent
; Function compile flags: /Ogtpy
;	COMDAT ?_Parent@?$_Tree@V?$_Tmap_traits@HPAVCTradeArea@Business@@U?$less@H@std@@V?$allocator@U?$pair@$$CBHPAVCTradeArea@Business@@@std@@@4@$0A@@std@@@std@@KAAAPAU_Node@?$_Tree_nod@V?$_Tmap_traits@HPAVCTradeArea@Business@@U?$less@H@std@@V?$allocator@U?$pair@$$CBHPAVCTradeArea@Business@@@std@@@4@$0A@@std@@@2@PAU342@@Z
_TEXT	SEGMENT
__Pnode$ = 8						; size = 4
?_Parent@?$_Tree@V?$_Tmap_traits@HPAVCTradeArea@Business@@U?$less@H@std@@V?$allocator@U?$pair@$$CBHPAVCTradeArea@Business@@@std@@@4@$0A@@std@@@std@@KAAAPAU_Node@?$_Tree_nod@V?$_Tmap_traits@HPAVCTradeArea@Business@@U?$less@H@std@@V?$allocator@U?$pair@$$CBHPAVCTradeArea@Business@@@std@@@4@$0A@@std@@@2@PAU342@@Z PROC ; std::_Tree<std::_Tmap_traits<int,Business::CTradeArea *,std::less<int>,std::allocator<std::pair<int const ,Business::CTradeArea *> >,0> >::_Parent, COMDAT

; 161  : 		return ((_Nodepref)(*_Pnode)._Parent);

  00000	8b 44 24 04	 mov	 eax, DWORD PTR __Pnode$[esp-4]
  00004	83 c0 04	 add	 eax, 4

; 162  : 		}

  00007	c3		 ret	 0
?_Parent@?$_Tree@V?$_Tmap_traits@HPAVCTradeArea@Business@@U?$less@H@std@@V?$allocator@U?$pair@$$CBHPAVCTradeArea@Business@@@std@@@4@$0A@@std@@@std@@KAAAPAU_Node@?$_Tree_nod@V?$_Tmap_traits@HPAVCTradeArea@Business@@U?$less@H@std@@V?$allocator@U?$pair@$$CBHPAVCTradeArea@Business@@@std@@@4@$0A@@std@@@2@PAU342@@Z ENDP ; std::_Tree<std::_Tmap_traits<int,Business::CTradeArea *,std::less<int>,std::allocator<std::pair<int const ,Business::CTradeArea *> >,0> >::_Parent
_TEXT	ENDS
PUBLIC	?_Right@?$_Tree@V?$_Tmap_traits@HPAVCTradeArea@Business@@U?$less@H@std@@V?$allocator@U?$pair@$$CBHPAVCTradeArea@Business@@@std@@@4@$0A@@std@@@std@@KAAAPAU_Node@?$_Tree_nod@V?$_Tmap_traits@HPAVCTradeArea@Business@@U?$less@H@std@@V?$allocator@U?$pair@$$CBHPAVCTradeArea@Business@@@std@@@4@$0A@@std@@@2@PAU342@@Z ; std::_Tree<std::_Tmap_traits<int,Business::CTradeArea *,std::less<int>,std::allocator<std::pair<int const ,Business::CTradeArea *> >,0> >::_Right
; Function compile flags: /Ogtpy
;	COMDAT ?_Right@?$_Tree@V?$_Tmap_traits@HPAVCTradeArea@Business@@U?$less@H@std@@V?$allocator@U?$pair@$$CBHPAVCTradeArea@Business@@@std@@@4@$0A@@std@@@std@@KAAAPAU_Node@?$_Tree_nod@V?$_Tmap_traits@HPAVCTradeArea@Business@@U?$less@H@std@@V?$allocator@U?$pair@$$CBHPAVCTradeArea@Business@@@std@@@4@$0A@@std@@@2@PAU342@@Z
_TEXT	SEGMENT
__Pnode$ = 8						; size = 4
?_Right@?$_Tree@V?$_Tmap_traits@HPAVCTradeArea@Business@@U?$less@H@std@@V?$allocator@U?$pair@$$CBHPAVCTradeArea@Business@@@std@@@4@$0A@@std@@@std@@KAAAPAU_Node@?$_Tree_nod@V?$_Tmap_traits@HPAVCTradeArea@Business@@U?$less@H@std@@V?$allocator@U?$pair@$$CBHPAVCTradeArea@Business@@@std@@@4@$0A@@std@@@2@PAU342@@Z PROC ; std::_Tree<std::_Tmap_traits<int,Business::CTradeArea *,std::less<int>,std::allocator<std::pair<int const ,Business::CTradeArea *> >,0> >::_Right, COMDAT

; 166  : 		return ((_Nodepref)(*_Pnode)._Right);

  00000	8b 44 24 04	 mov	 eax, DWORD PTR __Pnode$[esp-4]
  00004	83 c0 08	 add	 eax, 8

; 167  : 		}

  00007	c3		 ret	 0
?_Right@?$_Tree@V?$_Tmap_traits@HPAVCTradeArea@Business@@U?$less@H@std@@V?$allocator@U?$pair@$$CBHPAVCTradeArea@Business@@@std@@@4@$0A@@std@@@std@@KAAAPAU_Node@?$_Tree_nod@V?$_Tmap_traits@HPAVCTradeArea@Business@@U?$less@H@std@@V?$allocator@U?$pair@$$CBHPAVCTradeArea@Business@@@std@@@4@$0A@@std@@@2@PAU342@@Z ENDP ; std::_Tree<std::_Tmap_traits<int,Business::CTradeArea *,std::less<int>,std::allocator<std::pair<int const ,Business::CTradeArea *> >,0> >::_Right
_TEXT	ENDS
PUBLIC	??0?$allocator@U?$pair@$$CBHPAVCTradeArea@Business@@@std@@@std@@QAE@ABV01@@Z ; std::allocator<std::pair<int const ,Business::CTradeArea *> >::allocator<std::pair<int const ,Business::CTradeArea *> >
; Function compile flags: /Ogtpy
; File d:\program files\microsoft visual studio 8\vc\include\xmemory
;	COMDAT ??0?$allocator@U?$pair@$$CBHPAVCTradeArea@Business@@@std@@@std@@QAE@ABV01@@Z
_TEXT	SEGMENT
___formal$ = 8						; size = 4
??0?$allocator@U?$pair@$$CBHPAVCTradeArea@Business@@@std@@@std@@QAE@ABV01@@Z PROC ; std::allocator<std::pair<int const ,Business::CTradeArea *> >::allocator<std::pair<int const ,Business::CTradeArea *> >, COMDAT
; _this$ = ecx

; 124  : 	allocator(const allocator<_Ty>&) _THROW0()

  00000	8b c1		 mov	 eax, ecx

; 125  : 		{	// construct by copying (do nothing)
; 126  : 		}

  00002	c2 04 00	 ret	 4
??0?$allocator@U?$pair@$$CBHPAVCTradeArea@Business@@@std@@@std@@QAE@ABV01@@Z ENDP ; std::allocator<std::pair<int const ,Business::CTradeArea *> >::allocator<std::pair<int const ,Business::CTradeArea *> >
_TEXT	ENDS
PUBLIC	?deallocate@?$allocator@U_Node@?$_Tree_nod@V?$_Tmap_traits@HPAVCTradeArea@Business@@U?$less@H@std@@V?$allocator@U?$pair@$$CBHPAVCTradeArea@Business@@@std@@@4@$0A@@std@@@std@@@std@@QAEXPAU_Node@?$_Tree_nod@V?$_Tmap_traits@HPAVCTradeArea@Business@@U?$less@H@std@@V?$allocator@U?$pair@$$CBHPAVCTradeArea@Business@@@std@@@4@$0A@@std@@@2@I@Z ; std::allocator<std::_Tree_nod<std::_Tmap_traits<int,Business::CTradeArea *,std::less<int>,std::allocator<std::pair<int const ,Business::CTradeArea *> >,0> >::_Node>::deallocate
; Function compile flags: /Ogtpy
;	COMDAT ?deallocate@?$allocator@U_Node@?$_Tree_nod@V?$_Tmap_traits@HPAVCTradeArea@Business@@U?$less@H@std@@V?$allocator@U?$pair@$$CBHPAVCTradeArea@Business@@@std@@@4@$0A@@std@@@std@@@std@@QAEXPAU_Node@?$_Tree_nod@V?$_Tmap_traits@HPAVCTradeArea@Business@@U?$less@H@std@@V?$allocator@U?$pair@$$CBHPAVCTradeArea@Business@@@std@@@4@$0A@@std@@@2@I@Z
_TEXT	SEGMENT
__Ptr$ = 8						; size = 4
___formal$ = 12						; size = 4
?deallocate@?$allocator@U_Node@?$_Tree_nod@V?$_Tmap_traits@HPAVCTradeArea@Business@@U?$less@H@std@@V?$allocator@U?$pair@$$CBHPAVCTradeArea@Business@@@std@@@4@$0A@@std@@@std@@@std@@QAEXPAU_Node@?$_Tree_nod@V?$_Tmap_traits@HPAVCTradeArea@Business@@U?$less@H@std@@V?$allocator@U?$pair@$$CBHPAVCTradeArea@Business@@@std@@@4@$0A@@std@@@2@I@Z PROC ; std::allocator<std::_Tree_nod<std::_Tmap_traits<int,Business::CTradeArea *,std::less<int>,std::allocator<std::pair<int const ,Business::CTradeArea *> >,0> >::_Node>::deallocate, COMDAT
; _this$ = ecx

; 141  : 		::operator delete(_Ptr);

  00000	8b 44 24 04	 mov	 eax, DWORD PTR __Ptr$[esp-4]
  00004	50		 push	 eax
  00005	e8 00 00 00 00	 call	 ??3@YAXPAX@Z		; operator delete
  0000a	59		 pop	 ecx

; 142  : 		}

  0000b	c2 08 00	 ret	 8
?deallocate@?$allocator@U_Node@?$_Tree_nod@V?$_Tmap_traits@HPAVCTradeArea@Business@@U?$less@H@std@@V?$allocator@U?$pair@$$CBHPAVCTradeArea@Business@@@std@@@4@$0A@@std@@@std@@@std@@QAEXPAU_Node@?$_Tree_nod@V?$_Tmap_traits@HPAVCTradeArea@Business@@U?$less@H@std@@V?$allocator@U?$pair@$$CBHPAVCTradeArea@Business@@@std@@@4@$0A@@std@@@2@I@Z ENDP ; std::allocator<std::_Tree_nod<std::_Tmap_traits<int,Business::CTradeArea *,std::less<int>,std::allocator<std::pair<int const ,Business::CTradeArea *> >,0> >::_Node>::deallocate
_TEXT	ENDS
PUBLIC	?_Left@?$_Tree@V?$_Tmap_traits@HPAVCTradeSpot@Business@@U?$less@H@std@@V?$allocator@U?$pair@$$CBHPAVCTradeSpot@Business@@@std@@@4@$0A@@std@@@std@@KAAAPAU_Node@?$_Tree_nod@V?$_Tmap_traits@HPAVCTradeSpot@Business@@U?$less@H@std@@V?$allocator@U?$pair@$$CBHPAVCTradeSpot@Business@@@std@@@4@$0A@@std@@@2@PAU342@@Z ; std::_Tree<std::_Tmap_traits<int,Business::CTradeSpot *,std::less<int>,std::allocator<std::pair<int const ,Business::CTradeSpot *> >,0> >::_Left
; Function compile flags: /Ogtpy
; File d:\program files\microsoft visual studio 8\vc\include\xtree
;	COMDAT ?_Left@?$_Tree@V?$_Tmap_traits@HPAVCTradeSpot@Business@@U?$less@H@std@@V?$allocator@U?$pair@$$CBHPAVCTradeSpot@Business@@@std@@@4@$0A@@std@@@std@@KAAAPAU_Node@?$_Tree_nod@V?$_Tmap_traits@HPAVCTradeSpot@Business@@U?$less@H@std@@V?$allocator@U?$pair@$$CBHPAVCTradeSpot@Business@@@std@@@4@$0A@@std@@@2@PAU342@@Z
_TEXT	SEGMENT
__Pnode$ = 8						; size = 4
?_Left@?$_Tree@V?$_Tmap_traits@HPAVCTradeSpot@Business@@U?$less@H@std@@V?$allocator@U?$pair@$$CBHPAVCTradeSpot@Business@@@std@@@4@$0A@@std@@@std@@KAAAPAU_Node@?$_Tree_nod@V?$_Tmap_traits@HPAVCTradeSpot@Business@@U?$less@H@std@@V?$allocator@U?$pair@$$CBHPAVCTradeSpot@Business@@@std@@@4@$0A@@std@@@2@PAU342@@Z PROC ; std::_Tree<std::_Tmap_traits<int,Business::CTradeSpot *,std::less<int>,std::allocator<std::pair<int const ,Business::CTradeSpot *> >,0> >::_Left, COMDAT

; 156  : 		return ((_Nodepref)(*_Pnode)._Left);

  00000	8b 44 24 04	 mov	 eax, DWORD PTR __Pnode$[esp-4]

; 157  : 		}

  00004	c3		 ret	 0
?_Left@?$_Tree@V?$_Tmap_traits@HPAVCTradeSpot@Business@@U?$less@H@std@@V?$allocator@U?$pair@$$CBHPAVCTradeSpot@Business@@@std@@@4@$0A@@std@@@std@@KAAAPAU_Node@?$_Tree_nod@V?$_Tmap_traits@HPAVCTradeSpot@Business@@U?$less@H@std@@V?$allocator@U?$pair@$$CBHPAVCTradeSpot@Business@@@std@@@4@$0A@@std@@@2@PAU342@@Z ENDP ; std::_Tree<std::_Tmap_traits<int,Business::CTradeSpot *,std::less<int>,std::allocator<std::pair<int const ,Business::CTradeSpot *> >,0> >::_Left
_TEXT	ENDS
PUBLIC	?_Parent@?$_Tree@V?$_Tmap_traits@HPAVCTradeSpot@Business@@U?$less@H@std@@V?$allocator@U?$pair@$$CBHPAVCTradeSpot@Business@@@std@@@4@$0A@@std@@@std@@KAAAPAU_Node@?$_Tree_nod@V?$_Tmap_traits@HPAVCTradeSpot@Business@@U?$less@H@std@@V?$allocator@U?$pair@$$CBHPAVCTradeSpot@Business@@@std@@@4@$0A@@std@@@2@PAU342@@Z ; std::_Tree<std::_Tmap_traits<int,Business::CTradeSpot *,std::less<int>,std::allocator<std::pair<int const ,Business::CTradeSpot *> >,0> >::_Parent
; Function compile flags: /Ogtpy
;	COMDAT ?_Parent@?$_Tree@V?$_Tmap_traits@HPAVCTradeSpot@Business@@U?$less@H@std@@V?$allocator@U?$pair@$$CBHPAVCTradeSpot@Business@@@std@@@4@$0A@@std@@@std@@KAAAPAU_Node@?$_Tree_nod@V?$_Tmap_traits@HPAVCTradeSpot@Business@@U?$less@H@std@@V?$allocator@U?$pair@$$CBHPAVCTradeSpot@Business@@@std@@@4@$0A@@std@@@2@PAU342@@Z
_TEXT	SEGMENT
__Pnode$ = 8						; size = 4
?_Parent@?$_Tree@V?$_Tmap_traits@HPAVCTradeSpot@Business@@U?$less@H@std@@V?$allocator@U?$pair@$$CBHPAVCTradeSpot@Business@@@std@@@4@$0A@@std@@@std@@KAAAPAU_Node@?$_Tree_nod@V?$_Tmap_traits@HPAVCTradeSpot@Business@@U?$less@H@std@@V?$allocator@U?$pair@$$CBHPAVCTradeSpot@Business@@@std@@@4@$0A@@std@@@2@PAU342@@Z PROC ; std::_Tree<std::_Tmap_traits<int,Business::CTradeSpot *,std::less<int>,std::allocator<std::pair<int const ,Business::CTradeSpot *> >,0> >::_Parent, COMDAT

; 161  : 		return ((_Nodepref)(*_Pnode)._Parent);

  00000	8b 44 24 04	 mov	 eax, DWORD PTR __Pnode$[esp-4]
  00004	83 c0 04	 add	 eax, 4

; 162  : 		}

  00007	c3		 ret	 0
?_Parent@?$_Tree@V?$_Tmap_traits@HPAVCTradeSpot@Business@@U?$less@H@std@@V?$allocator@U?$pair@$$CBHPAVCTradeSpot@Business@@@std@@@4@$0A@@std@@@std@@KAAAPAU_Node@?$_Tree_nod@V?$_Tmap_traits@HPAVCTradeSpot@Business@@U?$less@H@std@@V?$allocator@U?$pair@$$CBHPAVCTradeSpot@Business@@@std@@@4@$0A@@std@@@2@PAU342@@Z ENDP ; std::_Tree<std::_Tmap_traits<int,Business::CTradeSpot *,std::less<int>,std::allocator<std::pair<int const ,Business::CTradeSpot *> >,0> >::_Parent
_TEXT	ENDS
PUBLIC	?_Right@?$_Tree@V?$_Tmap_traits@HPAVCTradeSpot@Business@@U?$less@H@std@@V?$allocator@U?$pair@$$CBHPAVCTradeSpot@Business@@@std@@@4@$0A@@std@@@std@@KAAAPAU_Node@?$_Tree_nod@V?$_Tmap_traits@HPAVCTradeSpot@Business@@U?$less@H@std@@V?$allocator@U?$pair@$$CBHPAVCTradeSpot@Business@@@std@@@4@$0A@@std@@@2@PAU342@@Z ; std::_Tree<std::_Tmap_traits<int,Business::CTradeSpot *,std::less<int>,std::allocator<std::pair<int const ,Business::CTradeSpot *> >,0> >::_Right
; Function compile flags: /Ogtpy
;	COMDAT ?_Right@?$_Tree@V?$_Tmap_traits@HPAVCTradeSpot@Business@@U?$less@H@std@@V?$allocator@U?$pair@$$CBHPAVCTradeSpot@Business@@@std@@@4@$0A@@std@@@std@@KAAAPAU_Node@?$_Tree_nod@V?$_Tmap_traits@HPAVCTradeSpot@Business@@U?$less@H@std@@V?$allocator@U?$pair@$$CBHPAVCTradeSpot@Business@@@std@@@4@$0A@@std@@@2@PAU342@@Z
_TEXT	SEGMENT
__Pnode$ = 8						; size = 4
?_Right@?$_Tree@V?$_Tmap_traits@HPAVCTradeSpot@Business@@U?$less@H@std@@V?$allocator@U?$pair@$$CBHPAVCTradeSpot@Business@@@std@@@4@$0A@@std@@@std@@KAAAPAU_Node@?$_Tree_nod@V?$_Tmap_traits@HPAVCTradeSpot@Business@@U?$less@H@std@@V?$allocator@U?$pair@$$CBHPAVCTradeSpot@Business@@@std@@@4@$0A@@std@@@2@PAU342@@Z PROC ; std::_Tree<std::_Tmap_traits<int,Business::CTradeSpot *,std::less<int>,std::allocator<std::pair<int const ,Business::CTradeSpot *> >,0> >::_Right, COMDAT

; 166  : 		return ((_Nodepref)(*_Pnode)._Right);

  00000	8b 44 24 04	 mov	 eax, DWORD PTR __Pnode$[esp-4]
  00004	83 c0 08	 add	 eax, 8

; 167  : 		}

  00007	c3		 ret	 0
?_Right@?$_Tree@V?$_Tmap_traits@HPAVCTradeSpot@Business@@U?$less@H@std@@V?$allocator@U?$pair@$$CBHPAVCTradeSpot@Business@@@std@@@4@$0A@@std@@@std@@KAAAPAU_Node@?$_Tree_nod@V?$_Tmap_traits@HPAVCTradeSpot@Business@@U?$less@H@std@@V?$allocator@U?$pair@$$CBHPAVCTradeSpot@Business@@@std@@@4@$0A@@std@@@2@PAU342@@Z ENDP ; std::_Tree<std::_Tmap_traits<int,Business::CTradeSpot *,std::less<int>,std::allocator<std::pair<int const ,Business::CTradeSpot *> >,0> >::_Right
_TEXT	ENDS
PUBLIC	??0?$allocator@U?$pair@$$CBHPAVCTradeSpot@Business@@@std@@@std@@QAE@ABV01@@Z ; std::allocator<std::pair<int const ,Business::CTradeSpot *> >::allocator<std::pair<int const ,Business::CTradeSpot *> >
; Function compile flags: /Ogtpy
; File d:\program files\microsoft visual studio 8\vc\include\xmemory
;	COMDAT ??0?$allocator@U?$pair@$$CBHPAVCTradeSpot@Business@@@std@@@std@@QAE@ABV01@@Z
_TEXT	SEGMENT
___formal$ = 8						; size = 4
??0?$allocator@U?$pair@$$CBHPAVCTradeSpot@Business@@@std@@@std@@QAE@ABV01@@Z PROC ; std::allocator<std::pair<int const ,Business::CTradeSpot *> >::allocator<std::pair<int const ,Business::CTradeSpot *> >, COMDAT
; _this$ = ecx

; 124  : 	allocator(const allocator<_Ty>&) _THROW0()

  00000	8b c1		 mov	 eax, ecx

; 125  : 		{	// construct by copying (do nothing)
; 126  : 		}

  00002	c2 04 00	 ret	 4
??0?$allocator@U?$pair@$$CBHPAVCTradeSpot@Business@@@std@@@std@@QAE@ABV01@@Z ENDP ; std::allocator<std::pair<int const ,Business::CTradeSpot *> >::allocator<std::pair<int const ,Business::CTradeSpot *> >
_TEXT	ENDS
PUBLIC	?deallocate@?$allocator@U_Node@?$_Tree_nod@V?$_Tmap_traits@HPAVCTradeSpot@Business@@U?$less@H@std@@V?$allocator@U?$pair@$$CBHPAVCTradeSpot@Business@@@std@@@4@$0A@@std@@@std@@@std@@QAEXPAU_Node@?$_Tree_nod@V?$_Tmap_traits@HPAVCTradeSpot@Business@@U?$less@H@std@@V?$allocator@U?$pair@$$CBHPAVCTradeSpot@Business@@@std@@@4@$0A@@std@@@2@I@Z ; std::allocator<std::_Tree_nod<std::_Tmap_traits<int,Business::CTradeSpot *,std::less<int>,std::allocator<std::pair<int const ,Business::CTradeSpot *> >,0> >::_Node>::deallocate
; Function compile flags: /Ogtpy
;	COMDAT ?deallocate@?$allocator@U_Node@?$_Tree_nod@V?$_Tmap_traits@HPAVCTradeSpot@Business@@U?$less@H@std@@V?$allocator@U?$pair@$$CBHPAVCTradeSpot@Business@@@std@@@4@$0A@@std@@@std@@@std@@QAEXPAU_Node@?$_Tree_nod@V?$_Tmap_traits@HPAVCTradeSpot@Business@@U?$less@H@std@@V?$allocator@U?$pair@$$CBHPAVCTradeSpot@Business@@@std@@@4@$0A@@std@@@2@I@Z
_TEXT	SEGMENT
__Ptr$ = 8						; size = 4
___formal$ = 12						; size = 4
?deallocate@?$allocator@U_Node@?$_Tree_nod@V?$_Tmap_traits@HPAVCTradeSpot@Business@@U?$less@H@std@@V?$allocator@U?$pair@$$CBHPAVCTradeSpot@Business@@@std@@@4@$0A@@std@@@std@@@std@@QAEXPAU_Node@?$_Tree_nod@V?$_Tmap_traits@HPAVCTradeSpot@Business@@U?$less@H@std@@V?$allocator@U?$pair@$$CBHPAVCTradeSpot@Business@@@std@@@4@$0A@@std@@@2@I@Z PROC ; std::allocator<std::_Tree_nod<std::_Tmap_traits<int,Business::CTradeSpot *,std::less<int>,std::allocator<std::pair<int const ,Business::CTradeSpot *> >,0> >::_Node>::deallocate, COMDAT
; _this$ = ecx

; 141  : 		::operator delete(_Ptr);

  00000	8b 44 24 04	 mov	 eax, DWORD PTR __Ptr$[esp-4]
  00004	50		 push	 eax
  00005	e8 00 00 00 00	 call	 ??3@YAXPAX@Z		; operator delete
  0000a	59		 pop	 ecx

; 142  : 		}

  0000b	c2 08 00	 ret	 8
?deallocate@?$allocator@U_Node@?$_Tree_nod@V?$_Tmap_traits@HPAVCTradeSpot@Business@@U?$less@H@std@@V?$allocator@U?$pair@$$CBHPAVCTradeSpot@Business@@@std@@@4@$0A@@std@@@std@@@std@@QAEXPAU_Node@?$_Tree_nod@V?$_Tmap_traits@HPAVCTradeSpot@Business@@U?$less@H@std@@V?$allocator@U?$pair@$$CBHPAVCTradeSpot@Business@@@std@@@4@$0A@@std@@@2@I@Z ENDP ; std::allocator<std::_Tree_nod<std::_Tmap_traits<int,Business::CTradeSpot *,std::less<int>,std::allocator<std::pair<int const ,Business::CTradeSpot *> >,0> >::_Node>::deallocate
_TEXT	ENDS
PUBLIC	??0?$allocator@UtagCreditDesc@Business@@@std@@QAE@ABV01@@Z ; std::allocator<Business::tagCreditDesc>::allocator<Business::tagCreditDesc>
; Function compile flags: /Ogtpy
;	COMDAT ??0?$allocator@UtagCreditDesc@Business@@@std@@QAE@ABV01@@Z
_TEXT	SEGMENT
___formal$ = 8						; size = 4
??0?$allocator@UtagCreditDesc@Business@@@std@@QAE@ABV01@@Z PROC ; std::allocator<Business::tagCreditDesc>::allocator<Business::tagCreditDesc>, COMDAT
; _this$ = ecx

; 124  : 	allocator(const allocator<_Ty>&) _THROW0()

  00000	8b c1		 mov	 eax, ecx

; 125  : 		{	// construct by copying (do nothing)
; 126  : 		}

  00002	c2 04 00	 ret	 4
??0?$allocator@UtagCreditDesc@Business@@@std@@QAE@ABV01@@Z ENDP ; std::allocator<Business::tagCreditDesc>::allocator<Business::tagCreditDesc>
_TEXT	ENDS
PUBLIC	?deallocate@?$allocator@UtagCreditDesc@Business@@@std@@QAEXPAUtagCreditDesc@Business@@I@Z ; std::allocator<Business::tagCreditDesc>::deallocate
; Function compile flags: /Ogtpy
;	COMDAT ?deallocate@?$allocator@UtagCreditDesc@Business@@@std@@QAEXPAUtagCreditDesc@Business@@I@Z
_TEXT	SEGMENT
__Ptr$ = 8						; size = 4
___formal$ = 12						; size = 4
?deallocate@?$allocator@UtagCreditDesc@Business@@@std@@QAEXPAUtagCreditDesc@Business@@I@Z PROC ; std::allocator<Business::tagCreditDesc>::deallocate, COMDAT
; _this$ = ecx

; 141  : 		::operator delete(_Ptr);

  00000	8b 44 24 04	 mov	 eax, DWORD PTR __Ptr$[esp-4]
  00004	50		 push	 eax
  00005	e8 00 00 00 00	 call	 ??3@YAXPAX@Z		; operator delete
  0000a	59		 pop	 ecx

; 142  : 		}

  0000b	c2 08 00	 ret	 8
?deallocate@?$allocator@UtagCreditDesc@Business@@@std@@QAEXPAUtagCreditDesc@Business@@I@Z ENDP ; std::allocator<Business::tagCreditDesc>::deallocate
_TEXT	ENDS
PUBLIC	?_Left@?$_Tree@V?$_Tmap_traits@VCGUID@@HVguid_compare@@V?$allocator@U?$pair@$$CBVCGUID@@H@std@@@std@@$0A@@std@@@std@@KAAAPAU_Node@?$_Tree_nod@V?$_Tmap_traits@VCGUID@@HVguid_compare@@V?$allocator@U?$pair@$$CBVCGUID@@H@std@@@std@@$0A@@std@@@2@PAU342@@Z ; std::_Tree<std::_Tmap_traits<CGUID,int,guid_compare,std::allocator<std::pair<CGUID const ,int> >,0> >::_Left
; Function compile flags: /Ogtpy
; File d:\program files\microsoft visual studio 8\vc\include\xtree
;	COMDAT ?_Left@?$_Tree@V?$_Tmap_traits@VCGUID@@HVguid_compare@@V?$allocator@U?$pair@$$CBVCGUID@@H@std@@@std@@$0A@@std@@@std@@KAAAPAU_Node@?$_Tree_nod@V?$_Tmap_traits@VCGUID@@HVguid_compare@@V?$allocator@U?$pair@$$CBVCGUID@@H@std@@@std@@$0A@@std@@@2@PAU342@@Z
_TEXT	SEGMENT
__Pnode$ = 8						; size = 4
?_Left@?$_Tree@V?$_Tmap_traits@VCGUID@@HVguid_compare@@V?$allocator@U?$pair@$$CBVCGUID@@H@std@@@std@@$0A@@std@@@std@@KAAAPAU_Node@?$_Tree_nod@V?$_Tmap_traits@VCGUID@@HVguid_compare@@V?$allocator@U?$pair@$$CBVCGUID@@H@std@@@std@@$0A@@std@@@2@PAU342@@Z PROC ; std::_Tree<std::_Tmap_traits<CGUID,int,guid_compare,std::allocator<std::pair<CGUID const ,int> >,0> >::_Left, COMDAT

; 156  : 		return ((_Nodepref)(*_Pnode)._Left);

  00000	8b 44 24 04	 mov	 eax, DWORD PTR __Pnode$[esp-4]

; 157  : 		}

  00004	c3		 ret	 0
?_Left@?$_Tree@V?$_Tmap_traits@VCGUID@@HVguid_compare@@V?$allocator@U?$pair@$$CBVCGUID@@H@std@@@std@@$0A@@std@@@std@@KAAAPAU_Node@?$_Tree_nod@V?$_Tmap_traits@VCGUID@@HVguid_compare@@V?$allocator@U?$pair@$$CBVCGUID@@H@std@@@std@@$0A@@std@@@2@PAU342@@Z ENDP ; std::_Tree<std::_Tmap_traits<CGUID,int,guid_compare,std::allocator<std::pair<CGUID const ,int> >,0> >::_Left
_TEXT	ENDS
PUBLIC	?_Parent@?$_Tree@V?$_Tmap_traits@VCGUID@@HVguid_compare@@V?$allocator@U?$pair@$$CBVCGUID@@H@std@@@std@@$0A@@std@@@std@@KAAAPAU_Node@?$_Tree_nod@V?$_Tmap_traits@VCGUID@@HVguid_compare@@V?$allocator@U?$pair@$$CBVCGUID@@H@std@@@std@@$0A@@std@@@2@PAU342@@Z ; std::_Tree<std::_Tmap_traits<CGUID,int,guid_compare,std::allocator<std::pair<CGUID const ,int> >,0> >::_Parent
; Function compile flags: /Ogtpy
;	COMDAT ?_Parent@?$_Tree@V?$_Tmap_traits@VCGUID@@HVguid_compare@@V?$allocator@U?$pair@$$CBVCGUID@@H@std@@@std@@$0A@@std@@@std@@KAAAPAU_Node@?$_Tree_nod@V?$_Tmap_traits@VCGUID@@HVguid_compare@@V?$allocator@U?$pair@$$CBVCGUID@@H@std@@@std@@$0A@@std@@@2@PAU342@@Z
_TEXT	SEGMENT
__Pnode$ = 8						; size = 4
?_Parent@?$_Tree@V?$_Tmap_traits@VCGUID@@HVguid_compare@@V?$allocator@U?$pair@$$CBVCGUID@@H@std@@@std@@$0A@@std@@@std@@KAAAPAU_Node@?$_Tree_nod@V?$_Tmap_traits@VCGUID@@HVguid_compare@@V?$allocator@U?$pair@$$CBVCGUID@@H@std@@@std@@$0A@@std@@@2@PAU342@@Z PROC ; std::_Tree<std::_Tmap_traits<CGUID,int,guid_compare,std::allocator<std::pair<CGUID const ,int> >,0> >::_Parent, COMDAT

; 161  : 		return ((_Nodepref)(*_Pnode)._Parent);

  00000	8b 44 24 04	 mov	 eax, DWORD PTR __Pnode$[esp-4]
  00004	83 c0 04	 add	 eax, 4

; 162  : 		}

  00007	c3		 ret	 0
?_Parent@?$_Tree@V?$_Tmap_traits@VCGUID@@HVguid_compare@@V?$allocator@U?$pair@$$CBVCGUID@@H@std@@@std@@$0A@@std@@@std@@KAAAPAU_Node@?$_Tree_nod@V?$_Tmap_traits@VCGUID@@HVguid_compare@@V?$allocator@U?$pair@$$CBVCGUID@@H@std@@@std@@$0A@@std@@@2@PAU342@@Z ENDP ; std::_Tree<std::_Tmap_traits<CGUID,int,guid_compare,std::allocator<std::pair<CGUID const ,int> >,0> >::_Parent
_TEXT	ENDS
PUBLIC	?_Right@?$_Tree@V?$_Tmap_traits@VCGUID@@HVguid_compare@@V?$allocator@U?$pair@$$CBVCGUID@@H@std@@@std@@$0A@@std@@@std@@KAAAPAU_Node@?$_Tree_nod@V?$_Tmap_traits@VCGUID@@HVguid_compare@@V?$allocator@U?$pair@$$CBVCGUID@@H@std@@@std@@$0A@@std@@@2@PAU342@@Z ; std::_Tree<std::_Tmap_traits<CGUID,int,guid_compare,std::allocator<std::pair<CGUID const ,int> >,0> >::_Right
; Function compile flags: /Ogtpy
;	COMDAT ?_Right@?$_Tree@V?$_Tmap_traits@VCGUID@@HVguid_compare@@V?$allocator@U?$pair@$$CBVCGUID@@H@std@@@std@@$0A@@std@@@std@@KAAAPAU_Node@?$_Tree_nod@V?$_Tmap_traits@VCGUID@@HVguid_compare@@V?$allocator@U?$pair@$$CBVCGUID@@H@std@@@std@@$0A@@std@@@2@PAU342@@Z
_TEXT	SEGMENT
__Pnode$ = 8						; size = 4
?_Right@?$_Tree@V?$_Tmap_traits@VCGUID@@HVguid_compare@@V?$allocator@U?$pair@$$CBVCGUID@@H@std@@@std@@$0A@@std@@@std@@KAAAPAU_Node@?$_Tree_nod@V?$_Tmap_traits@VCGUID@@HVguid_compare@@V?$allocator@U?$pair@$$CBVCGUID@@H@std@@@std@@$0A@@std@@@2@PAU342@@Z PROC ; std::_Tree<std::_Tmap_traits<CGUID,int,guid_compare,std::allocator<std::pair<CGUID const ,int> >,0> >::_Right, COMDAT

; 166  : 		return ((_Nodepref)(*_Pnode)._Right);

  00000	8b 44 24 04	 mov	 eax, DWORD PTR __Pnode$[esp-4]
  00004	83 c0 08	 add	 eax, 8

; 167  : 		}

  00007	c3		 ret	 0
?_Right@?$_Tree@V?$_Tmap_traits@VCGUID@@HVguid_compare@@V?$allocator@U?$pair@$$CBVCGUID@@H@std@@@std@@$0A@@std@@@std@@KAAAPAU_Node@?$_Tree_nod@V?$_Tmap_traits@VCGUID@@HVguid_compare@@V?$allocator@U?$pair@$$CBVCGUID@@H@std@@@std@@$0A@@std@@@2@PAU342@@Z ENDP ; std::_Tree<std::_Tmap_traits<CGUID,int,guid_compare,std::allocator<std::pair<CGUID const ,int> >,0> >::_Right
_TEXT	ENDS
PUBLIC	??0?$allocator@U?$pair@$$CBVCGUID@@H@std@@@std@@QAE@ABV01@@Z ; std::allocator<std::pair<CGUID const ,int> >::allocator<std::pair<CGUID const ,int> >
; Function compile flags: /Ogtpy
; File d:\program files\microsoft visual studio 8\vc\include\xmemory
;	COMDAT ??0?$allocator@U?$pair@$$CBVCGUID@@H@std@@@std@@QAE@ABV01@@Z
_TEXT	SEGMENT
___formal$ = 8						; size = 4
??0?$allocator@U?$pair@$$CBVCGUID@@H@std@@@std@@QAE@ABV01@@Z PROC ; std::allocator<std::pair<CGUID const ,int> >::allocator<std::pair<CGUID const ,int> >, COMDAT
; _this$ = ecx

; 124  : 	allocator(const allocator<_Ty>&) _THROW0()

  00000	8b c1		 mov	 eax, ecx

; 125  : 		{	// construct by copying (do nothing)
; 126  : 		}

  00002	c2 04 00	 ret	 4
??0?$allocator@U?$pair@$$CBVCGUID@@H@std@@@std@@QAE@ABV01@@Z ENDP ; std::allocator<std::pair<CGUID const ,int> >::allocator<std::pair<CGUID const ,int> >
_TEXT	ENDS
PUBLIC	?deallocate@?$allocator@U_Node@?$_Tree_nod@V?$_Tmap_traits@VCGUID@@HVguid_compare@@V?$allocator@U?$pair@$$CBVCGUID@@H@std@@@std@@$0A@@std@@@std@@@std@@QAEXPAU_Node@?$_Tree_nod@V?$_Tmap_traits@VCGUID@@HVguid_compare@@V?$allocator@U?$pair@$$CBVCGUID@@H@std@@@std@@$0A@@std@@@2@I@Z ; std::allocator<std::_Tree_nod<std::_Tmap_traits<CGUID,int,guid_compare,std::allocator<std::pair<CGUID const ,int> >,0> >::_Node>::deallocate
; Function compile flags: /Ogtpy
;	COMDAT ?deallocate@?$allocator@U_Node@?$_Tree_nod@V?$_Tmap_traits@VCGUID@@HVguid_compare@@V?$allocator@U?$pair@$$CBVCGUID@@H@std@@@std@@$0A@@std@@@std@@@std@@QAEXPAU_Node@?$_Tree_nod@V?$_Tmap_traits@VCGUID@@HVguid_compare@@V?$allocator@U?$pair@$$CBVCGUID@@H@std@@@std@@$0A@@std@@@2@I@Z
_TEXT	SEGMENT
__Ptr$ = 8						; size = 4
___formal$ = 12						; size = 4
?deallocate@?$allocator@U_Node@?$_Tree_nod@V?$_Tmap_traits@VCGUID@@HVguid_compare@@V?$allocator@U?$pair@$$CBVCGUID@@H@std@@@std@@$0A@@std@@@std@@@std@@QAEXPAU_Node@?$_Tree_nod@V?$_Tmap_traits@VCGUID@@HVguid_compare@@V?$allocator@U?$pair@$$CBVCGUID@@H@std@@@std@@$0A@@std@@@2@I@Z PROC ; std::allocator<std::_Tree_nod<std::_Tmap_traits<CGUID,int,guid_compare,std::allocator<std::pair<CGUID const ,int> >,0> >::_Node>::deallocate, COMDAT
; _this$ = ecx

; 141  : 		::operator delete(_Ptr);

  00000	8b 44 24 04	 mov	 eax, DWORD PTR __Ptr$[esp-4]
  00004	50		 push	 eax
  00005	e8 00 00 00 00	 call	 ??3@YAXPAX@Z		; operator delete
  0000a	59		 pop	 ecx

; 142  : 		}

  0000b	c2 08 00	 ret	 8
?deallocate@?$allocator@U_Node@?$_Tree_nod@V?$_Tmap_traits@VCGUID@@HVguid_compare@@V?$allocator@U?$pair@$$CBVCGUID@@H@std@@@std@@$0A@@std@@@std@@@std@@QAEXPAU_Node@?$_Tree_nod@V?$_Tmap_traits@VCGUID@@HVguid_compare@@V?$allocator@U?$pair@$$CBVCGUID@@H@std@@@std@@$0A@@std@@@2@I@Z ENDP ; std::allocator<std::_Tree_nod<std::_Tmap_traits<CGUID,int,guid_compare,std::allocator<std::pair<CGUID const ,int> >,0> >::_Node>::deallocate
_TEXT	ENDS
PUBLIC	??E?$_Const_iterator@$00@?$list@U?$pair@$$CBVCGUID@@PAVCGUIDEvent@GameManager@@@std@@V?$allocator@U?$pair@$$CBVCGUID@@PAVCGUIDEvent@GameManager@@@std@@@2@@std@@QAEAAV012@XZ ; std::list<std::pair<CGUID const ,GameManager::CGUIDEvent *>,std::allocator<std::pair<CGUID const ,GameManager::CGUIDEvent *> > >::_Const_iterator<1>::operator++
; Function compile flags: /Ogtpy
; File d:\program files\microsoft visual studio 8\vc\include\list
;	COMDAT ??E?$_Const_iterator@$00@?$list@U?$pair@$$CBVCGUID@@PAVCGUIDEvent@GameManager@@@std@@V?$allocator@U?$pair@$$CBVCGUID@@PAVCGUIDEvent@GameManager@@@std@@@2@@std@@QAEAAV012@XZ
_TEXT	SEGMENT
??E?$_Const_iterator@$00@?$list@U?$pair@$$CBVCGUID@@PAVCGUIDEvent@GameManager@@@std@@V?$allocator@U?$pair@$$CBVCGUID@@PAVCGUIDEvent@GameManager@@@std@@@2@@std@@QAEAAV012@XZ PROC ; std::list<std::pair<CGUID const ,GameManager::CGUIDEvent *>,std::allocator<std::pair<CGUID const ,GameManager::CGUIDEvent *> > >::_Const_iterator<1>::operator++, COMDAT
; _this$ = ecx

; 230  : 			{	// preincrement

  00000	56		 push	 esi
  00001	8b f1		 mov	 esi, ecx

; 231  : 
; 232  :  #if _HAS_ITERATOR_DEBUGGING
; 233  : 			if (this->_Mycont == 0
; 234  : 				|| _Ptr == ((_Myt *)this->_Mycont)->_Myhead)
; 235  : 				{
; 236  : 				_DEBUG_ERROR("list iterator not incrementable");
; 237  : 				_SCL_SECURE_TRAITS_OUT_OF_RANGE;
; 238  : 				}
; 239  :  #else
; 240  : 			_SCL_SECURE_TRAITS_VALIDATE(this->_Mycont != NULL);

  00003	83 3e 00	 cmp	 DWORD PTR [esi], 0
  00006	75 05		 jne	 SHORT $LN3@operator@12
  00008	e8 00 00 00 00	 call	 __invalid_parameter_noinfo
$LN3@operator@12:

; 241  : 			_SCL_SECURE_TRAITS_VALIDATE_RANGE(_Ptr != ((_Myt *)(this->_Mycont))->_Myhead);

  0000d	8b 06		 mov	 eax, DWORD PTR [esi]
  0000f	8b 4e 04	 mov	 ecx, DWORD PTR [esi+4]
  00012	3b 48 04	 cmp	 ecx, DWORD PTR [eax+4]
  00015	75 05		 jne	 SHORT $LN1@operator@12
  00017	e8 00 00 00 00	 call	 __invalid_parameter_noinfo
$LN1@operator@12:

; 242  :  #endif /* _HAS_ITERATOR_DEBUGGING */
; 243  : 
; 244  : 			_Ptr = _Nextnode(_Ptr);

  0001c	8b 56 04	 mov	 edx, DWORD PTR [esi+4]
  0001f	8b 02		 mov	 eax, DWORD PTR [edx]
  00021	89 46 04	 mov	 DWORD PTR [esi+4], eax

; 245  : 			return (*this);

  00024	8b c6		 mov	 eax, esi
  00026	5e		 pop	 esi

; 246  : 			}

  00027	c3		 ret	 0
??E?$_Const_iterator@$00@?$list@U?$pair@$$CBVCGUID@@PAVCGUIDEvent@GameManager@@@std@@V?$allocator@U?$pair@$$CBVCGUID@@PAVCGUIDEvent@GameManager@@@std@@@2@@std@@QAEAAV012@XZ ENDP ; std::list<std::pair<CGUID const ,GameManager::CGUIDEvent *>,std::allocator<std::pair<CGUID const ,GameManager::CGUIDEvent *> > >::_Const_iterator<1>::operator++
_TEXT	ENDS
PUBLIC	??E?$_Const_iterator@$00@?$list@PAVCGUIDEvent@GameManager@@V?$allocator@PAVCGUIDEvent@GameManager@@@std@@@std@@QAEAAV012@XZ ; std::list<GameManager::CGUIDEvent *,std::allocator<GameManager::CGUIDEvent *> >::_Const_iterator<1>::operator++
; Function compile flags: /Ogtpy
;	COMDAT ??E?$_Const_iterator@$00@?$list@PAVCGUIDEvent@GameManager@@V?$allocator@PAVCGUIDEvent@GameManager@@@std@@@std@@QAEAAV012@XZ
_TEXT	SEGMENT
??E?$_Const_iterator@$00@?$list@PAVCGUIDEvent@GameManager@@V?$allocator@PAVCGUIDEvent@GameManager@@@std@@@std@@QAEAAV012@XZ PROC ; std::list<GameManager::CGUIDEvent *,std::allocator<GameManager::CGUIDEvent *> >::_Const_iterator<1>::operator++, COMDAT
; _this$ = ecx

; 230  : 			{	// preincrement

  00000	56		 push	 esi
  00001	8b f1		 mov	 esi, ecx

; 231  : 
; 232  :  #if _HAS_ITERATOR_DEBUGGING
; 233  : 			if (this->_Mycont == 0
; 234  : 				|| _Ptr == ((_Myt *)this->_Mycont)->_Myhead)
; 235  : 				{
; 236  : 				_DEBUG_ERROR("list iterator not incrementable");
; 237  : 				_SCL_SECURE_TRAITS_OUT_OF_RANGE;
; 238  : 				}
; 239  :  #else
; 240  : 			_SCL_SECURE_TRAITS_VALIDATE(this->_Mycont != NULL);

  00003	83 3e 00	 cmp	 DWORD PTR [esi], 0
  00006	75 05		 jne	 SHORT $LN3@operator@13
  00008	e8 00 00 00 00	 call	 __invalid_parameter_noinfo
$LN3@operator@13:

; 241  : 			_SCL_SECURE_TRAITS_VALIDATE_RANGE(_Ptr != ((_Myt *)(this->_Mycont))->_Myhead);

  0000d	8b 06		 mov	 eax, DWORD PTR [esi]
  0000f	8b 4e 04	 mov	 ecx, DWORD PTR [esi+4]
  00012	3b 48 04	 cmp	 ecx, DWORD PTR [eax+4]
  00015	75 05		 jne	 SHORT $LN1@operator@13
  00017	e8 00 00 00 00	 call	 __invalid_parameter_noinfo
$LN1@operator@13:

; 242  :  #endif /* _HAS_ITERATOR_DEBUGGING */
; 243  : 
; 244  : 			_Ptr = _Nextnode(_Ptr);

  0001c	8b 56 04	 mov	 edx, DWORD PTR [esi+4]
  0001f	8b 02		 mov	 eax, DWORD PTR [edx]
  00021	89 46 04	 mov	 DWORD PTR [esi+4], eax

; 245  : 			return (*this);

  00024	8b c6		 mov	 eax, esi
  00026	5e		 pop	 esi

; 246  : 			}

  00027	c3		 ret	 0
??E?$_Const_iterator@$00@?$list@PAVCGUIDEvent@GameManager@@V?$allocator@PAVCGUIDEvent@GameManager@@@std@@@std@@QAEAAV012@XZ ENDP ; std::list<GameManager::CGUIDEvent *,std::allocator<GameManager::CGUIDEvent *> >::_Const_iterator<1>::operator++
_TEXT	ENDS
PUBLIC	?_Mynode@?$_Const_iterator@$00@?$list@PAVCGUIDEvent@GameManager@@V?$allocator@PAVCGUIDEvent@GameManager@@@std@@@std@@QBEPAU_Node@?$_List_nod@PAVCGUIDEvent@GameManager@@V?$allocator@PAVCGUIDEvent@GameManager@@@std@@@3@XZ ; std::list<GameManager::CGUIDEvent *,std::allocator<GameManager::CGUIDEvent *> >::_Const_iterator<1>::_Mynode
; Function compile flags: /Ogtpy
;	COMDAT ?_Mynode@?$_Const_iterator@$00@?$list@PAVCGUIDEvent@GameManager@@V?$allocator@PAVCGUIDEvent@GameManager@@@std@@@std@@QBEPAU_Node@?$_List_nod@PAVCGUIDEvent@GameManager@@V?$allocator@PAVCGUIDEvent@GameManager@@@std@@@3@XZ
_TEXT	SEGMENT
?_Mynode@?$_Const_iterator@$00@?$list@PAVCGUIDEvent@GameManager@@V?$allocator@PAVCGUIDEvent@GameManager@@@std@@@std@@QBEPAU_Node@?$_List_nod@PAVCGUIDEvent@GameManager@@V?$allocator@PAVCGUIDEvent@GameManager@@@std@@@3@XZ PROC ; std::list<GameManager::CGUIDEvent *,std::allocator<GameManager::CGUIDEvent *> >::_Const_iterator<1>::_Mynode, COMDAT
; _this$ = ecx

; 300  : 			return (_Ptr);

  00000	8b 41 04	 mov	 eax, DWORD PTR [ecx+4]

; 301  : 			}

  00003	c3		 ret	 0
?_Mynode@?$_Const_iterator@$00@?$list@PAVCGUIDEvent@GameManager@@V?$allocator@PAVCGUIDEvent@GameManager@@@std@@@std@@QBEPAU_Node@?$_List_nod@PAVCGUIDEvent@GameManager@@V?$allocator@PAVCGUIDEvent@GameManager@@@std@@@3@XZ ENDP ; std::list<GameManager::CGUIDEvent *,std::allocator<GameManager::CGUIDEvent *> >::_Const_iterator<1>::_Mynode
_TEXT	ENDS
PUBLIC	??0?$pair@Viterator@?$_Tree@V?$_Tset_traits@KU?$less@K@std@@V?$allocator@K@2@$0A@@std@@@std@@V123@@std@@QAE@ABViterator@?$_Tree@V?$_Tset_traits@KU?$less@K@std@@V?$allocator@K@2@$0A@@std@@@1@0@Z ; std::pair<std::_Tree<std::_Tset_traits<unsigned long,std::less<unsigned long>,std::allocator<unsigned long>,0> >::iterator,std::_Tree<std::_Tset_traits<unsigned long,std::less<unsigned long>,std::allocator<unsigned long>,0> >::iterator>::pair<std::_Tree<std::_Tset_traits<unsigned long,std::less<unsigned long>,std::allocator<unsigned long>,0> >::iterator,std::_Tree<std::_Tset_traits<unsigned long,std::less<unsigned long>,std::allocator<unsigned long>,0> >::iterator>
; Function compile flags: /Ogtpy
; File d:\program files\microsoft visual studio 8\vc\include\utility
;	COMDAT ??0?$pair@Viterator@?$_Tree@V?$_Tset_traits@KU?$less@K@std@@V?$allocator@K@2@$0A@@std@@@std@@V123@@std@@QAE@ABViterator@?$_Tree@V?$_Tset_traits@KU?$less@K@std@@V?$allocator@K@2@$0A@@std@@@1@0@Z
_TEXT	SEGMENT
__Val1$ = 8						; size = 4
__Val2$ = 12						; size = 4
??0?$pair@Viterator@?$_Tree@V?$_Tset_traits@KU?$less@K@std@@V?$allocator@K@2@$0A@@std@@@std@@V123@@std@@QAE@ABViterator@?$_Tree@V?$_Tset_traits@KU?$less@K@std@@V?$allocator@K@2@$0A@@std@@@1@0@Z PROC ; std::pair<std::_Tree<std::_Tset_traits<unsigned long,std::less<unsigned long>,std::allocator<unsigned long>,0> >::iterator,std::_Tree<std::_Tset_traits<unsigned long,std::less<unsigned long>,std::allocator<unsigned long>,0> >::iterator>::pair<std::_Tree<std::_Tset_traits<unsigned long,std::less<unsigned long>,std::allocator<unsigned long>,0> >::iterator,std::_Tree<std::_Tset_traits<unsigned long,std::less<unsigned long>,std::allocator<unsigned long>,0> >::iterator>, COMDAT
; _this$ = ecx

; 37   : 		{	// construct from specified values

  00000	8b c1		 mov	 eax, ecx
  00002	8b 4c 24 04	 mov	 ecx, DWORD PTR __Val1$[esp-4]
  00006	8b 11		 mov	 edx, DWORD PTR [ecx]
  00008	89 10		 mov	 DWORD PTR [eax], edx
  0000a	8b 49 04	 mov	 ecx, DWORD PTR [ecx+4]
  0000d	89 48 04	 mov	 DWORD PTR [eax+4], ecx
  00010	8b 4c 24 08	 mov	 ecx, DWORD PTR __Val2$[esp-4]
  00014	8b 11		 mov	 edx, DWORD PTR [ecx]
  00016	89 50 08	 mov	 DWORD PTR [eax+8], edx
  00019	8b 49 04	 mov	 ecx, DWORD PTR [ecx+4]
  0001c	89 48 0c	 mov	 DWORD PTR [eax+12], ecx

; 38   : 		}

  0001f	c2 08 00	 ret	 8
??0?$pair@Viterator@?$_Tree@V?$_Tset_traits@KU?$less@K@std@@V?$allocator@K@2@$0A@@std@@@std@@V123@@std@@QAE@ABViterator@?$_Tree@V?$_Tset_traits@KU?$less@K@std@@V?$allocator@K@2@$0A@@std@@@1@0@Z ENDP ; std::pair<std::_Tree<std::_Tset_traits<unsigned long,std::less<unsigned long>,std::allocator<unsigned long>,0> >::iterator,std::_Tree<std::_Tset_traits<unsigned long,std::less<unsigned long>,std::allocator<unsigned long>,0> >::iterator>::pair<std::_Tree<std::_Tset_traits<unsigned long,std::less<unsigned long>,std::allocator<unsigned long>,0> >::iterator,std::_Tree<std::_Tset_traits<unsigned long,std::less<unsigned long>,std::allocator<unsigned long>,0> >::iterator>
_TEXT	ENDS
PUBLIC	??0?$pair@V?$_Iterator@$00@?$list@U?$pair@$$CBVCGUID@@PAVCGUIDEvent@GameManager@@@std@@V?$allocator@U?$pair@$$CBVCGUID@@PAVCGUIDEvent@GameManager@@@std@@@2@@std@@_N@std@@QAE@ABV?$_Iterator@$00@?$list@U?$pair@$$CBVCGUID@@PAVCGUIDEvent@GameManager@@@std@@V?$allocator@U?$pair@$$CBVCGUID@@PAVCGUIDEvent@GameManager@@@std@@@2@@1@AB_N@Z ; std::pair<std::list<std::pair<CGUID const ,GameManager::CGUIDEvent *>,std::allocator<std::pair<CGUID const ,GameManager::CGUIDEvent *> > >::_Iterator<1>,bool>::pair<std::list<std::pair<CGUID const ,GameManager::CGUIDEvent *>,std::allocator<std::pair<CGUID const ,GameManager::CGUIDEvent *> > >::_Iterator<1>,bool>
; Function compile flags: /Ogtpy
;	COMDAT ??0?$pair@V?$_Iterator@$00@?$list@U?$pair@$$CBVCGUID@@PAVCGUIDEvent@GameManager@@@std@@V?$allocator@U?$pair@$$CBVCGUID@@PAVCGUIDEvent@GameManager@@@std@@@2@@std@@_N@std@@QAE@ABV?$_Iterator@$00@?$list@U?$pair@$$CBVCGUID@@PAVCGUIDEvent@GameManager@@@std@@V?$allocator@U?$pair@$$CBVCGUID@@PAVCGUIDEvent@GameManager@@@std@@@2@@1@AB_N@Z
_TEXT	SEGMENT
__Val1$ = 8						; size = 4
__Val2$ = 12						; size = 4
??0?$pair@V?$_Iterator@$00@?$list@U?$pair@$$CBVCGUID@@PAVCGUIDEvent@GameManager@@@std@@V?$allocator@U?$pair@$$CBVCGUID@@PAVCGUIDEvent@GameManager@@@std@@@2@@std@@_N@std@@QAE@ABV?$_Iterator@$00@?$list@U?$pair@$$CBVCGUID@@PAVCGUIDEvent@GameManager@@@std@@V?$allocator@U?$pair@$$CBVCGUID@@PAVCGUIDEvent@GameManager@@@std@@@2@@1@AB_N@Z PROC ; std::pair<std::list<std::pair<CGUID const ,GameManager::CGUIDEvent *>,std::allocator<std::pair<CGUID const ,GameManager::CGUIDEvent *> > >::_Iterator<1>,bool>::pair<std::list<std::pair<CGUID const ,GameManager::CGUIDEvent *>,std::allocator<std::pair<CGUID const ,GameManager::CGUIDEvent *> > >::_Iterator<1>,bool>, COMDAT
; _this$ = ecx

; 37   : 		{	// construct from specified values

  00000	8b c1		 mov	 eax, ecx
  00002	8b 4c 24 04	 mov	 ecx, DWORD PTR __Val1$[esp-4]
  00006	8b 11		 mov	 edx, DWORD PTR [ecx]
  00008	89 10		 mov	 DWORD PTR [eax], edx
  0000a	8b 49 04	 mov	 ecx, DWORD PTR [ecx+4]
  0000d	8b 54 24 08	 mov	 edx, DWORD PTR __Val2$[esp-4]
  00011	89 48 04	 mov	 DWORD PTR [eax+4], ecx
  00014	8a 0a		 mov	 cl, BYTE PTR [edx]
  00016	88 48 08	 mov	 BYTE PTR [eax+8], cl

; 38   : 		}

  00019	c2 08 00	 ret	 8
??0?$pair@V?$_Iterator@$00@?$list@U?$pair@$$CBVCGUID@@PAVCGUIDEvent@GameManager@@@std@@V?$allocator@U?$pair@$$CBVCGUID@@PAVCGUIDEvent@GameManager@@@std@@@2@@std@@_N@std@@QAE@ABV?$_Iterator@$00@?$list@U?$pair@$$CBVCGUID@@PAVCGUIDEvent@GameManager@@@std@@V?$allocator@U?$pair@$$CBVCGUID@@PAVCGUIDEvent@GameManager@@@std@@@2@@1@AB_N@Z ENDP ; std::pair<std::list<std::pair<CGUID const ,GameManager::CGUIDEvent *>,std::allocator<std::pair<CGUID const ,GameManager::CGUIDEvent *> > >::_Iterator<1>,bool>::pair<std::list<std::pair<CGUID const ,GameManager::CGUIDEvent *>,std::allocator<std::pair<CGUID const ,GameManager::CGUIDEvent *> > >::_Iterator<1>,bool>
_TEXT	ENDS
PUBLIC	??0?$_Bidit@KHPBKABK@std@@QAE@XZ		; std::_Bidit<unsigned long,int,unsigned long const *,unsigned long const &>::_Bidit<unsigned long,int,unsigned long const *,unsigned long const &>
; Function compile flags: /Ogtpy
;	COMDAT ??0?$_Bidit@KHPBKABK@std@@QAE@XZ
_TEXT	SEGMENT
??0?$_Bidit@KHPBKABK@std@@QAE@XZ PROC			; std::_Bidit<unsigned long,int,unsigned long const *,unsigned long const &>::_Bidit<unsigned long,int,unsigned long const *,unsigned long const &>, COMDAT
; _this$ = ecx
  00000	8b c1		 mov	 eax, ecx
  00002	c7 00 00 00 00
	00		 mov	 DWORD PTR [eax], 0
  00008	c3		 ret	 0
??0?$_Bidit@KHPBKABK@std@@QAE@XZ ENDP			; std::_Bidit<unsigned long,int,unsigned long const *,unsigned long const &>::_Bidit<unsigned long,int,unsigned long const *,unsigned long const &>
_TEXT	ENDS
PUBLIC	??0?$_Bidit@PAVCGUIDEvent@GameManager@@HPBQAV12@ABQAV12@@std@@QAE@XZ ; std::_Bidit<GameManager::CGUIDEvent *,int,GameManager::CGUIDEvent * const *,GameManager::CGUIDEvent * const &>::_Bidit<GameManager::CGUIDEvent *,int,GameManager::CGUIDEvent * const *,GameManager::CGUIDEvent * const &>
; Function compile flags: /Ogtpy
;	COMDAT ??0?$_Bidit@PAVCGUIDEvent@GameManager@@HPBQAV12@ABQAV12@@std@@QAE@XZ
_TEXT	SEGMENT
??0?$_Bidit@PAVCGUIDEvent@GameManager@@HPBQAV12@ABQAV12@@std@@QAE@XZ PROC ; std::_Bidit<GameManager::CGUIDEvent *,int,GameManager::CGUIDEvent * const *,GameManager::CGUIDEvent * const &>::_Bidit<GameManager::CGUIDEvent *,int,GameManager::CGUIDEvent * const *,GameManager::CGUIDEvent * const &>, COMDAT
; _this$ = ecx
  00000	8b c1		 mov	 eax, ecx
  00002	c7 00 00 00 00
	00		 mov	 DWORD PTR [eax], 0
  00008	c3		 ret	 0
??0?$_Bidit@PAVCGUIDEvent@GameManager@@HPBQAV12@ABQAV12@@std@@QAE@XZ ENDP ; std::_Bidit<GameManager::CGUIDEvent *,int,GameManager::CGUIDEvent * const *,GameManager::CGUIDEvent * const &>::_Bidit<GameManager::CGUIDEvent *,int,GameManager::CGUIDEvent * const *,GameManager::CGUIDEvent * const &>
_TEXT	ENDS
PUBLIC	?max_size@?$allocator@K@std@@QBEIXZ		; std::allocator<unsigned long>::max_size
; Function compile flags: /Ogtpy
; File d:\program files\microsoft visual studio 8\vc\include\xmemory
;	COMDAT ?max_size@?$allocator@K@std@@QBEIXZ
_TEXT	SEGMENT
?max_size@?$allocator@K@std@@QBEIXZ PROC		; std::allocator<unsigned long>::max_size, COMDAT
; _this$ = ecx

; 166  : 		_SIZT _Count = (_SIZT)(-1) / sizeof (_Ty);
; 167  : 		return (0 < _Count ? _Count : 1);

  00000	b8 ff ff ff 3f	 mov	 eax, 1073741823		; 3fffffffH

; 168  : 		}

  00005	c3		 ret	 0
?max_size@?$allocator@K@std@@QBEIXZ ENDP		; std::allocator<unsigned long>::max_size
_TEXT	ENDS
PUBLIC	?_Max@?$_Tree@V?$_Tset_traits@KU?$less@K@std@@V?$allocator@K@2@$0A@@std@@@std@@KAPAU_Node@?$_Tree_nod@V?$_Tset_traits@KU?$less@K@std@@V?$allocator@K@2@$0A@@std@@@2@PAU342@@Z ; std::_Tree<std::_Tset_traits<unsigned long,std::less<unsigned long>,std::allocator<unsigned long>,0> >::_Max
; Function compile flags: /Ogtpy
; File d:\program files\microsoft visual studio 8\vc\include\xtree
;	COMDAT ?_Max@?$_Tree@V?$_Tset_traits@KU?$less@K@std@@V?$allocator@K@2@$0A@@std@@@std@@KAPAU_Node@?$_Tree_nod@V?$_Tset_traits@KU?$less@K@std@@V?$allocator@K@2@$0A@@std@@@2@PAU342@@Z
_TEXT	SEGMENT
__Pnode$ = 8						; size = 4
?_Max@?$_Tree@V?$_Tset_traits@KU?$less@K@std@@V?$allocator@K@2@$0A@@std@@@std@@KAPAU_Node@?$_Tree_nod@V?$_Tset_traits@KU?$less@K@std@@V?$allocator@K@2@$0A@@std@@@2@PAU342@@Z PROC ; std::_Tree<std::_Tset_traits<unsigned long,std::less<unsigned long>,std::allocator<unsigned long>,0> >::_Max, COMDAT

; 1212 : 		while (!_Isnil(_Right(_Pnode)))

  00000	8b 44 24 04	 mov	 eax, DWORD PTR __Pnode$[esp-4]
  00004	8b 48 08	 mov	 ecx, DWORD PTR [eax+8]
  00007	80 79 11 00	 cmp	 BYTE PTR [ecx+17], 0
  0000b	75 0e		 jne	 SHORT $LN1@Max@2
  0000d	8d 49 00	 npad	 3
$LL2@Max@2:

; 1213 : 			_Pnode = _Right(_Pnode);

  00010	8b c1		 mov	 eax, ecx
  00012	8b 48 08	 mov	 ecx, DWORD PTR [eax+8]
  00015	80 79 11 00	 cmp	 BYTE PTR [ecx+17], 0
  00019	74 f5		 je	 SHORT $LL2@Max@2
$LN1@Max@2:

; 1214 : 		return (_Pnode);
; 1215 : 		}

  0001b	c3		 ret	 0
?_Max@?$_Tree@V?$_Tset_traits@KU?$less@K@std@@V?$allocator@K@2@$0A@@std@@@std@@KAPAU_Node@?$_Tree_nod@V?$_Tset_traits@KU?$less@K@std@@V?$allocator@K@2@$0A@@std@@@2@PAU342@@Z ENDP ; std::_Tree<std::_Tset_traits<unsigned long,std::less<unsigned long>,std::allocator<unsigned long>,0> >::_Max
_TEXT	ENDS
PUBLIC	?_Min@?$_Tree@V?$_Tset_traits@KU?$less@K@std@@V?$allocator@K@2@$0A@@std@@@std@@KAPAU_Node@?$_Tree_nod@V?$_Tset_traits@KU?$less@K@std@@V?$allocator@K@2@$0A@@std@@@2@PAU342@@Z ; std::_Tree<std::_Tset_traits<unsigned long,std::less<unsigned long>,std::allocator<unsigned long>,0> >::_Min
; Function compile flags: /Ogtpy
;	COMDAT ?_Min@?$_Tree@V?$_Tset_traits@KU?$less@K@std@@V?$allocator@K@2@$0A@@std@@@std@@KAPAU_Node@?$_Tree_nod@V?$_Tset_traits@KU?$less@K@std@@V?$allocator@K@2@$0A@@std@@@2@PAU342@@Z
_TEXT	SEGMENT
__Pnode$ = 8						; size = 4
?_Min@?$_Tree@V?$_Tset_traits@KU?$less@K@std@@V?$allocator@K@2@$0A@@std@@@std@@KAPAU_Node@?$_Tree_nod@V?$_Tset_traits@KU?$less@K@std@@V?$allocator@K@2@$0A@@std@@@2@PAU342@@Z PROC ; std::_Tree<std::_Tset_traits<unsigned long,std::less<unsigned long>,std::allocator<unsigned long>,0> >::_Min, COMDAT

; 1219 : 		while (!_Isnil(_Left(_Pnode)))

  00000	8b 44 24 04	 mov	 eax, DWORD PTR __Pnode$[esp-4]
  00004	8b 08		 mov	 ecx, DWORD PTR [eax]
  00006	80 79 11 00	 cmp	 BYTE PTR [ecx+17], 0
  0000a	75 0e		 jne	 SHORT $LN1@Min@2
  0000c	8d 64 24 00	 npad	 4
$LL2@Min@2:

; 1220 : 			_Pnode = _Left(_Pnode);

  00010	8b c1		 mov	 eax, ecx
  00012	8b 08		 mov	 ecx, DWORD PTR [eax]
  00014	80 79 11 00	 cmp	 BYTE PTR [ecx+17], 0
  00018	74 f6		 je	 SHORT $LL2@Min@2
$LN1@Min@2:

; 1221 : 		return (_Pnode);
; 1222 : 		}

  0001a	c3		 ret	 0
?_Min@?$_Tree@V?$_Tset_traits@KU?$less@K@std@@V?$allocator@K@2@$0A@@std@@@std@@KAPAU_Node@?$_Tree_nod@V?$_Tset_traits@KU?$less@K@std@@V?$allocator@K@2@$0A@@std@@@2@PAU342@@Z ENDP ; std::_Tree<std::_Tset_traits<unsigned long,std::less<unsigned long>,std::allocator<unsigned long>,0> >::_Min
_TEXT	ENDS
PUBLIC	??0?$allocator@U?$pair@$$CBVCGUID@@PAVCGUIDEvent@GameManager@@@std@@@std@@QAE@ABV01@@Z ; std::allocator<std::pair<CGUID const ,GameManager::CGUIDEvent *> >::allocator<std::pair<CGUID const ,GameManager::CGUIDEvent *> >
; Function compile flags: /Ogtpy
; File d:\program files\microsoft visual studio 8\vc\include\xmemory
;	COMDAT ??0?$allocator@U?$pair@$$CBVCGUID@@PAVCGUIDEvent@GameManager@@@std@@@std@@QAE@ABV01@@Z
_TEXT	SEGMENT
___formal$ = 8						; size = 4
??0?$allocator@U?$pair@$$CBVCGUID@@PAVCGUIDEvent@GameManager@@@std@@@std@@QAE@ABV01@@Z PROC ; std::allocator<std::pair<CGUID const ,GameManager::CGUIDEvent *> >::allocator<std::pair<CGUID const ,GameManager::CGUIDEvent *> >, COMDAT
; _this$ = ecx

; 124  : 	allocator(const allocator<_Ty>&) _THROW0()

  00000	8b c1		 mov	 eax, ecx

; 125  : 		{	// construct by copying (do nothing)
; 126  : 		}

  00002	c2 04 00	 ret	 4
??0?$allocator@U?$pair@$$CBVCGUID@@PAVCGUIDEvent@GameManager@@@std@@@std@@QAE@ABV01@@Z ENDP ; std::allocator<std::pair<CGUID const ,GameManager::CGUIDEvent *> >::allocator<std::pair<CGUID const ,GameManager::CGUIDEvent *> >
_TEXT	ENDS
PUBLIC	?_Prevnode@?$list@U?$pair@$$CBVCGUID@@PAVCGUIDEvent@GameManager@@@std@@V?$allocator@U?$pair@$$CBVCGUID@@PAVCGUIDEvent@GameManager@@@std@@@2@@std@@KAAAPAU_Node@?$_List_nod@U?$pair@$$CBVCGUID@@PAVCGUIDEvent@GameManager@@@std@@V?$allocator@U?$pair@$$CBVCGUID@@PAVCGUIDEvent@GameManager@@@std@@@2@@2@PAU342@@Z ; std::list<std::pair<CGUID const ,GameManager::CGUIDEvent *>,std::allocator<std::pair<CGUID const ,GameManager::CGUIDEvent *> > >::_Prevnode
; Function compile flags: /Ogtpy
; File d:\program files\microsoft visual studio 8\vc\include\list
;	COMDAT ?_Prevnode@?$list@U?$pair@$$CBVCGUID@@PAVCGUIDEvent@GameManager@@@std@@V?$allocator@U?$pair@$$CBVCGUID@@PAVCGUIDEvent@GameManager@@@std@@@2@@std@@KAAAPAU_Node@?$_List_nod@U?$pair@$$CBVCGUID@@PAVCGUIDEvent@GameManager@@@std@@V?$allocator@U?$pair@$$CBVCGUID@@PAVCGUIDEvent@GameManager@@@std@@@2@@2@PAU342@@Z
_TEXT	SEGMENT
__Pnode$ = 8						; size = 4
?_Prevnode@?$list@U?$pair@$$CBVCGUID@@PAVCGUIDEvent@GameManager@@@std@@V?$allocator@U?$pair@$$CBVCGUID@@PAVCGUIDEvent@GameManager@@@std@@@2@@std@@KAAAPAU_Node@?$_List_nod@U?$pair@$$CBVCGUID@@PAVCGUIDEvent@GameManager@@@std@@V?$allocator@U?$pair@$$CBVCGUID@@PAVCGUIDEvent@GameManager@@@std@@@2@@2@PAU342@@Z PROC ; std::list<std::pair<CGUID const ,GameManager::CGUIDEvent *>,std::allocator<std::pair<CGUID const ,GameManager::CGUIDEvent *> > >::_Prevnode, COMDAT

; 116  : 		return ((_Nodepref)(*_Pnode)._Prev);

  00000	8b 44 24 04	 mov	 eax, DWORD PTR __Pnode$[esp-4]
  00004	83 c0 04	 add	 eax, 4

; 117  : 		}

  00007	c3		 ret	 0
?_Prevnode@?$list@U?$pair@$$CBVCGUID@@PAVCGUIDEvent@GameManager@@@std@@V?$allocator@U?$pair@$$CBVCGUID@@PAVCGUIDEvent@GameManager@@@std@@@2@@std@@KAAAPAU_Node@?$_List_nod@U?$pair@$$CBVCGUID@@PAVCGUIDEvent@GameManager@@@std@@V?$allocator@U?$pair@$$CBVCGUID@@PAVCGUIDEvent@GameManager@@@std@@@2@@2@PAU342@@Z ENDP ; std::list<std::pair<CGUID const ,GameManager::CGUIDEvent *>,std::allocator<std::pair<CGUID const ,GameManager::CGUIDEvent *> > >::_Prevnode
_TEXT	ENDS
PUBLIC	?size@?$list@U?$pair@$$CBVCGUID@@PAVCGUIDEvent@GameManager@@@std@@V?$allocator@U?$pair@$$CBVCGUID@@PAVCGUIDEvent@GameManager@@@std@@@2@@std@@QBEIXZ ; std::list<std::pair<CGUID const ,GameManager::CGUIDEvent *>,std::allocator<std::pair<CGUID const ,GameManager::CGUIDEvent *> > >::size
; Function compile flags: /Ogtpy
;	COMDAT ?size@?$list@U?$pair@$$CBVCGUID@@PAVCGUIDEvent@GameManager@@@std@@V?$allocator@U?$pair@$$CBVCGUID@@PAVCGUIDEvent@GameManager@@@std@@@2@@std@@QBEIXZ
_TEXT	SEGMENT
?size@?$list@U?$pair@$$CBVCGUID@@PAVCGUIDEvent@GameManager@@@std@@V?$allocator@U?$pair@$$CBVCGUID@@PAVCGUIDEvent@GameManager@@@std@@@2@@std@@QBEIXZ PROC ; std::list<std::pair<CGUID const ,GameManager::CGUIDEvent *>,std::allocator<std::pair<CGUID const ,GameManager::CGUIDEvent *> > >::size, COMDAT
; _this$ = ecx

; 604  : 		return (_Mysize);

  00000	8b 41 08	 mov	 eax, DWORD PTR [ecx+8]

; 605  : 		}

  00003	c3		 ret	 0
?size@?$list@U?$pair@$$CBVCGUID@@PAVCGUIDEvent@GameManager@@@std@@V?$allocator@U?$pair@$$CBVCGUID@@PAVCGUIDEvent@GameManager@@@std@@@2@@std@@QBEIXZ ENDP ; std::list<std::pair<CGUID const ,GameManager::CGUIDEvent *>,std::allocator<std::pair<CGUID const ,GameManager::CGUIDEvent *> > >::size
_TEXT	ENDS
PUBLIC	?deallocate@?$allocator@U_Node@?$_List_nod@U?$pair@$$CBVCGUID@@PAVCGUIDEvent@GameManager@@@std@@V?$allocator@U?$pair@$$CBVCGUID@@PAVCGUIDEvent@GameManager@@@std@@@2@@std@@@std@@QAEXPAU_Node@?$_List_nod@U?$pair@$$CBVCGUID@@PAVCGUIDEvent@GameManager@@@std@@V?$allocator@U?$pair@$$CBVCGUID@@PAVCGUIDEvent@GameManager@@@std@@@2@@2@I@Z ; std::allocator<std::_List_nod<std::pair<CGUID const ,GameManager::CGUIDEvent *>,std::allocator<std::pair<CGUID const ,GameManager::CGUIDEvent *> > >::_Node>::deallocate
; Function compile flags: /Ogtpy
; File d:\program files\microsoft visual studio 8\vc\include\xmemory
;	COMDAT ?deallocate@?$allocator@U_Node@?$_List_nod@U?$pair@$$CBVCGUID@@PAVCGUIDEvent@GameManager@@@std@@V?$allocator@U?$pair@$$CBVCGUID@@PAVCGUIDEvent@GameManager@@@std@@@2@@std@@@std@@QAEXPAU_Node@?$_List_nod@U?$pair@$$CBVCGUID@@PAVCGUIDEvent@GameManager@@@std@@V?$allocator@U?$pair@$$CBVCGUID@@PAVCGUIDEvent@GameManager@@@std@@@2@@2@I@Z
_TEXT	SEGMENT
__Ptr$ = 8						; size = 4
___formal$ = 12						; size = 4
?deallocate@?$allocator@U_Node@?$_List_nod@U?$pair@$$CBVCGUID@@PAVCGUIDEvent@GameManager@@@std@@V?$allocator@U?$pair@$$CBVCGUID@@PAVCGUIDEvent@GameManager@@@std@@@2@@std@@@std@@QAEXPAU_Node@?$_List_nod@U?$pair@$$CBVCGUID@@PAVCGUIDEvent@GameManager@@@std@@V?$allocator@U?$pair@$$CBVCGUID@@PAVCGUIDEvent@GameManager@@@std@@@2@@2@I@Z PROC ; std::allocator<std::_List_nod<std::pair<CGUID const ,GameManager::CGUIDEvent *>,std::allocator<std::pair<CGUID const ,GameManager::CGUIDEvent *> > >::_Node>::deallocate, COMDAT
; _this$ = ecx

; 141  : 		::operator delete(_Ptr);

  00000	8b 44 24 04	 mov	 eax, DWORD PTR __Ptr$[esp-4]
  00004	50		 push	 eax
  00005	e8 00 00 00 00	 call	 ??3@YAXPAX@Z		; operator delete
  0000a	59		 pop	 ecx

; 142  : 		}

  0000b	c2 08 00	 ret	 8
?deallocate@?$allocator@U_Node@?$_List_nod@U?$pair@$$CBVCGUID@@PAVCGUIDEvent@GameManager@@@std@@V?$allocator@U?$pair@$$CBVCGUID@@PAVCGUIDEvent@GameManager@@@std@@@2@@std@@@std@@QAEXPAU_Node@?$_List_nod@U?$pair@$$CBVCGUID@@PAVCGUIDEvent@GameManager@@@std@@V?$allocator@U?$pair@$$CBVCGUID@@PAVCGUIDEvent@GameManager@@@std@@@2@@2@I@Z ENDP ; std::allocator<std::_List_nod<std::pair<CGUID const ,GameManager::CGUIDEvent *>,std::allocator<std::pair<CGUID const ,GameManager::CGUIDEvent *> > >::_Node>::deallocate
_TEXT	ENDS
PUBLIC	??0?$allocator@U_List_position@?$_Hash@V?$_Hmap_traits@VCGUID@@PAVCGUIDEvent@GameManager@@Vhash_guid_compare@@V?$allocator@U?$pair@$$CBVCGUID@@PAVCGUIDEvent@GameManager@@@std@@@std@@$0A@@stdext@@@stdext@@@std@@QAE@ABV01@@Z ; std::allocator<stdext::_Hash<stdext::_Hmap_traits<CGUID,GameManager::CGUIDEvent *,hash_guid_compare,std::allocator<std::pair<CGUID const ,GameManager::CGUIDEvent *> >,0> >::_List_position>::allocator<stdext::_Hash<stdext::_Hmap_traits<CGUID,GameManager::CGUIDEvent *,hash_guid_compare,std::allocator<std::pair<CGUID const ,GameManager::CGUIDEvent *> >,0> >::_List_position>
; Function compile flags: /Ogtpy
;	COMDAT ??0?$allocator@U_List_position@?$_Hash@V?$_Hmap_traits@VCGUID@@PAVCGUIDEvent@GameManager@@Vhash_guid_compare@@V?$allocator@U?$pair@$$CBVCGUID@@PAVCGUIDEvent@GameManager@@@std@@@std@@$0A@@stdext@@@stdext@@@std@@QAE@ABV01@@Z
_TEXT	SEGMENT
___formal$ = 8						; size = 4
??0?$allocator@U_List_position@?$_Hash@V?$_Hmap_traits@VCGUID@@PAVCGUIDEvent@GameManager@@Vhash_guid_compare@@V?$allocator@U?$pair@$$CBVCGUID@@PAVCGUIDEvent@GameManager@@@std@@@std@@$0A@@stdext@@@stdext@@@std@@QAE@ABV01@@Z PROC ; std::allocator<stdext::_Hash<stdext::_Hmap_traits<CGUID,GameManager::CGUIDEvent *,hash_guid_compare,std::allocator<std::pair<CGUID const ,GameManager::CGUIDEvent *> >,0> >::_List_position>::allocator<stdext::_Hash<stdext::_Hmap_traits<CGUID,GameManager::CGUIDEvent *,hash_guid_compare,std::allocator<std::pair<CGUID const ,GameManager::CGUIDEvent *> >,0> >::_List_position>, COMDAT
; _this$ = ecx

; 124  : 	allocator(const allocator<_Ty>&) _THROW0()

  00000	8b c1		 mov	 eax, ecx

; 125  : 		{	// construct by copying (do nothing)
; 126  : 		}

  00002	c2 04 00	 ret	 4
??0?$allocator@U_List_position@?$_Hash@V?$_Hmap_traits@VCGUID@@PAVCGUIDEvent@GameManager@@Vhash_guid_compare@@V?$allocator@U?$pair@$$CBVCGUID@@PAVCGUIDEvent@GameManager@@@std@@@std@@$0A@@stdext@@@stdext@@@std@@QAE@ABV01@@Z ENDP ; std::allocator<stdext::_Hash<stdext::_Hmap_traits<CGUID,GameManager::CGUIDEvent *,hash_guid_compare,std::allocator<std::pair<CGUID const ,GameManager::CGUIDEvent *> >,0> >::_List_position>::allocator<stdext::_Hash<stdext::_Hmap_traits<CGUID,GameManager::CGUIDEvent *,hash_guid_compare,std::allocator<std::pair<CGUID const ,GameManager::CGUIDEvent *> >,0> >::_List_position>
_TEXT	ENDS
PUBLIC	?deallocate@?$allocator@U_List_position@?$_Hash@V?$_Hmap_traits@VCGUID@@PAVCGUIDEvent@GameManager@@Vhash_guid_compare@@V?$allocator@U?$pair@$$CBVCGUID@@PAVCGUIDEvent@GameManager@@@std@@@std@@$0A@@stdext@@@stdext@@@std@@QAEXPAU_List_position@?$_Hash@V?$_Hmap_traits@VCGUID@@PAVCGUIDEvent@GameManager@@Vhash_guid_compare@@V?$allocator@U?$pair@$$CBVCGUID@@PAVCGUIDEvent@GameManager@@@std@@@std@@$0A@@stdext@@@stdext@@I@Z ; std::allocator<stdext::_Hash<stdext::_Hmap_traits<CGUID,GameManager::CGUIDEvent *,hash_guid_compare,std::allocator<std::pair<CGUID const ,GameManager::CGUIDEvent *> >,0> >::_List_position>::deallocate
; Function compile flags: /Ogtpy
;	COMDAT ?deallocate@?$allocator@U_List_position@?$_Hash@V?$_Hmap_traits@VCGUID@@PAVCGUIDEvent@GameManager@@Vhash_guid_compare@@V?$allocator@U?$pair@$$CBVCGUID@@PAVCGUIDEvent@GameManager@@@std@@@std@@$0A@@stdext@@@stdext@@@std@@QAEXPAU_List_position@?$_Hash@V?$_Hmap_traits@VCGUID@@PAVCGUIDEvent@GameManager@@Vhash_guid_compare@@V?$allocator@U?$pair@$$CBVCGUID@@PAVCGUIDEvent@GameManager@@@std@@@std@@$0A@@stdext@@@stdext@@I@Z
_TEXT	SEGMENT
__Ptr$ = 8						; size = 4
___formal$ = 12						; size = 4
?deallocate@?$allocator@U_List_position@?$_Hash@V?$_Hmap_traits@VCGUID@@PAVCGUIDEvent@GameManager@@Vhash_guid_compare@@V?$allocator@U?$pair@$$CBVCGUID@@PAVCGUIDEvent@GameManager@@@std@@@std@@$0A@@stdext@@@stdext@@@std@@QAEXPAU_List_position@?$_Hash@V?$_Hmap_traits@VCGUID@@PAVCGUIDEvent@GameManager@@Vhash_guid_compare@@V?$allocator@U?$pair@$$CBVCGUID@@PAVCGUIDEvent@GameManager@@@std@@@std@@$0A@@stdext@@@stdext@@I@Z PROC ; std::allocator<stdext::_Hash<stdext::_Hmap_traits<CGUID,GameManager::CGUIDEvent *,hash_guid_compare,std::allocator<std::pair<CGUID const ,GameManager::CGUIDEvent *> >,0> >::_List_position>::deallocate, COMDAT
; _this$ = ecx

; 141  : 		::operator delete(_Ptr);

  00000	8b 44 24 04	 mov	 eax, DWORD PTR __Ptr$[esp-4]
  00004	50		 push	 eax
  00005	e8 00 00 00 00	 call	 ??3@YAXPAX@Z		; operator delete
  0000a	59		 pop	 ecx

; 142  : 		}

  0000b	c2 08 00	 ret	 8
?deallocate@?$allocator@U_List_position@?$_Hash@V?$_Hmap_traits@VCGUID@@PAVCGUIDEvent@GameManager@@Vhash_guid_compare@@V?$allocator@U?$pair@$$CBVCGUID@@PAVCGUIDEvent@GameManager@@@std@@@std@@$0A@@stdext@@@stdext@@@std@@QAEXPAU_List_position@?$_Hash@V?$_Hmap_traits@VCGUID@@PAVCGUIDEvent@GameManager@@Vhash_guid_compare@@V?$allocator@U?$pair@$$CBVCGUID@@PAVCGUIDEvent@GameManager@@@std@@@std@@$0A@@stdext@@@stdext@@I@Z ENDP ; std::allocator<stdext::_Hash<stdext::_Hmap_traits<CGUID,GameManager::CGUIDEvent *,hash_guid_compare,std::allocator<std::pair<CGUID const ,GameManager::CGUIDEvent *> >,0> >::_List_position>::deallocate
_TEXT	ENDS
PUBLIC	??0?$allocator@U?$pair@$$CBVCGUID@@PAVCBaseObject@@@std@@@std@@QAE@ABV01@@Z ; std::allocator<std::pair<CGUID const ,CBaseObject *> >::allocator<std::pair<CGUID const ,CBaseObject *> >
; Function compile flags: /Ogtpy
;	COMDAT ??0?$allocator@U?$pair@$$CBVCGUID@@PAVCBaseObject@@@std@@@std@@QAE@ABV01@@Z
_TEXT	SEGMENT
___formal$ = 8						; size = 4
??0?$allocator@U?$pair@$$CBVCGUID@@PAVCBaseObject@@@std@@@std@@QAE@ABV01@@Z PROC ; std::allocator<std::pair<CGUID const ,CBaseObject *> >::allocator<std::pair<CGUID const ,CBaseObject *> >, COMDAT
; _this$ = ecx

; 124  : 	allocator(const allocator<_Ty>&) _THROW0()

  00000	8b c1		 mov	 eax, ecx

; 125  : 		{	// construct by copying (do nothing)
; 126  : 		}

  00002	c2 04 00	 ret	 4
??0?$allocator@U?$pair@$$CBVCGUID@@PAVCBaseObject@@@std@@@std@@QAE@ABV01@@Z ENDP ; std::allocator<std::pair<CGUID const ,CBaseObject *> >::allocator<std::pair<CGUID const ,CBaseObject *> >
_TEXT	ENDS
PUBLIC	?_Nextnode@?$list@U?$pair@$$CBVCGUID@@PAVCBaseObject@@@std@@V?$allocator@U?$pair@$$CBVCGUID@@PAVCBaseObject@@@std@@@2@@std@@KAAAPAU_Node@?$_List_nod@U?$pair@$$CBVCGUID@@PAVCBaseObject@@@std@@V?$allocator@U?$pair@$$CBVCGUID@@PAVCBaseObject@@@std@@@2@@2@PAU342@@Z ; std::list<std::pair<CGUID const ,CBaseObject *>,std::allocator<std::pair<CGUID const ,CBaseObject *> > >::_Nextnode
; Function compile flags: /Ogtpy
; File d:\program files\microsoft visual studio 8\vc\include\list
;	COMDAT ?_Nextnode@?$list@U?$pair@$$CBVCGUID@@PAVCBaseObject@@@std@@V?$allocator@U?$pair@$$CBVCGUID@@PAVCBaseObject@@@std@@@2@@std@@KAAAPAU_Node@?$_List_nod@U?$pair@$$CBVCGUID@@PAVCBaseObject@@@std@@V?$allocator@U?$pair@$$CBVCGUID@@PAVCBaseObject@@@std@@@2@@2@PAU342@@Z
_TEXT	SEGMENT
__Pnode$ = 8						; size = 4
?_Nextnode@?$list@U?$pair@$$CBVCGUID@@PAVCBaseObject@@@std@@V?$allocator@U?$pair@$$CBVCGUID@@PAVCBaseObject@@@std@@@2@@std@@KAAAPAU_Node@?$_List_nod@U?$pair@$$CBVCGUID@@PAVCBaseObject@@@std@@V?$allocator@U?$pair@$$CBVCGUID@@PAVCBaseObject@@@std@@@2@@2@PAU342@@Z PROC ; std::list<std::pair<CGUID const ,CBaseObject *>,std::allocator<std::pair<CGUID const ,CBaseObject *> > >::_Nextnode, COMDAT

; 111  : 		return ((_Nodepref)(*_Pnode)._Next);

  00000	8b 44 24 04	 mov	 eax, DWORD PTR __Pnode$[esp-4]

; 112  : 		}

  00004	c3		 ret	 0
?_Nextnode@?$list@U?$pair@$$CBVCGUID@@PAVCBaseObject@@@std@@V?$allocator@U?$pair@$$CBVCGUID@@PAVCBaseObject@@@std@@@2@@std@@KAAAPAU_Node@?$_List_nod@U?$pair@$$CBVCGUID@@PAVCBaseObject@@@std@@V?$allocator@U?$pair@$$CBVCGUID@@PAVCBaseObject@@@std@@@2@@2@PAU342@@Z ENDP ; std::list<std::pair<CGUID const ,CBaseObject *>,std::allocator<std::pair<CGUID const ,CBaseObject *> > >::_Nextnode
_TEXT	ENDS
PUBLIC	?_Prevnode@?$list@U?$pair@$$CBVCGUID@@PAVCBaseObject@@@std@@V?$allocator@U?$pair@$$CBVCGUID@@PAVCBaseObject@@@std@@@2@@std@@KAAAPAU_Node@?$_List_nod@U?$pair@$$CBVCGUID@@PAVCBaseObject@@@std@@V?$allocator@U?$pair@$$CBVCGUID@@PAVCBaseObject@@@std@@@2@@2@PAU342@@Z ; std::list<std::pair<CGUID const ,CBaseObject *>,std::allocator<std::pair<CGUID const ,CBaseObject *> > >::_Prevnode
; Function compile flags: /Ogtpy
;	COMDAT ?_Prevnode@?$list@U?$pair@$$CBVCGUID@@PAVCBaseObject@@@std@@V?$allocator@U?$pair@$$CBVCGUID@@PAVCBaseObject@@@std@@@2@@std@@KAAAPAU_Node@?$_List_nod@U?$pair@$$CBVCGUID@@PAVCBaseObject@@@std@@V?$allocator@U?$pair@$$CBVCGUID@@PAVCBaseObject@@@std@@@2@@2@PAU342@@Z
_TEXT	SEGMENT
__Pnode$ = 8						; size = 4
?_Prevnode@?$list@U?$pair@$$CBVCGUID@@PAVCBaseObject@@@std@@V?$allocator@U?$pair@$$CBVCGUID@@PAVCBaseObject@@@std@@@2@@std@@KAAAPAU_Node@?$_List_nod@U?$pair@$$CBVCGUID@@PAVCBaseObject@@@std@@V?$allocator@U?$pair@$$CBVCGUID@@PAVCBaseObject@@@std@@@2@@2@PAU342@@Z PROC ; std::list<std::pair<CGUID const ,CBaseObject *>,std::allocator<std::pair<CGUID const ,CBaseObject *> > >::_Prevnode, COMDAT

; 116  : 		return ((_Nodepref)(*_Pnode)._Prev);

  00000	8b 44 24 04	 mov	 eax, DWORD PTR __Pnode$[esp-4]
  00004	83 c0 04	 add	 eax, 4

; 117  : 		}

  00007	c3		 ret	 0
?_Prevnode@?$list@U?$pair@$$CBVCGUID@@PAVCBaseObject@@@std@@V?$allocator@U?$pair@$$CBVCGUID@@PAVCBaseObject@@@std@@@2@@std@@KAAAPAU_Node@?$_List_nod@U?$pair@$$CBVCGUID@@PAVCBaseObject@@@std@@V?$allocator@U?$pair@$$CBVCGUID@@PAVCBaseObject@@@std@@@2@@2@PAU342@@Z ENDP ; std::list<std::pair<CGUID const ,CBaseObject *>,std::allocator<std::pair<CGUID const ,CBaseObject *> > >::_Prevnode
_TEXT	ENDS
PUBLIC	?_Myval@?$list@U?$pair@$$CBVCGUID@@PAVCBaseObject@@@std@@V?$allocator@U?$pair@$$CBVCGUID@@PAVCBaseObject@@@std@@@2@@std@@KAAAU?$pair@$$CBVCGUID@@PAVCBaseObject@@@2@PAU_Node@?$_List_nod@U?$pair@$$CBVCGUID@@PAVCBaseObject@@@std@@V?$allocator@U?$pair@$$CBVCGUID@@PAVCBaseObject@@@std@@@2@@2@@Z ; std::list<std::pair<CGUID const ,CBaseObject *>,std::allocator<std::pair<CGUID const ,CBaseObject *> > >::_Myval
; Function compile flags: /Ogtpy
;	COMDAT ?_Myval@?$list@U?$pair@$$CBVCGUID@@PAVCBaseObject@@@std@@V?$allocator@U?$pair@$$CBVCGUID@@PAVCBaseObject@@@std@@@2@@std@@KAAAU?$pair@$$CBVCGUID@@PAVCBaseObject@@@2@PAU_Node@?$_List_nod@U?$pair@$$CBVCGUID@@PAVCBaseObject@@@std@@V?$allocator@U?$pair@$$CBVCGUID@@PAVCBaseObject@@@std@@@2@@2@@Z
_TEXT	SEGMENT
__Pnode$ = 8						; size = 4
?_Myval@?$list@U?$pair@$$CBVCGUID@@PAVCBaseObject@@@std@@V?$allocator@U?$pair@$$CBVCGUID@@PAVCBaseObject@@@std@@@2@@std@@KAAAU?$pair@$$CBVCGUID@@PAVCBaseObject@@@2@PAU_Node@?$_List_nod@U?$pair@$$CBVCGUID@@PAVCBaseObject@@@std@@V?$allocator@U?$pair@$$CBVCGUID@@PAVCBaseObject@@@std@@@2@@2@@Z PROC ; std::list<std::pair<CGUID const ,CBaseObject *>,std::allocator<std::pair<CGUID const ,CBaseObject *> > >::_Myval, COMDAT

; 121  : 		return ((_Vref)(*_Pnode)._Myval);

  00000	8b 44 24 04	 mov	 eax, DWORD PTR __Pnode$[esp-4]
  00004	83 c0 08	 add	 eax, 8

; 122  : 		}

  00007	c3		 ret	 0
?_Myval@?$list@U?$pair@$$CBVCGUID@@PAVCBaseObject@@@std@@V?$allocator@U?$pair@$$CBVCGUID@@PAVCBaseObject@@@std@@@2@@std@@KAAAU?$pair@$$CBVCGUID@@PAVCBaseObject@@@2@PAU_Node@?$_List_nod@U?$pair@$$CBVCGUID@@PAVCBaseObject@@@std@@V?$allocator@U?$pair@$$CBVCGUID@@PAVCBaseObject@@@std@@@2@@2@@Z ENDP ; std::list<std::pair<CGUID const ,CBaseObject *>,std::allocator<std::pair<CGUID const ,CBaseObject *> > >::_Myval
_TEXT	ENDS
PUBLIC	?deallocate@?$allocator@U_Node@?$_List_nod@U?$pair@$$CBVCGUID@@PAVCBaseObject@@@std@@V?$allocator@U?$pair@$$CBVCGUID@@PAVCBaseObject@@@std@@@2@@std@@@std@@QAEXPAU_Node@?$_List_nod@U?$pair@$$CBVCGUID@@PAVCBaseObject@@@std@@V?$allocator@U?$pair@$$CBVCGUID@@PAVCBaseObject@@@std@@@2@@2@I@Z ; std::allocator<std::_List_nod<std::pair<CGUID const ,CBaseObject *>,std::allocator<std::pair<CGUID const ,CBaseObject *> > >::_Node>::deallocate
; Function compile flags: /Ogtpy
; File d:\program files\microsoft visual studio 8\vc\include\xmemory
;	COMDAT ?deallocate@?$allocator@U_Node@?$_List_nod@U?$pair@$$CBVCGUID@@PAVCBaseObject@@@std@@V?$allocator@U?$pair@$$CBVCGUID@@PAVCBaseObject@@@std@@@2@@std@@@std@@QAEXPAU_Node@?$_List_nod@U?$pair@$$CBVCGUID@@PAVCBaseObject@@@std@@V?$allocator@U?$pair@$$CBVCGUID@@PAVCBaseObject@@@std@@@2@@2@I@Z
_TEXT	SEGMENT
__Ptr$ = 8						; size = 4
___formal$ = 12						; size = 4
?deallocate@?$allocator@U_Node@?$_List_nod@U?$pair@$$CBVCGUID@@PAVCBaseObject@@@std@@V?$allocator@U?$pair@$$CBVCGUID@@PAVCBaseObject@@@std@@@2@@std@@@std@@QAEXPAU_Node@?$_List_nod@U?$pair@$$CBVCGUID@@PAVCBaseObject@@@std@@V?$allocator@U?$pair@$$CBVCGUID@@PAVCBaseObject@@@std@@@2@@2@I@Z PROC ; std::allocator<std::_List_nod<std::pair<CGUID const ,CBaseObject *>,std::allocator<std::pair<CGUID const ,CBaseObject *> > >::_Node>::deallocate, COMDAT
; _this$ = ecx

; 141  : 		::operator delete(_Ptr);

  00000	8b 44 24 04	 mov	 eax, DWORD PTR __Ptr$[esp-4]
  00004	50		 push	 eax
  00005	e8 00 00 00 00	 call	 ??3@YAXPAX@Z		; operator delete
  0000a	59		 pop	 ecx

; 142  : 		}

  0000b	c2 08 00	 ret	 8
?deallocate@?$allocator@U_Node@?$_List_nod@U?$pair@$$CBVCGUID@@PAVCBaseObject@@@std@@V?$allocator@U?$pair@$$CBVCGUID@@PAVCBaseObject@@@std@@@2@@std@@@std@@QAEXPAU_Node@?$_List_nod@U?$pair@$$CBVCGUID@@PAVCBaseObject@@@std@@V?$allocator@U?$pair@$$CBVCGUID@@PAVCBaseObject@@@std@@@2@@2@I@Z ENDP ; std::allocator<std::_List_nod<std::pair<CGUID const ,CBaseObject *>,std::allocator<std::pair<CGUID const ,CBaseObject *> > >::_Node>::deallocate
_TEXT	ENDS
PUBLIC	?size@?$vector@U_List_position@?$_Hash@V?$_Hmap_traits@VCGUID@@PAVCBaseObject@@Vhash_guid_compare@@V?$allocator@U?$pair@$$CBVCGUID@@PAVCBaseObject@@@std@@@std@@$0A@@stdext@@@stdext@@V?$allocator@U_List_position@?$_Hash@V?$_Hmap_traits@VCGUID@@PAVCBaseObject@@Vhash_guid_compare@@V?$allocator@U?$pair@$$CBVCGUID@@PAVCBaseObject@@@std@@@std@@$0A@@stdext@@@stdext@@@std@@@std@@QBEIXZ ; std::vector<stdext::_Hash<stdext::_Hmap_traits<CGUID,CBaseObject *,hash_guid_compare,std::allocator<std::pair<CGUID const ,CBaseObject *> >,0> >::_List_position,std::allocator<stdext::_Hash<stdext::_Hmap_traits<CGUID,CBaseObject *,hash_guid_compare,std::allocator<std::pair<CGUID const ,CBaseObject *> >,0> >::_List_position> >::size
; Function compile flags: /Ogtpy
; File d:\program files\microsoft visual studio 8\vc\include\vector
;	COMDAT ?size@?$vector@U_List_position@?$_Hash@V?$_Hmap_traits@VCGUID@@PAVCBaseObject@@Vhash_guid_compare@@V?$allocator@U?$pair@$$CBVCGUID@@PAVCBaseObject@@@std@@@std@@$0A@@stdext@@@stdext@@V?$allocator@U_List_position@?$_Hash@V?$_Hmap_traits@VCGUID@@PAVCBaseObject@@Vhash_guid_compare@@V?$allocator@U?$pair@$$CBVCGUID@@PAVCBaseObject@@@std@@@std@@$0A@@stdext@@@stdext@@@std@@@std@@QBEIXZ
_TEXT	SEGMENT
?size@?$vector@U_List_position@?$_Hash@V?$_Hmap_traits@VCGUID@@PAVCBaseObject@@Vhash_guid_compare@@V?$allocator@U?$pair@$$CBVCGUID@@PAVCBaseObject@@@std@@@std@@$0A@@stdext@@@stdext@@V?$allocator@U_List_position@?$_Hash@V?$_Hmap_traits@VCGUID@@PAVCBaseObject@@Vhash_guid_compare@@V?$allocator@U?$pair@$$CBVCGUID@@PAVCBaseObject@@@std@@@std@@$0A@@stdext@@@stdext@@@std@@@std@@QBEIXZ PROC ; std::vector<stdext::_Hash<stdext::_Hmap_traits<CGUID,CBaseObject *,hash_guid_compare,std::allocator<std::pair<CGUID const ,CBaseObject *> >,0> >::_List_position,std::allocator<stdext::_Hash<stdext::_Hmap_traits<CGUID,CBaseObject *,hash_guid_compare,std::allocator<std::pair<CGUID const ,CBaseObject *> >,0> >::_List_position> >::size, COMDAT
; _this$ = ecx

; 703  : 		return (_Myfirst == 0 ? 0 : _Mylast - _Myfirst);

  00000	8b 51 04	 mov	 edx, DWORD PTR [ecx+4]
  00003	85 d2		 test	 edx, edx
  00005	75 03		 jne	 SHORT $LN3@size@2
  00007	33 c0		 xor	 eax, eax

; 704  : 		}

  00009	c3		 ret	 0
$LN3@size@2:

; 703  : 		return (_Myfirst == 0 ? 0 : _Mylast - _Myfirst);

  0000a	8b 41 08	 mov	 eax, DWORD PTR [ecx+8]
  0000d	2b c2		 sub	 eax, edx
  0000f	c1 f8 03	 sar	 eax, 3

; 704  : 		}

  00012	c3		 ret	 0
?size@?$vector@U_List_position@?$_Hash@V?$_Hmap_traits@VCGUID@@PAVCBaseObject@@Vhash_guid_compare@@V?$allocator@U?$pair@$$CBVCGUID@@PAVCBaseObject@@@std@@@std@@$0A@@stdext@@@stdext@@V?$allocator@U_List_position@?$_Hash@V?$_Hmap_traits@VCGUID@@PAVCBaseObject@@Vhash_guid_compare@@V?$allocator@U?$pair@$$CBVCGUID@@PAVCBaseObject@@@std@@@std@@$0A@@stdext@@@stdext@@@std@@@std@@QBEIXZ ENDP ; std::vector<stdext::_Hash<stdext::_Hmap_traits<CGUID,CBaseObject *,hash_guid_compare,std::allocator<std::pair<CGUID const ,CBaseObject *> >,0> >::_List_position,std::allocator<stdext::_Hash<stdext::_Hmap_traits<CGUID,CBaseObject *,hash_guid_compare,std::allocator<std::pair<CGUID const ,CBaseObject *> >,0> >::_List_position> >::size
_TEXT	ENDS
PUBLIC	??0?$allocator@U_List_position@?$_Hash@V?$_Hmap_traits@VCGUID@@PAVCBaseObject@@Vhash_guid_compare@@V?$allocator@U?$pair@$$CBVCGUID@@PAVCBaseObject@@@std@@@std@@$0A@@stdext@@@stdext@@@std@@QAE@ABV01@@Z ; std::allocator<stdext::_Hash<stdext::_Hmap_traits<CGUID,CBaseObject *,hash_guid_compare,std::allocator<std::pair<CGUID const ,CBaseObject *> >,0> >::_List_position>::allocator<stdext::_Hash<stdext::_Hmap_traits<CGUID,CBaseObject *,hash_guid_compare,std::allocator<std::pair<CGUID const ,CBaseObject *> >,0> >::_List_position>
; Function compile flags: /Ogtpy
; File d:\program files\microsoft visual studio 8\vc\include\xmemory
;	COMDAT ??0?$allocator@U_List_position@?$_Hash@V?$_Hmap_traits@VCGUID@@PAVCBaseObject@@Vhash_guid_compare@@V?$allocator@U?$pair@$$CBVCGUID@@PAVCBaseObject@@@std@@@std@@$0A@@stdext@@@stdext@@@std@@QAE@ABV01@@Z
_TEXT	SEGMENT
___formal$ = 8						; size = 4
??0?$allocator@U_List_position@?$_Hash@V?$_Hmap_traits@VCGUID@@PAVCBaseObject@@Vhash_guid_compare@@V?$allocator@U?$pair@$$CBVCGUID@@PAVCBaseObject@@@std@@@std@@$0A@@stdext@@@stdext@@@std@@QAE@ABV01@@Z PROC ; std::allocator<stdext::_Hash<stdext::_Hmap_traits<CGUID,CBaseObject *,hash_guid_compare,std::allocator<std::pair<CGUID const ,CBaseObject *> >,0> >::_List_position>::allocator<stdext::_Hash<stdext::_Hmap_traits<CGUID,CBaseObject *,hash_guid_compare,std::allocator<std::pair<CGUID const ,CBaseObject *> >,0> >::_List_position>, COMDAT
; _this$ = ecx

; 124  : 	allocator(const allocator<_Ty>&) _THROW0()

  00000	8b c1		 mov	 eax, ecx

; 125  : 		{	// construct by copying (do nothing)
; 126  : 		}

  00002	c2 04 00	 ret	 4
??0?$allocator@U_List_position@?$_Hash@V?$_Hmap_traits@VCGUID@@PAVCBaseObject@@Vhash_guid_compare@@V?$allocator@U?$pair@$$CBVCGUID@@PAVCBaseObject@@@std@@@std@@$0A@@stdext@@@stdext@@@std@@QAE@ABV01@@Z ENDP ; std::allocator<stdext::_Hash<stdext::_Hmap_traits<CGUID,CBaseObject *,hash_guid_compare,std::allocator<std::pair<CGUID const ,CBaseObject *> >,0> >::_List_position>::allocator<stdext::_Hash<stdext::_Hmap_traits<CGUID,CBaseObject *,hash_guid_compare,std::allocator<std::pair<CGUID const ,CBaseObject *> >,0> >::_List_position>
_TEXT	ENDS
PUBLIC	?deallocate@?$allocator@U_List_position@?$_Hash@V?$_Hmap_traits@VCGUID@@PAVCBaseObject@@Vhash_guid_compare@@V?$allocator@U?$pair@$$CBVCGUID@@PAVCBaseObject@@@std@@@std@@$0A@@stdext@@@stdext@@@std@@QAEXPAU_List_position@?$_Hash@V?$_Hmap_traits@VCGUID@@PAVCBaseObject@@Vhash_guid_compare@@V?$allocator@U?$pair@$$CBVCGUID@@PAVCBaseObject@@@std@@@std@@$0A@@stdext@@@stdext@@I@Z ; std::allocator<stdext::_Hash<stdext::_Hmap_traits<CGUID,CBaseObject *,hash_guid_compare,std::allocator<std::pair<CGUID const ,CBaseObject *> >,0> >::_List_position>::deallocate
; Function compile flags: /Ogtpy
;	COMDAT ?deallocate@?$allocator@U_List_position@?$_Hash@V?$_Hmap_traits@VCGUID@@PAVCBaseObject@@Vhash_guid_compare@@V?$allocator@U?$pair@$$CBVCGUID@@PAVCBaseObject@@@std@@@std@@$0A@@stdext@@@stdext@@@std@@QAEXPAU_List_position@?$_Hash@V?$_Hmap_traits@VCGUID@@PAVCBaseObject@@Vhash_guid_compare@@V?$allocator@U?$pair@$$CBVCGUID@@PAVCBaseObject@@@std@@@std@@$0A@@stdext@@@stdext@@I@Z
_TEXT	SEGMENT
__Ptr$ = 8						; size = 4
___formal$ = 12						; size = 4
?deallocate@?$allocator@U_List_position@?$_Hash@V?$_Hmap_traits@VCGUID@@PAVCBaseObject@@Vhash_guid_compare@@V?$allocator@U?$pair@$$CBVCGUID@@PAVCBaseObject@@@std@@@std@@$0A@@stdext@@@stdext@@@std@@QAEXPAU_List_position@?$_Hash@V?$_Hmap_traits@VCGUID@@PAVCBaseObject@@Vhash_guid_compare@@V?$allocator@U?$pair@$$CBVCGUID@@PAVCBaseObject@@@std@@@std@@$0A@@stdext@@@stdext@@I@Z PROC ; std::allocator<stdext::_Hash<stdext::_Hmap_traits<CGUID,CBaseObject *,hash_guid_compare,std::allocator<std::pair<CGUID const ,CBaseObject *> >,0> >::_List_position>::deallocate, COMDAT
; _this$ = ecx

; 141  : 		::operator delete(_Ptr);

  00000	8b 44 24 04	 mov	 eax, DWORD PTR __Ptr$[esp-4]
  00004	50		 push	 eax
  00005	e8 00 00 00 00	 call	 ??3@YAXPAX@Z		; operator delete
  0000a	59		 pop	 ecx

; 142  : 		}

  0000b	c2 08 00	 ret	 8
?deallocate@?$allocator@U_List_position@?$_Hash@V?$_Hmap_traits@VCGUID@@PAVCBaseObject@@Vhash_guid_compare@@V?$allocator@U?$pair@$$CBVCGUID@@PAVCBaseObject@@@std@@@std@@$0A@@stdext@@@stdext@@@std@@QAEXPAU_List_position@?$_Hash@V?$_Hmap_traits@VCGUID@@PAVCBaseObject@@Vhash_guid_compare@@V?$allocator@U?$pair@$$CBVCGUID@@PAVCBaseObject@@@std@@@std@@$0A@@stdext@@@stdext@@I@Z ENDP ; std::allocator<stdext::_Hash<stdext::_Hmap_traits<CGUID,CBaseObject *,hash_guid_compare,std::allocator<std::pair<CGUID const ,CBaseObject *> >,0> >::_List_position>::deallocate
_TEXT	ENDS
PUBLIC	?_Isnil@?$_Tree@V?$_Tmap_traits@HPAVCTradeArea@Business@@U?$less@H@std@@V?$allocator@U?$pair@$$CBHPAVCTradeArea@Business@@@std@@@4@$0A@@std@@@std@@KAAADPAU_Node@?$_Tree_nod@V?$_Tmap_traits@HPAVCTradeArea@Business@@U?$less@H@std@@V?$allocator@U?$pair@$$CBHPAVCTradeArea@Business@@@std@@@4@$0A@@std@@@2@@Z ; std::_Tree<std::_Tmap_traits<int,Business::CTradeArea *,std::less<int>,std::allocator<std::pair<int const ,Business::CTradeArea *> >,0> >::_Isnil
; Function compile flags: /Ogtpy
; File d:\program files\microsoft visual studio 8\vc\include\xtree
;	COMDAT ?_Isnil@?$_Tree@V?$_Tmap_traits@HPAVCTradeArea@Business@@U?$less@H@std@@V?$allocator@U?$pair@$$CBHPAVCTradeArea@Business@@@std@@@4@$0A@@std@@@std@@KAAADPAU_Node@?$_Tree_nod@V?$_Tmap_traits@HPAVCTradeArea@Business@@U?$less@H@std@@V?$allocator@U?$pair@$$CBHPAVCTradeArea@Business@@@std@@@4@$0A@@std@@@2@@Z
_TEXT	SEGMENT
__Pnode$ = 8						; size = 4
?_Isnil@?$_Tree@V?$_Tmap_traits@HPAVCTradeArea@Business@@U?$less@H@std@@V?$allocator@U?$pair@$$CBHPAVCTradeArea@Business@@@std@@@4@$0A@@std@@@std@@KAAADPAU_Node@?$_Tree_nod@V?$_Tmap_traits@HPAVCTradeArea@Business@@U?$less@H@std@@V?$allocator@U?$pair@$$CBHPAVCTradeArea@Business@@@std@@@4@$0A@@std@@@2@@Z PROC ; std::_Tree<std::_Tmap_traits<int,Business::CTradeArea *,std::less<int>,std::allocator<std::pair<int const ,Business::CTradeArea *> >,0> >::_Isnil, COMDAT

; 146  : 		return ((_Charref)(*_Pnode)._Isnil);

  00000	8b 44 24 04	 mov	 eax, DWORD PTR __Pnode$[esp-4]
  00004	83 c0 15	 add	 eax, 21			; 00000015H

; 147  : 		}

  00007	c3		 ret	 0
?_Isnil@?$_Tree@V?$_Tmap_traits@HPAVCTradeArea@Business@@U?$less@H@std@@V?$allocator@U?$pair@$$CBHPAVCTradeArea@Business@@@std@@@4@$0A@@std@@@std@@KAAADPAU_Node@?$_Tree_nod@V?$_Tmap_traits@HPAVCTradeArea@Business@@U?$less@H@std@@V?$allocator@U?$pair@$$CBHPAVCTradeArea@Business@@@std@@@4@$0A@@std@@@2@@Z ENDP ; std::_Tree<std::_Tmap_traits<int,Business::CTradeArea *,std::less<int>,std::allocator<std::pair<int const ,Business::CTradeArea *> >,0> >::_Isnil
_TEXT	ENDS
PUBLIC	?_Lmost@?$_Tree@V?$_Tmap_traits@HPAVCTradeArea@Business@@U?$less@H@std@@V?$allocator@U?$pair@$$CBHPAVCTradeArea@Business@@@std@@@4@$0A@@std@@@std@@IBEAAPAU_Node@?$_Tree_nod@V?$_Tmap_traits@HPAVCTradeArea@Business@@U?$less@H@std@@V?$allocator@U?$pair@$$CBHPAVCTradeArea@Business@@@std@@@4@$0A@@std@@@2@XZ ; std::_Tree<std::_Tmap_traits<int,Business::CTradeArea *,std::less<int>,std::allocator<std::pair<int const ,Business::CTradeArea *> >,0> >::_Lmost
; Function compile flags: /Ogtpy
;	COMDAT ?_Lmost@?$_Tree@V?$_Tmap_traits@HPAVCTradeArea@Business@@U?$less@H@std@@V?$allocator@U?$pair@$$CBHPAVCTradeArea@Business@@@std@@@4@$0A@@std@@@std@@IBEAAPAU_Node@?$_Tree_nod@V?$_Tmap_traits@HPAVCTradeArea@Business@@U?$less@H@std@@V?$allocator@U?$pair@$$CBHPAVCTradeArea@Business@@@std@@@4@$0A@@std@@@2@XZ
_TEXT	SEGMENT
?_Lmost@?$_Tree@V?$_Tmap_traits@HPAVCTradeArea@Business@@U?$less@H@std@@V?$allocator@U?$pair@$$CBHPAVCTradeArea@Business@@@std@@@4@$0A@@std@@@std@@IBEAAPAU_Node@?$_Tree_nod@V?$_Tmap_traits@HPAVCTradeArea@Business@@U?$less@H@std@@V?$allocator@U?$pair@$$CBHPAVCTradeArea@Business@@@std@@@4@$0A@@std@@@2@XZ PROC ; std::_Tree<std::_Tmap_traits<int,Business::CTradeArea *,std::less<int>,std::allocator<std::pair<int const ,Business::CTradeArea *> >,0> >::_Lmost, COMDAT
; _this$ = ecx

; 1187 : 		return (_Left(_Myhead));

  00000	8b 41 04	 mov	 eax, DWORD PTR [ecx+4]

; 1188 : 		}

  00003	c3		 ret	 0
?_Lmost@?$_Tree@V?$_Tmap_traits@HPAVCTradeArea@Business@@U?$less@H@std@@V?$allocator@U?$pair@$$CBHPAVCTradeArea@Business@@@std@@@4@$0A@@std@@@std@@IBEAAPAU_Node@?$_Tree_nod@V?$_Tmap_traits@HPAVCTradeArea@Business@@U?$less@H@std@@V?$allocator@U?$pair@$$CBHPAVCTradeArea@Business@@@std@@@4@$0A@@std@@@2@XZ ENDP ; std::_Tree<std::_Tmap_traits<int,Business::CTradeArea *,std::less<int>,std::allocator<std::pair<int const ,Business::CTradeArea *> >,0> >::_Lmost
_TEXT	ENDS
PUBLIC	?_Rmost@?$_Tree@V?$_Tmap_traits@HPAVCTradeArea@Business@@U?$less@H@std@@V?$allocator@U?$pair@$$CBHPAVCTradeArea@Business@@@std@@@4@$0A@@std@@@std@@IBEAAPAU_Node@?$_Tree_nod@V?$_Tmap_traits@HPAVCTradeArea@Business@@U?$less@H@std@@V?$allocator@U?$pair@$$CBHPAVCTradeArea@Business@@@std@@@4@$0A@@std@@@2@XZ ; std::_Tree<std::_Tmap_traits<int,Business::CTradeArea *,std::less<int>,std::allocator<std::pair<int const ,Business::CTradeArea *> >,0> >::_Rmost
; Function compile flags: /Ogtpy
;	COMDAT ?_Rmost@?$_Tree@V?$_Tmap_traits@HPAVCTradeArea@Business@@U?$less@H@std@@V?$allocator@U?$pair@$$CBHPAVCTradeArea@Business@@@std@@@4@$0A@@std@@@std@@IBEAAPAU_Node@?$_Tree_nod@V?$_Tmap_traits@HPAVCTradeArea@Business@@U?$less@H@std@@V?$allocator@U?$pair@$$CBHPAVCTradeArea@Business@@@std@@@4@$0A@@std@@@2@XZ
_TEXT	SEGMENT
?_Rmost@?$_Tree@V?$_Tmap_traits@HPAVCTradeArea@Business@@U?$less@H@std@@V?$allocator@U?$pair@$$CBHPAVCTradeArea@Business@@@std@@@4@$0A@@std@@@std@@IBEAAPAU_Node@?$_Tree_nod@V?$_Tmap_traits@HPAVCTradeArea@Business@@U?$less@H@std@@V?$allocator@U?$pair@$$CBHPAVCTradeArea@Business@@@std@@@4@$0A@@std@@@2@XZ PROC ; std::_Tree<std::_Tmap_traits<int,Business::CTradeArea *,std::less<int>,std::allocator<std::pair<int const ,Business::CTradeArea *> >,0> >::_Rmost, COMDAT
; _this$ = ecx

; 1226 : 		return (_Right(_Myhead));

  00000	8b 41 04	 mov	 eax, DWORD PTR [ecx+4]
  00003	83 c0 08	 add	 eax, 8

; 1227 : 		}

  00006	c3		 ret	 0
?_Rmost@?$_Tree@V?$_Tmap_traits@HPAVCTradeArea@Business@@U?$less@H@std@@V?$allocator@U?$pair@$$CBHPAVCTradeArea@Business@@@std@@@4@$0A@@std@@@std@@IBEAAPAU_Node@?$_Tree_nod@V?$_Tmap_traits@HPAVCTradeArea@Business@@U?$less@H@std@@V?$allocator@U?$pair@$$CBHPAVCTradeArea@Business@@@std@@@4@$0A@@std@@@2@XZ ENDP ; std::_Tree<std::_Tmap_traits<int,Business::CTradeArea *,std::less<int>,std::allocator<std::pair<int const ,Business::CTradeArea *> >,0> >::_Rmost
_TEXT	ENDS
PUBLIC	?_Root@?$_Tree@V?$_Tmap_traits@HPAVCTradeArea@Business@@U?$less@H@std@@V?$allocator@U?$pair@$$CBHPAVCTradeArea@Business@@@std@@@4@$0A@@std@@@std@@IBEAAPAU_Node@?$_Tree_nod@V?$_Tmap_traits@HPAVCTradeArea@Business@@U?$less@H@std@@V?$allocator@U?$pair@$$CBHPAVCTradeArea@Business@@@std@@@4@$0A@@std@@@2@XZ ; std::_Tree<std::_Tmap_traits<int,Business::CTradeArea *,std::less<int>,std::allocator<std::pair<int const ,Business::CTradeArea *> >,0> >::_Root
; Function compile flags: /Ogtpy
;	COMDAT ?_Root@?$_Tree@V?$_Tmap_traits@HPAVCTradeArea@Business@@U?$less@H@std@@V?$allocator@U?$pair@$$CBHPAVCTradeArea@Business@@@std@@@4@$0A@@std@@@std@@IBEAAPAU_Node@?$_Tree_nod@V?$_Tmap_traits@HPAVCTradeArea@Business@@U?$less@H@std@@V?$allocator@U?$pair@$$CBHPAVCTradeArea@Business@@@std@@@4@$0A@@std@@@2@XZ
_TEXT	SEGMENT
?_Root@?$_Tree@V?$_Tmap_traits@HPAVCTradeArea@Business@@U?$less@H@std@@V?$allocator@U?$pair@$$CBHPAVCTradeArea@Business@@@std@@@4@$0A@@std@@@std@@IBEAAPAU_Node@?$_Tree_nod@V?$_Tmap_traits@HPAVCTradeArea@Business@@U?$less@H@std@@V?$allocator@U?$pair@$$CBHPAVCTradeArea@Business@@@std@@@4@$0A@@std@@@2@XZ PROC ; std::_Tree<std::_Tmap_traits<int,Business::CTradeArea *,std::less<int>,std::allocator<std::pair<int const ,Business::CTradeArea *> >,0> >::_Root, COMDAT
; _this$ = ecx

; 1231 : 		return (_Parent(_Myhead));

  00000	8b 41 04	 mov	 eax, DWORD PTR [ecx+4]
  00003	83 c0 04	 add	 eax, 4

; 1232 : 		}

  00006	c3		 ret	 0
?_Root@?$_Tree@V?$_Tmap_traits@HPAVCTradeArea@Business@@U?$less@H@std@@V?$allocator@U?$pair@$$CBHPAVCTradeArea@Business@@@std@@@4@$0A@@std@@@std@@IBEAAPAU_Node@?$_Tree_nod@V?$_Tmap_traits@HPAVCTradeArea@Business@@U?$less@H@std@@V?$allocator@U?$pair@$$CBHPAVCTradeArea@Business@@@std@@@4@$0A@@std@@@2@XZ ENDP ; std::_Tree<std::_Tmap_traits<int,Business::CTradeArea *,std::less<int>,std::allocator<std::pair<int const ,Business::CTradeArea *> >,0> >::_Root
_TEXT	ENDS
PUBLIC	?_Isnil@?$_Tree@V?$_Tmap_traits@HPAVCTradeSpot@Business@@U?$less@H@std@@V?$allocator@U?$pair@$$CBHPAVCTradeSpot@Business@@@std@@@4@$0A@@std@@@std@@KAAADPAU_Node@?$_Tree_nod@V?$_Tmap_traits@HPAVCTradeSpot@Business@@U?$less@H@std@@V?$allocator@U?$pair@$$CBHPAVCTradeSpot@Business@@@std@@@4@$0A@@std@@@2@@Z ; std::_Tree<std::_Tmap_traits<int,Business::CTradeSpot *,std::less<int>,std::allocator<std::pair<int const ,Business::CTradeSpot *> >,0> >::_Isnil
; Function compile flags: /Ogtpy
;	COMDAT ?_Isnil@?$_Tree@V?$_Tmap_traits@HPAVCTradeSpot@Business@@U?$less@H@std@@V?$allocator@U?$pair@$$CBHPAVCTradeSpot@Business@@@std@@@4@$0A@@std@@@std@@KAAADPAU_Node@?$_Tree_nod@V?$_Tmap_traits@HPAVCTradeSpot@Business@@U?$less@H@std@@V?$allocator@U?$pair@$$CBHPAVCTradeSpot@Business@@@std@@@4@$0A@@std@@@2@@Z
_TEXT	SEGMENT
__Pnode$ = 8						; size = 4
?_Isnil@?$_Tree@V?$_Tmap_traits@HPAVCTradeSpot@Business@@U?$less@H@std@@V?$allocator@U?$pair@$$CBHPAVCTradeSpot@Business@@@std@@@4@$0A@@std@@@std@@KAAADPAU_Node@?$_Tree_nod@V?$_Tmap_traits@HPAVCTradeSpot@Business@@U?$less@H@std@@V?$allocator@U?$pair@$$CBHPAVCTradeSpot@Business@@@std@@@4@$0A@@std@@@2@@Z PROC ; std::_Tree<std::_Tmap_traits<int,Business::CTradeSpot *,std::less<int>,std::allocator<std::pair<int const ,Business::CTradeSpot *> >,0> >::_Isnil, COMDAT

; 146  : 		return ((_Charref)(*_Pnode)._Isnil);

  00000	8b 44 24 04	 mov	 eax, DWORD PTR __Pnode$[esp-4]
  00004	83 c0 15	 add	 eax, 21			; 00000015H

; 147  : 		}

  00007	c3		 ret	 0
?_Isnil@?$_Tree@V?$_Tmap_traits@HPAVCTradeSpot@Business@@U?$less@H@std@@V?$allocator@U?$pair@$$CBHPAVCTradeSpot@Business@@@std@@@4@$0A@@std@@@std@@KAAADPAU_Node@?$_Tree_nod@V?$_Tmap_traits@HPAVCTradeSpot@Business@@U?$less@H@std@@V?$allocator@U?$pair@$$CBHPAVCTradeSpot@Business@@@std@@@4@$0A@@std@@@2@@Z ENDP ; std::_Tree<std::_Tmap_traits<int,Business::CTradeSpot *,std::less<int>,std::allocator<std::pair<int const ,Business::CTradeSpot *> >,0> >::_Isnil
_TEXT	ENDS
PUBLIC	?_Lmost@?$_Tree@V?$_Tmap_traits@HPAVCTradeSpot@Business@@U?$less@H@std@@V?$allocator@U?$pair@$$CBHPAVCTradeSpot@Business@@@std@@@4@$0A@@std@@@std@@IBEAAPAU_Node@?$_Tree_nod@V?$_Tmap_traits@HPAVCTradeSpot@Business@@U?$less@H@std@@V?$allocator@U?$pair@$$CBHPAVCTradeSpot@Business@@@std@@@4@$0A@@std@@@2@XZ ; std::_Tree<std::_Tmap_traits<int,Business::CTradeSpot *,std::less<int>,std::allocator<std::pair<int const ,Business::CTradeSpot *> >,0> >::_Lmost
; Function compile flags: /Ogtpy
;	COMDAT ?_Lmost@?$_Tree@V?$_Tmap_traits@HPAVCTradeSpot@Business@@U?$less@H@std@@V?$allocator@U?$pair@$$CBHPAVCTradeSpot@Business@@@std@@@4@$0A@@std@@@std@@IBEAAPAU_Node@?$_Tree_nod@V?$_Tmap_traits@HPAVCTradeSpot@Business@@U?$less@H@std@@V?$allocator@U?$pair@$$CBHPAVCTradeSpot@Business@@@std@@@4@$0A@@std@@@2@XZ
_TEXT	SEGMENT
?_Lmost@?$_Tree@V?$_Tmap_traits@HPAVCTradeSpot@Business@@U?$less@H@std@@V?$allocator@U?$pair@$$CBHPAVCTradeSpot@Business@@@std@@@4@$0A@@std@@@std@@IBEAAPAU_Node@?$_Tree_nod@V?$_Tmap_traits@HPAVCTradeSpot@Business@@U?$less@H@std@@V?$allocator@U?$pair@$$CBHPAVCTradeSpot@Business@@@std@@@4@$0A@@std@@@2@XZ PROC ; std::_Tree<std::_Tmap_traits<int,Business::CTradeSpot *,std::less<int>,std::allocator<std::pair<int const ,Business::CTradeSpot *> >,0> >::_Lmost, COMDAT
; _this$ = ecx

; 1187 : 		return (_Left(_Myhead));

  00000	8b 41 04	 mov	 eax, DWORD PTR [ecx+4]

; 1188 : 		}

  00003	c3		 ret	 0
?_Lmost@?$_Tree@V?$_Tmap_traits@HPAVCTradeSpot@Business@@U?$less@H@std@@V?$allocator@U?$pair@$$CBHPAVCTradeSpot@Business@@@std@@@4@$0A@@std@@@std@@IBEAAPAU_Node@?$_Tree_nod@V?$_Tmap_traits@HPAVCTradeSpot@Business@@U?$less@H@std@@V?$allocator@U?$pair@$$CBHPAVCTradeSpot@Business@@@std@@@4@$0A@@std@@@2@XZ ENDP ; std::_Tree<std::_Tmap_traits<int,Business::CTradeSpot *,std::less<int>,std::allocator<std::pair<int const ,Business::CTradeSpot *> >,0> >::_Lmost
_TEXT	ENDS
PUBLIC	?_Rmost@?$_Tree@V?$_Tmap_traits@HPAVCTradeSpot@Business@@U?$less@H@std@@V?$allocator@U?$pair@$$CBHPAVCTradeSpot@Business@@@std@@@4@$0A@@std@@@std@@IBEAAPAU_Node@?$_Tree_nod@V?$_Tmap_traits@HPAVCTradeSpot@Business@@U?$less@H@std@@V?$allocator@U?$pair@$$CBHPAVCTradeSpot@Business@@@std@@@4@$0A@@std@@@2@XZ ; std::_Tree<std::_Tmap_traits<int,Business::CTradeSpot *,std::less<int>,std::allocator<std::pair<int const ,Business::CTradeSpot *> >,0> >::_Rmost
; Function compile flags: /Ogtpy
;	COMDAT ?_Rmost@?$_Tree@V?$_Tmap_traits@HPAVCTradeSpot@Business@@U?$less@H@std@@V?$allocator@U?$pair@$$CBHPAVCTradeSpot@Business@@@std@@@4@$0A@@std@@@std@@IBEAAPAU_Node@?$_Tree_nod@V?$_Tmap_traits@HPAVCTradeSpot@Business@@U?$less@H@std@@V?$allocator@U?$pair@$$CBHPAVCTradeSpot@Business@@@std@@@4@$0A@@std@@@2@XZ
_TEXT	SEGMENT
