; Listing generated by Microsoft (R) Optimizing Compiler Version 14.00.50727.762 

	TITLE	D:\Project_P6\trunk\Server\GameServer\Server\GameServer.cpp
	.686P
	.XMM
	include listing.inc
	.model	flat

INCLUDELIB LIBCMT
INCLUDELIB OLDNAMES

PUBLIC	_WinMain@16
EXTRN	?InitApp@AppFrame@@YAHPAUHINSTANCE__@@HP6GIPAX@Z@Z:PROC ; AppFrame::InitApp
EXTRN	?GameThreadFunc@@YGIPAX@Z:PROC			; GameThreadFunc
; Function compile flags: /Ogtpy
; File d:\project_p6\trunk\server\gameserver\server\gameserver.cpp
;	COMDAT _WinMain@16
_TEXT	SEGMENT
_hInstance$ = 8						; size = 4
_hPrevInstance$ = 12					; size = 4
_lpCmdLine$ = 16					; size = 4
_nCmdShow$ = 20						; size = 4
_WinMain@16 PROC					; COMDAT

; 18   :     return AppFrame::InitApp(hInstance, nCmdShow, GameThreadFunc);

  00000	8b 44 24 10	 mov	 eax, DWORD PTR _nCmdShow$[esp-4]
  00004	8b 4c 24 04	 mov	 ecx, DWORD PTR _hInstance$[esp-4]
  00008	68 00 00 00 00	 push	 OFFSET ?GameThreadFunc@@YGIPAX@Z ; GameThreadFunc
  0000d	50		 push	 eax
  0000e	51		 push	 ecx
  0000f	e8 00 00 00 00	 call	 ?InitApp@AppFrame@@YAHPAUHINSTANCE__@@HP6GIPAX@Z@Z ; AppFrame::InitApp
  00014	83 c4 0c	 add	 esp, 12			; 0000000cH

; 19   : }

  00017	c2 10 00	 ret	 16			; 00000010H
_WinMain@16 ENDP
_TEXT	ENDS
PUBLIC	??0id@locale@std@@QAE@I@Z			; std::locale::id::id
; Function compile flags: /Ogtpy
; File d:\program files\microsoft visual studio 8\vc\include\xlocale
;	COMDAT ??0id@locale@std@@QAE@I@Z
_TEXT	SEGMENT
__Val$ = 8						; size = 4
??0id@locale@std@@QAE@I@Z PROC				; std::locale::id::id, COMDAT
; _this$ = ecx

; 73   : 			{	// construct with specified stamp value

  00000	8b c1		 mov	 eax, ecx
  00002	8b 4c 24 04	 mov	 ecx, DWORD PTR __Val$[esp-4]
  00006	89 08		 mov	 DWORD PTR [eax], ecx

; 74   : 			}

  00008	c2 04 00	 ret	 4
??0id@locale@std@@QAE@I@Z ENDP				; std::locale::id::id
_TEXT	ENDS
PUBLIC	?id@?$codecvt@DDH@std@@2V0locale@2@A		; std::codecvt<char,char,int>::id
;	COMDAT ?id@?$codecvt@DDH@std@@2V0locale@2@A
_BSS	SEGMENT
?id@?$codecvt@DDH@std@@2V0locale@2@A DD 01H DUP (?)	; std::codecvt<char,char,int>::id
_BSS	ENDS
END
